
digiTOS-COMOD-SinBoard-CODE.elf:     file format elf32-littlearm

Sections:
Idx Name          Size      VMA       LMA       File off  Algn
  0 .isr_vector   0000010c  08000000  08000000  00010000  2**0
                  CONTENTS, ALLOC, LOAD, READONLY, DATA
  1 .text         00006364  0800010c  0800010c  0001010c  2**2
                  CONTENTS, ALLOC, LOAD, READONLY, CODE
  2 .rodata       00000484  08006470  08006470  00016470  2**0
                  CONTENTS, ALLOC, LOAD, READONLY, DATA
  3 .init_array   00000004  080068f4  080068f4  000168f4  2**2
                  CONTENTS, ALLOC, LOAD, DATA
  4 .fini_array   00000004  080068f8  080068f8  000168f8  2**2
                  CONTENTS, ALLOC, LOAD, DATA
  5 .data         000003a8  20000000  080068fc  00020000  2**2
                  CONTENTS, ALLOC, LOAD, DATA
  6 .bss          0000047c  200003a8  08006ca4  000203a8  2**3
                  ALLOC
  7 ._user_heap_stack 00000600  20000824  08006ca4  00020824  2**0
                  ALLOC
  8 .ARM.attributes 00000029  00000000  00000000  000203a8  2**0
                  CONTENTS, READONLY
  9 .debug_info   0002dfd8  00000000  00000000  000203d1  2**0
                  CONTENTS, READONLY, DEBUGGING
 10 .debug_abbrev 00005ba6  00000000  00000000  0004e3a9  2**0
                  CONTENTS, READONLY, DEBUGGING
 11 .debug_loc    00008e6b  00000000  00000000  00053f4f  2**0
                  CONTENTS, READONLY, DEBUGGING
 12 .debug_aranges 00001090  00000000  00000000  0005cdc0  2**3
                  CONTENTS, READONLY, DEBUGGING
 13 .debug_ranges 00001470  00000000  00000000  0005de50  2**3
                  CONTENTS, READONLY, DEBUGGING
 14 .debug_line   0000c3f0  00000000  00000000  0005f2c0  2**0
                  CONTENTS, READONLY, DEBUGGING
 15 .debug_str    00005473  00000000  00000000  0006b6b0  2**0
                  CONTENTS, READONLY, DEBUGGING
 16 .comment      0000007c  00000000  00000000  00070b23  2**0
                  CONTENTS, READONLY
 17 .debug_frame  00003340  00000000  00000000  00070ba0  2**2
                  CONTENTS, READONLY, DEBUGGING

Disassembly of section .text:

0800010c <__do_global_dtors_aux>:
 800010c:	b510      	push	{r4, lr}
 800010e:	4c05      	ldr	r4, [pc, #20]	; (8000124 <__do_global_dtors_aux+0x18>)
 8000110:	7823      	ldrb	r3, [r4, #0]
 8000112:	b933      	cbnz	r3, 8000122 <__do_global_dtors_aux+0x16>
 8000114:	4b04      	ldr	r3, [pc, #16]	; (8000128 <__do_global_dtors_aux+0x1c>)
 8000116:	b113      	cbz	r3, 800011e <__do_global_dtors_aux+0x12>
 8000118:	4804      	ldr	r0, [pc, #16]	; (800012c <__do_global_dtors_aux+0x20>)
 800011a:	f3af 8000 	nop.w
 800011e:	2301      	movs	r3, #1
 8000120:	7023      	strb	r3, [r4, #0]
 8000122:	bd10      	pop	{r4, pc}
 8000124:	200003a8 	.word	0x200003a8
 8000128:	00000000 	.word	0x00000000
 800012c:	08006458 	.word	0x08006458

08000130 <frame_dummy>:
 8000130:	b508      	push	{r3, lr}
 8000132:	4b03      	ldr	r3, [pc, #12]	; (8000140 <frame_dummy+0x10>)
 8000134:	b11b      	cbz	r3, 800013e <frame_dummy+0xe>
 8000136:	4903      	ldr	r1, [pc, #12]	; (8000144 <frame_dummy+0x14>)
 8000138:	4803      	ldr	r0, [pc, #12]	; (8000148 <frame_dummy+0x18>)
 800013a:	f3af 8000 	nop.w
 800013e:	bd08      	pop	{r3, pc}
 8000140:	00000000 	.word	0x00000000
 8000144:	200003ac 	.word	0x200003ac
 8000148:	08006458 	.word	0x08006458

0800014c <__aeabi_llsr>:
 800014c:	40d0      	lsrs	r0, r2
 800014e:	1c0b      	adds	r3, r1, #0
 8000150:	40d1      	lsrs	r1, r2
 8000152:	469c      	mov	ip, r3
 8000154:	3a20      	subs	r2, #32
 8000156:	40d3      	lsrs	r3, r2
 8000158:	4318      	orrs	r0, r3
 800015a:	4252      	negs	r2, r2
 800015c:	4663      	mov	r3, ip
 800015e:	4093      	lsls	r3, r2
 8000160:	4318      	orrs	r0, r3
 8000162:	4770      	bx	lr

08000164 <__aeabi_frsub>:
 8000164:	f080 4000 	eor.w	r0, r0, #2147483648	; 0x80000000
 8000168:	e002      	b.n	8000170 <__addsf3>
 800016a:	bf00      	nop

0800016c <__aeabi_fsub>:
 800016c:	f081 4100 	eor.w	r1, r1, #2147483648	; 0x80000000

08000170 <__addsf3>:
 8000170:	0042      	lsls	r2, r0, #1
 8000172:	bf1f      	itttt	ne
 8000174:	ea5f 0341 	movsne.w	r3, r1, lsl #1
 8000178:	ea92 0f03 	teqne	r2, r3
 800017c:	ea7f 6c22 	mvnsne.w	ip, r2, asr #24
 8000180:	ea7f 6c23 	mvnsne.w	ip, r3, asr #24
 8000184:	d06a      	beq.n	800025c <__addsf3+0xec>
 8000186:	ea4f 6212 	mov.w	r2, r2, lsr #24
 800018a:	ebd2 6313 	rsbs	r3, r2, r3, lsr #24
 800018e:	bfc1      	itttt	gt
 8000190:	18d2      	addgt	r2, r2, r3
 8000192:	4041      	eorgt	r1, r0
 8000194:	4048      	eorgt	r0, r1
 8000196:	4041      	eorgt	r1, r0
 8000198:	bfb8      	it	lt
 800019a:	425b      	neglt	r3, r3
 800019c:	2b19      	cmp	r3, #25
 800019e:	bf88      	it	hi
 80001a0:	4770      	bxhi	lr
 80001a2:	f010 4f00 	tst.w	r0, #2147483648	; 0x80000000
 80001a6:	f440 0000 	orr.w	r0, r0, #8388608	; 0x800000
 80001aa:	f020 407f 	bic.w	r0, r0, #4278190080	; 0xff000000
 80001ae:	bf18      	it	ne
 80001b0:	4240      	negne	r0, r0
 80001b2:	f011 4f00 	tst.w	r1, #2147483648	; 0x80000000
 80001b6:	f441 0100 	orr.w	r1, r1, #8388608	; 0x800000
 80001ba:	f021 417f 	bic.w	r1, r1, #4278190080	; 0xff000000
 80001be:	bf18      	it	ne
 80001c0:	4249      	negne	r1, r1
 80001c2:	ea92 0f03 	teq	r2, r3
 80001c6:	d03f      	beq.n	8000248 <__addsf3+0xd8>
 80001c8:	f1a2 0201 	sub.w	r2, r2, #1
 80001cc:	fa41 fc03 	asr.w	ip, r1, r3
 80001d0:	eb10 000c 	adds.w	r0, r0, ip
 80001d4:	f1c3 0320 	rsb	r3, r3, #32
 80001d8:	fa01 f103 	lsl.w	r1, r1, r3
 80001dc:	f000 4300 	and.w	r3, r0, #2147483648	; 0x80000000
 80001e0:	d502      	bpl.n	80001e8 <__addsf3+0x78>
 80001e2:	4249      	negs	r1, r1
 80001e4:	eb60 0040 	sbc.w	r0, r0, r0, lsl #1
 80001e8:	f5b0 0f00 	cmp.w	r0, #8388608	; 0x800000
 80001ec:	d313      	bcc.n	8000216 <__addsf3+0xa6>
 80001ee:	f1b0 7f80 	cmp.w	r0, #16777216	; 0x1000000
 80001f2:	d306      	bcc.n	8000202 <__addsf3+0x92>
 80001f4:	0840      	lsrs	r0, r0, #1
 80001f6:	ea4f 0131 	mov.w	r1, r1, rrx
 80001fa:	f102 0201 	add.w	r2, r2, #1
 80001fe:	2afe      	cmp	r2, #254	; 0xfe
 8000200:	d251      	bcs.n	80002a6 <__addsf3+0x136>
 8000202:	f1b1 4f00 	cmp.w	r1, #2147483648	; 0x80000000
 8000206:	eb40 50c2 	adc.w	r0, r0, r2, lsl #23
 800020a:	bf08      	it	eq
 800020c:	f020 0001 	biceq.w	r0, r0, #1
 8000210:	ea40 0003 	orr.w	r0, r0, r3
 8000214:	4770      	bx	lr
 8000216:	0049      	lsls	r1, r1, #1
 8000218:	eb40 0000 	adc.w	r0, r0, r0
 800021c:	f410 0f00 	tst.w	r0, #8388608	; 0x800000
 8000220:	f1a2 0201 	sub.w	r2, r2, #1
 8000224:	d1ed      	bne.n	8000202 <__addsf3+0x92>
 8000226:	fab0 fc80 	clz	ip, r0
 800022a:	f1ac 0c08 	sub.w	ip, ip, #8
 800022e:	ebb2 020c 	subs.w	r2, r2, ip
 8000232:	fa00 f00c 	lsl.w	r0, r0, ip
 8000236:	bfaa      	itet	ge
 8000238:	eb00 50c2 	addge.w	r0, r0, r2, lsl #23
 800023c:	4252      	neglt	r2, r2
 800023e:	4318      	orrge	r0, r3
 8000240:	bfbc      	itt	lt
 8000242:	40d0      	lsrlt	r0, r2
 8000244:	4318      	orrlt	r0, r3
 8000246:	4770      	bx	lr
 8000248:	f092 0f00 	teq	r2, #0
 800024c:	f481 0100 	eor.w	r1, r1, #8388608	; 0x800000
 8000250:	bf06      	itte	eq
 8000252:	f480 0000 	eoreq.w	r0, r0, #8388608	; 0x800000
 8000256:	3201      	addeq	r2, #1
 8000258:	3b01      	subne	r3, #1
 800025a:	e7b5      	b.n	80001c8 <__addsf3+0x58>
 800025c:	ea4f 0341 	mov.w	r3, r1, lsl #1
 8000260:	ea7f 6c22 	mvns.w	ip, r2, asr #24
 8000264:	bf18      	it	ne
 8000266:	ea7f 6c23 	mvnsne.w	ip, r3, asr #24
 800026a:	d021      	beq.n	80002b0 <__addsf3+0x140>
 800026c:	ea92 0f03 	teq	r2, r3
 8000270:	d004      	beq.n	800027c <__addsf3+0x10c>
 8000272:	f092 0f00 	teq	r2, #0
 8000276:	bf08      	it	eq
 8000278:	4608      	moveq	r0, r1
 800027a:	4770      	bx	lr
 800027c:	ea90 0f01 	teq	r0, r1
 8000280:	bf1c      	itt	ne
 8000282:	2000      	movne	r0, #0
 8000284:	4770      	bxne	lr
 8000286:	f012 4f7f 	tst.w	r2, #4278190080	; 0xff000000
 800028a:	d104      	bne.n	8000296 <__addsf3+0x126>
 800028c:	0040      	lsls	r0, r0, #1
 800028e:	bf28      	it	cs
 8000290:	f040 4000 	orrcs.w	r0, r0, #2147483648	; 0x80000000
 8000294:	4770      	bx	lr
 8000296:	f112 7200 	adds.w	r2, r2, #33554432	; 0x2000000
 800029a:	bf3c      	itt	cc
 800029c:	f500 0000 	addcc.w	r0, r0, #8388608	; 0x800000
 80002a0:	4770      	bxcc	lr
 80002a2:	f000 4300 	and.w	r3, r0, #2147483648	; 0x80000000
 80002a6:	f043 40fe 	orr.w	r0, r3, #2130706432	; 0x7f000000
 80002aa:	f440 0000 	orr.w	r0, r0, #8388608	; 0x800000
 80002ae:	4770      	bx	lr
 80002b0:	ea7f 6222 	mvns.w	r2, r2, asr #24
 80002b4:	bf16      	itet	ne
 80002b6:	4608      	movne	r0, r1
 80002b8:	ea7f 6323 	mvnseq.w	r3, r3, asr #24
 80002bc:	4601      	movne	r1, r0
 80002be:	0242      	lsls	r2, r0, #9
 80002c0:	bf06      	itte	eq
 80002c2:	ea5f 2341 	movseq.w	r3, r1, lsl #9
 80002c6:	ea90 0f01 	teqeq	r0, r1
 80002ca:	f440 0080 	orrne.w	r0, r0, #4194304	; 0x400000
 80002ce:	4770      	bx	lr

080002d0 <__aeabi_ui2f>:
 80002d0:	f04f 0300 	mov.w	r3, #0
 80002d4:	e004      	b.n	80002e0 <__aeabi_i2f+0x8>
 80002d6:	bf00      	nop

080002d8 <__aeabi_i2f>:
 80002d8:	f010 4300 	ands.w	r3, r0, #2147483648	; 0x80000000
 80002dc:	bf48      	it	mi
 80002de:	4240      	negmi	r0, r0
 80002e0:	ea5f 0c00 	movs.w	ip, r0
 80002e4:	bf08      	it	eq
 80002e6:	4770      	bxeq	lr
 80002e8:	f043 4396 	orr.w	r3, r3, #1258291200	; 0x4b000000
 80002ec:	4601      	mov	r1, r0
 80002ee:	f04f 0000 	mov.w	r0, #0
 80002f2:	e01c      	b.n	800032e <__aeabi_l2f+0x2a>

080002f4 <__aeabi_ul2f>:
 80002f4:	ea50 0201 	orrs.w	r2, r0, r1
 80002f8:	bf08      	it	eq
 80002fa:	4770      	bxeq	lr
 80002fc:	f04f 0300 	mov.w	r3, #0
 8000300:	e00a      	b.n	8000318 <__aeabi_l2f+0x14>
 8000302:	bf00      	nop

08000304 <__aeabi_l2f>:
 8000304:	ea50 0201 	orrs.w	r2, r0, r1
 8000308:	bf08      	it	eq
 800030a:	4770      	bxeq	lr
 800030c:	f011 4300 	ands.w	r3, r1, #2147483648	; 0x80000000
 8000310:	d502      	bpl.n	8000318 <__aeabi_l2f+0x14>
 8000312:	4240      	negs	r0, r0
 8000314:	eb61 0141 	sbc.w	r1, r1, r1, lsl #1
 8000318:	ea5f 0c01 	movs.w	ip, r1
 800031c:	bf02      	ittt	eq
 800031e:	4684      	moveq	ip, r0
 8000320:	4601      	moveq	r1, r0
 8000322:	2000      	moveq	r0, #0
 8000324:	f043 43b6 	orr.w	r3, r3, #1526726656	; 0x5b000000
 8000328:	bf08      	it	eq
 800032a:	f1a3 5380 	subeq.w	r3, r3, #268435456	; 0x10000000
 800032e:	f5a3 0300 	sub.w	r3, r3, #8388608	; 0x800000
 8000332:	fabc f28c 	clz	r2, ip
 8000336:	3a08      	subs	r2, #8
 8000338:	eba3 53c2 	sub.w	r3, r3, r2, lsl #23
 800033c:	db10      	blt.n	8000360 <__aeabi_l2f+0x5c>
 800033e:	fa01 fc02 	lsl.w	ip, r1, r2
 8000342:	4463      	add	r3, ip
 8000344:	fa00 fc02 	lsl.w	ip, r0, r2
 8000348:	f1c2 0220 	rsb	r2, r2, #32
 800034c:	f1bc 4f00 	cmp.w	ip, #2147483648	; 0x80000000
 8000350:	fa20 f202 	lsr.w	r2, r0, r2
 8000354:	eb43 0002 	adc.w	r0, r3, r2
 8000358:	bf08      	it	eq
 800035a:	f020 0001 	biceq.w	r0, r0, #1
 800035e:	4770      	bx	lr
 8000360:	f102 0220 	add.w	r2, r2, #32
 8000364:	fa01 fc02 	lsl.w	ip, r1, r2
 8000368:	f1c2 0220 	rsb	r2, r2, #32
 800036c:	ea50 004c 	orrs.w	r0, r0, ip, lsl #1
 8000370:	fa21 f202 	lsr.w	r2, r1, r2
 8000374:	eb43 0002 	adc.w	r0, r3, r2
 8000378:	bf08      	it	eq
 800037a:	ea20 70dc 	biceq.w	r0, r0, ip, lsr #31
 800037e:	4770      	bx	lr

08000380 <__aeabi_fmul>:
 8000380:	f04f 0cff 	mov.w	ip, #255	; 0xff
 8000384:	ea1c 52d0 	ands.w	r2, ip, r0, lsr #23
 8000388:	bf1e      	ittt	ne
 800038a:	ea1c 53d1 	andsne.w	r3, ip, r1, lsr #23
 800038e:	ea92 0f0c 	teqne	r2, ip
 8000392:	ea93 0f0c 	teqne	r3, ip
 8000396:	d06f      	beq.n	8000478 <__aeabi_fmul+0xf8>
 8000398:	441a      	add	r2, r3
 800039a:	ea80 0c01 	eor.w	ip, r0, r1
 800039e:	0240      	lsls	r0, r0, #9
 80003a0:	bf18      	it	ne
 80003a2:	ea5f 2141 	movsne.w	r1, r1, lsl #9
 80003a6:	d01e      	beq.n	80003e6 <__aeabi_fmul+0x66>
 80003a8:	f04f 6300 	mov.w	r3, #134217728	; 0x8000000
 80003ac:	ea43 1050 	orr.w	r0, r3, r0, lsr #5
 80003b0:	ea43 1151 	orr.w	r1, r3, r1, lsr #5
 80003b4:	fba0 3101 	umull	r3, r1, r0, r1
 80003b8:	f00c 4000 	and.w	r0, ip, #2147483648	; 0x80000000
 80003bc:	f5b1 0f00 	cmp.w	r1, #8388608	; 0x800000
 80003c0:	bf3e      	ittt	cc
 80003c2:	0049      	lslcc	r1, r1, #1
 80003c4:	ea41 71d3 	orrcc.w	r1, r1, r3, lsr #31
 80003c8:	005b      	lslcc	r3, r3, #1
 80003ca:	ea40 0001 	orr.w	r0, r0, r1
 80003ce:	f162 027f 	sbc.w	r2, r2, #127	; 0x7f
 80003d2:	2afd      	cmp	r2, #253	; 0xfd
 80003d4:	d81d      	bhi.n	8000412 <__aeabi_fmul+0x92>
 80003d6:	f1b3 4f00 	cmp.w	r3, #2147483648	; 0x80000000
 80003da:	eb40 50c2 	adc.w	r0, r0, r2, lsl #23
 80003de:	bf08      	it	eq
 80003e0:	f020 0001 	biceq.w	r0, r0, #1
 80003e4:	4770      	bx	lr
 80003e6:	f090 0f00 	teq	r0, #0
 80003ea:	f00c 4c00 	and.w	ip, ip, #2147483648	; 0x80000000
 80003ee:	bf08      	it	eq
 80003f0:	0249      	lsleq	r1, r1, #9
 80003f2:	ea4c 2050 	orr.w	r0, ip, r0, lsr #9
 80003f6:	ea40 2051 	orr.w	r0, r0, r1, lsr #9
 80003fa:	3a7f      	subs	r2, #127	; 0x7f
 80003fc:	bfc2      	ittt	gt
 80003fe:	f1d2 03ff 	rsbsgt	r3, r2, #255	; 0xff
 8000402:	ea40 50c2 	orrgt.w	r0, r0, r2, lsl #23
 8000406:	4770      	bxgt	lr
 8000408:	f440 0000 	orr.w	r0, r0, #8388608	; 0x800000
 800040c:	f04f 0300 	mov.w	r3, #0
 8000410:	3a01      	subs	r2, #1
 8000412:	dc5d      	bgt.n	80004d0 <__aeabi_fmul+0x150>
 8000414:	f112 0f19 	cmn.w	r2, #25
 8000418:	bfdc      	itt	le
 800041a:	f000 4000 	andle.w	r0, r0, #2147483648	; 0x80000000
 800041e:	4770      	bxle	lr
 8000420:	f1c2 0200 	rsb	r2, r2, #0
 8000424:	0041      	lsls	r1, r0, #1
 8000426:	fa21 f102 	lsr.w	r1, r1, r2
 800042a:	f1c2 0220 	rsb	r2, r2, #32
 800042e:	fa00 fc02 	lsl.w	ip, r0, r2
 8000432:	ea5f 0031 	movs.w	r0, r1, rrx
 8000436:	f140 0000 	adc.w	r0, r0, #0
 800043a:	ea53 034c 	orrs.w	r3, r3, ip, lsl #1
 800043e:	bf08      	it	eq
 8000440:	ea20 70dc 	biceq.w	r0, r0, ip, lsr #31
 8000444:	4770      	bx	lr
 8000446:	f092 0f00 	teq	r2, #0
 800044a:	f000 4c00 	and.w	ip, r0, #2147483648	; 0x80000000
 800044e:	bf02      	ittt	eq
 8000450:	0040      	lsleq	r0, r0, #1
 8000452:	f410 0f00 	tsteq.w	r0, #8388608	; 0x800000
 8000456:	3a01      	subeq	r2, #1
 8000458:	d0f9      	beq.n	800044e <__aeabi_fmul+0xce>
 800045a:	ea40 000c 	orr.w	r0, r0, ip
 800045e:	f093 0f00 	teq	r3, #0
 8000462:	f001 4c00 	and.w	ip, r1, #2147483648	; 0x80000000
 8000466:	bf02      	ittt	eq
 8000468:	0049      	lsleq	r1, r1, #1
 800046a:	f411 0f00 	tsteq.w	r1, #8388608	; 0x800000
 800046e:	3b01      	subeq	r3, #1
 8000470:	d0f9      	beq.n	8000466 <__aeabi_fmul+0xe6>
 8000472:	ea41 010c 	orr.w	r1, r1, ip
 8000476:	e78f      	b.n	8000398 <__aeabi_fmul+0x18>
 8000478:	ea0c 53d1 	and.w	r3, ip, r1, lsr #23
 800047c:	ea92 0f0c 	teq	r2, ip
 8000480:	bf18      	it	ne
 8000482:	ea93 0f0c 	teqne	r3, ip
 8000486:	d00a      	beq.n	800049e <__aeabi_fmul+0x11e>
 8000488:	f030 4c00 	bics.w	ip, r0, #2147483648	; 0x80000000
 800048c:	bf18      	it	ne
 800048e:	f031 4c00 	bicsne.w	ip, r1, #2147483648	; 0x80000000
 8000492:	d1d8      	bne.n	8000446 <__aeabi_fmul+0xc6>
 8000494:	ea80 0001 	eor.w	r0, r0, r1
 8000498:	f000 4000 	and.w	r0, r0, #2147483648	; 0x80000000
 800049c:	4770      	bx	lr
 800049e:	f090 0f00 	teq	r0, #0
 80004a2:	bf17      	itett	ne
 80004a4:	f090 4f00 	teqne	r0, #2147483648	; 0x80000000
 80004a8:	4608      	moveq	r0, r1
 80004aa:	f091 0f00 	teqne	r1, #0
 80004ae:	f091 4f00 	teqne	r1, #2147483648	; 0x80000000
 80004b2:	d014      	beq.n	80004de <__aeabi_fmul+0x15e>
 80004b4:	ea92 0f0c 	teq	r2, ip
 80004b8:	d101      	bne.n	80004be <__aeabi_fmul+0x13e>
 80004ba:	0242      	lsls	r2, r0, #9
 80004bc:	d10f      	bne.n	80004de <__aeabi_fmul+0x15e>
 80004be:	ea93 0f0c 	teq	r3, ip
 80004c2:	d103      	bne.n	80004cc <__aeabi_fmul+0x14c>
 80004c4:	024b      	lsls	r3, r1, #9
 80004c6:	bf18      	it	ne
 80004c8:	4608      	movne	r0, r1
 80004ca:	d108      	bne.n	80004de <__aeabi_fmul+0x15e>
 80004cc:	ea80 0001 	eor.w	r0, r0, r1
 80004d0:	f000 4000 	and.w	r0, r0, #2147483648	; 0x80000000
 80004d4:	f040 40fe 	orr.w	r0, r0, #2130706432	; 0x7f000000
 80004d8:	f440 0000 	orr.w	r0, r0, #8388608	; 0x800000
 80004dc:	4770      	bx	lr
 80004de:	f040 40fe 	orr.w	r0, r0, #2130706432	; 0x7f000000
 80004e2:	f440 0040 	orr.w	r0, r0, #12582912	; 0xc00000
 80004e6:	4770      	bx	lr

080004e8 <__aeabi_fdiv>:
 80004e8:	f04f 0cff 	mov.w	ip, #255	; 0xff
 80004ec:	ea1c 52d0 	ands.w	r2, ip, r0, lsr #23
 80004f0:	bf1e      	ittt	ne
 80004f2:	ea1c 53d1 	andsne.w	r3, ip, r1, lsr #23
 80004f6:	ea92 0f0c 	teqne	r2, ip
 80004fa:	ea93 0f0c 	teqne	r3, ip
 80004fe:	d069      	beq.n	80005d4 <__aeabi_fdiv+0xec>
 8000500:	eba2 0203 	sub.w	r2, r2, r3
 8000504:	ea80 0c01 	eor.w	ip, r0, r1
 8000508:	0249      	lsls	r1, r1, #9
 800050a:	ea4f 2040 	mov.w	r0, r0, lsl #9
 800050e:	d037      	beq.n	8000580 <__aeabi_fdiv+0x98>
 8000510:	f04f 5380 	mov.w	r3, #268435456	; 0x10000000
 8000514:	ea43 1111 	orr.w	r1, r3, r1, lsr #4
 8000518:	ea43 1310 	orr.w	r3, r3, r0, lsr #4
 800051c:	f00c 4000 	and.w	r0, ip, #2147483648	; 0x80000000
 8000520:	428b      	cmp	r3, r1
 8000522:	bf38      	it	cc
 8000524:	005b      	lslcc	r3, r3, #1
 8000526:	f142 027d 	adc.w	r2, r2, #125	; 0x7d
 800052a:	f44f 0c00 	mov.w	ip, #8388608	; 0x800000
 800052e:	428b      	cmp	r3, r1
 8000530:	bf24      	itt	cs
 8000532:	1a5b      	subcs	r3, r3, r1
 8000534:	ea40 000c 	orrcs.w	r0, r0, ip
 8000538:	ebb3 0f51 	cmp.w	r3, r1, lsr #1
 800053c:	bf24      	itt	cs
 800053e:	eba3 0351 	subcs.w	r3, r3, r1, lsr #1
 8000542:	ea40 005c 	orrcs.w	r0, r0, ip, lsr #1
 8000546:	ebb3 0f91 	cmp.w	r3, r1, lsr #2
 800054a:	bf24      	itt	cs
 800054c:	eba3 0391 	subcs.w	r3, r3, r1, lsr #2
 8000550:	ea40 009c 	orrcs.w	r0, r0, ip, lsr #2
 8000554:	ebb3 0fd1 	cmp.w	r3, r1, lsr #3
 8000558:	bf24      	itt	cs
 800055a:	eba3 03d1 	subcs.w	r3, r3, r1, lsr #3
 800055e:	ea40 00dc 	orrcs.w	r0, r0, ip, lsr #3
 8000562:	011b      	lsls	r3, r3, #4
 8000564:	bf18      	it	ne
 8000566:	ea5f 1c1c 	movsne.w	ip, ip, lsr #4
 800056a:	d1e0      	bne.n	800052e <__aeabi_fdiv+0x46>
 800056c:	2afd      	cmp	r2, #253	; 0xfd
 800056e:	f63f af50 	bhi.w	8000412 <__aeabi_fmul+0x92>
 8000572:	428b      	cmp	r3, r1
 8000574:	eb40 50c2 	adc.w	r0, r0, r2, lsl #23
 8000578:	bf08      	it	eq
 800057a:	f020 0001 	biceq.w	r0, r0, #1
 800057e:	4770      	bx	lr
 8000580:	f00c 4c00 	and.w	ip, ip, #2147483648	; 0x80000000
 8000584:	ea4c 2050 	orr.w	r0, ip, r0, lsr #9
 8000588:	327f      	adds	r2, #127	; 0x7f
 800058a:	bfc2      	ittt	gt
 800058c:	f1d2 03ff 	rsbsgt	r3, r2, #255	; 0xff
 8000590:	ea40 50c2 	orrgt.w	r0, r0, r2, lsl #23
 8000594:	4770      	bxgt	lr
 8000596:	f440 0000 	orr.w	r0, r0, #8388608	; 0x800000
 800059a:	f04f 0300 	mov.w	r3, #0
 800059e:	3a01      	subs	r2, #1
 80005a0:	e737      	b.n	8000412 <__aeabi_fmul+0x92>
 80005a2:	f092 0f00 	teq	r2, #0
 80005a6:	f000 4c00 	and.w	ip, r0, #2147483648	; 0x80000000
 80005aa:	bf02      	ittt	eq
 80005ac:	0040      	lsleq	r0, r0, #1
 80005ae:	f410 0f00 	tsteq.w	r0, #8388608	; 0x800000
 80005b2:	3a01      	subeq	r2, #1
 80005b4:	d0f9      	beq.n	80005aa <__aeabi_fdiv+0xc2>
 80005b6:	ea40 000c 	orr.w	r0, r0, ip
 80005ba:	f093 0f00 	teq	r3, #0
 80005be:	f001 4c00 	and.w	ip, r1, #2147483648	; 0x80000000
 80005c2:	bf02      	ittt	eq
 80005c4:	0049      	lsleq	r1, r1, #1
 80005c6:	f411 0f00 	tsteq.w	r1, #8388608	; 0x800000
 80005ca:	3b01      	subeq	r3, #1
 80005cc:	d0f9      	beq.n	80005c2 <__aeabi_fdiv+0xda>
 80005ce:	ea41 010c 	orr.w	r1, r1, ip
 80005d2:	e795      	b.n	8000500 <__aeabi_fdiv+0x18>
 80005d4:	ea0c 53d1 	and.w	r3, ip, r1, lsr #23
 80005d8:	ea92 0f0c 	teq	r2, ip
 80005dc:	d108      	bne.n	80005f0 <__aeabi_fdiv+0x108>
 80005de:	0242      	lsls	r2, r0, #9
 80005e0:	f47f af7d 	bne.w	80004de <__aeabi_fmul+0x15e>
 80005e4:	ea93 0f0c 	teq	r3, ip
 80005e8:	f47f af70 	bne.w	80004cc <__aeabi_fmul+0x14c>
 80005ec:	4608      	mov	r0, r1
 80005ee:	e776      	b.n	80004de <__aeabi_fmul+0x15e>
 80005f0:	ea93 0f0c 	teq	r3, ip
 80005f4:	d104      	bne.n	8000600 <__aeabi_fdiv+0x118>
 80005f6:	024b      	lsls	r3, r1, #9
 80005f8:	f43f af4c 	beq.w	8000494 <__aeabi_fmul+0x114>
 80005fc:	4608      	mov	r0, r1
 80005fe:	e76e      	b.n	80004de <__aeabi_fmul+0x15e>
 8000600:	f030 4c00 	bics.w	ip, r0, #2147483648	; 0x80000000
 8000604:	bf18      	it	ne
 8000606:	f031 4c00 	bicsne.w	ip, r1, #2147483648	; 0x80000000
 800060a:	d1ca      	bne.n	80005a2 <__aeabi_fdiv+0xba>
 800060c:	f030 4200 	bics.w	r2, r0, #2147483648	; 0x80000000
 8000610:	f47f af5c 	bne.w	80004cc <__aeabi_fmul+0x14c>
 8000614:	f031 4300 	bics.w	r3, r1, #2147483648	; 0x80000000
 8000618:	f47f af3c 	bne.w	8000494 <__aeabi_fmul+0x114>
 800061c:	e75f      	b.n	80004de <__aeabi_fmul+0x15e>
 800061e:	bf00      	nop

08000620 <__gesf2>:
 8000620:	f04f 3cff 	mov.w	ip, #4294967295
 8000624:	e006      	b.n	8000634 <__cmpsf2+0x4>
 8000626:	bf00      	nop

08000628 <__lesf2>:
 8000628:	f04f 0c01 	mov.w	ip, #1
 800062c:	e002      	b.n	8000634 <__cmpsf2+0x4>
 800062e:	bf00      	nop

08000630 <__cmpsf2>:
 8000630:	f04f 0c01 	mov.w	ip, #1
 8000634:	f84d cd04 	str.w	ip, [sp, #-4]!
 8000638:	ea4f 0240 	mov.w	r2, r0, lsl #1
 800063c:	ea4f 0341 	mov.w	r3, r1, lsl #1
 8000640:	ea7f 6c22 	mvns.w	ip, r2, asr #24
 8000644:	bf18      	it	ne
 8000646:	ea7f 6c23 	mvnsne.w	ip, r3, asr #24
 800064a:	d011      	beq.n	8000670 <__cmpsf2+0x40>
 800064c:	b001      	add	sp, #4
 800064e:	ea52 0c53 	orrs.w	ip, r2, r3, lsr #1
 8000652:	bf18      	it	ne
 8000654:	ea90 0f01 	teqne	r0, r1
 8000658:	bf58      	it	pl
 800065a:	ebb2 0003 	subspl.w	r0, r2, r3
 800065e:	bf88      	it	hi
 8000660:	17c8      	asrhi	r0, r1, #31
 8000662:	bf38      	it	cc
 8000664:	ea6f 70e1 	mvncc.w	r0, r1, asr #31
 8000668:	bf18      	it	ne
 800066a:	f040 0001 	orrne.w	r0, r0, #1
 800066e:	4770      	bx	lr
 8000670:	ea7f 6c22 	mvns.w	ip, r2, asr #24
 8000674:	d102      	bne.n	800067c <__cmpsf2+0x4c>
 8000676:	ea5f 2c40 	movs.w	ip, r0, lsl #9
 800067a:	d105      	bne.n	8000688 <__cmpsf2+0x58>
 800067c:	ea7f 6c23 	mvns.w	ip, r3, asr #24
 8000680:	d1e4      	bne.n	800064c <__cmpsf2+0x1c>
 8000682:	ea5f 2c41 	movs.w	ip, r1, lsl #9
 8000686:	d0e1      	beq.n	800064c <__cmpsf2+0x1c>
 8000688:	f85d 0b04 	ldr.w	r0, [sp], #4
 800068c:	4770      	bx	lr
 800068e:	bf00      	nop

08000690 <__aeabi_cfrcmple>:
 8000690:	4684      	mov	ip, r0
 8000692:	4608      	mov	r0, r1
 8000694:	4661      	mov	r1, ip
 8000696:	e7ff      	b.n	8000698 <__aeabi_cfcmpeq>

08000698 <__aeabi_cfcmpeq>:
 8000698:	b50f      	push	{r0, r1, r2, r3, lr}
 800069a:	f7ff ffc9 	bl	8000630 <__cmpsf2>
 800069e:	2800      	cmp	r0, #0
 80006a0:	bf48      	it	mi
 80006a2:	f110 0f00 	cmnmi.w	r0, #0
 80006a6:	bd0f      	pop	{r0, r1, r2, r3, pc}

080006a8 <__aeabi_fcmpeq>:
 80006a8:	f84d ed08 	str.w	lr, [sp, #-8]!
 80006ac:	f7ff fff4 	bl	8000698 <__aeabi_cfcmpeq>
 80006b0:	bf0c      	ite	eq
 80006b2:	2001      	moveq	r0, #1
 80006b4:	2000      	movne	r0, #0
 80006b6:	f85d fb08 	ldr.w	pc, [sp], #8
 80006ba:	bf00      	nop

080006bc <__aeabi_fcmplt>:
 80006bc:	f84d ed08 	str.w	lr, [sp, #-8]!
 80006c0:	f7ff ffea 	bl	8000698 <__aeabi_cfcmpeq>
 80006c4:	bf34      	ite	cc
 80006c6:	2001      	movcc	r0, #1
 80006c8:	2000      	movcs	r0, #0
 80006ca:	f85d fb08 	ldr.w	pc, [sp], #8
 80006ce:	bf00      	nop

080006d0 <__aeabi_fcmple>:
 80006d0:	f84d ed08 	str.w	lr, [sp, #-8]!
 80006d4:	f7ff ffe0 	bl	8000698 <__aeabi_cfcmpeq>
 80006d8:	bf94      	ite	ls
 80006da:	2001      	movls	r0, #1
 80006dc:	2000      	movhi	r0, #0
 80006de:	f85d fb08 	ldr.w	pc, [sp], #8
 80006e2:	bf00      	nop

080006e4 <__aeabi_fcmpge>:
 80006e4:	f84d ed08 	str.w	lr, [sp, #-8]!
 80006e8:	f7ff ffd2 	bl	8000690 <__aeabi_cfrcmple>
 80006ec:	bf94      	ite	ls
 80006ee:	2001      	movls	r0, #1
 80006f0:	2000      	movhi	r0, #0
 80006f2:	f85d fb08 	ldr.w	pc, [sp], #8
 80006f6:	bf00      	nop

080006f8 <__aeabi_fcmpgt>:
 80006f8:	f84d ed08 	str.w	lr, [sp, #-8]!
 80006fc:	f7ff ffc8 	bl	8000690 <__aeabi_cfrcmple>
 8000700:	bf34      	ite	cc
 8000702:	2001      	movcc	r0, #1
 8000704:	2000      	movcs	r0, #0
 8000706:	f85d fb08 	ldr.w	pc, [sp], #8
 800070a:	bf00      	nop

0800070c <__aeabi_f2uiz>:
 800070c:	0042      	lsls	r2, r0, #1
 800070e:	d20e      	bcs.n	800072e <__aeabi_f2uiz+0x22>
 8000710:	f1b2 4ffe 	cmp.w	r2, #2130706432	; 0x7f000000
 8000714:	d30b      	bcc.n	800072e <__aeabi_f2uiz+0x22>
 8000716:	f04f 039e 	mov.w	r3, #158	; 0x9e
 800071a:	ebb3 6212 	subs.w	r2, r3, r2, lsr #24
 800071e:	d409      	bmi.n	8000734 <__aeabi_f2uiz+0x28>
 8000720:	ea4f 2300 	mov.w	r3, r0, lsl #8
 8000724:	f043 4300 	orr.w	r3, r3, #2147483648	; 0x80000000
 8000728:	fa23 f002 	lsr.w	r0, r3, r2
 800072c:	4770      	bx	lr
 800072e:	f04f 0000 	mov.w	r0, #0
 8000732:	4770      	bx	lr
 8000734:	f112 0f61 	cmn.w	r2, #97	; 0x61
 8000738:	d101      	bne.n	800073e <__aeabi_f2uiz+0x32>
 800073a:	0242      	lsls	r2, r0, #9
 800073c:	d102      	bne.n	8000744 <__aeabi_f2uiz+0x38>
 800073e:	f04f 30ff 	mov.w	r0, #4294967295
 8000742:	4770      	bx	lr
 8000744:	f04f 0000 	mov.w	r0, #0
 8000748:	4770      	bx	lr
 800074a:	bf00      	nop

0800074c <MX_ADC1_Init>:
ADC_HandleTypeDef hadc1;
DMA_HandleTypeDef hdma_adc1;

/* ADC1 init function */
void MX_ADC1_Init(void)
{
 800074c:	b51f      	push	{r0, r1, r2, r3, r4, lr}
  ADC_ChannelConfTypeDef sConfig = {0};

  /**Common config 
  */
  hadc1.Instance = ADC1;
 800074e:	481a      	ldr	r0, [pc, #104]	; (80007b8 <MX_ADC1_Init+0x6c>)
 8000750:	4a1a      	ldr	r2, [pc, #104]	; (80007bc <MX_ADC1_Init+0x70>)
  ADC_ChannelConfTypeDef sConfig = {0};
 8000752:	2300      	movs	r3, #0
  hadc1.Init.ScanConvMode = ADC_SCAN_DISABLE;
  hadc1.Init.ContinuousConvMode = ENABLE;
 8000754:	2401      	movs	r4, #1
  hadc1.Instance = ADC1;
 8000756:	6002      	str	r2, [r0, #0]
  hadc1.Init.DiscontinuousConvMode = DISABLE;
  hadc1.Init.ExternalTrigConv = ADC_SOFTWARE_START;
 8000758:	f44f 2260 	mov.w	r2, #917504	; 0xe0000
  ADC_ChannelConfTypeDef sConfig = {0};
 800075c:	9301      	str	r3, [sp, #4]
 800075e:	9302      	str	r3, [sp, #8]
 8000760:	9303      	str	r3, [sp, #12]
  hadc1.Init.ScanConvMode = ADC_SCAN_DISABLE;
 8000762:	6083      	str	r3, [r0, #8]
  hadc1.Init.ContinuousConvMode = ENABLE;
 8000764:	60c4      	str	r4, [r0, #12]
  hadc1.Init.DiscontinuousConvMode = DISABLE;
 8000766:	6143      	str	r3, [r0, #20]
  hadc1.Init.ExternalTrigConv = ADC_SOFTWARE_START;
 8000768:	61c2      	str	r2, [r0, #28]
  hadc1.Init.DataAlign = ADC_DATAALIGN_RIGHT;
 800076a:	6043      	str	r3, [r0, #4]
  hadc1.Init.NbrOfConversion = 1;
 800076c:	6104      	str	r4, [r0, #16]

  if (HAL_ADC_Init(&hadc1) != HAL_OK)
 800076e:	f002 fbef 	bl	8002f50 <HAL_ADC_Init>
 8000772:	b108      	cbz	r0, 8000778 <MX_ADC1_Init+0x2c>
  {
    Error_Handler();
 8000774:	f001 fbd6 	bl	8001f24 <Error_Handler>
  }
  /**Configure Regular Channel 
  */
  sConfig.Channel = ADC_CHANNEL_1;
  sConfig.Rank = ADC_REGULAR_RANK_1;
  sConfig.SamplingTime = ADC_SAMPLETIME_239CYCLES_5;
 8000778:	2307      	movs	r3, #7
  if (HAL_ADC_ConfigChannel(&hadc1, &sConfig) != HAL_OK)
 800077a:	a901      	add	r1, sp, #4
 800077c:	480e      	ldr	r0, [pc, #56]	; (80007b8 <MX_ADC1_Init+0x6c>)
  sConfig.Channel = ADC_CHANNEL_1;
 800077e:	9401      	str	r4, [sp, #4]
  sConfig.Rank = ADC_REGULAR_RANK_1;
 8000780:	9402      	str	r4, [sp, #8]
  sConfig.SamplingTime = ADC_SAMPLETIME_239CYCLES_5;
 8000782:	9303      	str	r3, [sp, #12]
  if (HAL_ADC_ConfigChannel(&hadc1, &sConfig) != HAL_OK)
 8000784:	f002 fa4c 	bl	8002c20 <HAL_ADC_ConfigChannel>
 8000788:	b108      	cbz	r0, 800078e <MX_ADC1_Init+0x42>
  {
    Error_Handler();
 800078a:	f001 fbcb 	bl	8001f24 <Error_Handler>
  }

  	/**Configure for the selected ADC regular channel to be converted.
    */
    sConfig.Channel = ADC_CHANNEL_2;
 800078e:	2302      	movs	r3, #2
    if (HAL_ADC_ConfigChannel(&hadc1, &sConfig) != HAL_OK)
 8000790:	a901      	add	r1, sp, #4
 8000792:	4809      	ldr	r0, [pc, #36]	; (80007b8 <MX_ADC1_Init+0x6c>)
    sConfig.Channel = ADC_CHANNEL_2;
 8000794:	9301      	str	r3, [sp, #4]
    if (HAL_ADC_ConfigChannel(&hadc1, &sConfig) != HAL_OK)
 8000796:	f002 fa43 	bl	8002c20 <HAL_ADC_ConfigChannel>
 800079a:	b108      	cbz	r0, 80007a0 <MX_ADC1_Init+0x54>
    {
      Error_Handler();
 800079c:	f001 fbc2 	bl	8001f24 <Error_Handler>

	#endif

    /**Configure for the selected ADC regular channel to be converted.
    */
    sConfig.Channel = ADC_CHANNEL_5;
 80007a0:	2305      	movs	r3, #5
    if (HAL_ADC_ConfigChannel(&hadc1, &sConfig) != HAL_OK)
 80007a2:	a901      	add	r1, sp, #4
 80007a4:	4804      	ldr	r0, [pc, #16]	; (80007b8 <MX_ADC1_Init+0x6c>)
    sConfig.Channel = ADC_CHANNEL_5;
 80007a6:	9301      	str	r3, [sp, #4]
    if (HAL_ADC_ConfigChannel(&hadc1, &sConfig) != HAL_OK)
 80007a8:	f002 fa3a 	bl	8002c20 <HAL_ADC_ConfigChannel>
 80007ac:	b108      	cbz	r0, 80007b2 <MX_ADC1_Init+0x66>
    {
      Error_Handler();
 80007ae:	f001 fbb9 	bl	8001f24 <Error_Handler>
		  {
			Error_Handler();
		  }
	#endif

}
 80007b2:	b004      	add	sp, #16
 80007b4:	bd10      	pop	{r4, pc}
 80007b6:	bf00      	nop
 80007b8:	20000490 	.word	0x20000490
 80007bc:	40012400 	.word	0x40012400

080007c0 <HAL_ADC_MspInit>:

void HAL_ADC_MspInit(ADC_HandleTypeDef* adcHandle)
{
 80007c0:	b530      	push	{r4, r5, lr}
 80007c2:	4605      	mov	r5, r0
 80007c4:	b087      	sub	sp, #28

  GPIO_InitTypeDef GPIO_InitStruct = {0};
 80007c6:	2210      	movs	r2, #16
 80007c8:	2100      	movs	r1, #0
 80007ca:	a802      	add	r0, sp, #8
 80007cc:	f005 f9ec 	bl	8005ba8 <memset>
  if(adcHandle->Instance==ADC1)
 80007d0:	682a      	ldr	r2, [r5, #0]
 80007d2:	4b22      	ldr	r3, [pc, #136]	; (800085c <HAL_ADC_MspInit+0x9c>)
 80007d4:	429a      	cmp	r2, r3
 80007d6:	d13e      	bne.n	8000856 <HAL_ADC_MspInit+0x96>
  {
  /* USER CODE BEGIN ADC1_MspInit 0 */

  /* USER CODE END ADC1_MspInit 0 */
    /* ADC1 clock enable */
    __HAL_RCC_ADC1_CLK_ENABLE();
 80007d8:	f503 436c 	add.w	r3, r3, #60416	; 0xec00
 80007dc:	699a      	ldr	r2, [r3, #24]
    */
    GPIO_InitStruct.Pin = V_OUT_Pin|C_OUT_Pin|V_IN_Pin|V_IN_WAVE_DETECTOR_Pin 
                          |DC_FEEDBACK_Pin;
    GPIO_InitStruct.Mode = GPIO_MODE_ANALOG;
    GPIO_InitStruct.Pull = GPIO_NOPULL;
    HAL_GPIO_Init(GPIOA, &GPIO_InitStruct);
 80007de:	4820      	ldr	r0, [pc, #128]	; (8000860 <HAL_ADC_MspInit+0xa0>)
    __HAL_RCC_ADC1_CLK_ENABLE();
 80007e0:	f442 7200 	orr.w	r2, r2, #512	; 0x200
 80007e4:	619a      	str	r2, [r3, #24]
 80007e6:	699a      	ldr	r2, [r3, #24]
    HAL_GPIO_Init(GPIOA, &GPIO_InitStruct);
 80007e8:	a902      	add	r1, sp, #8
    __HAL_RCC_ADC1_CLK_ENABLE();
 80007ea:	f402 7200 	and.w	r2, r2, #512	; 0x200
 80007ee:	9200      	str	r2, [sp, #0]
 80007f0:	9a00      	ldr	r2, [sp, #0]
    __HAL_RCC_GPIOA_CLK_ENABLE();
 80007f2:	699a      	ldr	r2, [r3, #24]

    /* ADC1 DMA Init */
    /* ADC1 Init */
    hdma_adc1.Instance = DMA1_Channel1;
 80007f4:	4c1b      	ldr	r4, [pc, #108]	; (8000864 <HAL_ADC_MspInit+0xa4>)
    __HAL_RCC_GPIOA_CLK_ENABLE();
 80007f6:	f042 0204 	orr.w	r2, r2, #4
 80007fa:	619a      	str	r2, [r3, #24]
 80007fc:	699b      	ldr	r3, [r3, #24]
 80007fe:	f003 0304 	and.w	r3, r3, #4
 8000802:	9301      	str	r3, [sp, #4]
 8000804:	9b01      	ldr	r3, [sp, #4]
    GPIO_InitStruct.Pin = V_OUT_Pin|C_OUT_Pin|V_IN_Pin|V_IN_WAVE_DETECTOR_Pin 
 8000806:	233e      	movs	r3, #62	; 0x3e
 8000808:	9302      	str	r3, [sp, #8]
    GPIO_InitStruct.Mode = GPIO_MODE_ANALOG;
 800080a:	2303      	movs	r3, #3
 800080c:	9303      	str	r3, [sp, #12]
    HAL_GPIO_Init(GPIOA, &GPIO_InitStruct);
 800080e:	f003 f90d 	bl	8003a2c <HAL_GPIO_Init>
    hdma_adc1.Instance = DMA1_Channel1;
 8000812:	4b15      	ldr	r3, [pc, #84]	; (8000868 <HAL_ADC_MspInit+0xa8>)
    hdma_adc1.Init.MemInc = DMA_MINC_ENABLE;
    hdma_adc1.Init.PeriphDataAlignment = DMA_PDATAALIGN_HALFWORD;
    hdma_adc1.Init.MemDataAlignment = DMA_MDATAALIGN_HALFWORD;
    hdma_adc1.Init.Mode = DMA_CIRCULAR;
    hdma_adc1.Init.Priority = DMA_PRIORITY_MEDIUM;
    if (HAL_DMA_Init(&hdma_adc1) != HAL_OK)
 8000814:	4620      	mov	r0, r4
    hdma_adc1.Instance = DMA1_Channel1;
 8000816:	6023      	str	r3, [r4, #0]
    hdma_adc1.Init.Direction = DMA_PERIPH_TO_MEMORY;
 8000818:	2300      	movs	r3, #0
 800081a:	6063      	str	r3, [r4, #4]
    hdma_adc1.Init.PeriphInc = DMA_PINC_DISABLE;
 800081c:	60a3      	str	r3, [r4, #8]
    hdma_adc1.Init.MemInc = DMA_MINC_ENABLE;
 800081e:	2380      	movs	r3, #128	; 0x80
 8000820:	60e3      	str	r3, [r4, #12]
    hdma_adc1.Init.PeriphDataAlignment = DMA_PDATAALIGN_HALFWORD;
 8000822:	f44f 7380 	mov.w	r3, #256	; 0x100
 8000826:	6123      	str	r3, [r4, #16]
    hdma_adc1.Init.MemDataAlignment = DMA_MDATAALIGN_HALFWORD;
 8000828:	f44f 6380 	mov.w	r3, #1024	; 0x400
 800082c:	6163      	str	r3, [r4, #20]
    hdma_adc1.Init.Mode = DMA_CIRCULAR;
 800082e:	2320      	movs	r3, #32
 8000830:	61a3      	str	r3, [r4, #24]
    hdma_adc1.Init.Priority = DMA_PRIORITY_MEDIUM;
 8000832:	f44f 5380 	mov.w	r3, #4096	; 0x1000
 8000836:	61e3      	str	r3, [r4, #28]
    if (HAL_DMA_Init(&hdma_adc1) != HAL_OK)
 8000838:	f002 fd12 	bl	8003260 <HAL_DMA_Init>
 800083c:	b108      	cbz	r0, 8000842 <HAL_ADC_MspInit+0x82>
    {
      Error_Handler();
 800083e:	f001 fb71 	bl	8001f24 <Error_Handler>
    }

    __HAL_LINKDMA(adcHandle,DMA_Handle,hdma_adc1);
 8000842:	622c      	str	r4, [r5, #32]

    /* ADC1 interrupt Init */
    HAL_NVIC_SetPriority(ADC1_2_IRQn, 3, 1);
 8000844:	2012      	movs	r0, #18
 8000846:	2201      	movs	r2, #1
 8000848:	2103      	movs	r1, #3
    __HAL_LINKDMA(adcHandle,DMA_Handle,hdma_adc1);
 800084a:	6265      	str	r5, [r4, #36]	; 0x24
    HAL_NVIC_SetPriority(ADC1_2_IRQn, 3, 1);
 800084c:	f002 fc7c 	bl	8003148 <HAL_NVIC_SetPriority>
    HAL_NVIC_EnableIRQ(ADC1_2_IRQn);
 8000850:	2012      	movs	r0, #18
 8000852:	f002 fcbb 	bl	80031cc <HAL_NVIC_EnableIRQ>
  /* USER CODE BEGIN ADC1_MspInit 1 */

  /* USER CODE END ADC1_MspInit 1 */
  }
}
 8000856:	b007      	add	sp, #28
 8000858:	bd30      	pop	{r4, r5, pc}
 800085a:	bf00      	nop
 800085c:	40012400 	.word	0x40012400
 8000860:	40010800 	.word	0x40010800
 8000864:	200004c0 	.word	0x200004c0
 8000868:	40020008 	.word	0x40020008

0800086c <MX_CRC_Init>:

CRC_HandleTypeDef hcrc;

/* CRC init function */
void MX_CRC_Init(void)
{
 800086c:	b508      	push	{r3, lr}

  hcrc.Instance = CRC;
 800086e:	4805      	ldr	r0, [pc, #20]	; (8000884 <MX_CRC_Init+0x18>)
 8000870:	4b05      	ldr	r3, [pc, #20]	; (8000888 <MX_CRC_Init+0x1c>)
 8000872:	6003      	str	r3, [r0, #0]
  if (HAL_CRC_Init(&hcrc) != HAL_OK)
 8000874:	f002 fcd6 	bl	8003224 <HAL_CRC_Init>
 8000878:	b118      	cbz	r0, 8000882 <MX_CRC_Init+0x16>
  {
    Error_Handler();
  }

}
 800087a:	e8bd 4008 	ldmia.w	sp!, {r3, lr}
    Error_Handler();
 800087e:	f001 bb51 	b.w	8001f24 <Error_Handler>
 8000882:	bd08      	pop	{r3, pc}
 8000884:	20000504 	.word	0x20000504
 8000888:	40023000 	.word	0x40023000

0800088c <HAL_CRC_MspInit>:

void HAL_CRC_MspInit(CRC_HandleTypeDef* crcHandle)
{

  if(crcHandle->Instance==CRC)
 800088c:	6802      	ldr	r2, [r0, #0]
 800088e:	4b08      	ldr	r3, [pc, #32]	; (80008b0 <HAL_CRC_MspInit+0x24>)
{
 8000890:	b082      	sub	sp, #8
  if(crcHandle->Instance==CRC)
 8000892:	429a      	cmp	r2, r3
 8000894:	d10a      	bne.n	80008ac <HAL_CRC_MspInit+0x20>
  {
  /* USER CODE BEGIN CRC_MspInit 0 */

  /* USER CODE END CRC_MspInit 0 */
    /* CRC clock enable */
    __HAL_RCC_CRC_CLK_ENABLE();
 8000896:	f5a3 5300 	sub.w	r3, r3, #8192	; 0x2000
 800089a:	695a      	ldr	r2, [r3, #20]
 800089c:	f042 0240 	orr.w	r2, r2, #64	; 0x40
 80008a0:	615a      	str	r2, [r3, #20]
 80008a2:	695b      	ldr	r3, [r3, #20]
 80008a4:	f003 0340 	and.w	r3, r3, #64	; 0x40
 80008a8:	9301      	str	r3, [sp, #4]
 80008aa:	9b01      	ldr	r3, [sp, #4]
  /* USER CODE BEGIN CRC_MspInit 1 */

  /* USER CODE END CRC_MspInit 1 */
  }
}
 80008ac:	b002      	add	sp, #8
 80008ae:	4770      	bx	lr
 80008b0:	40023000 	.word	0x40023000

080008b4 <StartADC>:
//uint32_t adc_cnt1=0;

void StartADC(){
	//HAL_ADC_Start_IT(&hadc);
	//ADC->CCR |= ADC_CCR_TSEN | ADC_CCR_VREFEN;
	HAL_ADC_Start_DMA(&hadc1,(uint32_t*) &ADC_Data,ADC_ChannelCnt);
 80008b4:	2203      	movs	r2, #3
 80008b6:	4902      	ldr	r1, [pc, #8]	; (80008c0 <StartADC+0xc>)
 80008b8:	4802      	ldr	r0, [pc, #8]	; (80008c4 <StartADC+0x10>)
 80008ba:	f002 ba97 	b.w	8002dec <HAL_ADC_Start_DMA>
 80008be:	bf00      	nop
 80008c0:	20000518 	.word	0x20000518
 80008c4:	20000490 	.word	0x20000490

080008c8 <ResetV_data>:

//******* ADC **********//

//******* AMPLITUDE **********//
void ResetV_data() {
	 V_1=0;
 80008c8:	2300      	movs	r3, #0
 80008ca:	4a1f      	ldr	r2, [pc, #124]	; (8000948 <ResetV_data+0x80>)
void ResetV_data() {
 80008cc:	b510      	push	{r4, lr}
	 V_1=0;
 80008ce:	6013      	str	r3, [r2, #0]
	 V_2=0;
 80008d0:	4a1e      	ldr	r2, [pc, #120]	; (800094c <ResetV_data+0x84>)
	 V_3=0;
	 V_4=0;

	 V_Cnt[0]=1;
 80008d2:	491f      	ldr	r1, [pc, #124]	; (8000950 <ResetV_data+0x88>)
	 V_2=0;
 80008d4:	6013      	str	r3, [r2, #0]
	 V_3=0;
 80008d6:	4a1f      	ldr	r2, [pc, #124]	; (8000954 <ResetV_data+0x8c>)
	 V_Cnt[1]=1;
	 V_Cnt[2]=1;
	 V_Cnt[3]=1;

	 V_Out_Cnt=1;
	 V_Out_RawData=0;
 80008d8:	2000      	movs	r0, #0
	 V_3=0;
 80008da:	6013      	str	r3, [r2, #0]
	 V_4=0;
 80008dc:	4a1e      	ldr	r2, [pc, #120]	; (8000958 <ResetV_data+0x90>)
	 V_Out_RawData=0;
 80008de:	4c1f      	ldr	r4, [pc, #124]	; (800095c <ResetV_data+0x94>)
	 V_4=0;
 80008e0:	6013      	str	r3, [r2, #0]
	 V_Cnt[0]=1;
 80008e2:	2201      	movs	r2, #1
 80008e4:	600a      	str	r2, [r1, #0]
	 V_Cnt[1]=1;
 80008e6:	604a      	str	r2, [r1, #4]
	 V_Cnt[2]=1;
 80008e8:	608a      	str	r2, [r1, #8]
	 V_Cnt[3]=1;
 80008ea:	60ca      	str	r2, [r1, #12]
	 V_Out_Cnt=1;
 80008ec:	491c      	ldr	r1, [pc, #112]	; (8000960 <ResetV_data+0x98>)
 80008ee:	600a      	str	r2, [r1, #0]
	 V_Out_RawData=0;
 80008f0:	2100      	movs	r1, #0
 80008f2:	e9c4 0100 	strd	r0, r1, [r4]

	 I_Out_Cnt=1;
 80008f6:	4c1b      	ldr	r4, [pc, #108]	; (8000964 <ResetV_data+0x9c>)
 80008f8:	6022      	str	r2, [r4, #0]
	 I_Out_RawData=0;
 80008fa:	4a1b      	ldr	r2, [pc, #108]	; (8000968 <ResetV_data+0xa0>)
 80008fc:	e9c2 0100 	strd	r0, r1, [r2]
	 V_Cnt[4]=1;
	 V_5=1500;
	#endif

	#ifdef DC_PROTECTION
	 	 DC_Data=0;
 8000900:	4a1a      	ldr	r2, [pc, #104]	; (800096c <ResetV_data+0xa4>)
 8000902:	6013      	str	r3, [r2, #0]
	 	 DC_DataCnt=0;
 8000904:	4a1a      	ldr	r2, [pc, #104]	; (8000970 <ResetV_data+0xa8>)
 8000906:	6013      	str	r3, [r2, #0]
	#endif

	 	//reset temp buffer
	 	V_1_temp=0;
 8000908:	4a1a      	ldr	r2, [pc, #104]	; (8000974 <ResetV_data+0xac>)
 800090a:	6013      	str	r3, [r2, #0]
	 	V_2_temp=0;
 800090c:	4a1a      	ldr	r2, [pc, #104]	; (8000978 <ResetV_data+0xb0>)
 800090e:	6013      	str	r3, [r2, #0]
	 	V_3_temp=0;
 8000910:	4a1a      	ldr	r2, [pc, #104]	; (800097c <ResetV_data+0xb4>)
 8000912:	6013      	str	r3, [r2, #0]
	 	V_4_temp=0;
 8000914:	4a1a      	ldr	r2, [pc, #104]	; (8000980 <ResetV_data+0xb8>)
 8000916:	6013      	str	r3, [r2, #0]

	 	Vcnt_1_temp=0;
 8000918:	4a1a      	ldr	r2, [pc, #104]	; (8000984 <ResetV_data+0xbc>)
 800091a:	6013      	str	r3, [r2, #0]
	 	Vcnt_2_temp=0;
 800091c:	4a1a      	ldr	r2, [pc, #104]	; (8000988 <ResetV_data+0xc0>)
 800091e:	6013      	str	r3, [r2, #0]
	 	Vcnt_3_temp=0;
 8000920:	4a1a      	ldr	r2, [pc, #104]	; (800098c <ResetV_data+0xc4>)
 8000922:	6013      	str	r3, [r2, #0]
	 	Vcnt_4_temp=0;
 8000924:	4a1a      	ldr	r2, [pc, #104]	; (8000990 <ResetV_data+0xc8>)
 8000926:	6013      	str	r3, [r2, #0]

	 	I_Out_RawData_temp=0;
 8000928:	4a1a      	ldr	r2, [pc, #104]	; (8000994 <ResetV_data+0xcc>)
 800092a:	6013      	str	r3, [r2, #0]
	 	V_Out_RawData_temp=0;
 800092c:	4a1a      	ldr	r2, [pc, #104]	; (8000998 <ResetV_data+0xd0>)
 800092e:	6013      	str	r3, [r2, #0]
	 	I_Out_Cnt_temp=0;
 8000930:	4a1a      	ldr	r2, [pc, #104]	; (800099c <ResetV_data+0xd4>)
 8000932:	6013      	str	r3, [r2, #0]
	 	V_Out_Cnt_temp=0;
 8000934:	4a1a      	ldr	r2, [pc, #104]	; (80009a0 <ResetV_data+0xd8>)
 8000936:	6013      	str	r3, [r2, #0]

	 	#ifdef DC_PROTECTION
	 		DC_Data_temp=0;
 8000938:	4a1a      	ldr	r2, [pc, #104]	; (80009a4 <ResetV_data+0xdc>)
 800093a:	6013      	str	r3, [r2, #0]
	 		DC_DataCnt_temp=0;
 800093c:	4a1a      	ldr	r2, [pc, #104]	; (80009a8 <ResetV_data+0xe0>)
 800093e:	6013      	str	r3, [r2, #0]
	 	#ifdef USE_VREF
	 		V_5_temp=0;
	 		Vcnt_5_temp=0;
	     #endif

	 	TempBuffer_Flag=0;
 8000940:	4a1a      	ldr	r2, [pc, #104]	; (80009ac <ResetV_data+0xe4>)
 8000942:	8013      	strh	r3, [r2, #0]
 8000944:	bd10      	pop	{r4, pc}
 8000946:	bf00      	nop
 8000948:	20000028 	.word	0x20000028
 800094c:	2000002c 	.word	0x2000002c
 8000950:	20000038 	.word	0x20000038
 8000954:	20000030 	.word	0x20000030
 8000958:	20000034 	.word	0x20000034
 800095c:	20000418 	.word	0x20000418
 8000960:	20000048 	.word	0x20000048
 8000964:	20000000 	.word	0x20000000
 8000968:	20000400 	.word	0x20000400
 800096c:	200003d8 	.word	0x200003d8
 8000970:	200003e0 	.word	0x200003e0
 8000974:	2000045c 	.word	0x2000045c
 8000978:	20000460 	.word	0x20000460
 800097c:	20000464 	.word	0x20000464
 8000980:	20000468 	.word	0x20000468
 8000984:	20000474 	.word	0x20000474
 8000988:	20000478 	.word	0x20000478
 800098c:	2000047c 	.word	0x2000047c
 8000990:	20000480 	.word	0x20000480
 8000994:	20000450 	.word	0x20000450
 8000998:	20000470 	.word	0x20000470
 800099c:	2000044c 	.word	0x2000044c
 80009a0:	2000046c 	.word	0x2000046c
 80009a4:	20000430 	.word	0x20000430
 80009a8:	2000042c 	.word	0x2000042c
 80009ac:	200003c4 	.word	0x200003c4

080009b0 <CalcNewAmp>:
	//
}

float CalcNewAmp(uint32_t V_curr, uint32_t V_etalon) {
	float fRes=1;
	if (V_curr>V_etalon) {
 80009b0:	4288      	cmp	r0, r1
float CalcNewAmp(uint32_t V_curr, uint32_t V_etalon) {
 80009b2:	b510      	push	{r4, lr}
	if (V_curr>V_etalon) {
 80009b4:	d922      	bls.n	80009fc <CalcNewAmp+0x4c>
		fRes=fRes+(float)((V_curr-V_etalon)*Amp_CoefPlus);
 80009b6:	1a40      	subs	r0, r0, r1
 80009b8:	f7ff fc8a 	bl	80002d0 <__aeabi_ui2f>
 80009bc:	4912      	ldr	r1, [pc, #72]	; (8000a08 <CalcNewAmp+0x58>)
 80009be:	f7ff fcdf 	bl	8000380 <__aeabi_fmul>
 80009c2:	f04f 517e 	mov.w	r1, #1065353216	; 0x3f800000
 80009c6:	f7ff fbd3 	bl	8000170 <__addsf3>
	}
	if (V_curr<V_etalon) {
		fRes=fRes-(float)((V_etalon-V_curr)*Amp_CoefMinus);
	}

	if (fRes>Amp_max) {
 80009ca:	4910      	ldr	r1, [pc, #64]	; (8000a0c <CalcNewAmp+0x5c>)
		fRes=fRes-(float)((V_etalon-V_curr)*Amp_CoefMinus);
 80009cc:	4604      	mov	r4, r0
	if (fRes>Amp_max) {
 80009ce:	f7ff fe93 	bl	80006f8 <__aeabi_fcmpgt>
 80009d2:	b9b8      	cbnz	r0, 8000a04 <CalcNewAmp+0x54>
		fRes=Amp_max;
	}
	if (fRes<Amp_min) {
 80009d4:	490e      	ldr	r1, [pc, #56]	; (8000a10 <CalcNewAmp+0x60>)
 80009d6:	4620      	mov	r0, r4
 80009d8:	f7ff fe70 	bl	80006bc <__aeabi_fcmplt>
 80009dc:	b100      	cbz	r0, 80009e0 <CalcNewAmp+0x30>
		fRes=Amp_min;
 80009de:	4c0c      	ldr	r4, [pc, #48]	; (8000a10 <CalcNewAmp+0x60>)
	}

	return fRes;
}
 80009e0:	4620      	mov	r0, r4
 80009e2:	bd10      	pop	{r4, pc}
		fRes=fRes-(float)((V_etalon-V_curr)*Amp_CoefMinus);
 80009e4:	1a08      	subs	r0, r1, r0
 80009e6:	f7ff fc73 	bl	80002d0 <__aeabi_ui2f>
 80009ea:	4907      	ldr	r1, [pc, #28]	; (8000a08 <CalcNewAmp+0x58>)
 80009ec:	f7ff fcc8 	bl	8000380 <__aeabi_fmul>
 80009f0:	4601      	mov	r1, r0
 80009f2:	f04f 507e 	mov.w	r0, #1065353216	; 0x3f800000
 80009f6:	f7ff fbb9 	bl	800016c <__aeabi_fsub>
 80009fa:	e7e6      	b.n	80009ca <CalcNewAmp+0x1a>
	if (V_curr<V_etalon) {
 80009fc:	d3f2      	bcc.n	80009e4 <CalcNewAmp+0x34>
	float fRes=1;
 80009fe:	f04f 547e 	mov.w	r4, #1065353216	; 0x3f800000
 8000a02:	e7ed      	b.n	80009e0 <CalcNewAmp+0x30>
		fRes=Amp_max;
 8000a04:	4c01      	ldr	r4, [pc, #4]	; (8000a0c <CalcNewAmp+0x5c>)
 8000a06:	e7eb      	b.n	80009e0 <CalcNewAmp+0x30>
 8000a08:	3999999a 	.word	0x3999999a
 8000a0c:	3fcccccd 	.word	0x3fcccccd
 8000a10:	3ecccccd 	.word	0x3ecccccd

08000a14 <CalcNewAmpByStep>:

#ifdef AMP_CORRECTION_TYPE_STEP
float CalcNewAmpByStep(float CurrAmp, float TargetAmp) {
 8000a14:	b538      	push	{r3, r4, r5, lr}
 8000a16:	4605      	mov	r5, r0
 8000a18:	460c      	mov	r4, r1
	float fRes=CurrAmp;
	if (TargetAmp>CurrAmp) {
 8000a1a:	f7ff fe4f 	bl	80006bc <__aeabi_fcmplt>
 8000a1e:	b160      	cbz	r0, 8000a3a <CalcNewAmpByStep+0x26>
		fRes=fRes+amp_correction_step;
 8000a20:	490e      	ldr	r1, [pc, #56]	; (8000a5c <CalcNewAmpByStep+0x48>)
 8000a22:	4628      	mov	r0, r5
 8000a24:	f7ff fba4 	bl	8000170 <__addsf3>
 8000a28:	4605      	mov	r5, r0
		if (fRes>=TargetAmp) {
 8000a2a:	4601      	mov	r1, r0
 8000a2c:	4620      	mov	r0, r4
 8000a2e:	f7ff fe4f 	bl	80006d0 <__aeabi_fcmple>
		}
		return fRes;
	}
	if (TargetAmp<CurrAmp) {
		fRes=fRes-amp_correction_step;
		if (fRes<=TargetAmp) {
 8000a32:	b900      	cbnz	r0, 8000a36 <CalcNewAmpByStep+0x22>
			fRes=TargetAmp;
		}
		return fRes;
	}
	return fRes;
 8000a34:	462c      	mov	r4, r5
}
 8000a36:	4620      	mov	r0, r4
 8000a38:	bd38      	pop	{r3, r4, r5, pc}
	if (TargetAmp<CurrAmp) {
 8000a3a:	4621      	mov	r1, r4
 8000a3c:	4628      	mov	r0, r5
 8000a3e:	f7ff fe5b 	bl	80006f8 <__aeabi_fcmpgt>
 8000a42:	2800      	cmp	r0, #0
 8000a44:	d0f6      	beq.n	8000a34 <CalcNewAmpByStep+0x20>
		fRes=fRes-amp_correction_step;
 8000a46:	4905      	ldr	r1, [pc, #20]	; (8000a5c <CalcNewAmpByStep+0x48>)
 8000a48:	4628      	mov	r0, r5
 8000a4a:	f7ff fb8f 	bl	800016c <__aeabi_fsub>
 8000a4e:	4605      	mov	r5, r0
		if (fRes<=TargetAmp) {
 8000a50:	4601      	mov	r1, r0
 8000a52:	4620      	mov	r0, r4
 8000a54:	f7ff fe46 	bl	80006e4 <__aeabi_fcmpge>
 8000a58:	e7eb      	b.n	8000a32 <CalcNewAmpByStep+0x1e>
 8000a5a:	bf00      	nop
 8000a5c:	3bc49ba6 	.word	0x3bc49ba6

08000a60 <asqrt>:
  op = x;
  res = 0;

  /* "one" starts at the highest power of four <= than the argument. */

  one = 1 << 30;	/* second-to-top bit set */
 8000a60:	f04f 4380 	mov.w	r3, #1073741824	; 0x40000000
uint16_t asqrt(uint32_t x) {
 8000a64:	b530      	push	{r4, r5, lr}
  while (one > op) one >>= 2;
 8000a66:	4283      	cmp	r3, r0
 8000a68:	dc05      	bgt.n	8000a76 <asqrt+0x16>
 8000a6a:	2200      	movs	r2, #0
  while (one != 0) {
    if (op >= res + one) {
      op = op - (res + one);
      res = res +  2 * one;
    }
    res /= 2;
 8000a6c:	2402      	movs	r4, #2
    one /= 4;
 8000a6e:	2504      	movs	r5, #4
  while (one != 0) {
 8000a70:	b91b      	cbnz	r3, 8000a7a <asqrt+0x1a>
  }
  return (uint16_t) (res);
}
 8000a72:	b290      	uxth	r0, r2
 8000a74:	bd30      	pop	{r4, r5, pc}
  while (one > op) one >>= 2;
 8000a76:	109b      	asrs	r3, r3, #2
 8000a78:	e7f5      	b.n	8000a66 <asqrt+0x6>
    if (op >= res + one) {
 8000a7a:	18d1      	adds	r1, r2, r3
 8000a7c:	4288      	cmp	r0, r1
      res = res +  2 * one;
 8000a7e:	bfa4      	itt	ge
 8000a80:	185a      	addge	r2, r3, r1
      op = op - (res + one);
 8000a82:	1a40      	subge	r0, r0, r1
    res /= 2;
 8000a84:	fb92 f2f4 	sdiv	r2, r2, r4
    one /= 4;
 8000a88:	fb93 f3f5 	sdiv	r3, r3, r5
 8000a8c:	e7f0      	b.n	8000a70 <asqrt+0x10>
	...

08000a90 <CalcAc_I_ByWave>:


void CalcAc_I_ByWave() {
 8000a90:	b538      	push	{r3, r4, r5, lr}
	// calc AC data for one wave form'
	#ifdef Detect_ZeroI_Point
		ZeroI_point=ADC_Data[1]; // Store last value of V_out via zero point
	#endif
	I_Out = (uint32_t) (I_Out_RawData_temp / I_Out_Cnt_temp);
 8000a92:	4a0c      	ldr	r2, [pc, #48]	; (8000ac4 <CalcAc_I_ByWave+0x34>)
 8000a94:	4b0c      	ldr	r3, [pc, #48]	; (8000ac8 <CalcAc_I_ByWave+0x38>)
 8000a96:	4c0d      	ldr	r4, [pc, #52]	; (8000acc <CalcAc_I_ByWave+0x3c>)
 8000a98:	681b      	ldr	r3, [r3, #0]
 8000a9a:	6812      	ldr	r2, [r2, #0]
 8000a9c:	fbb3 f3f2 	udiv	r3, r3, r2
 8000aa0:	6023      	str	r3, [r4, #0]
	I_Out = asqrt(I_Out);
 8000aa2:	6820      	ldr	r0, [r4, #0]
 8000aa4:	f7ff ffdc 	bl	8000a60 <asqrt>
	I_Out = (uint32_t) (I_RATIO * I_Out);
 8000aa8:	4b09      	ldr	r3, [pc, #36]	; (8000ad0 <CalcAc_I_ByWave+0x40>)
	I_Out = asqrt(I_Out);
 8000aaa:	6020      	str	r0, [r4, #0]
	I_Out = (uint32_t) (I_RATIO * I_Out);
 8000aac:	6820      	ldr	r0, [r4, #0]
 8000aae:	681d      	ldr	r5, [r3, #0]
 8000ab0:	f7ff fc0e 	bl	80002d0 <__aeabi_ui2f>
 8000ab4:	4629      	mov	r1, r5
 8000ab6:	f7ff fc63 	bl	8000380 <__aeabi_fmul>
 8000aba:	f7ff fe27 	bl	800070c <__aeabi_f2uiz>
 8000abe:	6020      	str	r0, [r4, #0]
 8000ac0:	bd38      	pop	{r3, r4, r5, pc}
 8000ac2:	bf00      	nop
 8000ac4:	2000044c 	.word	0x2000044c
 8000ac8:	20000450 	.word	0x20000450
 8000acc:	200003f8 	.word	0x200003f8
 8000ad0:	20000004 	.word	0x20000004

08000ad4 <CalcAc_V_ByWave>:
}


void CalcAc_V_ByWave() {
 8000ad4:	b538      	push	{r3, r4, r5, lr}
	// calc AC data for one wave form'
	#ifdef Detect_ZeroV_Point
		ZeroV_point=ADC_Data[0]; // Store last value of V_out via zero point
	#endif
	V_Out = (uint32_t) (V_Out_RawData_temp / V_Out_Cnt_temp);
 8000ad6:	4a0c      	ldr	r2, [pc, #48]	; (8000b08 <CalcAc_V_ByWave+0x34>)
 8000ad8:	4b0c      	ldr	r3, [pc, #48]	; (8000b0c <CalcAc_V_ByWave+0x38>)
 8000ada:	4c0d      	ldr	r4, [pc, #52]	; (8000b10 <CalcAc_V_ByWave+0x3c>)
 8000adc:	681b      	ldr	r3, [r3, #0]
 8000ade:	6812      	ldr	r2, [r2, #0]
 8000ae0:	fbb3 f3f2 	udiv	r3, r3, r2
 8000ae4:	6023      	str	r3, [r4, #0]
	V_Out = asqrt(V_Out);
 8000ae6:	6820      	ldr	r0, [r4, #0]
 8000ae8:	f7ff ffba 	bl	8000a60 <asqrt>
	V_Out = (uint32_t) (V_RATIO * V_Out);
 8000aec:	4b09      	ldr	r3, [pc, #36]	; (8000b14 <CalcAc_V_ByWave+0x40>)
	V_Out = asqrt(V_Out);
 8000aee:	6020      	str	r0, [r4, #0]
	V_Out = (uint32_t) (V_RATIO * V_Out);
 8000af0:	6820      	ldr	r0, [r4, #0]
 8000af2:	681d      	ldr	r5, [r3, #0]
 8000af4:	f7ff fbec 	bl	80002d0 <__aeabi_ui2f>
 8000af8:	4629      	mov	r1, r5
 8000afa:	f7ff fc41 	bl	8000380 <__aeabi_fmul>
 8000afe:	f7ff fe05 	bl	800070c <__aeabi_f2uiz>
 8000b02:	6020      	str	r0, [r4, #0]
 8000b04:	bd38      	pop	{r3, r4, r5, pc}
 8000b06:	bf00      	nop
 8000b08:	2000046c 	.word	0x2000046c
 8000b0c:	20000470 	.word	0x20000470
 8000b10:	20000414 	.word	0x20000414
 8000b14:	2000004c 	.word	0x2000004c

08000b18 <CalcDC_Average>:
}

void CalcDC_Average() {
	#ifdef DC_PROTECTION
		 DC_DataAverage=(DC_Data_temp/DC_DataCnt_temp);
 8000b18:	4b04      	ldr	r3, [pc, #16]	; (8000b2c <CalcDC_Average+0x14>)
 8000b1a:	4a05      	ldr	r2, [pc, #20]	; (8000b30 <CalcDC_Average+0x18>)
 8000b1c:	681b      	ldr	r3, [r3, #0]
 8000b1e:	6812      	ldr	r2, [r2, #0]
 8000b20:	fbb3 f3f2 	udiv	r3, r3, r2
 8000b24:	4a03      	ldr	r2, [pc, #12]	; (8000b34 <CalcDC_Average+0x1c>)
 8000b26:	6013      	str	r3, [r2, #0]
 8000b28:	4770      	bx	lr
 8000b2a:	bf00      	nop
 8000b2c:	20000430 	.word	0x20000430
 8000b30:	2000042c 	.word	0x2000042c
 8000b34:	200003dc 	.word	0x200003dc

08000b38 <ReadTempValue>:
	#endif
}

void ReadTempValue() {
		if (TempBuffer_Flag==1) {
 8000b38:	4a1f      	ldr	r2, [pc, #124]	; (8000bb8 <ReadTempValue+0x80>)
 8000b3a:	8813      	ldrh	r3, [r2, #0]
 8000b3c:	b29b      	uxth	r3, r3
 8000b3e:	2b01      	cmp	r3, #1
 8000b40:	d038      	beq.n	8000bb4 <ReadTempValue+0x7c>
			return;
		}
		TempBuffer_Flag=1;
 8000b42:	2301      	movs	r3, #1
 8000b44:	8013      	strh	r3, [r2, #0]
		V_1_temp=V_1;
 8000b46:	4b1d      	ldr	r3, [pc, #116]	; (8000bbc <ReadTempValue+0x84>)
 8000b48:	681a      	ldr	r2, [r3, #0]
 8000b4a:	4b1d      	ldr	r3, [pc, #116]	; (8000bc0 <ReadTempValue+0x88>)
 8000b4c:	601a      	str	r2, [r3, #0]
		V_2_temp=V_2;
 8000b4e:	4b1d      	ldr	r3, [pc, #116]	; (8000bc4 <ReadTempValue+0x8c>)
 8000b50:	681a      	ldr	r2, [r3, #0]
 8000b52:	4b1d      	ldr	r3, [pc, #116]	; (8000bc8 <ReadTempValue+0x90>)
 8000b54:	601a      	str	r2, [r3, #0]
		V_3_temp=V_3;
 8000b56:	4b1d      	ldr	r3, [pc, #116]	; (8000bcc <ReadTempValue+0x94>)
 8000b58:	681a      	ldr	r2, [r3, #0]
 8000b5a:	4b1d      	ldr	r3, [pc, #116]	; (8000bd0 <ReadTempValue+0x98>)
 8000b5c:	601a      	str	r2, [r3, #0]
		V_4_temp=V_4;
 8000b5e:	4b1d      	ldr	r3, [pc, #116]	; (8000bd4 <ReadTempValue+0x9c>)
 8000b60:	681a      	ldr	r2, [r3, #0]
 8000b62:	4b1d      	ldr	r3, [pc, #116]	; (8000bd8 <ReadTempValue+0xa0>)
 8000b64:	601a      	str	r2, [r3, #0]

		Vcnt_1_temp=V_Cnt[0];
 8000b66:	4b1d      	ldr	r3, [pc, #116]	; (8000bdc <ReadTempValue+0xa4>)
 8000b68:	4a1d      	ldr	r2, [pc, #116]	; (8000be0 <ReadTempValue+0xa8>)
 8000b6a:	6819      	ldr	r1, [r3, #0]
 8000b6c:	6011      	str	r1, [r2, #0]
		Vcnt_2_temp=V_Cnt[1];
 8000b6e:	6859      	ldr	r1, [r3, #4]
 8000b70:	4a1c      	ldr	r2, [pc, #112]	; (8000be4 <ReadTempValue+0xac>)
 8000b72:	6011      	str	r1, [r2, #0]
		Vcnt_3_temp=V_Cnt[2];
 8000b74:	6899      	ldr	r1, [r3, #8]
 8000b76:	4a1c      	ldr	r2, [pc, #112]	; (8000be8 <ReadTempValue+0xb0>)
 8000b78:	6011      	str	r1, [r2, #0]
		Vcnt_4_temp=V_Cnt[3];
 8000b7a:	68da      	ldr	r2, [r3, #12]
 8000b7c:	4b1b      	ldr	r3, [pc, #108]	; (8000bec <ReadTempValue+0xb4>)
 8000b7e:	601a      	str	r2, [r3, #0]

		I_Out_RawData_temp=I_Out_RawData;
 8000b80:	4b1b      	ldr	r3, [pc, #108]	; (8000bf0 <ReadTempValue+0xb8>)
 8000b82:	e9d3 2300 	ldrd	r2, r3, [r3]
 8000b86:	4b1b      	ldr	r3, [pc, #108]	; (8000bf4 <ReadTempValue+0xbc>)
 8000b88:	601a      	str	r2, [r3, #0]
		V_Out_RawData_temp=V_Out_RawData;
 8000b8a:	4b1b      	ldr	r3, [pc, #108]	; (8000bf8 <ReadTempValue+0xc0>)
 8000b8c:	e9d3 2300 	ldrd	r2, r3, [r3]
 8000b90:	4b1a      	ldr	r3, [pc, #104]	; (8000bfc <ReadTempValue+0xc4>)
 8000b92:	601a      	str	r2, [r3, #0]
		I_Out_Cnt_temp=I_Out_Cnt;
 8000b94:	4b1a      	ldr	r3, [pc, #104]	; (8000c00 <ReadTempValue+0xc8>)
 8000b96:	681a      	ldr	r2, [r3, #0]
 8000b98:	4b1a      	ldr	r3, [pc, #104]	; (8000c04 <ReadTempValue+0xcc>)
 8000b9a:	601a      	str	r2, [r3, #0]
		V_Out_Cnt_temp=V_Out_Cnt;
 8000b9c:	4b1a      	ldr	r3, [pc, #104]	; (8000c08 <ReadTempValue+0xd0>)
 8000b9e:	681a      	ldr	r2, [r3, #0]
 8000ba0:	4b1a      	ldr	r3, [pc, #104]	; (8000c0c <ReadTempValue+0xd4>)
 8000ba2:	601a      	str	r2, [r3, #0]

		#ifdef DC_PROTECTION
			DC_Data_temp=DC_Data;
 8000ba4:	4b1a      	ldr	r3, [pc, #104]	; (8000c10 <ReadTempValue+0xd8>)
 8000ba6:	681a      	ldr	r2, [r3, #0]
 8000ba8:	4b1a      	ldr	r3, [pc, #104]	; (8000c14 <ReadTempValue+0xdc>)
 8000baa:	601a      	str	r2, [r3, #0]
			DC_DataCnt_temp=DC_DataCnt;
 8000bac:	4b1a      	ldr	r3, [pc, #104]	; (8000c18 <ReadTempValue+0xe0>)
 8000bae:	681a      	ldr	r2, [r3, #0]
 8000bb0:	4b1a      	ldr	r3, [pc, #104]	; (8000c1c <ReadTempValue+0xe4>)
 8000bb2:	601a      	str	r2, [r3, #0]
 8000bb4:	4770      	bx	lr
 8000bb6:	bf00      	nop
 8000bb8:	200003c4 	.word	0x200003c4
 8000bbc:	20000028 	.word	0x20000028
 8000bc0:	2000045c 	.word	0x2000045c
 8000bc4:	2000002c 	.word	0x2000002c
 8000bc8:	20000460 	.word	0x20000460
 8000bcc:	20000030 	.word	0x20000030
 8000bd0:	20000464 	.word	0x20000464
 8000bd4:	20000034 	.word	0x20000034
 8000bd8:	20000468 	.word	0x20000468
 8000bdc:	20000038 	.word	0x20000038
 8000be0:	20000474 	.word	0x20000474
 8000be4:	20000478 	.word	0x20000478
 8000be8:	2000047c 	.word	0x2000047c
 8000bec:	20000480 	.word	0x20000480
 8000bf0:	20000400 	.word	0x20000400
 8000bf4:	20000450 	.word	0x20000450
 8000bf8:	20000418 	.word	0x20000418
 8000bfc:	20000470 	.word	0x20000470
 8000c00:	20000000 	.word	0x20000000
 8000c04:	2000044c 	.word	0x2000044c
 8000c08:	20000048 	.word	0x20000048
 8000c0c:	2000046c 	.word	0x2000046c
 8000c10:	200003d8 	.word	0x200003d8
 8000c14:	20000430 	.word	0x20000430
 8000c18:	200003e0 	.word	0x200003e0
 8000c1c:	2000042c 	.word	0x2000042c

08000c20 <UpdateAmplitudeByV>:
			V_5_temp=V_5;
			Vcnt_5_temp=V_Cnt[4];
	    #endif
}

void UpdateAmplitudeByV() {
 8000c20:	b5f8      	push	{r3, r4, r5, r6, r7, lr}
	//store value in temp
	if (TempBuffer_Flag==0) {
 8000c22:	4b6a      	ldr	r3, [pc, #424]	; (8000dcc <UpdateAmplitudeByV+0x1ac>)
 8000c24:	881b      	ldrh	r3, [r3, #0]
 8000c26:	b29b      	uxth	r3, r3
 8000c28:	b90b      	cbnz	r3, 8000c2e <UpdateAmplitudeByV+0xe>
		ReadTempValue();
 8000c2a:	f7ff ff85 	bl	8000b38 <ReadTempValue>
	}
	//

	CalcAc_V_ByWave();
 8000c2e:	f7ff ff51 	bl	8000ad4 <CalcAc_V_ByWave>
	CalcAc_I_ByWave();
 8000c32:	f7ff ff2d 	bl	8000a90 <CalcAc_I_ByWave>
	CalcDC_Average();
 8000c36:	f7ff ff6f 	bl	8000b18 <CalcDC_Average>

	#ifndef USE_VREF_FOR_ADC_CORRECTION
		V_1_temp=(uint32_t) (V_1_temp/Vcnt_1_temp);
 8000c3a:	4b65      	ldr	r3, [pc, #404]	; (8000dd0 <UpdateAmplitudeByV+0x1b0>)
 8000c3c:	4965      	ldr	r1, [pc, #404]	; (8000dd4 <UpdateAmplitudeByV+0x1b4>)
 8000c3e:	681a      	ldr	r2, [r3, #0]
 8000c40:	6809      	ldr	r1, [r1, #0]
		V_2_temp=(uint32_t) (V_2_temp/Vcnt_2_temp);
 8000c42:	4c65      	ldr	r4, [pc, #404]	; (8000dd8 <UpdateAmplitudeByV+0x1b8>)
		V_1_temp=(uint32_t) (V_1_temp/Vcnt_1_temp);
 8000c44:	fbb2 f2f1 	udiv	r2, r2, r1
		V_2_temp=(uint32_t) (V_2_temp/Vcnt_2_temp);
 8000c48:	4964      	ldr	r1, [pc, #400]	; (8000ddc <UpdateAmplitudeByV+0x1bc>)
		V_1_temp=(uint32_t) (V_1_temp/Vcnt_1_temp);
 8000c4a:	601a      	str	r2, [r3, #0]
		V_2_temp=(uint32_t) (V_2_temp/Vcnt_2_temp);
 8000c4c:	6822      	ldr	r2, [r4, #0]
 8000c4e:	6809      	ldr	r1, [r1, #0]
		V_3_temp=(uint32_t) (V_3_temp/Vcnt_3_temp);
 8000c50:	4d63      	ldr	r5, [pc, #396]	; (8000de0 <UpdateAmplitudeByV+0x1c0>)
		V_2_temp=(uint32_t) (V_2_temp/Vcnt_2_temp);
 8000c52:	fbb2 f2f1 	udiv	r2, r2, r1
		V_3_temp=(uint32_t) (V_3_temp/Vcnt_3_temp);
 8000c56:	4963      	ldr	r1, [pc, #396]	; (8000de4 <UpdateAmplitudeByV+0x1c4>)
		V_2_temp=(uint32_t) (V_2_temp/Vcnt_2_temp);
 8000c58:	6022      	str	r2, [r4, #0]
		V_3_temp=(uint32_t) (V_3_temp/Vcnt_3_temp);
 8000c5a:	682a      	ldr	r2, [r5, #0]
 8000c5c:	6809      	ldr	r1, [r1, #0]
		V_4_temp=(uint32_t) (V_4_temp/Vcnt_4_temp);
 8000c5e:	4e62      	ldr	r6, [pc, #392]	; (8000de8 <UpdateAmplitudeByV+0x1c8>)
		V_3_temp=(uint32_t) (V_3_temp/Vcnt_3_temp);
 8000c60:	fbb2 f2f1 	udiv	r2, r2, r1
		V_4_temp=(uint32_t) (V_4_temp/Vcnt_4_temp);
 8000c64:	4961      	ldr	r1, [pc, #388]	; (8000dec <UpdateAmplitudeByV+0x1cc>)
		V_3_temp=(uint32_t) (V_3_temp/Vcnt_3_temp);
 8000c66:	602a      	str	r2, [r5, #0]
		V_4_temp=(uint32_t) (V_4_temp/Vcnt_4_temp);
 8000c68:	6832      	ldr	r2, [r6, #0]
 8000c6a:	6809      	ldr	r1, [r1, #0]
		Sine_Amplitude_4=CalcNewAmp(V_4_temp,V4_etalon);
	#endif

	#ifdef AMP_CORRECTION_TYPE_STEP
		amp1_target=CalcNewAmp(V_1_temp,V1_etalon);
		Sine_Amplitude_1=CalcNewAmpByStep(Sine_Amplitude_1,amp1_target);
 8000c6c:	4f60      	ldr	r7, [pc, #384]	; (8000df0 <UpdateAmplitudeByV+0x1d0>)
		V_4_temp=(uint32_t) (V_4_temp/Vcnt_4_temp);
 8000c6e:	fbb2 f2f1 	udiv	r2, r2, r1
 8000c72:	6032      	str	r2, [r6, #0]
		amp1_target=CalcNewAmp(V_1_temp,V1_etalon);
 8000c74:	6818      	ldr	r0, [r3, #0]
 8000c76:	f44f 6100 	mov.w	r1, #2048	; 0x800
 8000c7a:	f7ff fe99 	bl	80009b0 <CalcNewAmp>
 8000c7e:	4b5d      	ldr	r3, [pc, #372]	; (8000df4 <UpdateAmplitudeByV+0x1d4>)
 8000c80:	4601      	mov	r1, r0
 8000c82:	6018      	str	r0, [r3, #0]
		Sine_Amplitude_1=CalcNewAmpByStep(Sine_Amplitude_1,amp1_target);
 8000c84:	6838      	ldr	r0, [r7, #0]
 8000c86:	f7ff fec5 	bl	8000a14 <CalcNewAmpByStep>
 8000c8a:	6038      	str	r0, [r7, #0]

		amp2_target=CalcNewAmp(V_2_temp,V2_etalon);
 8000c8c:	6820      	ldr	r0, [r4, #0]
 8000c8e:	f44f 6100 	mov.w	r1, #2048	; 0x800
 8000c92:	f7ff fe8d 	bl	80009b0 <CalcNewAmp>
		Sine_Amplitude_2=CalcNewAmpByStep(Sine_Amplitude_2,amp2_target);
 8000c96:	4c58      	ldr	r4, [pc, #352]	; (8000df8 <UpdateAmplitudeByV+0x1d8>)
		amp2_target=CalcNewAmp(V_2_temp,V2_etalon);
 8000c98:	4b58      	ldr	r3, [pc, #352]	; (8000dfc <UpdateAmplitudeByV+0x1dc>)
 8000c9a:	4601      	mov	r1, r0
 8000c9c:	6018      	str	r0, [r3, #0]
		Sine_Amplitude_2=CalcNewAmpByStep(Sine_Amplitude_2,amp2_target);
 8000c9e:	6820      	ldr	r0, [r4, #0]
 8000ca0:	f7ff feb8 	bl	8000a14 <CalcNewAmpByStep>
 8000ca4:	6020      	str	r0, [r4, #0]

		amp3_target=CalcNewAmp(V_3_temp,V3_etalon);
 8000ca6:	6828      	ldr	r0, [r5, #0]
 8000ca8:	f44f 6100 	mov.w	r1, #2048	; 0x800
 8000cac:	f7ff fe80 	bl	80009b0 <CalcNewAmp>
		Sine_Amplitude_3=CalcNewAmpByStep(Sine_Amplitude_3,amp3_target);
 8000cb0:	4d53      	ldr	r5, [pc, #332]	; (8000e00 <UpdateAmplitudeByV+0x1e0>)
		amp3_target=CalcNewAmp(V_3_temp,V3_etalon);
 8000cb2:	4b54      	ldr	r3, [pc, #336]	; (8000e04 <UpdateAmplitudeByV+0x1e4>)
 8000cb4:	4601      	mov	r1, r0
 8000cb6:	6018      	str	r0, [r3, #0]
		Sine_Amplitude_3=CalcNewAmpByStep(Sine_Amplitude_3,amp3_target);
 8000cb8:	6828      	ldr	r0, [r5, #0]
 8000cba:	f7ff feab 	bl	8000a14 <CalcNewAmpByStep>
 8000cbe:	6028      	str	r0, [r5, #0]

		amp4_target=CalcNewAmp(V_4_temp,V4_etalon);
 8000cc0:	6830      	ldr	r0, [r6, #0]
 8000cc2:	f44f 6100 	mov.w	r1, #2048	; 0x800
 8000cc6:	f7ff fe73 	bl	80009b0 <CalcNewAmp>
		Sine_Amplitude_4=CalcNewAmpByStep(Sine_Amplitude_4,amp4_target);
 8000cca:	4e4f      	ldr	r6, [pc, #316]	; (8000e08 <UpdateAmplitudeByV+0x1e8>)
		amp4_target=CalcNewAmp(V_4_temp,V4_etalon);
 8000ccc:	4b4f      	ldr	r3, [pc, #316]	; (8000e0c <UpdateAmplitudeByV+0x1ec>)
 8000cce:	4601      	mov	r1, r0
 8000cd0:	6018      	str	r0, [r3, #0]
		Sine_Amplitude_4=CalcNewAmpByStep(Sine_Amplitude_4,amp4_target);
 8000cd2:	6830      	ldr	r0, [r6, #0]
 8000cd4:	f7ff fe9e 	bl	8000a14 <CalcNewAmpByStep>
 8000cd8:	6030      	str	r0, [r6, #0]
	#endif

	#ifdef AMP_PROTECTION
		uint16_t AverageAmplitude=(uint16_t) (100*(float)(Sine_Amplitude_4+Sine_Amplitude_3+Sine_Amplitude_2+Sine_Amplitude_1));
 8000cda:	6830      	ldr	r0, [r6, #0]
 8000cdc:	6829      	ldr	r1, [r5, #0]
 8000cde:	6826      	ldr	r6, [r4, #0]
		if ((AMP_BLOCKED==0) && ((AverageAmplitude>=AMP_PROTECTION_MAX) || (AverageAmplitude<=AMP_PROTECTION_MIN))) {
 8000ce0:	4c4b      	ldr	r4, [pc, #300]	; (8000e10 <UpdateAmplitudeByV+0x1f0>)
		uint16_t AverageAmplitude=(uint16_t) (100*(float)(Sine_Amplitude_4+Sine_Amplitude_3+Sine_Amplitude_2+Sine_Amplitude_1));
 8000ce2:	683d      	ldr	r5, [r7, #0]
		if ((AMP_BLOCKED==0) && ((AverageAmplitude>=AMP_PROTECTION_MAX) || (AverageAmplitude<=AMP_PROTECTION_MIN))) {
 8000ce4:	6823      	ldr	r3, [r4, #0]
 8000ce6:	b9d3      	cbnz	r3, 8000d1e <UpdateAmplitudeByV+0xfe>
		uint16_t AverageAmplitude=(uint16_t) (100*(float)(Sine_Amplitude_4+Sine_Amplitude_3+Sine_Amplitude_2+Sine_Amplitude_1));
 8000ce8:	f7ff fa42 	bl	8000170 <__addsf3>
 8000cec:	4631      	mov	r1, r6
 8000cee:	f7ff fa3f 	bl	8000170 <__addsf3>
 8000cf2:	4629      	mov	r1, r5
 8000cf4:	f7ff fa3c 	bl	8000170 <__addsf3>
 8000cf8:	4946      	ldr	r1, [pc, #280]	; (8000e14 <UpdateAmplitudeByV+0x1f4>)
 8000cfa:	f7ff fb41 	bl	8000380 <__aeabi_fmul>
 8000cfe:	f7ff fd05 	bl	800070c <__aeabi_f2uiz>
		if ((AMP_BLOCKED==0) && ((AverageAmplitude>=AMP_PROTECTION_MAX) || (AverageAmplitude<=AMP_PROTECTION_MIN))) {
 8000d02:	38c9      	subs	r0, #201	; 0xc9
 8000d04:	b280      	uxth	r0, r0
 8000d06:	f5b0 7fc7 	cmp.w	r0, #398	; 0x18e
 8000d0a:	d908      	bls.n	8000d1e <UpdateAmplitudeByV+0xfe>
			AMP_PROTECTION_CNT++;
 8000d0c:	4a42      	ldr	r2, [pc, #264]	; (8000e18 <UpdateAmplitudeByV+0x1f8>)
 8000d0e:	6813      	ldr	r3, [r2, #0]
 8000d10:	3301      	adds	r3, #1
			if (AMP_PROTECTION_CNT>AMP_PROTECTION_MINMAX_CNT) {
 8000d12:	f5b3 6ffa 	cmp.w	r3, #2000	; 0x7d0
			AMP_PROTECTION_CNT++;
 8000d16:	6013      	str	r3, [r2, #0]
				AMP_BLOCKED=1;
 8000d18:	bfc4      	itt	gt
 8000d1a:	2301      	movgt	r3, #1
 8000d1c:	6023      	strgt	r3, [r4, #0]

		}
	#endif

	#ifdef DC_PROTECTION
			 if ((DC_BLOCKED==0) && (DC_DataAverage>=DC_PROTECTION_MAX) ) {
 8000d1e:	4a3f      	ldr	r2, [pc, #252]	; (8000e1c <UpdateAmplitudeByV+0x1fc>)
 8000d20:	6813      	ldr	r3, [r2, #0]
 8000d22:	b973      	cbnz	r3, 8000d42 <UpdateAmplitudeByV+0x122>
 8000d24:	4b3e      	ldr	r3, [pc, #248]	; (8000e20 <UpdateAmplitudeByV+0x200>)
 8000d26:	6819      	ldr	r1, [r3, #0]
 8000d28:	f640 53ab 	movw	r3, #3499	; 0xdab
 8000d2c:	4299      	cmp	r1, r3
 8000d2e:	d908      	bls.n	8000d42 <UpdateAmplitudeByV+0x122>
				 DC_PROTECTION_CNT++;
 8000d30:	493c      	ldr	r1, [pc, #240]	; (8000e24 <UpdateAmplitudeByV+0x204>)
 8000d32:	680b      	ldr	r3, [r1, #0]
 8000d34:	3301      	adds	r3, #1
				 if (DC_PROTECTION_CNT>DC_PROTECTION_WAVE_CNT) {
 8000d36:	f5b3 7f7a 	cmp.w	r3, #1000	; 0x3e8
				 DC_PROTECTION_CNT++;
 8000d3a:	600b      	str	r3, [r1, #0]
				 	DC_BLOCKED=1;
 8000d3c:	bfc4      	itt	gt
 8000d3e:	2301      	movgt	r3, #1
 8000d40:	6013      	strgt	r3, [r2, #0]
				 }
			 }
	#endif

	#ifdef VOUT_PROTECTION
		if ((VOUT_BLOCKED==0) && ((V_Out>=VOUT_PROTECTION_MAX) || (V_Out<=VOUT_PROTECTION_MIN))) {
 8000d42:	4b39      	ldr	r3, [pc, #228]	; (8000e28 <UpdateAmplitudeByV+0x208>)
 8000d44:	681a      	ldr	r2, [r3, #0]
 8000d46:	b9da      	cbnz	r2, 8000d80 <UpdateAmplitudeByV+0x160>
 8000d48:	4a38      	ldr	r2, [pc, #224]	; (8000e2c <UpdateAmplitudeByV+0x20c>)
 8000d4a:	6811      	ldr	r1, [r2, #0]
 8000d4c:	f5b1 7f96 	cmp.w	r1, #300	; 0x12c
 8000d50:	d202      	bcs.n	8000d58 <UpdateAmplitudeByV+0x138>
 8000d52:	6811      	ldr	r1, [r2, #0]
 8000d54:	2964      	cmp	r1, #100	; 0x64
 8000d56:	d809      	bhi.n	8000d6c <UpdateAmplitudeByV+0x14c>
				VOUT_PROTECTION_CNT++;
 8000d58:	4835      	ldr	r0, [pc, #212]	; (8000e30 <UpdateAmplitudeByV+0x210>)
 8000d5a:	6801      	ldr	r1, [r0, #0]
 8000d5c:	3101      	adds	r1, #1
				if (VOUT_PROTECTION_CNT>VOUT_PROTECTION_MINMAX_CNT) {
 8000d5e:	f5b1 7ffa 	cmp.w	r1, #500	; 0x1f4
				VOUT_PROTECTION_CNT++;
 8000d62:	6001      	str	r1, [r0, #0]
				if (VOUT_PROTECTION_CNT>VOUT_PROTECTION_MINMAX_CNT) {
 8000d64:	dd02      	ble.n	8000d6c <UpdateAmplitudeByV+0x14c>
				}
		}
		if ((VOUT_BLOCKED==0) && (V_Out>=VOUT_PROTECTION_ULTRA) ) {
						VOUT_PROTECTION_CNT++;
						if (VOUT_PROTECTION_CNT>VOUT_PROTECTION_MOMENTARY_CNT) {
							VOUT_BLOCKED=1;
 8000d66:	2201      	movs	r2, #1
 8000d68:	601a      	str	r2, [r3, #0]
 8000d6a:	e009      	b.n	8000d80 <UpdateAmplitudeByV+0x160>
		if ((VOUT_BLOCKED==0) && (V_Out>=VOUT_PROTECTION_ULTRA) ) {
 8000d6c:	6812      	ldr	r2, [r2, #0]
 8000d6e:	f5b2 7fbe 	cmp.w	r2, #380	; 0x17c
 8000d72:	d305      	bcc.n	8000d80 <UpdateAmplitudeByV+0x160>
						VOUT_PROTECTION_CNT++;
 8000d74:	492e      	ldr	r1, [pc, #184]	; (8000e30 <UpdateAmplitudeByV+0x210>)
 8000d76:	680a      	ldr	r2, [r1, #0]
 8000d78:	3201      	adds	r2, #1
						if (VOUT_PROTECTION_CNT>VOUT_PROTECTION_MOMENTARY_CNT) {
 8000d7a:	2a02      	cmp	r2, #2
						VOUT_PROTECTION_CNT++;
 8000d7c:	600a      	str	r2, [r1, #0]
						if (VOUT_PROTECTION_CNT>VOUT_PROTECTION_MOMENTARY_CNT) {
 8000d7e:	dcf2      	bgt.n	8000d66 <UpdateAmplitudeByV+0x146>
						}
				}
	#endif

	#ifdef IOUT_PROTECTION
		if ((IOUT_BLOCKED==0) && (I_Out>=IOUT_PROTECTION_MAX)) {
 8000d80:	492c      	ldr	r1, [pc, #176]	; (8000e34 <UpdateAmplitudeByV+0x214>)
 8000d82:	680b      	ldr	r3, [r1, #0]
 8000d84:	460c      	mov	r4, r1
 8000d86:	b973      	cbnz	r3, 8000da6 <UpdateAmplitudeByV+0x186>
 8000d88:	f241 3287 	movw	r2, #4999	; 0x1387
 8000d8c:	4b2a      	ldr	r3, [pc, #168]	; (8000e38 <UpdateAmplitudeByV+0x218>)
 8000d8e:	6818      	ldr	r0, [r3, #0]
 8000d90:	4290      	cmp	r0, r2
 8000d92:	d90c      	bls.n	8000dae <UpdateAmplitudeByV+0x18e>
				IOUT_PROTECTION_CNT++;
 8000d94:	4829      	ldr	r0, [pc, #164]	; (8000e3c <UpdateAmplitudeByV+0x21c>)
 8000d96:	6802      	ldr	r2, [r0, #0]
 8000d98:	3201      	adds	r2, #1
				if (IOUT_PROTECTION_CNT>IOUT_PROTECTION_MINMAX_CNT) {
 8000d9a:	f5b2 7ffa 	cmp.w	r2, #500	; 0x1f4
				IOUT_PROTECTION_CNT++;
 8000d9e:	6002      	str	r2, [r0, #0]
				if (IOUT_PROTECTION_CNT>IOUT_PROTECTION_MINMAX_CNT) {
 8000da0:	dd05      	ble.n	8000dae <UpdateAmplitudeByV+0x18e>
					IOUT_BLOCKED=1;
 8000da2:	2301      	movs	r3, #1
 8000da4:	600b      	str	r3, [r1, #0]
						}
				}
	#endif

	ResetV_data();
}
 8000da6:	e8bd 40f8 	ldmia.w	sp!, {r3, r4, r5, r6, r7, lr}
	ResetV_data();
 8000daa:	f7ff bd8d 	b.w	80008c8 <ResetV_data>
		if ((IOUT_BLOCKED==0) && (I_Out>=IOUT_PROTECTION_ULTRA) ) {
 8000dae:	681a      	ldr	r2, [r3, #0]
 8000db0:	f242 3327 	movw	r3, #8999	; 0x2327
 8000db4:	429a      	cmp	r2, r3
 8000db6:	d9f6      	bls.n	8000da6 <UpdateAmplitudeByV+0x186>
			IOUT_PROTECTION_CNT++;
 8000db8:	4a20      	ldr	r2, [pc, #128]	; (8000e3c <UpdateAmplitudeByV+0x21c>)
 8000dba:	6813      	ldr	r3, [r2, #0]
 8000dbc:	3301      	adds	r3, #1
						if (IOUT_PROTECTION_CNT>IOUT_PROTECTION_MOMENTARY_CNT) {
 8000dbe:	2b02      	cmp	r3, #2
			IOUT_PROTECTION_CNT++;
 8000dc0:	6013      	str	r3, [r2, #0]
							IOUT_BLOCKED=1;
 8000dc2:	bfc4      	itt	gt
 8000dc4:	2301      	movgt	r3, #1
 8000dc6:	6023      	strgt	r3, [r4, #0]
 8000dc8:	e7ed      	b.n	8000da6 <UpdateAmplitudeByV+0x186>
 8000dca:	bf00      	nop
 8000dcc:	200003c4 	.word	0x200003c4
 8000dd0:	2000045c 	.word	0x2000045c
 8000dd4:	20000474 	.word	0x20000474
 8000dd8:	20000460 	.word	0x20000460
 8000ddc:	20000478 	.word	0x20000478
 8000de0:	20000464 	.word	0x20000464
 8000de4:	2000047c 	.word	0x2000047c
 8000de8:	20000468 	.word	0x20000468
 8000dec:	20000480 	.word	0x20000480
 8000df0:	20000018 	.word	0x20000018
 8000df4:	20000050 	.word	0x20000050
 8000df8:	2000001c 	.word	0x2000001c
 8000dfc:	20000054 	.word	0x20000054
 8000e00:	20000020 	.word	0x20000020
 8000e04:	20000058 	.word	0x20000058
 8000e08:	20000024 	.word	0x20000024
 8000e0c:	2000005c 	.word	0x2000005c
 8000e10:	200003c8 	.word	0x200003c8
 8000e14:	42c80000 	.word	0x42c80000
 8000e18:	200003cc 	.word	0x200003cc
 8000e1c:	200003d4 	.word	0x200003d4
 8000e20:	200003dc 	.word	0x200003dc
 8000e24:	200003e4 	.word	0x200003e4
 8000e28:	20000408 	.word	0x20000408
 8000e2c:	20000414 	.word	0x20000414
 8000e30:	2000040c 	.word	0x2000040c
 8000e34:	200003ec 	.word	0x200003ec
 8000e38:	200003f8 	.word	0x200003f8
 8000e3c:	200003f0 	.word	0x200003f0

08000e40 <CheckV_Feedback>:

void CheckV_Feedback() {

		///Calc I_out data AC coltage
			I_Out_Cnt++;
 8000e40:	4a32      	ldr	r2, [pc, #200]	; (8000f0c <CheckV_Feedback+0xcc>)
void CheckV_Feedback() {
 8000e42:	b530      	push	{r4, r5, lr}
			I_Out_Cnt++;
 8000e44:	6813      	ldr	r3, [r2, #0]
					I_Out_RawData=I_Out_RawData+TempVal*TempVal;
				}
			#endif

			#ifndef Detect_ZeroV_Point
				I_Out_RawData=I_Out_RawData+ADC_Data[1]*ADC_Data[1];
 8000e46:	4d32      	ldr	r5, [pc, #200]	; (8000f10 <CheckV_Feedback+0xd0>)
			I_Out_Cnt++;
 8000e48:	3301      	adds	r3, #1
 8000e4a:	6013      	str	r3, [r2, #0]
				I_Out_RawData=I_Out_RawData+ADC_Data[1]*ADC_Data[1];
 8000e4c:	4b31      	ldr	r3, [pc, #196]	; (8000f14 <CheckV_Feedback+0xd4>)
 8000e4e:	885a      	ldrh	r2, [r3, #2]
 8000e50:	b294      	uxth	r4, r2
 8000e52:	885a      	ldrh	r2, [r3, #2]
 8000e54:	e9d5 0100 	ldrd	r0, r1, [r5]
 8000e58:	b292      	uxth	r2, r2
 8000e5a:	4362      	muls	r2, r4
 8000e5c:	1880      	adds	r0, r0, r2
 8000e5e:	eb41 71e2 	adc.w	r1, r1, r2, asr #31
 8000e62:	e9c5 0100 	strd	r0, r1, [r5]

			//


	    //Calc V_out data AC coltage
		V_Out_Cnt++;
 8000e66:	492c      	ldr	r1, [pc, #176]	; (8000f18 <CheckV_Feedback+0xd8>)
				V_Out_RawData=V_Out_RawData+TempVal*TempVal;
			}
		#endif

		#ifndef Detect_ZeroV_Point
			V_Out_RawData=V_Out_RawData+ADC_Data[0]*ADC_Data[0];
 8000e68:	4d2c      	ldr	r5, [pc, #176]	; (8000f1c <CheckV_Feedback+0xdc>)
		V_Out_Cnt++;
 8000e6a:	680a      	ldr	r2, [r1, #0]
 8000e6c:	3201      	adds	r2, #1
 8000e6e:	600a      	str	r2, [r1, #0]
			V_Out_RawData=V_Out_RawData+ADC_Data[0]*ADC_Data[0];
 8000e70:	881a      	ldrh	r2, [r3, #0]
 8000e72:	b294      	uxth	r4, r2
 8000e74:	881a      	ldrh	r2, [r3, #0]
 8000e76:	e9d5 0100 	ldrd	r0, r1, [r5]
 8000e7a:	b292      	uxth	r2, r2
 8000e7c:	4362      	muls	r2, r4
 8000e7e:	1880      	adds	r0, r0, r2
 8000e80:	eb41 71e2 	adc.w	r1, r1, r2, asr #31
 8000e84:	e9c5 0100 	strd	r0, r1, [r5]
			V_5=V_5+ADC_Data[3];
			V_Cnt[4]= V_Cnt[4]+1;
		#endif

		#ifdef DC_PROTECTION
			 DC_Data=DC_Data+ADC_Data[2];
 8000e88:	4925      	ldr	r1, [pc, #148]	; (8000f20 <CheckV_Feedback+0xe0>)
 8000e8a:	889a      	ldrh	r2, [r3, #4]
 8000e8c:	6808      	ldr	r0, [r1, #0]
 8000e8e:	b292      	uxth	r2, r2
 8000e90:	4402      	add	r2, r0
 8000e92:	600a      	str	r2, [r1, #0]
			 DC_DataCnt=DC_DataCnt+1;
 8000e94:	4923      	ldr	r1, [pc, #140]	; (8000f24 <CheckV_Feedback+0xe4>)
		#endif


		if (sin_step>Sin_Amp_ind[2]) {
 8000e96:	4824      	ldr	r0, [pc, #144]	; (8000f28 <CheckV_Feedback+0xe8>)
			 DC_DataCnt=DC_DataCnt+1;
 8000e98:	680a      	ldr	r2, [r1, #0]
		if (sin_step>Sin_Amp_ind[2]) {
 8000e9a:	6884      	ldr	r4, [r0, #8]
			 DC_DataCnt=DC_DataCnt+1;
 8000e9c:	3201      	adds	r2, #1
 8000e9e:	600a      	str	r2, [r1, #0]
		if (sin_step>Sin_Amp_ind[2]) {
 8000ea0:	4922      	ldr	r1, [pc, #136]	; (8000f2c <CheckV_Feedback+0xec>)
 8000ea2:	880a      	ldrh	r2, [r1, #0]
 8000ea4:	b292      	uxth	r2, r2
 8000ea6:	42a2      	cmp	r2, r4
 8000ea8:	4a21      	ldr	r2, [pc, #132]	; (8000f30 <CheckV_Feedback+0xf0>)
 8000eaa:	dd09      	ble.n	8000ec0 <CheckV_Feedback+0x80>
			V_4=V_4+ADC_Data[0];
 8000eac:	4921      	ldr	r1, [pc, #132]	; (8000f34 <CheckV_Feedback+0xf4>)
 8000eae:	881b      	ldrh	r3, [r3, #0]
 8000eb0:	6808      	ldr	r0, [r1, #0]
 8000eb2:	b29b      	uxth	r3, r3
 8000eb4:	4403      	add	r3, r0
 8000eb6:	600b      	str	r3, [r1, #0]
			V_Cnt[3]= V_Cnt[3]+1;
 8000eb8:	68d3      	ldr	r3, [r2, #12]
 8000eba:	3301      	adds	r3, #1
 8000ebc:	60d3      	str	r3, [r2, #12]
			return;
 8000ebe:	bd30      	pop	{r4, r5, pc}
		}
		if (sin_step>Sin_Amp_ind[1]) {
 8000ec0:	880c      	ldrh	r4, [r1, #0]
 8000ec2:	6845      	ldr	r5, [r0, #4]
 8000ec4:	b2a4      	uxth	r4, r4
 8000ec6:	42ac      	cmp	r4, r5
 8000ec8:	dd09      	ble.n	8000ede <CheckV_Feedback+0x9e>
			V_3=V_3+ADC_Data[0];
 8000eca:	491b      	ldr	r1, [pc, #108]	; (8000f38 <CheckV_Feedback+0xf8>)
 8000ecc:	881b      	ldrh	r3, [r3, #0]
 8000ece:	6808      	ldr	r0, [r1, #0]
 8000ed0:	b29b      	uxth	r3, r3
 8000ed2:	4403      	add	r3, r0
 8000ed4:	600b      	str	r3, [r1, #0]
			V_Cnt[2]= V_Cnt[2]+1;
 8000ed6:	6893      	ldr	r3, [r2, #8]
 8000ed8:	3301      	adds	r3, #1
 8000eda:	6093      	str	r3, [r2, #8]
			return;
 8000edc:	bd30      	pop	{r4, r5, pc}
		}
		if (sin_step>Sin_Amp_ind[0]) {
 8000ede:	8809      	ldrh	r1, [r1, #0]
 8000ee0:	6800      	ldr	r0, [r0, #0]
 8000ee2:	b289      	uxth	r1, r1
			V_2=V_2+ADC_Data[0];
 8000ee4:	881b      	ldrh	r3, [r3, #0]
		if (sin_step>Sin_Amp_ind[0]) {
 8000ee6:	4281      	cmp	r1, r0
			V_2=V_2+ADC_Data[0];
 8000ee8:	b29b      	uxth	r3, r3
		if (sin_step>Sin_Amp_ind[0]) {
 8000eea:	dd07      	ble.n	8000efc <CheckV_Feedback+0xbc>
			V_2=V_2+ADC_Data[0];
 8000eec:	4913      	ldr	r1, [pc, #76]	; (8000f3c <CheckV_Feedback+0xfc>)
 8000eee:	6808      	ldr	r0, [r1, #0]
 8000ef0:	4403      	add	r3, r0
 8000ef2:	600b      	str	r3, [r1, #0]
			V_Cnt[1]= V_Cnt[1]+1;
 8000ef4:	6853      	ldr	r3, [r2, #4]
 8000ef6:	3301      	adds	r3, #1
 8000ef8:	6053      	str	r3, [r2, #4]
			return;
 8000efa:	bd30      	pop	{r4, r5, pc}
		} else {
			V_1=V_1+ADC_Data[0];
 8000efc:	4910      	ldr	r1, [pc, #64]	; (8000f40 <CheckV_Feedback+0x100>)
 8000efe:	6808      	ldr	r0, [r1, #0]
 8000f00:	4403      	add	r3, r0
 8000f02:	600b      	str	r3, [r1, #0]
			V_Cnt[0]= V_Cnt[0]+1;
 8000f04:	6813      	ldr	r3, [r2, #0]
 8000f06:	3301      	adds	r3, #1
 8000f08:	6013      	str	r3, [r2, #0]
 8000f0a:	bd30      	pop	{r4, r5, pc}
 8000f0c:	20000000 	.word	0x20000000
 8000f10:	20000400 	.word	0x20000400
 8000f14:	20000518 	.word	0x20000518
 8000f18:	20000048 	.word	0x20000048
 8000f1c:	20000418 	.word	0x20000418
 8000f20:	200003d8 	.word	0x200003d8
 8000f24:	200003e0 	.word	0x200003e0
 8000f28:	20000008 	.word	0x20000008
 8000f2c:	20000422 	.word	0x20000422
 8000f30:	20000038 	.word	0x20000038
 8000f34:	20000034 	.word	0x20000034
 8000f38:	20000030 	.word	0x20000030
 8000f3c:	2000002c 	.word	0x2000002c
 8000f40:	20000028 	.word	0x20000028

08000f44 <TM_CRC_Calculate8>:
		volatile uint32_t DC_Data_temp=0;
		volatile uint32_t DC_DataCnt_temp=0;
	#endif


uint32_t TM_CRC_Calculate8(uint8_t* arr, uint32_t count, uint8_t reset) {
 8000f44:	b510      	push	{r4, lr}
	uint32_t cnt;

	/* Reset CRC data register if necessary */
	if (reset) {
 8000f46:	b112      	cbz	r2, 8000f4e <TM_CRC_Calculate8+0xa>
		/* Reset generator */
		CRC->CR = CRC_CR_RESET;
 8000f48:	2201      	movs	r2, #1
 8000f4a:	4b0c      	ldr	r3, [pc, #48]	; (8000f7c <TM_CRC_Calculate8+0x38>)
 8000f4c:	609a      	str	r2, [r3, #8]
 8000f4e:	f021 0303 	bic.w	r3, r1, #3
 8000f52:	4a0a      	ldr	r2, [pc, #40]	; (8000f7c <TM_CRC_Calculate8+0x38>)
 8000f54:	4403      	add	r3, r0

	/* Calculate number of 32-bit blocks */
	cnt = count >> 2;

	/* Calculate */
	while (cnt--) {
 8000f56:	4298      	cmp	r0, r3
 8000f58:	d107      	bne.n	8000f6a <TM_CRC_Calculate8+0x26>
		/* Increase by 4 */
		arr += 4;
	}

	/* Calculate remaining data as 8-bit */
	cnt = count % 4;
 8000f5a:	f001 0103 	and.w	r1, r1, #3

	/* Calculate */
	while (cnt--) {
		/* Set new value */
		*((uint8_t *)&CRC->DR) = *arr++;
 8000f5e:	4807      	ldr	r0, [pc, #28]	; (8000f7c <TM_CRC_Calculate8+0x38>)
 8000f60:	4419      	add	r1, r3
	while (cnt--) {
 8000f62:	428b      	cmp	r3, r1
 8000f64:	d105      	bne.n	8000f72 <TM_CRC_Calculate8+0x2e>
	}

	/* Return data */
	return CRC->DR;
 8000f66:	6810      	ldr	r0, [r2, #0]
}
 8000f68:	bd10      	pop	{r4, pc}
		CRC->DR = *(uint32_t *)arr;
 8000f6a:	f850 4b04 	ldr.w	r4, [r0], #4
 8000f6e:	6014      	str	r4, [r2, #0]
 8000f70:	e7f1      	b.n	8000f56 <TM_CRC_Calculate8+0x12>
		*((uint8_t *)&CRC->DR) = *arr++;
 8000f72:	f813 4b01 	ldrb.w	r4, [r3], #1
 8000f76:	7004      	strb	r4, [r0, #0]
 8000f78:	e7f3      	b.n	8000f62 <TM_CRC_Calculate8+0x1e>
 8000f7a:	bf00      	nop
 8000f7c:	40023000 	.word	0x40023000

08000f80 <TM_CRC_Calculate32>:

	/* Return data */
	return CRC->DR;
}

uint32_t TM_CRC_Calculate32(uint32_t* arr, uint32_t count, uint8_t reset) {
 8000f80:	b510      	push	{r4, lr}
 8000f82:	4b07      	ldr	r3, [pc, #28]	; (8000fa0 <TM_CRC_Calculate32+0x20>)
	/* Reset CRC data register if necessary */
	if (reset) {
 8000f84:	b10a      	cbz	r2, 8000f8a <TM_CRC_Calculate32+0xa>
		/* Reset generator */
		CRC->CR = CRC_CR_RESET;
 8000f86:	2201      	movs	r2, #1
 8000f88:	609a      	str	r2, [r3, #8]
	}

	/* Calculate CRC */
	while (count--) {
		/* Set new value */
		CRC->DR = *arr++;
 8000f8a:	4a05      	ldr	r2, [pc, #20]	; (8000fa0 <TM_CRC_Calculate32+0x20>)
	while (count--) {
 8000f8c:	f111 31ff 	adds.w	r1, r1, #4294967295
 8000f90:	d201      	bcs.n	8000f96 <TM_CRC_Calculate32+0x16>
	}

	/* Return data */
	return CRC->DR;
 8000f92:	6818      	ldr	r0, [r3, #0]
}
 8000f94:	bd10      	pop	{r4, pc}
		CRC->DR = *arr++;
 8000f96:	f850 4b04 	ldr.w	r4, [r0], #4
 8000f9a:	6014      	str	r4, [r2, #0]
 8000f9c:	e7f6      	b.n	8000f8c <TM_CRC_Calculate32+0xc>
 8000f9e:	bf00      	nop
 8000fa0:	40023000 	.word	0x40023000

08000fa4 <AddUART_CRC>:
void AddUART_Header() {
	ClearUART_Buff();
	strcat(uart_buff,"@data@");
}

void AddUART_CRC() {
 8000fa4:	b538      	push	{r3, r4, r5, lr}
	memset(crc_buff, '\0', sizeof(crc_buff));
 8000fa6:	4c0b      	ldr	r4, [pc, #44]	; (8000fd4 <AddUART_CRC+0x30>)
	//uint32_t crc=Get_CRC((uint8_t *) &uart_buff, sizeof(uart_buff));
	uint32_t crc=TM_CRC_Calculate8((uint8_t *) &uart_buff, sizeof(uart_buff), 1);
 8000fa8:	4d0b      	ldr	r5, [pc, #44]	; (8000fd8 <AddUART_CRC+0x34>)
	memset(crc_buff, '\0', sizeof(crc_buff));
 8000faa:	2214      	movs	r2, #20
 8000fac:	2100      	movs	r1, #0
 8000fae:	4620      	mov	r0, r4
 8000fb0:	f004 fdfa 	bl	8005ba8 <memset>
	uint32_t crc=TM_CRC_Calculate8((uint8_t *) &uart_buff, sizeof(uart_buff), 1);
 8000fb4:	2201      	movs	r2, #1
 8000fb6:	2164      	movs	r1, #100	; 0x64
 8000fb8:	4628      	mov	r0, r5
 8000fba:	f7ff ffc3 	bl	8000f44 <TM_CRC_Calculate8>
	sprintf(crc_buff, "@crc@%08X@\r\n",  (unsigned int) crc);
 8000fbe:	4907      	ldr	r1, [pc, #28]	; (8000fdc <AddUART_CRC+0x38>)
 8000fc0:	4602      	mov	r2, r0
 8000fc2:	4620      	mov	r0, r4
 8000fc4:	f004 fdf8 	bl	8005bb8 <siprintf>
	strcat(uart_buff,crc_buff);
 8000fc8:	4621      	mov	r1, r4
 8000fca:	4628      	mov	r0, r5

}
 8000fcc:	e8bd 4038 	ldmia.w	sp!, {r3, r4, r5, lr}
	strcat(uart_buff,crc_buff);
 8000fd0:	f004 be16 	b.w	8005c00 <strcat>
 8000fd4:	200005d8 	.word	0x200005d8
 8000fd8:	20000558 	.word	0x20000558
 8000fdc:	08006480 	.word	0x08006480

08000fe0 <ClearUART_Buff>:
		WaitForUART_TX();
	}
}

void ClearUART_Buff() {
	memset(uart_buff, '\0', sizeof(uart_buff));
 8000fe0:	2264      	movs	r2, #100	; 0x64
 8000fe2:	2100      	movs	r1, #0
 8000fe4:	4801      	ldr	r0, [pc, #4]	; (8000fec <ClearUART_Buff+0xc>)
 8000fe6:	f004 bddf 	b.w	8005ba8 <memset>
 8000fea:	bf00      	nop
 8000fec:	20000558 	.word	0x20000558

08000ff0 <Get_ChipID>:
void Get_ChipID(void) {
 8000ff0:	b507      	push	{r0, r1, r2, lr}
	ClearUART_Buff();
 8000ff2:	f7ff fff5 	bl	8000fe0 <ClearUART_Buff>
	sprintf(uart_buff, "@id@%08X-%08X-%08X",   (unsigned int) TM_ID_GetUnique32(0),
 8000ff6:	4b08      	ldr	r3, [pc, #32]	; (8001018 <Get_ChipID+0x28>)
 8000ff8:	4908      	ldr	r1, [pc, #32]	; (800101c <Get_ChipID+0x2c>)
 8000ffa:	681a      	ldr	r2, [r3, #0]
 8000ffc:	3304      	adds	r3, #4
 8000ffe:	681b      	ldr	r3, [r3, #0]
 8001000:	6809      	ldr	r1, [r1, #0]
 8001002:	4807      	ldr	r0, [pc, #28]	; (8001020 <Get_ChipID+0x30>)
 8001004:	9100      	str	r1, [sp, #0]
 8001006:	4907      	ldr	r1, [pc, #28]	; (8001024 <Get_ChipID+0x34>)
 8001008:	f004 fdd6 	bl	8005bb8 <siprintf>
}
 800100c:	b003      	add	sp, #12
 800100e:	f85d eb04 	ldr.w	lr, [sp], #4
	AddUART_CRC();
 8001012:	f7ff bfc7 	b.w	8000fa4 <AddUART_CRC>
 8001016:	bf00      	nop
 8001018:	1ffff7ac 	.word	0x1ffff7ac
 800101c:	1ffff7b4 	.word	0x1ffff7b4
 8001020:	20000558 	.word	0x20000558
 8001024:	0800649b 	.word	0x0800649b

08001028 <Get_FlashSize>:
void Get_FlashSize(void) {
 8001028:	b508      	push	{r3, lr}
	ClearUART_Buff();
 800102a:	f7ff ffd9 	bl	8000fe0 <ClearUART_Buff>
    sprintf(uart_buff, "@flash_size@%02d", TM_ID_GetFlashSize());
 800102e:	4b05      	ldr	r3, [pc, #20]	; (8001044 <Get_FlashSize+0x1c>)
 8001030:	4905      	ldr	r1, [pc, #20]	; (8001048 <Get_FlashSize+0x20>)
 8001032:	881a      	ldrh	r2, [r3, #0]
 8001034:	4805      	ldr	r0, [pc, #20]	; (800104c <Get_FlashSize+0x24>)
 8001036:	b292      	uxth	r2, r2
 8001038:	f004 fdbe 	bl	8005bb8 <siprintf>
}
 800103c:	e8bd 4008 	ldmia.w	sp!, {r3, lr}
    AddUART_CRC();
 8001040:	f7ff bfb0 	b.w	8000fa4 <AddUART_CRC>
 8001044:	1ffff7cc 	.word	0x1ffff7cc
 8001048:	080064ae 	.word	0x080064ae
 800104c:	20000558 	.word	0x20000558

08001050 <Get_Version>:
void Get_Version(void) {
 8001050:	b510      	push	{r4, lr}
	strcat(uart_buff,"@version@");
 8001052:	4c07      	ldr	r4, [pc, #28]	; (8001070 <Get_Version+0x20>)
	ClearUART_Buff();
 8001054:	f7ff ffc4 	bl	8000fe0 <ClearUART_Buff>
	strcat(uart_buff,"@version@");
 8001058:	4906      	ldr	r1, [pc, #24]	; (8001074 <Get_Version+0x24>)
 800105a:	4620      	mov	r0, r4
 800105c:	f004 fdd0 	bl	8005c00 <strcat>
    strcat(uart_buff,__DATE__);
 8001060:	4620      	mov	r0, r4
 8001062:	4905      	ldr	r1, [pc, #20]	; (8001078 <Get_Version+0x28>)
 8001064:	f004 fdcc 	bl	8005c00 <strcat>
}
 8001068:	e8bd 4010 	ldmia.w	sp!, {r4, lr}
    AddUART_CRC();
 800106c:	f7ff bf9a 	b.w	8000fa4 <AddUART_CRC>
 8001070:	20000558 	.word	0x20000558
 8001074:	080064bf 	.word	0x080064bf
 8001078:	080064c9 	.word	0x080064c9

0800107c <WaitForUART_TX>:
}

void WaitForUART_TX() {
	while (!huart1_finished_tx);
 800107c:	4a02      	ldr	r2, [pc, #8]	; (8001088 <WaitForUART_TX+0xc>)
 800107e:	6813      	ldr	r3, [r2, #0]
 8001080:	2b00      	cmp	r3, #0
 8001082:	d0fc      	beq.n	800107e <WaitForUART_TX+0x2>
}
 8001084:	4770      	bx	lr
 8001086:	bf00      	nop
 8001088:	20000334 	.word	0x20000334

0800108c <SerialPrintln>:
	huart1_finished_tx = 0;
 800108c:	2200      	movs	r2, #0
void SerialPrintln(int WaitForTX) {
 800108e:	b570      	push	{r4, r5, r6, lr}
 8001090:	4604      	mov	r4, r0
	huart1_finished_tx = 0;
 8001092:	4b08      	ldr	r3, [pc, #32]	; (80010b4 <SerialPrintln+0x28>)
	while (HAL_UART_Transmit_DMA(&huart1, (uint8_t*) uart_buff, sizeof(uart_buff)-1) == HAL_BUSY);
 8001094:	4e08      	ldr	r6, [pc, #32]	; (80010b8 <SerialPrintln+0x2c>)
 8001096:	4d09      	ldr	r5, [pc, #36]	; (80010bc <SerialPrintln+0x30>)
	huart1_finished_tx = 0;
 8001098:	601a      	str	r2, [r3, #0]
	while (HAL_UART_Transmit_DMA(&huart1, (uint8_t*) uart_buff, sizeof(uart_buff)-1) == HAL_BUSY);
 800109a:	2263      	movs	r2, #99	; 0x63
 800109c:	4631      	mov	r1, r6
 800109e:	4628      	mov	r0, r5
 80010a0:	f004 fbd2 	bl	8005848 <HAL_UART_Transmit_DMA>
 80010a4:	2802      	cmp	r0, #2
 80010a6:	d0f8      	beq.n	800109a <SerialPrintln+0xe>
	if (WaitForTX) {
 80010a8:	b11c      	cbz	r4, 80010b2 <SerialPrintln+0x26>
}
 80010aa:	e8bd 4070 	ldmia.w	sp!, {r4, r5, r6, lr}
		WaitForUART_TX();
 80010ae:	f7ff bfe5 	b.w	800107c <WaitForUART_TX>
 80010b2:	bd70      	pop	{r4, r5, r6, pc}
 80010b4:	20000334 	.word	0x20000334
 80010b8:	20000558 	.word	0x20000558
 80010bc:	200007b8 	.word	0x200007b8

080010c0 <HAL_UART_TxCpltCallback>:

void HAL_UART_TxCpltCallback(UART_HandleTypeDef *huart)
{
    if (huart->Instance == USART1)  // change USART instance
 80010c0:	6802      	ldr	r2, [r0, #0]
 80010c2:	4b04      	ldr	r3, [pc, #16]	; (80010d4 <HAL_UART_TxCpltCallback+0x14>)
 80010c4:	429a      	cmp	r2, r3
 80010c6:	d104      	bne.n	80010d2 <HAL_UART_TxCpltCallback+0x12>
    {
    	huart1_finished_tx = 1;
 80010c8:	2201      	movs	r2, #1
 80010ca:	4b03      	ldr	r3, [pc, #12]	; (80010d8 <HAL_UART_TxCpltCallback+0x18>)
 80010cc:	601a      	str	r2, [r3, #0]
    	ClearUART_Buff();
 80010ce:	f7ff bf87 	b.w	8000fe0 <ClearUART_Buff>
 80010d2:	4770      	bx	lr
 80010d4:	40013800 	.word	0x40013800
 80010d8:	20000334 	.word	0x20000334

080010dc <ResetWDG>:
    }
}

void ResetWDG() {
	 //HAL_IWDG_Refresh(&hiwdg);
	 IWDG->KR = 0x0000AAAAU;
 80010dc:	f64a 22aa 	movw	r2, #43690	; 0xaaaa
 80010e0:	4b01      	ldr	r3, [pc, #4]	; (80010e8 <ResetWDG+0xc>)
 80010e2:	601a      	str	r2, [r3, #0]
 80010e4:	4770      	bx	lr
 80010e6:	bf00      	nop
 80010e8:	40003000 	.word	0x40003000

080010ec <PrintCurrentState>:
}


void PrintCurrentState() {
 80010ec:	e92d 4ff0 	stmdb	sp!, {r4, r5, r6, r7, r8, r9, sl, fp, lr}
	if (DevMode1!=1) {
 80010f0:	4b3b      	ldr	r3, [pc, #236]	; (80011e0 <PrintCurrentState+0xf4>)
void PrintCurrentState() {
 80010f2:	b08d      	sub	sp, #52	; 0x34
	if (DevMode1!=1) {
 80010f4:	681b      	ldr	r3, [r3, #0]
 80010f6:	2b01      	cmp	r3, #1
 80010f8:	d16e      	bne.n	80011d8 <PrintCurrentState+0xec>
	  			HAL_UART_Receive_DMA(&huart1, (uint8_t*) cmd_buff, sizeof(cmd_buff));
	  			hdma_usart1_rx.State=HAL_DMA_STATE_BUSY;
	  			SerialPrintln(0);
	  			return;
	  		}*/
		if ((DC_BLOCKED==1) || (VOUT_BLOCKED==1) || (AMP_BLOCKED==1) || (IOUT_BLOCKED==1)) {
 80010fa:	4c3a      	ldr	r4, [pc, #232]	; (80011e4 <PrintCurrentState+0xf8>)
	ClearUART_Buff();
 80010fc:	f7ff ff70 	bl	8000fe0 <ClearUART_Buff>
		if ((DC_BLOCKED==1) || (VOUT_BLOCKED==1) || (AMP_BLOCKED==1) || (IOUT_BLOCKED==1)) {
 8001100:	6823      	ldr	r3, [r4, #0]
 8001102:	4939      	ldr	r1, [pc, #228]	; (80011e8 <PrintCurrentState+0xfc>)
 8001104:	2b01      	cmp	r3, #1
 8001106:	f8df b114 	ldr.w	fp, [pc, #276]	; 800121c <PrintCurrentState+0x130>
 800110a:	4a38      	ldr	r2, [pc, #224]	; (80011ec <PrintCurrentState+0x100>)
 800110c:	d009      	beq.n	8001122 <PrintCurrentState+0x36>
 800110e:	680b      	ldr	r3, [r1, #0]
 8001110:	2b01      	cmp	r3, #1
 8001112:	d006      	beq.n	8001122 <PrintCurrentState+0x36>
 8001114:	f8db 3000 	ldr.w	r3, [fp]
 8001118:	2b01      	cmp	r3, #1
 800111a:	d002      	beq.n	8001122 <PrintCurrentState+0x36>
 800111c:	6813      	ldr	r3, [r2, #0]
 800111e:	2b01      	cmp	r3, #1
 8001120:	d10b      	bne.n	800113a <PrintCurrentState+0x4e>
 8001122:	920b      	str	r2, [sp, #44]	; 0x2c
 8001124:	910a      	str	r1, [sp, #40]	; 0x28
			//V_Out_RawData=ADC_Data[0]*ADC_Data[0];
			//V_Out_Cnt=1;
			CalcAc_V_ByWave();
 8001126:	f7ff fcd5 	bl	8000ad4 <CalcAc_V_ByWave>
			CalcAc_I_ByWave();
 800112a:	f7ff fcb1 	bl	8000a90 <CalcAc_I_ByWave>
			CalcDC_Average();
 800112e:	f7ff fcf3 	bl	8000b18 <CalcDC_Average>
			ResetV_data();
 8001132:	f7ff fbc9 	bl	80008c8 <ResetV_data>
 8001136:	9a0b      	ldr	r2, [sp, #44]	; 0x2c
 8001138:	990a      	ldr	r1, [sp, #40]	; 0x28
		#endif

		#ifndef USE_VREF
				"V=%4u v, I=%4u W, DC=%4u, A1=%03d,  A2=%03d,  A3=%03d,  A4=%03d, A_F=%01d, F=%01d, DC_F=%01d, V_F=%01d, I_F=%01d \r\n",
		#endif
								(uint16_t) V_Out,
 800113a:	4b2d      	ldr	r3, [pc, #180]	; (80011f0 <PrintCurrentState+0x104>)
		sprintf(uart_buff,
 800113c:	6812      	ldr	r2, [r2, #0]
								(uint16_t) V_Out,
 800113e:	681d      	ldr	r5, [r3, #0]
								(uint16_t) I_Out,
 8001140:	4b2c      	ldr	r3, [pc, #176]	; (80011f4 <PrintCurrentState+0x108>)
		sprintf(uart_buff,
 8001142:	b2ad      	uxth	r5, r5
								(uint16_t) I_Out,
 8001144:	681e      	ldr	r6, [r3, #0]
								(uint16_t) ADC_Data[2],
 8001146:	4b2c      	ldr	r3, [pc, #176]	; (80011f8 <PrintCurrentState+0x10c>)
		sprintf(uart_buff,
 8001148:	b2b6      	uxth	r6, r6
								(uint16_t) ADC_Data[2],
 800114a:	889f      	ldrh	r7, [r3, #4]
								#ifdef USE_VREF
								(uint16_t) (VDDA_Actual),
								#endif
	      		  				(uint16_t) (100*Sine_Amplitude_1),
 800114c:	4b2b      	ldr	r3, [pc, #172]	; (80011fc <PrintCurrentState+0x110>)
								(uint16_t) ADC_Data[2],
 800114e:	b2bf      	uxth	r7, r7
	      		  				(uint16_t) (100*Sine_Amplitude_1),
 8001150:	f8d3 8000 	ldr.w	r8, [r3]
	      		  				(uint16_t) (100*Sine_Amplitude_2),
 8001154:	4b2a      	ldr	r3, [pc, #168]	; (8001200 <PrintCurrentState+0x114>)
 8001156:	f8d3 9000 	ldr.w	r9, [r3]
								(uint16_t) (100*Sine_Amplitude_3),
 800115a:	4b2a      	ldr	r3, [pc, #168]	; (8001204 <PrintCurrentState+0x118>)
 800115c:	f8d3 a000 	ldr.w	sl, [r3]
								(uint16_t) (100*Sine_Amplitude_4),
 8001160:	4b29      	ldr	r3, [pc, #164]	; (8001208 <PrintCurrentState+0x11c>)
 8001162:	6818      	ldr	r0, [r3, #0]
		sprintf(uart_buff,
 8001164:	4b29      	ldr	r3, [pc, #164]	; (800120c <PrintCurrentState+0x120>)
 8001166:	781b      	ldrb	r3, [r3, #0]
 8001168:	9209      	str	r2, [sp, #36]	; 0x24
 800116a:	680a      	ldr	r2, [r1, #0]
								(uint16_t) (100*Sine_Amplitude_4),
 800116c:	4928      	ldr	r1, [pc, #160]	; (8001210 <PrintCurrentState+0x124>)
		sprintf(uart_buff,
 800116e:	9208      	str	r2, [sp, #32]
 8001170:	6822      	ldr	r2, [r4, #0]
 8001172:	9207      	str	r2, [sp, #28]
 8001174:	1eda      	subs	r2, r3, #3
 8001176:	4253      	negs	r3, r2
 8001178:	4153      	adcs	r3, r2
 800117a:	9306      	str	r3, [sp, #24]
 800117c:	f8db 3000 	ldr.w	r3, [fp]
 8001180:	9305      	str	r3, [sp, #20]
								(uint16_t) (100*Sine_Amplitude_4),
 8001182:	f7ff f8fd 	bl	8000380 <__aeabi_fmul>
 8001186:	f7ff fac1 	bl	800070c <__aeabi_f2uiz>
		sprintf(uart_buff,
 800118a:	b280      	uxth	r0, r0
 800118c:	9004      	str	r0, [sp, #16]
								(uint16_t) (100*Sine_Amplitude_3),
 800118e:	4920      	ldr	r1, [pc, #128]	; (8001210 <PrintCurrentState+0x124>)
 8001190:	4650      	mov	r0, sl
 8001192:	f7ff f8f5 	bl	8000380 <__aeabi_fmul>
 8001196:	f7ff fab9 	bl	800070c <__aeabi_f2uiz>
		sprintf(uart_buff,
 800119a:	b280      	uxth	r0, r0
 800119c:	9003      	str	r0, [sp, #12]
	      		  				(uint16_t) (100*Sine_Amplitude_2),
 800119e:	491c      	ldr	r1, [pc, #112]	; (8001210 <PrintCurrentState+0x124>)
 80011a0:	4648      	mov	r0, r9
 80011a2:	f7ff f8ed 	bl	8000380 <__aeabi_fmul>
 80011a6:	f7ff fab1 	bl	800070c <__aeabi_f2uiz>
		sprintf(uart_buff,
 80011aa:	b280      	uxth	r0, r0
 80011ac:	9002      	str	r0, [sp, #8]
	      		  				(uint16_t) (100*Sine_Amplitude_1),
 80011ae:	4918      	ldr	r1, [pc, #96]	; (8001210 <PrintCurrentState+0x124>)
 80011b0:	4640      	mov	r0, r8
 80011b2:	f7ff f8e5 	bl	8000380 <__aeabi_fmul>
 80011b6:	f7ff faa9 	bl	800070c <__aeabi_f2uiz>
		sprintf(uart_buff,
 80011ba:	b280      	uxth	r0, r0
 80011bc:	9001      	str	r0, [sp, #4]
 80011be:	9700      	str	r7, [sp, #0]
 80011c0:	4633      	mov	r3, r6
 80011c2:	462a      	mov	r2, r5
 80011c4:	4913      	ldr	r1, [pc, #76]	; (8001214 <PrintCurrentState+0x128>)
 80011c6:	4814      	ldr	r0, [pc, #80]	; (8001218 <PrintCurrentState+0x12c>)
 80011c8:	f004 fcf6 	bl	8005bb8 <siprintf>
								AMP_BLOCKED,
								(uint16_t) (BoardStatus==sFaultFlag),
								DC_BLOCKED,
								VOUT_BLOCKED,
								IOUT_BLOCKED);
		SerialPrintln(0);
 80011cc:	2000      	movs	r0, #0

	#endif
}
 80011ce:	b00d      	add	sp, #52	; 0x34
 80011d0:	e8bd 4ff0 	ldmia.w	sp!, {r4, r5, r6, r7, r8, r9, sl, fp, lr}
		SerialPrintln(0);
 80011d4:	f7ff bf5a 	b.w	800108c <SerialPrintln>
}
 80011d8:	b00d      	add	sp, #52	; 0x34
 80011da:	e8bd 8ff0 	ldmia.w	sp!, {r4, r5, r6, r7, r8, r9, sl, fp, pc}
 80011de:	bf00      	nop
 80011e0:	20000434 	.word	0x20000434
 80011e4:	200003d4 	.word	0x200003d4
 80011e8:	20000408 	.word	0x20000408
 80011ec:	200003ec 	.word	0x200003ec
 80011f0:	20000414 	.word	0x20000414
 80011f4:	200003f8 	.word	0x200003f8
 80011f8:	20000518 	.word	0x20000518
 80011fc:	20000018 	.word	0x20000018
 8001200:	2000001c 	.word	0x2000001c
 8001204:	20000020 	.word	0x20000020
 8001208:	20000024 	.word	0x20000024
 800120c:	20000424 	.word	0x20000424
 8001210:	42c80000 	.word	0x42c80000
 8001214:	080064d5 	.word	0x080064d5
 8001218:	20000558 	.word	0x20000558
 800121c:	200003c8 	.word	0x200003c8

08001220 <ResetEEPROM>:

// EEPROM
void ResetEEPROM() {
	EEPROM_DATA[0]=0;
 8001220:	2300      	movs	r3, #0
 8001222:	4a03      	ldr	r2, [pc, #12]	; (8001230 <ResetEEPROM+0x10>)
 8001224:	6013      	str	r3, [r2, #0]
	EEPROM_DATA[1]=0;
 8001226:	6053      	str	r3, [r2, #4]
	EEPROM_CRC=0;
 8001228:	4a02      	ldr	r2, [pc, #8]	; (8001234 <ResetEEPROM+0x14>)
 800122a:	6013      	str	r3, [r2, #0]
 800122c:	4770      	bx	lr
 800122e:	bf00      	nop
 8001230:	2000043c 	.word	0x2000043c
 8001234:	20000438 	.word	0x20000438

08001238 <CALC_RATIO>:
}

void CALC_RATIO() {
 8001238:	b510      	push	{r4, lr}
	memcpy(&fVal, &EEPROM_DATA[1],sizeof(fVal));
	I_RATIO=(fVal*(3.3/4096));
	memcpy(&fVal, &EEPROM_DATA[0],sizeof(fVal));
	V_RATIO=(fVal*(3.3/4096));*/

	I_RATIO=(EEPROM_DATA[1]*IV_RATIO);
 800123a:	4c09      	ldr	r4, [pc, #36]	; (8001260 <CALC_RATIO+0x28>)
 800123c:	6860      	ldr	r0, [r4, #4]
 800123e:	f7ff f847 	bl	80002d0 <__aeabi_ui2f>
 8001242:	4908      	ldr	r1, [pc, #32]	; (8001264 <CALC_RATIO+0x2c>)
 8001244:	f7ff f89c 	bl	8000380 <__aeabi_fmul>
 8001248:	4b07      	ldr	r3, [pc, #28]	; (8001268 <CALC_RATIO+0x30>)
 800124a:	6018      	str	r0, [r3, #0]
	V_RATIO=(EEPROM_DATA[0]*IV_RATIO);
 800124c:	6820      	ldr	r0, [r4, #0]
 800124e:	f7ff f83f 	bl	80002d0 <__aeabi_ui2f>
 8001252:	4904      	ldr	r1, [pc, #16]	; (8001264 <CALC_RATIO+0x2c>)
 8001254:	f7ff f894 	bl	8000380 <__aeabi_fmul>
 8001258:	4b04      	ldr	r3, [pc, #16]	; (800126c <CALC_RATIO+0x34>)
 800125a:	6018      	str	r0, [r3, #0]
 800125c:	bd10      	pop	{r4, pc}
 800125e:	bf00      	nop
 8001260:	2000043c 	.word	0x2000043c
 8001264:	3a533333 	.word	0x3a533333
 8001268:	20000004 	.word	0x20000004
 800126c:	2000004c 	.word	0x2000004c

08001270 <USE_DEF_CALIB>:
	//memcpy(&EEPROM_DATA[0], &fVal,sizeof(uint32_t));

	//fVal=3636;
	//memcpy(&EEPROM_DATA[1], &fVal,sizeof(uint32_t));
	EEPROM_DATA[0]=132;
	EEPROM_DATA[1]=3636;
 8001270:	2184      	movs	r1, #132	; 0x84
 8001272:	f640 6234 	movw	r2, #3636	; 0xe34
	EEPROM_DATA[0]=132;
 8001276:	4b02      	ldr	r3, [pc, #8]	; (8001280 <USE_DEF_CALIB+0x10>)
	EEPROM_DATA[1]=3636;
 8001278:	e883 0006 	stmia.w	r3, {r1, r2}
	CALC_RATIO();
 800127c:	f7ff bfdc 	b.w	8001238 <CALC_RATIO>
 8001280:	2000043c 	.word	0x2000043c

08001284 <USE_NEW_CALIB>:
}

void USE_NEW_CALIB() {
	if (EEPROM_CRC==0) {
 8001284:	4b03      	ldr	r3, [pc, #12]	; (8001294 <USE_NEW_CALIB+0x10>)
 8001286:	681b      	ldr	r3, [r3, #0]
 8001288:	b90b      	cbnz	r3, 800128e <USE_NEW_CALIB+0xa>
		USE_DEF_CALIB();
 800128a:	f7ff bff1 	b.w	8001270 <USE_DEF_CALIB>
		return;
	}
	CALC_RATIO();
 800128e:	f7ff bfd3 	b.w	8001238 <CALC_RATIO>
 8001292:	bf00      	nop
 8001294:	20000438 	.word	0x20000438

08001298 <StoreEEPROM>:
}

//void StoreEEPROM(float V_CAL, float I_CAL) {
void StoreEEPROM(uint32_t V_CAL, uint32_t I_CAL) {
 8001298:	b570      	push	{r4, r5, r6, lr}
	EEPROM_FLAG=1;
 800129a:	2501      	movs	r5, #1
	//
	//memcpy(&EEPROM_DATA[0], &V_CAL,sizeof(uint32_t));
	//memcpy(&EEPROM_DATA[1], &I_CAL,sizeof(uint32_t));
	EEPROM_DATA[0]=V_CAL;
 800129c:	4c0d      	ldr	r4, [pc, #52]	; (80012d4 <StoreEEPROM+0x3c>)
	EEPROM_FLAG=1;
 800129e:	4e0e      	ldr	r6, [pc, #56]	; (80012d8 <StoreEEPROM+0x40>)
	EEPROM_DATA[1]=I_CAL;
	EEPROM_CRC=TM_CRC_Calculate32((uint32_t *) &EEPROM_DATA, sizeof(EEPROM_DATA), 1);
 80012a0:	462a      	mov	r2, r5
	EEPROM_DATA[1]=I_CAL;
 80012a2:	e884 0003 	stmia.w	r4, {r0, r1}
	EEPROM_CRC=TM_CRC_Calculate32((uint32_t *) &EEPROM_DATA, sizeof(EEPROM_DATA), 1);
 80012a6:	2108      	movs	r1, #8
 80012a8:	4620      	mov	r0, r4
	EEPROM_FLAG=1;
 80012aa:	6035      	str	r5, [r6, #0]
	EEPROM_CRC=TM_CRC_Calculate32((uint32_t *) &EEPROM_DATA, sizeof(EEPROM_DATA), 1);
 80012ac:	f7ff fe68 	bl	8000f80 <TM_CRC_Calculate32>
 80012b0:	4b0a      	ldr	r3, [pc, #40]	; (80012dc <StoreEEPROM+0x44>)
 80012b2:	4601      	mov	r1, r0
 80012b4:	6018      	str	r0, [r3, #0]
	EE_Write(0,EEPROM_CRC);
 80012b6:	2000      	movs	r0, #0
 80012b8:	f000 fb16 	bl	80018e8 <EE_Write>
	EE_Write(1,EEPROM_DATA[0]);
 80012bc:	6821      	ldr	r1, [r4, #0]
 80012be:	4628      	mov	r0, r5
 80012c0:	f000 fb12 	bl	80018e8 <EE_Write>
	EE_Write(2,EEPROM_DATA[1]);
 80012c4:	6861      	ldr	r1, [r4, #4]
 80012c6:	2002      	movs	r0, #2
 80012c8:	f000 fb0e 	bl	80018e8 <EE_Write>
	//
	EEPROM_FLAG=0;
 80012cc:	2300      	movs	r3, #0
 80012ce:	6033      	str	r3, [r6, #0]
 80012d0:	bd70      	pop	{r4, r5, r6, pc}
 80012d2:	bf00      	nop
 80012d4:	2000043c 	.word	0x2000043c
 80012d8:	20000444 	.word	0x20000444
 80012dc:	20000438 	.word	0x20000438

080012e0 <InitEEPROM>:
}

int InitEEPROM() {
 80012e0:	b570      	push	{r4, r5, r6, lr}
	EEPROM_FLAG=1;
 80012e2:	2401      	movs	r4, #1
 80012e4:	4e10      	ldr	r6, [pc, #64]	; (8001328 <InitEEPROM+0x48>)
	//

	ResetEEPROM();
	EE_Read(0,&EEPROM_CRC);
 80012e6:	4d11      	ldr	r5, [pc, #68]	; (800132c <InitEEPROM+0x4c>)
	EEPROM_FLAG=1;
 80012e8:	6034      	str	r4, [r6, #0]
	ResetEEPROM();
 80012ea:	f7ff ff99 	bl	8001220 <ResetEEPROM>
	EE_Read(0,&EEPROM_CRC);
 80012ee:	4629      	mov	r1, r5
 80012f0:	2000      	movs	r0, #0
 80012f2:	f000 fad9 	bl	80018a8 <EE_Read>
	EE_Read(1,&EEPROM_DATA[0]);
 80012f6:	490e      	ldr	r1, [pc, #56]	; (8001330 <InitEEPROM+0x50>)
 80012f8:	4620      	mov	r0, r4
 80012fa:	f000 fad5 	bl	80018a8 <EE_Read>
	EE_Read(2,&EEPROM_DATA[1]);
 80012fe:	490d      	ldr	r1, [pc, #52]	; (8001334 <InitEEPROM+0x54>)
 8001300:	2002      	movs	r0, #2
 8001302:	f000 fad1 	bl	80018a8 <EE_Read>

	uint32_t EEPROM_CRC_tmp=TM_CRC_Calculate32((uint32_t *) &EEPROM_DATA, sizeof(EEPROM_DATA), 1);
 8001306:	2108      	movs	r1, #8
 8001308:	4622      	mov	r2, r4
 800130a:	4809      	ldr	r0, [pc, #36]	; (8001330 <InitEEPROM+0x50>)
 800130c:	f7ff fe38 	bl	8000f80 <TM_CRC_Calculate32>
	EEPROM_FLAG=0;
 8001310:	2100      	movs	r1, #0

	if (EEPROM_CRC_tmp==EEPROM_CRC) {
 8001312:	682b      	ldr	r3, [r5, #0]
	EEPROM_FLAG=0;
 8001314:	6031      	str	r1, [r6, #0]
	if (EEPROM_CRC_tmp==EEPROM_CRC) {
 8001316:	4298      	cmp	r0, r3
 8001318:	d003      	beq.n	8001322 <InitEEPROM+0x42>
		return 1;
	} else {
		ResetEEPROM();
 800131a:	f7ff ff81 	bl	8001220 <ResetEEPROM>
		return 0;
 800131e:	4608      	mov	r0, r1
 8001320:	bd70      	pop	{r4, r5, r6, pc}
		return 1;
 8001322:	4620      	mov	r0, r4
	}
}
 8001324:	bd70      	pop	{r4, r5, r6, pc}
 8001326:	bf00      	nop
 8001328:	20000444 	.word	0x20000444
 800132c:	20000438 	.word	0x20000438
 8001330:	2000043c 	.word	0x2000043c
 8001334:	20000440 	.word	0x20000440

08001338 <CalibSave>:

//Calibration code
void CalibSave() {
 8001338:	b510      	push	{r4, lr}
						EEPROMStoredCnt=0;
 800133a:	2400      	movs	r4, #0
 800133c:	4b08      	ldr	r3, [pc, #32]	; (8001360 <CalibSave+0x28>)
 800133e:	801c      	strh	r4, [r3, #0]
		      			USE_NEW_CALIB();
 8001340:	f7ff ffa0 	bl	8001284 <USE_NEW_CALIB>
		      			StoreEEPROM(EEPROM_DATA[0],EEPROM_DATA[1]);
 8001344:	4b07      	ldr	r3, [pc, #28]	; (8001364 <CalibSave+0x2c>)
 8001346:	e893 0003 	ldmia.w	r3, {r0, r1}
 800134a:	f7ff ffa5 	bl	8001298 <StoreEEPROM>
		      			strcpy(uart_buff,"CALIB DONE!\r\n");
 800134e:	4906      	ldr	r1, [pc, #24]	; (8001368 <CalibSave+0x30>)
 8001350:	4806      	ldr	r0, [pc, #24]	; (800136c <CalibSave+0x34>)
 8001352:	f004 fc64 	bl	8005c1e <strcpy>
		      			SerialPrintln(0);
 8001356:	4620      	mov	r0, r4
		      		//}
}
 8001358:	e8bd 4010 	ldmia.w	sp!, {r4, lr}
		      			SerialPrintln(0);
 800135c:	f7ff be96 	b.w	800108c <SerialPrintln>
 8001360:	20000330 	.word	0x20000330
 8001364:	2000043c 	.word	0x2000043c
 8001368:	0800648d 	.word	0x0800648d
 800136c:	20000558 	.word	0x20000558

08001370 <CalibCmdCheck>:

int CalibCmdCheck() {
 8001370:	b510      	push	{r4, lr}
				button_state_t ICAL_FLAG=buttonUpdate(&CALIB_I);
 8001372:	4820      	ldr	r0, [pc, #128]	; (80013f4 <CalibCmdCheck+0x84>)
 8001374:	f000 fb1f 	bl	80019b6 <buttonUpdate>
 8001378:	4604      	mov	r4, r0
				button_state_t VCAL_FLAG=buttonUpdate(&CALIB_V);
 800137a:	481f      	ldr	r0, [pc, #124]	; (80013f8 <CalibCmdCheck+0x88>)
 800137c:	f000 fb1b 	bl	80019b6 <buttonUpdate>

				if (EEPROMStoredCnt<EEPROMDelayBeforeNewStore) {
 8001380:	4a1e      	ldr	r2, [pc, #120]	; (80013fc <CalibCmdCheck+0x8c>)
 8001382:	8813      	ldrh	r3, [r2, #0]
 8001384:	2b09      	cmp	r3, #9
 8001386:	d803      	bhi.n	8001390 <CalibCmdCheck+0x20>
					EEPROMStoredCnt++;
 8001388:	3301      	adds	r3, #1
 800138a:	8013      	strh	r3, [r2, #0]
	      					StoreEEPROM(EEPROM_DATA[0],EEPROM_DATA[1]);
	      					//EEPROMStoredCnt=0;
	      					CalibSave();
	      					return 1;
	      		}
	      		return 0;
 800138c:	2000      	movs	r0, #0
}
 800138e:	bd10      	pop	{r4, pc}
				if ( (VCAL_FLAG == isPressed)
 8001390:	2802      	cmp	r0, #2
 8001392:	d115      	bne.n	80013c0 <CalibCmdCheck+0x50>
	      				  && (ICAL_FLAG != isPressed)){
 8001394:	2c02      	cmp	r4, #2
 8001396:	4c1a      	ldr	r4, [pc, #104]	; (8001400 <CalibCmdCheck+0x90>)
 8001398:	d025      	beq.n	80013e6 <CalibCmdCheck+0x76>
						EEPROM_DATA[0]=(VOLTAGE_ETALONE/(IV_RATIO*ADC_Data[0]));
 800139a:	4b1a      	ldr	r3, [pc, #104]	; (8001404 <CalibCmdCheck+0x94>)
 800139c:	8818      	ldrh	r0, [r3, #0]
 800139e:	b280      	uxth	r0, r0
 80013a0:	f7fe ff9a 	bl	80002d8 <__aeabi_i2f>
 80013a4:	4918      	ldr	r1, [pc, #96]	; (8001408 <CalibCmdCheck+0x98>)
 80013a6:	f7fe ffeb 	bl	8000380 <__aeabi_fmul>
 80013aa:	4601      	mov	r1, r0
 80013ac:	4817      	ldr	r0, [pc, #92]	; (800140c <CalibCmdCheck+0x9c>)
 80013ae:	f7ff f89b 	bl	80004e8 <__aeabi_fdiv>
 80013b2:	f7ff f9ab 	bl	800070c <__aeabi_f2uiz>
 80013b6:	6020      	str	r0, [r4, #0]
	      					CalibSave();
 80013b8:	f7ff ffbe 	bl	8001338 <CalibSave>
	      					return 1;
 80013bc:	2001      	movs	r0, #1
 80013be:	bd10      	pop	{r4, pc}
	      		  if ( (ICAL_FLAG == isPressed)
 80013c0:	2c02      	cmp	r4, #2
 80013c2:	d1e3      	bne.n	800138c <CalibCmdCheck+0x1c>
	      			  	EEPROM_DATA[1]=(POWER_ETALONE/(IV_RATIO*ADC_Data[1]));
 80013c4:	4b0f      	ldr	r3, [pc, #60]	; (8001404 <CalibCmdCheck+0x94>)
 80013c6:	8858      	ldrh	r0, [r3, #2]
 80013c8:	b280      	uxth	r0, r0
 80013ca:	f7fe ff85 	bl	80002d8 <__aeabi_i2f>
 80013ce:	490e      	ldr	r1, [pc, #56]	; (8001408 <CalibCmdCheck+0x98>)
 80013d0:	f7fe ffd6 	bl	8000380 <__aeabi_fmul>
 80013d4:	4601      	mov	r1, r0
 80013d6:	480e      	ldr	r0, [pc, #56]	; (8001410 <CalibCmdCheck+0xa0>)
 80013d8:	f7ff f886 	bl	80004e8 <__aeabi_fdiv>
 80013dc:	f7ff f996 	bl	800070c <__aeabi_f2uiz>
 80013e0:	4b07      	ldr	r3, [pc, #28]	; (8001400 <CalibCmdCheck+0x90>)
 80013e2:	6058      	str	r0, [r3, #4]
 80013e4:	e7e8      	b.n	80013b8 <CalibCmdCheck+0x48>
	      					USE_DEF_CALIB();
 80013e6:	f7ff ff43 	bl	8001270 <USE_DEF_CALIB>
	      					StoreEEPROM(EEPROM_DATA[0],EEPROM_DATA[1]);
 80013ea:	e894 0003 	ldmia.w	r4, {r0, r1}
 80013ee:	f7ff ff53 	bl	8001298 <StoreEEPROM>
 80013f2:	e7e1      	b.n	80013b8 <CalibCmdCheck+0x48>
 80013f4:	2000053c 	.word	0x2000053c
 80013f8:	20000520 	.word	0x20000520
 80013fc:	20000330 	.word	0x20000330
 8001400:	2000043c 	.word	0x2000043c
 8001404:	20000518 	.word	0x20000518
 8001408:	3a533333 	.word	0x3a533333
 800140c:	43660000 	.word	0x43660000
 8001410:	447a0000 	.word	0x447a0000

08001414 <Set50HzDeadTimeNS>:
//#define DeadTime64X 				1 //883,2ns
//#define DeadTime128X 				1 //1766,4ns
void Set50HzDeadTimeNS(void) {

		// Tdts = Tck_int //
	    TIM1->CR1 &= ~TIM_CR1_CKD;
 8001414:	4b0e      	ldr	r3, [pc, #56]	; (8001450 <Set50HzDeadTimeNS+0x3c>)
 8001416:	681a      	ldr	r2, [r3, #0]
 8001418:	f422 7240 	bic.w	r2, r2, #768	; 0x300
 800141c:	601a      	str	r2, [r3, #0]
	    TIM1->BDTR &= ~TIM_BDTR_DTG;
 800141e:	6c5a      	ldr	r2, [r3, #68]	; 0x44
 8001420:	f022 02ff 	bic.w	r2, r2, #255	; 0xff
 8001424:	645a      	str	r2, [r3, #68]	; 0x44

	    TIM1->BDTR  |= TIM_BDTR_DTG_7;//128x //1766,4ns
 8001426:	6c5a      	ldr	r2, [r3, #68]	; 0x44
 8001428:	f042 0280 	orr.w	r2, r2, #128	; 0x80
 800142c:	645a      	str	r2, [r3, #68]	; 0x44
	    //TIM1->BDTR  |= TIM_BDTR_DTG_6;//64x //883,2ns
	    //TIM1->BDTR  |= TIM_BDTR_DTG_5;//32x //441,6ns
	    //TIM1->BDTR  |= TIM_BDTR_DTG_4;//16x //220,8ns
	    TIM1->BDTR  |= TIM_BDTR_DTG_3;//8x //110,4ns
 800142e:	6c5a      	ldr	r2, [r3, #68]	; 0x44
 8001430:	f042 0208 	orr.w	r2, r2, #8
 8001434:	645a      	str	r2, [r3, #68]	; 0x44
	    TIM1->BDTR  |= TIM_BDTR_DTG_2;//4x //55,2ns
 8001436:	6c5a      	ldr	r2, [r3, #68]	; 0x44
 8001438:	f042 0204 	orr.w	r2, r2, #4
 800143c:	645a      	str	r2, [r3, #68]	; 0x44
	    TIM1->BDTR  |= TIM_BDTR_DTG_1;//2x  //27,6ns
 800143e:	6c5a      	ldr	r2, [r3, #68]	; 0x44
 8001440:	f042 0202 	orr.w	r2, r2, #2
 8001444:	645a      	str	r2, [r3, #68]	; 0x44
	    TIM1->BDTR  |= TIM_BDTR_DTG_0;//1x // Dead time base value 1/Fosc=1/72000=13.8ns
 8001446:	6c5a      	ldr	r2, [r3, #68]	; 0x44
 8001448:	f042 0201 	orr.w	r2, r2, #1
 800144c:	645a      	str	r2, [r3, #68]	; 0x44
 800144e:	4770      	bx	lr
 8001450:	40012c00 	.word	0x40012c00

08001454 <SetNormalSignal>:
////////////////////// DEAD TIME - END //////////////////////


////////////////////// SIGNAL INVERSE - BEGIN //////////////////////
void SetNormalSignal(void) {
		TIM1->CCER |= TIM_CCER_CC3NP; // active high level: 0 - high, 1 - low
 8001454:	4b04      	ldr	r3, [pc, #16]	; (8001468 <SetNormalSignal+0x14>)
 8001456:	6a1a      	ldr	r2, [r3, #32]
 8001458:	f442 6200 	orr.w	r2, r2, #2048	; 0x800
 800145c:	621a      	str	r2, [r3, #32]
		TIM1->CCER |= TIM_CCER_CC3P; // active high level: 0 - high, 1 - low
 800145e:	6a1a      	ldr	r2, [r3, #32]
 8001460:	f442 7200 	orr.w	r2, r2, #512	; 0x200
 8001464:	621a      	str	r2, [r3, #32]
 8001466:	4770      	bx	lr
 8001468:	40012c00 	.word	0x40012c00

0800146c <Idle_SET>:
////////////////////// SIGNAL INVERSE - END //////////////////////

////////////////////// IDLE STATE - BEGIN //////////////////////
void Idle_SET(void) {
	    /* output idle state HIGHT */
		TIM1->CR2 |= TIM_CR2_OIS3;
 800146c:	4b04      	ldr	r3, [pc, #16]	; (8001480 <Idle_SET+0x14>)
 800146e:	685a      	ldr	r2, [r3, #4]
 8001470:	f442 5280 	orr.w	r2, r2, #4096	; 0x1000
 8001474:	605a      	str	r2, [r3, #4]
		TIM1->CR2 |= TIM_CR2_OIS3N;
 8001476:	685a      	ldr	r2, [r3, #4]
 8001478:	f442 5200 	orr.w	r2, r2, #8192	; 0x2000
 800147c:	605a      	str	r2, [r3, #4]
 800147e:	4770      	bx	lr
 8001480:	40012c00 	.word	0x40012c00

08001484 <PWM_50Hz_Init>:
	//GPIOB->CRH	&= ~GPIO_CRH_MODE15;
	//GPIOB->CRH	|= GPIO_CRH_MODE15; // gpio speed 50 MHz

	/************************** Config PWM channel ************************************/

	TIM1->PSC = 960-1; // div for clock: F = SYSCLK / [PSC + 1]
 8001484:	f240 32bf 	movw	r2, #959	; 0x3bf
void PWM_50Hz_Init (void) {
 8001488:	b508      	push	{r3, lr}
	TIM1->PSC = 960-1; // div for clock: F = SYSCLK / [PSC + 1]
 800148a:	4b12      	ldr	r3, [pc, #72]	; (80014d4 <PWM_50Hz_Init+0x50>)
 800148c:	629a      	str	r2, [r3, #40]	; 0x28
	TIM1->ARR = 1000; // count to 1000
 800148e:	f44f 727a 	mov.w	r2, #1000	; 0x3e8
 8001492:	62da      	str	r2, [r3, #44]	; 0x2c
	TIM1->CCR3 = 500; // duty cycle 50%
 8001494:	f44f 72fa 	mov.w	r2, #500	; 0x1f4
 8001498:	63da      	str	r2, [r3, #60]	; 0x3c
	TIM1->CR1 &= ~TIM_CR1_DIR; // count up: 0 - up, 1 - down
 800149a:	681a      	ldr	r2, [r3, #0]
 800149c:	f022 0210 	bic.w	r2, r2, #16
 80014a0:	601a      	str	r2, [r3, #0]
    TIM1->CR1 &= ~TIM_CR1_CMS; // aligned on the front signal
 80014a2:	681a      	ldr	r2, [r3, #0]
 80014a4:	f022 0260 	bic.w	r2, r2, #96	; 0x60
 80014a8:	601a      	str	r2, [r3, #0]

    TIM1->CCMR2 &= ~TIM_CCMR2_OC3M;
 80014aa:	69da      	ldr	r2, [r3, #28]
 80014ac:	f022 0270 	bic.w	r2, r2, #112	; 0x70
 80014b0:	61da      	str	r2, [r3, #28]
    TIM1->CCMR2 |= TIM_CCMR2_OC3M_2 | TIM_CCMR2_OC3M_1; // positiv PWM
 80014b2:	69da      	ldr	r2, [r3, #28]
 80014b4:	f042 0260 	orr.w	r2, r2, #96	; 0x60
 80014b8:	61da      	str	r2, [r3, #28]

	/* Enable channel outputs */
	TIM1->CCER |= TIM_CCER_CC3E | TIM_CCER_CC3NE; // enable PWM complementary out
 80014ba:	6a1a      	ldr	r2, [r3, #32]
 80014bc:	f442 62a0 	orr.w	r2, r2, #1280	; 0x500
 80014c0:	621a      	str	r2, [r3, #32]

	SetNormalSignal(); // NORMAL or INVERSE
 80014c2:	f7ff ffc7 	bl	8001454 <SetNormalSignal>
	Idle_SET(); // se idle state /* output idle state HIGHT */
 80014c6:	f7ff ffd1 	bl	800146c <Idle_SET>
	Set50HzDeadTimeNS(); // 1976 ns

	//ch50HZ_OUTEN(); // OUTPUT ENABLE
	//ch50HZ_START(); // start CNT

}
 80014ca:	e8bd 4008 	ldmia.w	sp!, {r3, lr}
	Set50HzDeadTimeNS(); // 1976 ns
 80014ce:	f7ff bfa1 	b.w	8001414 <Set50HzDeadTimeNS>
 80014d2:	bf00      	nop
 80014d4:	40012c00 	.word	0x40012c00

080014d8 <PWM_50Hz_START>:
////////////////////// INIT GENERATOR 50Hz - END //////////////////////


////////////////////// CONTROL 50Hz - BEGIN //////////////////////
void PWM_50Hz_START(void)
{
 80014d8:	b508      	push	{r3, lr}
	//TIM1->CNT = 0;
	TIM1->CCR3=500;
 80014da:	f44f 73fa 	mov.w	r3, #500	; 0x1f4
 80014de:	490d      	ldr	r1, [pc, #52]	; (8001514 <PWM_50Hz_START+0x3c>)
 80014e0:	63cb      	str	r3, [r1, #60]	; 0x3c
	/* Enable channel outputs */
		TIM1->CCER |= TIM_CCER_CC3E | TIM_CCER_CC3NE; // enable PWM complementary out
 80014e2:	6a0b      	ldr	r3, [r1, #32]
 80014e4:	f443 63a0 	orr.w	r3, r3, #1280	; 0x500
 80014e8:	620b      	str	r3, [r1, #32]

		SetNormalSignal(); // NORMAL or INVERSE
 80014ea:	f7ff ffb3 	bl	8001454 <SetNormalSignal>
		Idle_SET(); // se idle state /* output idle state HIGHT */
 80014ee:	f7ff ffbd 	bl	800146c <Idle_SET>

		Set50HzDeadTimeNS(); // 1976 ns
 80014f2:	f7ff ff8f 	bl	8001414 <Set50HzDeadTimeNS>

	TIM1->DIER |= TIM_DIER_UIE;
 80014f6:	68cb      	ldr	r3, [r1, #12]
 80014f8:	f043 0301 	orr.w	r3, r3, #1
 80014fc:	60cb      	str	r3, [r1, #12]
	TIM1->CR1 |= TIM_CR1_CEN;
 80014fe:	680b      	ldr	r3, [r1, #0]
 8001500:	f043 0301 	orr.w	r3, r3, #1
 8001504:	600b      	str	r3, [r1, #0]

	ResetV_data();
 8001506:	f7ff f9df 	bl	80008c8 <ResetV_data>
	UpdateAmplitudeByV();
}
 800150a:	e8bd 4008 	ldmia.w	sp!, {r3, lr}
	UpdateAmplitudeByV();
 800150e:	f7ff bb87 	b.w	8000c20 <UpdateAmplitudeByV>
 8001512:	bf00      	nop
 8001514:	40012c00 	.word	0x40012c00

08001518 <PWM_50Hz_STOP>:

void PWM_50Hz_STOP(void)
{
	//TIM1->CNT = 0;
	TIM1->SR&=~TIM_SR_UIF; // clear update flag
 8001518:	4b10      	ldr	r3, [pc, #64]	; (800155c <PWM_50Hz_STOP+0x44>)
 800151a:	691a      	ldr	r2, [r3, #16]
 800151c:	f022 0201 	bic.w	r2, r2, #1
 8001520:	611a      	str	r2, [r3, #16]

	TIM1->DIER &= ~TIM_DIER_UIE; // stop interrupt
 8001522:	68da      	ldr	r2, [r3, #12]
 8001524:	f022 0201 	bic.w	r2, r2, #1
 8001528:	60da      	str	r2, [r3, #12]
	TIM1->CR1 &= (uint16_t)~TIM_CR1_CEN; // stop cnt
 800152a:	681a      	ldr	r2, [r3, #0]
 800152c:	f022 0201 	bic.w	r2, r2, #1
 8001530:	0412      	lsls	r2, r2, #16
 8001532:	0c12      	lsrs	r2, r2, #16
 8001534:	601a      	str	r2, [r3, #0]

	//TIM1->CR1 &= ~TIM_CR1_CKD; // off dead time
	//TIM1->BDTR &= ~TIM_BDTR_DTG;

	TIM1->CR2 |= TIM_CR2_OIS3N; // revert level
 8001536:	685a      	ldr	r2, [r3, #4]
 8001538:	f442 5200 	orr.w	r2, r2, #8192	; 0x2000
 800153c:	605a      	str	r2, [r3, #4]
	TIM1->CR2 &= ~TIM_CR2_OIS3;
 800153e:	685a      	ldr	r2, [r3, #4]
 8001540:	f422 5280 	bic.w	r2, r2, #4096	; 0x1000
 8001544:	605a      	str	r2, [r3, #4]

	TIM1->CCER |= TIM_CCER_CC3P; // active high level: 0 - high, 1 - low
 8001546:	6a1a      	ldr	r2, [r3, #32]
 8001548:	f442 7200 	orr.w	r2, r2, #512	; 0x200
 800154c:	621a      	str	r2, [r3, #32]
	TIM1->CCER &= ~TIM_CCER_CC3NP; // active high level: 0 - high, 1 - low
 800154e:	6a1a      	ldr	r2, [r3, #32]
 8001550:	f422 6200 	bic.w	r2, r2, #2048	; 0x800
 8001554:	621a      	str	r2, [r3, #32]

	TIM1->CCR3=0;
 8001556:	2200      	movs	r2, #0
 8001558:	63da      	str	r2, [r3, #60]	; 0x3c
 800155a:	4770      	bx	lr
 800155c:	40012c00 	.word	0x40012c00

08001560 <PWM_50Hz_OUTEN>:

}

void PWM_50Hz_OUTEN(void)
{
	TIM1->BDTR |= TIM_BDTR_MOE | TIM_BDTR_AOE; // enable generation output
 8001560:	4a02      	ldr	r2, [pc, #8]	; (800156c <PWM_50Hz_OUTEN+0xc>)
 8001562:	6c53      	ldr	r3, [r2, #68]	; 0x44
 8001564:	f443 4340 	orr.w	r3, r3, #49152	; 0xc000
 8001568:	6453      	str	r3, [r2, #68]	; 0x44
 800156a:	4770      	bx	lr
 800156c:	40012c00 	.word	0x40012c00

08001570 <PWM_50Hz_OUTDIS>:
	//HAL_TIM_PWM_Start(&htim1,TIM_CHANNEL_3);
}

void PWM_50Hz_OUTDIS(void)
{
    TIM1->BDTR &= ~TIM_BDTR_MOE;
 8001570:	4b04      	ldr	r3, [pc, #16]	; (8001584 <PWM_50Hz_OUTDIS+0x14>)
 8001572:	6c5a      	ldr	r2, [r3, #68]	; 0x44
 8001574:	f422 4200 	bic.w	r2, r2, #32768	; 0x8000
 8001578:	645a      	str	r2, [r3, #68]	; 0x44
    TIM1->BDTR &= ~TIM_BDTR_AOE;
 800157a:	6c5a      	ldr	r2, [r3, #68]	; 0x44
 800157c:	f422 4280 	bic.w	r2, r2, #16384	; 0x4000
 8001580:	645a      	str	r2, [r3, #68]	; 0x44
 8001582:	4770      	bx	lr
 8001584:	40012c00 	.word	0x40012c00

08001588 <PWM_50Hz_ON>:
    //HAL_TIM_PWM_Stop(&htim1,TIM_CHANNEL_3);
}

void PWM_50Hz_ON(void){
 8001588:	b508      	push	{r3, lr}
	PWM_50Hz_OUTEN(); // OUTPUT ENABLE
 800158a:	f7ff ffe9 	bl	8001560 <PWM_50Hz_OUTEN>
	PWM_50Hz_START(); // start CNT
}
 800158e:	e8bd 4008 	ldmia.w	sp!, {r3, lr}
	PWM_50Hz_START(); // start CNT
 8001592:	f7ff bfa1 	b.w	80014d8 <PWM_50Hz_START>

08001596 <PWM_50Hz_OFF>:

void PWM_50Hz_OFF(void){
 8001596:	b508      	push	{r3, lr}
	PWM_50Hz_OUTDIS(); // OUTPUT ENABLE
 8001598:	f7ff ffea 	bl	8001570 <PWM_50Hz_OUTDIS>
	PWM_50Hz_STOP(); // start CNT
}
 800159c:	e8bd 4008 	ldmia.w	sp!, {r3, lr}
	PWM_50Hz_STOP(); // start CNT
 80015a0:	f7ff bfba 	b.w	8001518 <PWM_50Hz_STOP>

080015a4 <PWM_Sinus_START>:


////////////////////// INIT GENERATOR PWM LOW - BEGIN //////////////////////
void PWM_Sinus_START(void)
{
	sin_step=0;
 80015a4:	2200      	movs	r2, #0
 80015a6:	4b07      	ldr	r3, [pc, #28]	; (80015c4 <PWM_Sinus_START+0x20>)
 80015a8:	801a      	strh	r2, [r3, #0]
	//TIM1->CNT = 0;
	TIM3->CCR1=0;
 80015aa:	4b07      	ldr	r3, [pc, #28]	; (80015c8 <PWM_Sinus_START+0x24>)
 80015ac:	635a      	str	r2, [r3, #52]	; 0x34
	TIM3->CCR2=0;
 80015ae:	639a      	str	r2, [r3, #56]	; 0x38
	//TIM3->CCER |= TIM_CCER_CC1P;

	//TIM3->CCER |= TIM_CCER_CC2E; // enable PWM complementary out to PA9
	//TIM3->CCER |= TIM_CCER_CC2P;

	TIM3->DIER |= TIM_DIER_UIE;
 80015b0:	68da      	ldr	r2, [r3, #12]
 80015b2:	f042 0201 	orr.w	r2, r2, #1
 80015b6:	60da      	str	r2, [r3, #12]
	TIM3->CR1 |= TIM_CR1_CEN;
 80015b8:	681a      	ldr	r2, [r3, #0]
 80015ba:	f042 0201 	orr.w	r2, r2, #1
 80015be:	601a      	str	r2, [r3, #0]

	ResetAmplitude();
 80015c0:	f000 b8e2 	b.w	8001788 <ResetAmplitude>
 80015c4:	20000422 	.word	0x20000422
 80015c8:	40000400 	.word	0x40000400

080015cc <PWM_Sinus_STOP>:
}

void PWM_Sinus_STOP(void)
{
	//TIM1->CNT = 0;
	TIM3->SR&=~TIM_SR_UIF; // clear update flag
 80015cc:	4b09      	ldr	r3, [pc, #36]	; (80015f4 <PWM_Sinus_STOP+0x28>)
 80015ce:	691a      	ldr	r2, [r3, #16]
 80015d0:	f022 0201 	bic.w	r2, r2, #1
 80015d4:	611a      	str	r2, [r3, #16]

	TIM3->DIER &= ~TIM_DIER_UIE; // stop interrupt
 80015d6:	68da      	ldr	r2, [r3, #12]
 80015d8:	f022 0201 	bic.w	r2, r2, #1
 80015dc:	60da      	str	r2, [r3, #12]
	TIM3->CR1 &= (uint16_t)~TIM_CR1_CEN; // stop cnt
 80015de:	681a      	ldr	r2, [r3, #0]
 80015e0:	f022 0201 	bic.w	r2, r2, #1
 80015e4:	0412      	lsls	r2, r2, #16
 80015e6:	0c12      	lsrs	r2, r2, #16
 80015e8:	601a      	str	r2, [r3, #0]

	TIM3->CCR1=0;
 80015ea:	2200      	movs	r2, #0
 80015ec:	635a      	str	r2, [r3, #52]	; 0x34
	TIM3->CCR2=0;
 80015ee:	639a      	str	r2, [r3, #56]	; 0x38
 80015f0:	4770      	bx	lr
 80015f2:	bf00      	nop
 80015f4:	40000400 	.word	0x40000400

080015f8 <PWM_Sinus_OUTEN>:
}

void PWM_Sinus_OUTEN(void)
{
	TIM3->BDTR |= TIM_BDTR_MOE | TIM_BDTR_AOE; // enable generation output
 80015f8:	4a02      	ldr	r2, [pc, #8]	; (8001604 <PWM_Sinus_OUTEN+0xc>)
 80015fa:	6c53      	ldr	r3, [r2, #68]	; 0x44
 80015fc:	f443 4340 	orr.w	r3, r3, #49152	; 0xc000
 8001600:	6453      	str	r3, [r2, #68]	; 0x44
 8001602:	4770      	bx	lr
 8001604:	40000400 	.word	0x40000400

08001608 <PWM_Sinus_OUTDIS>:
	//HAL_TIM_PWM_Start(&htim3,TIM_CHANNEL_2);
}

void PWM_Sinus_OUTDIS(void)
{
    TIM3->BDTR &= ~TIM_BDTR_MOE;
 8001608:	4b04      	ldr	r3, [pc, #16]	; (800161c <PWM_Sinus_OUTDIS+0x14>)
 800160a:	6c5a      	ldr	r2, [r3, #68]	; 0x44
 800160c:	f422 4200 	bic.w	r2, r2, #32768	; 0x8000
 8001610:	645a      	str	r2, [r3, #68]	; 0x44
    TIM3->BDTR &= ~TIM_BDTR_AOE;
 8001612:	6c5a      	ldr	r2, [r3, #68]	; 0x44
 8001614:	f422 4280 	bic.w	r2, r2, #16384	; 0x4000
 8001618:	645a      	str	r2, [r3, #68]	; 0x44
 800161a:	4770      	bx	lr
 800161c:	40000400 	.word	0x40000400

08001620 <PWM_Sinus_ON>:

    //HAL_TIM_PWM_Stop(&htim3,TIM_CHANNEL_1);
    //HAL_TIM_PWM_Stop(&htim3,TIM_CHANNEL_2);
}

void PWM_Sinus_ON(void) {
 8001620:	b508      	push	{r3, lr}
	PWM_Sinus_OUTEN(); // OUTPUT ENABLE
 8001622:	f7ff ffe9 	bl	80015f8 <PWM_Sinus_OUTEN>
	PWM_Sinus_START(); // start CNT
}
 8001626:	e8bd 4008 	ldmia.w	sp!, {r3, lr}
	PWM_Sinus_START(); // start CNT
 800162a:	f7ff bfbb 	b.w	80015a4 <PWM_Sinus_START>

0800162e <PWM_Sinus_OFF>:

void PWM_Sinus_OFF(void){
 800162e:	b508      	push	{r3, lr}
	PWM_Sinus_OUTDIS(); // OUTPUT ENABLE
 8001630:	f7ff ffea 	bl	8001608 <PWM_Sinus_OUTDIS>
	PWM_Sinus_STOP(); // start CNT
}
 8001634:	e8bd 4008 	ldmia.w	sp!, {r3, lr}
	PWM_Sinus_STOP(); // start CNT
 8001638:	f7ff bfc8 	b.w	80015cc <PWM_Sinus_STOP>

0800163c <PWM_Sinus_Init>:

	//GPIOA->CRL	&= ~GPIO_CRL_MODE1;
	//GPIOA->CRL	|= GPIO_CRL_MODE1; // gpio speed 50 MHz

	/*************************** Config PWM channel ***********************************/
		TIM3->PSC = SinResPSC; // div for clock: F = SYSCLK / [PSC + 1]
 800163c:	2200      	movs	r2, #0
		TIM3->ARR = 1000; // count to 1000
 800163e:	f44f 717a 	mov.w	r1, #1000	; 0x3e8
		TIM3->PSC = SinResPSC; // div for clock: F = SYSCLK / [PSC + 1]
 8001642:	4b19      	ldr	r3, [pc, #100]	; (80016a8 <PWM_Sinus_Init+0x6c>)
 8001644:	629a      	str	r2, [r3, #40]	; 0x28
		TIM3->ARR = 1000; // count to 1000
 8001646:	62d9      	str	r1, [r3, #44]	; 0x2c
		TIM3->CCR1 = 0; // duty cycle 0%
 8001648:	635a      	str	r2, [r3, #52]	; 0x34
		TIM3->CCR2 = 0; // duty cycle 0%
 800164a:	639a      	str	r2, [r3, #56]	; 0x38

			TIM3->CCER |= TIM_CCER_CC1E; // enable PWM out to PA8
 800164c:	6a1a      	ldr	r2, [r3, #32]
 800164e:	f042 0201 	orr.w	r2, r2, #1
 8001652:	621a      	str	r2, [r3, #32]
			//TIM3->CCER &= ~TIM_CCER_CC1P; // active high level: 0 - high, 1 - low
			TIM3->CCER |= TIM_CCER_CC1P;
 8001654:	6a1a      	ldr	r2, [r3, #32]
 8001656:	f042 0202 	orr.w	r2, r2, #2
 800165a:	621a      	str	r2, [r3, #32]

			TIM3->CCER |= TIM_CCER_CC2E; // enable PWM complementary out to PA9
 800165c:	6a1a      	ldr	r2, [r3, #32]
 800165e:	f042 0210 	orr.w	r2, r2, #16
 8001662:	621a      	str	r2, [r3, #32]
			//TIM3->CCER &= ~TIM_CCER_CC2P; // active high level: 0 - high, 1 - low
			TIM3->CCER |= TIM_CCER_CC2P;
 8001664:	6a1a      	ldr	r2, [r3, #32]
 8001666:	f042 0220 	orr.w	r2, r2, #32
 800166a:	621a      	str	r2, [r3, #32]

		// se idle state
		TIM3->CR2 |= TIM_CR2_OIS1;
 800166c:	685a      	ldr	r2, [r3, #4]
 800166e:	f442 7280 	orr.w	r2, r2, #256	; 0x100
 8001672:	605a      	str	r2, [r3, #4]
		TIM3->CR2 |= TIM_CR2_OIS2;
 8001674:	685a      	ldr	r2, [r3, #4]
 8001676:	f442 6280 	orr.w	r2, r2, #1024	; 0x400
 800167a:	605a      	str	r2, [r3, #4]

		TIM3->CCMR1 &= ~(TIM_CCMR1_OC1M | TIM_CCMR1_OC2M);
 800167c:	699a      	ldr	r2, [r3, #24]
 800167e:	f422 42e0 	bic.w	r2, r2, #28672	; 0x7000
 8001682:	f022 0270 	bic.w	r2, r2, #112	; 0x70
 8001686:	619a      	str	r2, [r3, #24]
		TIM3->CCMR1 |= TIM_CCMR1_OC1M_2 | TIM_CCMR1_OC1M_1 |
 8001688:	699a      	ldr	r2, [r3, #24]
 800168a:	f442 42c0 	orr.w	r2, r2, #24576	; 0x6000
 800168e:	f042 0260 	orr.w	r2, r2, #96	; 0x60
 8001692:	619a      	str	r2, [r3, #24]
		 TIM_CCMR1_OC2M_2 | TIM_CCMR1_OC2M_1; // positiv PWM1_CH1 and PWM1_CH2

		/*******************************************************************************/

		TIM3->CR1 &= ~TIM_CR1_DIR; // count up: 0 - up, 1 - down
 8001694:	681a      	ldr	r2, [r3, #0]
 8001696:	f022 0210 	bic.w	r2, r2, #16
 800169a:	601a      	str	r2, [r3, #0]
		TIM3->CR1 &= ~TIM_CR1_CMS; // aligned on the front signal: 00 - front; 01, 10, 11 - center
 800169c:	681a      	ldr	r2, [r3, #0]
 800169e:	f022 0260 	bic.w	r2, r2, #96	; 0x60
 80016a2:	601a      	str	r2, [r3, #0]
 80016a4:	4770      	bx	lr
 80016a6:	bf00      	nop
 80016a8:	40000400 	.word	0x40000400

080016ac <DigiTOS_IWDG_Init>:
	
	/* Check if the system has resumed from IWDG reset */
#if defined(STM32F4xx)
	if (RCC->CSR & RCC_CSR_WDGRSTF) {
#else
	if (RCC->CSR & RCC_CSR_IWDGRSTF) {	
 80016ac:	4a2a      	ldr	r2, [pc, #168]	; (8001758 <DigiTOS_IWDG_Init+0xac>)
uint8_t DigiTOS_IWDG_Init(DigiTOS_IWDG_Timeout_t timeout) {
 80016ae:	4603      	mov	r3, r0
	if (RCC->CSR & RCC_CSR_IWDGRSTF) {	
 80016b0:	6a50      	ldr	r0, [r2, #36]	; 0x24
 80016b2:	f010 5000 	ands.w	r0, r0, #536870912	; 0x20000000
#endif
		/* Reset by IWDG */
		result = 1;
		
		/* Clear reset flags */
		RCC->CSR |= RCC_CSR_RMVF;
 80016b6:	bf1f      	itttt	ne
 80016b8:	6a51      	ldrne	r1, [r2, #36]	; 0x24
		result = 1;
 80016ba:	2001      	movne	r0, #1
		RCC->CSR |= RCC_CSR_RMVF;
 80016bc:	f041 7180 	orrne.w	r1, r1, #16777216	; 0x1000000
 80016c0:	6251      	strne	r1, [r2, #36]	; 0x24
	}

	/* Enable write access to IWDG_PR and IWDG_RLR registers */
	IWDG->KR = 0x5555;
 80016c2:	f245 5155 	movw	r1, #21845	; 0x5555
 80016c6:	4a25      	ldr	r2, [pc, #148]	; (800175c <DigiTOS_IWDG_Init+0xb0>)

	/* Set proper clock depending on timeout user select */
	if (timeout >= DigiTOS_IWDG_Timeout_8s) {
 80016c8:	2b0a      	cmp	r3, #10
	IWDG->KR = 0x5555;
 80016ca:	6011      	str	r1, [r2, #0]
	if (timeout >= DigiTOS_IWDG_Timeout_8s) {
 80016cc:	d925      	bls.n	800171a <DigiTOS_IWDG_Init+0x6e>
		/* IWDG counter clock: LSI/256 = 128Hz */
		IWDG->PR = 0x07;
 80016ce:	2107      	movs	r1, #7
 80016d0:	6051      	str	r1, [r2, #4]
	/* Set counter reload value */
	if (timeout == DigiTOS_IWDG_Timeout_5ms) {
		reload = 5; /* 1024 Hz IWDG ticking */
	} else if (timeout == DigiTOS_IWDG_Timeout_10ms) {
		reload = 10; /* 1024 Hz IWDG ticking */
	} else if (timeout == DigiTOS_IWDG_Timeout_15ms) {
 80016d2:	2b02      	cmp	r3, #2
 80016d4:	d02a      	beq.n	800172c <DigiTOS_IWDG_Init+0x80>
		reload = 15; /* 1024 Hz IWDG ticking */
	} else if (timeout == DigiTOS_IWDG_Timeout_30ms) {
 80016d6:	2b03      	cmp	r3, #3
 80016d8:	d02a      	beq.n	8001730 <DigiTOS_IWDG_Init+0x84>
		reload = 31; /* 1024 Hz IWDG ticking */
	} else if (timeout == DigiTOS_IWDG_Timeout_60ms) {
 80016da:	2b04      	cmp	r3, #4
 80016dc:	d02a      	beq.n	8001734 <DigiTOS_IWDG_Init+0x88>
		reload = 61; /* 1024 Hz IWDG ticking */
	} else if (timeout == DigiTOS_IWDG_Timeout_120ms) {
 80016de:	2b05      	cmp	r3, #5
 80016e0:	d02a      	beq.n	8001738 <DigiTOS_IWDG_Init+0x8c>
		reload = 123; /* 1024 Hz IWDG ticking */
	} else if (timeout == DigiTOS_IWDG_Timeout_250ms) {
 80016e2:	2b06      	cmp	r3, #6
 80016e4:	d02a      	beq.n	800173c <DigiTOS_IWDG_Init+0x90>
		reload = 255; /* 1024 Hz IWDG ticking */
	} else if (timeout == DigiTOS_IWDG_Timeout_500ms) {
 80016e6:	2b07      	cmp	r3, #7
 80016e8:	d02a      	beq.n	8001740 <DigiTOS_IWDG_Init+0x94>
		reload = 511; /* 1024 Hz IWDG ticking */
	} else if (timeout == DigiTOS_IWDG_Timeout_1s) {
 80016ea:	2b08      	cmp	r3, #8
 80016ec:	d02e      	beq.n	800174c <DigiTOS_IWDG_Init+0xa0>
		reload = 1023; /* 1024 Hz IWDG ticking */
	} else if (timeout == DigiTOS_IWDG_Timeout_2s) {
 80016ee:	2b09      	cmp	r3, #9
 80016f0:	d02f      	beq.n	8001752 <DigiTOS_IWDG_Init+0xa6>
		reload = 2047; /* 1024 Hz IWDG ticking */
	} else if (timeout == DigiTOS_IWDG_Timeout_4s) {
 80016f2:	2b0a      	cmp	r3, #10
 80016f4:	d027      	beq.n	8001746 <DigiTOS_IWDG_Init+0x9a>
		reload = 4095; /* 1024 Hz IWDG ticking */
	} else if (timeout == DigiTOS_IWDG_Timeout_8s) {
 80016f6:	2b0b      	cmp	r3, #11
 80016f8:	d028      	beq.n	800174c <DigiTOS_IWDG_Init+0xa0>
		reload = 1023; /* 128 Hz IWDG ticking */
	} else if (timeout == DigiTOS_IWDG_Timeout_16s) {
 80016fa:	2b0c      	cmp	r3, #12
 80016fc:	d029      	beq.n	8001752 <DigiTOS_IWDG_Init+0xa6>
		reload = 2047; /* 128 Hz IWDG ticking */
	} else if (timeout == DigiTOS_IWDG_Timeout_32s) {
 80016fe:	2b0d      	cmp	r3, #13
		reload = 4095; /* 128 Hz IWDG ticking */
 8001700:	f640 73ff 	movw	r3, #4095	; 0xfff
 8001704:	bf18      	it	ne
 8001706:	2300      	movne	r3, #0
	}
	
	/* Set reload */
	IWDG->RLR = reload;
 8001708:	4a14      	ldr	r2, [pc, #80]	; (800175c <DigiTOS_IWDG_Init+0xb0>)
 800170a:	6093      	str	r3, [r2, #8]

	/* Reload IWDG counter */
	IWDG->KR = 0xAAAA;
 800170c:	f64a 23aa 	movw	r3, #43690	; 0xaaaa
 8001710:	6013      	str	r3, [r2, #0]

	/* Enable IWDG (the LSI oscillator will be enabled by hardware) */
	IWDG->KR = 0xCCCC;
 8001712:	f64c 43cc 	movw	r3, #52428	; 0xcccc
 8001716:	6013      	str	r3, [r2, #0]
	
	/* Return status */
	return result;
}
 8001718:	4770      	bx	lr
		IWDG->PR = 0x03;
 800171a:	2103      	movs	r1, #3
 800171c:	6051      	str	r1, [r2, #4]
	if (timeout == DigiTOS_IWDG_Timeout_5ms) {
 800171e:	b11b      	cbz	r3, 8001728 <DigiTOS_IWDG_Init+0x7c>
	} else if (timeout == DigiTOS_IWDG_Timeout_10ms) {
 8001720:	2b01      	cmp	r3, #1
 8001722:	d1d6      	bne.n	80016d2 <DigiTOS_IWDG_Init+0x26>
		reload = 10; /* 1024 Hz IWDG ticking */
 8001724:	230a      	movs	r3, #10
 8001726:	e7ef      	b.n	8001708 <DigiTOS_IWDG_Init+0x5c>
		reload = 5; /* 1024 Hz IWDG ticking */
 8001728:	2305      	movs	r3, #5
 800172a:	e7ed      	b.n	8001708 <DigiTOS_IWDG_Init+0x5c>
		reload = 15; /* 1024 Hz IWDG ticking */
 800172c:	230f      	movs	r3, #15
 800172e:	e7eb      	b.n	8001708 <DigiTOS_IWDG_Init+0x5c>
		reload = 31; /* 1024 Hz IWDG ticking */
 8001730:	231f      	movs	r3, #31
 8001732:	e7e9      	b.n	8001708 <DigiTOS_IWDG_Init+0x5c>
		reload = 61; /* 1024 Hz IWDG ticking */
 8001734:	233d      	movs	r3, #61	; 0x3d
 8001736:	e7e7      	b.n	8001708 <DigiTOS_IWDG_Init+0x5c>
		reload = 123; /* 1024 Hz IWDG ticking */
 8001738:	237b      	movs	r3, #123	; 0x7b
 800173a:	e7e5      	b.n	8001708 <DigiTOS_IWDG_Init+0x5c>
		reload = 255; /* 1024 Hz IWDG ticking */
 800173c:	23ff      	movs	r3, #255	; 0xff
 800173e:	e7e3      	b.n	8001708 <DigiTOS_IWDG_Init+0x5c>
		reload = 511; /* 1024 Hz IWDG ticking */
 8001740:	f240 13ff 	movw	r3, #511	; 0x1ff
 8001744:	e7e0      	b.n	8001708 <DigiTOS_IWDG_Init+0x5c>
		reload = 4095; /* 1024 Hz IWDG ticking */
 8001746:	f640 73ff 	movw	r3, #4095	; 0xfff
 800174a:	e7dd      	b.n	8001708 <DigiTOS_IWDG_Init+0x5c>
		reload = 1023; /* 1024 Hz IWDG ticking */
 800174c:	f240 33ff 	movw	r3, #1023	; 0x3ff
 8001750:	e7da      	b.n	8001708 <DigiTOS_IWDG_Init+0x5c>
		reload = 2047; /* 1024 Hz IWDG ticking */
 8001752:	f240 73ff 	movw	r3, #2047	; 0x7ff
 8001756:	e7d7      	b.n	8001708 <DigiTOS_IWDG_Init+0x5c>
 8001758:	40021000 	.word	0x40021000
 800175c:	40003000 	.word	0x40003000

08001760 <SetSoftstart>:
#include "digiTOS-Sinus.h"

#ifdef AMP_CORRECTION_TYPE_STEP
void SetSoftstart() {
		#ifdef USE_SOFT_START
			Sine_Amplitude_4=SOFT_START_FROM;
 8001760:	f04f 537c 	mov.w	r3, #1056964608	; 0x3f000000
 8001764:	4a04      	ldr	r2, [pc, #16]	; (8001778 <SetSoftstart+0x18>)
 8001766:	6013      	str	r3, [r2, #0]
			Sine_Amplitude_3=SOFT_START_FROM;
 8001768:	4a04      	ldr	r2, [pc, #16]	; (800177c <SetSoftstart+0x1c>)
 800176a:	6013      	str	r3, [r2, #0]
			Sine_Amplitude_2=SOFT_START_FROM;
 800176c:	4a04      	ldr	r2, [pc, #16]	; (8001780 <SetSoftstart+0x20>)
 800176e:	6013      	str	r3, [r2, #0]
			Sine_Amplitude_1=SOFT_START_FROM;
 8001770:	4a04      	ldr	r2, [pc, #16]	; (8001784 <SetSoftstart+0x24>)
 8001772:	6013      	str	r3, [r2, #0]
 8001774:	4770      	bx	lr
 8001776:	bf00      	nop
 8001778:	20000024 	.word	0x20000024
 800177c:	20000020 	.word	0x20000020
 8001780:	2000001c 	.word	0x2000001c
 8001784:	20000018 	.word	0x20000018

08001788 <ResetAmplitude>:
			Sine_Amplitude_1=1;
		#endif
}
#endif

void ResetAmplitude() {
 8001788:	b508      	push	{r3, lr}
		Sine_Amplitude_2=1;
		Sine_Amplitude_1=1;
	#endif

	#ifdef AMP_CORRECTION_TYPE_STEP
		SetSoftstart();
 800178a:	f7ff ffe9 	bl	8001760 <SetSoftstart>
	#endif

	#ifdef AMP_PROTECTION
			AMP_BLOCKED=0;
 800178e:	2300      	movs	r3, #0
 8001790:	4a06      	ldr	r2, [pc, #24]	; (80017ac <ResetAmplitude+0x24>)
 8001792:	6013      	str	r3, [r2, #0]
			AMP_PROTECTION_CNT_BEFORESTART=0;
 8001794:	4a06      	ldr	r2, [pc, #24]	; (80017b0 <ResetAmplitude+0x28>)
 8001796:	6013      	str	r3, [r2, #0]
			AMP_PROTECTION_CNT=0;
 8001798:	4a06      	ldr	r2, [pc, #24]	; (80017b4 <ResetAmplitude+0x2c>)
 800179a:	6013      	str	r3, [r2, #0]
	#endif

	#ifdef VOUT_PROTECTION
		VOUT_PROTECTION_CNT=0;
 800179c:	4a06      	ldr	r2, [pc, #24]	; (80017b8 <ResetAmplitude+0x30>)
 800179e:	6013      	str	r3, [r2, #0]
		VOUT_PROTECTION_CNT_BEFORESTART=0;
 80017a0:	4a06      	ldr	r2, [pc, #24]	; (80017bc <ResetAmplitude+0x34>)
 80017a2:	6013      	str	r3, [r2, #0]
		VOUT_BLOCKED=0;
 80017a4:	4a06      	ldr	r2, [pc, #24]	; (80017c0 <ResetAmplitude+0x38>)
 80017a6:	6013      	str	r3, [r2, #0]
 80017a8:	bd08      	pop	{r3, pc}
 80017aa:	bf00      	nop
 80017ac:	200003c8 	.word	0x200003c8
 80017b0:	200003d0 	.word	0x200003d0
 80017b4:	200003cc 	.word	0x200003cc
 80017b8:	2000040c 	.word	0x2000040c
 80017bc:	20000410 	.word	0x20000410
 80017c0:	20000408 	.word	0x20000408

080017c4 <GetApmlitude>:
		return;
	}
}

float GetApmlitude() {
	if (sin_step>Sin_Amp_ind[2]) {
 80017c4:	4b0c      	ldr	r3, [pc, #48]	; (80017f8 <GetApmlitude+0x34>)
 80017c6:	4a0d      	ldr	r2, [pc, #52]	; (80017fc <GetApmlitude+0x38>)
 80017c8:	8819      	ldrh	r1, [r3, #0]
 80017ca:	6890      	ldr	r0, [r2, #8]
 80017cc:	b289      	uxth	r1, r1
 80017ce:	4281      	cmp	r1, r0
 80017d0:	dd02      	ble.n	80017d8 <GetApmlitude+0x14>
		return Sine_Amplitude_4;
 80017d2:	4b0b      	ldr	r3, [pc, #44]	; (8001800 <GetApmlitude+0x3c>)
		return Sine_Amplitude_3;
	}
	if (sin_step>Sin_Amp_ind[0]) {
		return Sine_Amplitude_2;
	}
	return Sine_Amplitude_1;
 80017d4:	6818      	ldr	r0, [r3, #0]
}
 80017d6:	4770      	bx	lr
	if (sin_step>Sin_Amp_ind[1]) {
 80017d8:	8819      	ldrh	r1, [r3, #0]
 80017da:	6850      	ldr	r0, [r2, #4]
 80017dc:	b289      	uxth	r1, r1
 80017de:	4281      	cmp	r1, r0
 80017e0:	dd01      	ble.n	80017e6 <GetApmlitude+0x22>
		return Sine_Amplitude_3;
 80017e2:	4b08      	ldr	r3, [pc, #32]	; (8001804 <GetApmlitude+0x40>)
 80017e4:	e7f6      	b.n	80017d4 <GetApmlitude+0x10>
	if (sin_step>Sin_Amp_ind[0]) {
 80017e6:	881b      	ldrh	r3, [r3, #0]
 80017e8:	6812      	ldr	r2, [r2, #0]
 80017ea:	b29b      	uxth	r3, r3
 80017ec:	4293      	cmp	r3, r2
		return Sine_Amplitude_2;
 80017ee:	bfcc      	ite	gt
 80017f0:	4b05      	ldrgt	r3, [pc, #20]	; (8001808 <GetApmlitude+0x44>)
	return Sine_Amplitude_1;
 80017f2:	4b06      	ldrle	r3, [pc, #24]	; (800180c <GetApmlitude+0x48>)
 80017f4:	e7ee      	b.n	80017d4 <GetApmlitude+0x10>
 80017f6:	bf00      	nop
 80017f8:	20000422 	.word	0x20000422
 80017fc:	20000008 	.word	0x20000008
 8001800:	20000024 	.word	0x20000024
 8001804:	20000020 	.word	0x20000020
 8001808:	2000001c 	.word	0x2000001c
 800180c:	20000018 	.word	0x20000018

08001810 <GetSinus>:

uint16_t GetSinus() {
 8001810:	b538      	push	{r3, r4, r5, lr}
	if (sin_step >= SinRes) {
 8001812:	4b14      	ldr	r3, [pc, #80]	; (8001864 <GetSinus+0x54>)
 8001814:	881a      	ldrh	r2, [r3, #0]
 8001816:	b292      	uxth	r2, r2
 8001818:	f5b2 7fb4 	cmp.w	r2, #360	; 0x168
 800181c:	d302      	bcc.n	8001824 <GetSinus+0x14>
		sin_step = 0;
 800181e:	2000      	movs	r0, #0
 8001820:	8018      	strh	r0, [r3, #0]
		return 0;
 8001822:	bd38      	pop	{r3, r4, r5, pc}
	}
	uint16_t fSinusData=sin_data[sin_step];
 8001824:	881b      	ldrh	r3, [r3, #0]
 8001826:	4a10      	ldr	r2, [pc, #64]	; (8001868 <GetSinus+0x58>)
 8001828:	b29b      	uxth	r3, r3
 800182a:	f832 4013 	ldrh.w	r4, [r2, r3, lsl #1]
	float curAmplitude=GetApmlitude();
 800182e:	f7ff ffc9 	bl	80017c4 <GetApmlitude>
	if (curAmplitude!=1) {
 8001832:	f04f 517e 	mov.w	r1, #1065353216	; 0x3f800000
	uint16_t fSinusData=sin_data[sin_step];
 8001836:	b2a4      	uxth	r4, r4
	float curAmplitude=GetApmlitude();
 8001838:	4605      	mov	r5, r0
	if (curAmplitude!=1) {
 800183a:	f7fe ff35 	bl	80006a8 <__aeabi_fcmpeq>
 800183e:	b940      	cbnz	r0, 8001852 <GetSinus+0x42>
		fSinusData=(uint16_t) (curAmplitude*fSinusData);
 8001840:	4620      	mov	r0, r4
 8001842:	f7fe fd49 	bl	80002d8 <__aeabi_i2f>
 8001846:	4629      	mov	r1, r5
 8001848:	f7fe fd9a 	bl	8000380 <__aeabi_fmul>
 800184c:	f7fe ff5e 	bl	800070c <__aeabi_f2uiz>
 8001850:	b284      	uxth	r4, r0
 8001852:	f240 30ca 	movw	r0, #970	; 0x3ca
 8001856:	42a0      	cmp	r0, r4
 8001858:	bf28      	it	cs
 800185a:	4620      	movcs	r0, r4
 800185c:	281e      	cmp	r0, #30
 800185e:	bf38      	it	cc
 8001860:	201e      	movcc	r0, #30
	}
	if (fSinusData>=MaxSinusData) {
		return MaxSinusData;
	}
	return fSinusData;
}
 8001862:	bd38      	pop	{r3, r4, r5, pc}
 8001864:	20000422 	.word	0x20000422
 8001868:	20000060 	.word	0x20000060

0800186c <EE_Format>:

//##########################################################################################################
//##########################################################################################################
//##########################################################################################################
bool	EE_Format(void)
{
 800186c:	b510      	push	{r4, lr}
 800186e:	b086      	sub	sp, #24
	uint32_t	error;
	HAL_FLASH_Unlock();
 8001870:	f001 ff6a 	bl	8003748 <HAL_FLASH_Unlock>
	FLASH_EraseInitTypeDef	flashErase;
	flashErase.NbPages=1;
 8001874:	2301      	movs	r3, #1
	//flashErase.Banks = FLASH_BANK_1;
	flashErase.PageAddress = _EEPROM_FLASH_PAGE_ADDRESS;
	flashErase.TypeErase = FLASH_TYPEERASE_PAGES;
 8001876:	2400      	movs	r4, #0
	flashErase.NbPages=1;
 8001878:	9305      	str	r3, [sp, #20]
	flashErase.PageAddress = _EEPROM_FLASH_PAGE_ADDRESS;
 800187a:	4b0a      	ldr	r3, [pc, #40]	; (80018a4 <EE_Format+0x38>)
	if(HAL_FLASHEx_Erase(&flashErase,&error)==HAL_OK)
 800187c:	a901      	add	r1, sp, #4
 800187e:	a802      	add	r0, sp, #8
	flashErase.PageAddress = _EEPROM_FLASH_PAGE_ADDRESS;
 8001880:	9304      	str	r3, [sp, #16]
	flashErase.TypeErase = FLASH_TYPEERASE_PAGES;
 8001882:	9402      	str	r4, [sp, #8]
	if(HAL_FLASHEx_Erase(&flashErase,&error)==HAL_OK)
 8001884:	f002 f82a 	bl	80038dc <HAL_FLASHEx_Erase>
 8001888:	b938      	cbnz	r0, 800189a <EE_Format+0x2e>
	{
		HAL_FLASH_Lock();
 800188a:	f001 ff6f 	bl	800376c <HAL_FLASH_Lock>
		if(error != 0xFFFFFFFF)
 800188e:	9801      	ldr	r0, [sp, #4]
 8001890:	1c43      	adds	r3, r0, #1
 8001892:	4258      	negs	r0, r3
 8001894:	4158      	adcs	r0, r3
		else
			return true;	
	}
	HAL_FLASH_Lock();
	return false;	
}
 8001896:	b006      	add	sp, #24
 8001898:	bd10      	pop	{r4, pc}
	HAL_FLASH_Lock();
 800189a:	f001 ff67 	bl	800376c <HAL_FLASH_Lock>
	return false;	
 800189e:	4620      	mov	r0, r4
 80018a0:	e7f9      	b.n	8001896 <EE_Format+0x2a>
 80018a2:	bf00      	nop
 80018a4:	0800fc00 	.word	0x0800fc00

080018a8 <EE_Read>:
//##########################################################################################################
bool EE_Read(uint16_t VirtualAddress, uint32_t* Data)
{
	if(VirtualAddress >=	(_EEPROM_SIZE))
 80018a8:	2809      	cmp	r0, #9
		return false;
	*Data =  (*(__IO uint32_t*)((VirtualAddress*4)+_EEPROM_FLASH_PAGE_ADDRESS));
 80018aa:	bf9f      	itttt	ls
 80018ac:	0080      	lslls	r0, r0, #2
 80018ae:	f100 6000 	addls.w	r0, r0, #134217728	; 0x8000000
 80018b2:	f500 407c 	addls.w	r0, r0, #64512	; 0xfc00
 80018b6:	6803      	ldrls	r3, [r0, #0]
	return true;
 80018b8:	bf9a      	itte	ls
 80018ba:	2001      	movls	r0, #1
	*Data =  (*(__IO uint32_t*)((VirtualAddress*4)+_EEPROM_FLASH_PAGE_ADDRESS));
 80018bc:	600b      	strls	r3, [r1, #0]
		return false;
 80018be:	2000      	movhi	r0, #0
}
 80018c0:	4770      	bx	lr

080018c2 <EE_Reads>:

}
//##########################################################################################################
bool EE_Reads(uint16_t StartVirtualAddress,uint16_t HowMuchToRead,uint32_t* Data)
{
	if((StartVirtualAddress+HowMuchToRead) >	(_EEPROM_SIZE))
 80018c2:	4401      	add	r1, r0
 80018c4:	290a      	cmp	r1, #10
 80018c6:	dd0b      	ble.n	80018e0 <EE_Reads+0x1e>
		return false;
 80018c8:	2000      	movs	r0, #0
	{
		*Data =  (*(__IO uint32_t*)((i*4)+_EEPROM_FLASH_PAGE_ADDRESS));
		Data++;
	}
	return true;
}
 80018ca:	4770      	bx	lr
		*Data =  (*(__IO uint32_t*)((i*4)+_EEPROM_FLASH_PAGE_ADDRESS));
 80018cc:	0083      	lsls	r3, r0, #2
 80018ce:	f103 6300 	add.w	r3, r3, #134217728	; 0x8000000
 80018d2:	f503 437c 	add.w	r3, r3, #64512	; 0xfc00
 80018d6:	681b      	ldr	r3, [r3, #0]
	for(uint16_t	i=StartVirtualAddress ; i<HowMuchToRead+StartVirtualAddress ; i++)
 80018d8:	3001      	adds	r0, #1
		*Data =  (*(__IO uint32_t*)((i*4)+_EEPROM_FLASH_PAGE_ADDRESS));
 80018da:	f842 3b04 	str.w	r3, [r2], #4
	for(uint16_t	i=StartVirtualAddress ; i<HowMuchToRead+StartVirtualAddress ; i++)
 80018de:	b280      	uxth	r0, r0
 80018e0:	4281      	cmp	r1, r0
 80018e2:	dcf3      	bgt.n	80018cc <EE_Reads+0xa>
	return true;
 80018e4:	2001      	movs	r0, #1
 80018e6:	4770      	bx	lr

080018e8 <EE_Write>:
	if(VirtualAddress >=	(_EEPROM_SIZE))
 80018e8:	2809      	cmp	r0, #9
{
 80018ea:	e92d 41f0 	stmdb	sp!, {r4, r5, r6, r7, r8, lr}
 80018ee:	4605      	mov	r5, r0
 80018f0:	460f      	mov	r7, r1
	if(VirtualAddress >=	(_EEPROM_SIZE))
 80018f2:	d819      	bhi.n	8001928 <EE_Write+0x40>
	if((*(__IO uint32_t*)((VirtualAddress*4)+_EEPROM_FLASH_PAGE_ADDRESS)) != 0xFFFFFFFF)
 80018f4:	0084      	lsls	r4, r0, #2
 80018f6:	f104 6400 	add.w	r4, r4, #134217728	; 0x8000000
 80018fa:	f504 447c 	add.w	r4, r4, #64512	; 0xfc00
 80018fe:	6823      	ldr	r3, [r4, #0]
 8001900:	3301      	adds	r3, #1
 8001902:	d108      	bne.n	8001916 <EE_Write+0x2e>
	HAL_FLASH_Unlock();
 8001904:	f001 ff20 	bl	8003748 <HAL_FLASH_Unlock>
	if(Data!=0xFFFFFFFF)
 8001908:	1c7b      	adds	r3, r7, #1
 800190a:	d129      	bne.n	8001960 <EE_Write+0x78>
			HAL_FLASH_Lock();
 800190c:	f001 ff2e 	bl	800376c <HAL_FLASH_Lock>
			return true;
 8001910:	2001      	movs	r0, #1
 8001912:	e8bd 81f0 	ldmia.w	sp!, {r4, r5, r6, r7, r8, pc}
		if( EE_Reads(0,(_EEPROM_SIZE),EEPROMPageBackup)==false)
 8001916:	4e17      	ldr	r6, [pc, #92]	; (8001974 <EE_Write+0x8c>)
 8001918:	210a      	movs	r1, #10
 800191a:	4632      	mov	r2, r6
 800191c:	2000      	movs	r0, #0
 800191e:	f7ff ffd0 	bl	80018c2 <EE_Reads>
 8001922:	b920      	cbnz	r0, 800192e <EE_Write+0x46>
			HAL_FLASH_Lock();
 8001924:	f001 ff22 	bl	800376c <HAL_FLASH_Lock>
		return false;
 8001928:	2000      	movs	r0, #0
}
 800192a:	e8bd 81f0 	ldmia.w	sp!, {r4, r5, r6, r7, r8, pc}
		EEPROMPageBackup[VirtualAddress]=Data;
 800192e:	f846 7025 	str.w	r7, [r6, r5, lsl #2]
		EE_Format();
 8001932:	f7ff ff9b 	bl	800186c <EE_Format>
		HAL_FLASH_Unlock();
 8001936:	f001 ff07 	bl	8003748 <HAL_FLASH_Unlock>
 800193a:	4d0f      	ldr	r5, [pc, #60]	; (8001978 <EE_Write+0x90>)
		for(uint16_t	i=0 ; i<_EEPROM_SIZE ; i++)
 800193c:	f8df 803c 	ldr.w	r8, [pc, #60]	; 800197c <EE_Write+0x94>
      if(HAL_FLASH_Program(FLASH_TYPEPROGRAM_WORD,(i*4)+_EEPROM_FLASH_PAGE_ADDRESS,(uint64_t)EEPROMPageBackup[i])!=HAL_OK)
 8001940:	f105 4378 	add.w	r3, r5, #4160749568	; 0xf8000000
 8001944:	f5a3 437c 	sub.w	r3, r3, #64512	; 0xfc00
 8001948:	58f2      	ldr	r2, [r6, r3]
 800194a:	4629      	mov	r1, r5
 800194c:	2300      	movs	r3, #0
 800194e:	2002      	movs	r0, #2
 8001950:	f001 ff40 	bl	80037d4 <HAL_FLASH_Program>
 8001954:	2800      	cmp	r0, #0
 8001956:	d1e5      	bne.n	8001924 <EE_Write+0x3c>
 8001958:	3504      	adds	r5, #4
		for(uint16_t	i=0 ; i<_EEPROM_SIZE ; i++)
 800195a:	4545      	cmp	r5, r8
 800195c:	d1f0      	bne.n	8001940 <EE_Write+0x58>
 800195e:	e7d1      	b.n	8001904 <EE_Write+0x1c>
		if(HAL_FLASH_Program(FLASH_TYPEPROGRAM_WORD,(VirtualAddress*4)+_EEPROM_FLASH_PAGE_ADDRESS,(uint64_t)Data)==HAL_OK)
 8001960:	463a      	mov	r2, r7
 8001962:	2300      	movs	r3, #0
 8001964:	4621      	mov	r1, r4
 8001966:	2002      	movs	r0, #2
 8001968:	f001 ff34 	bl	80037d4 <HAL_FLASH_Program>
 800196c:	2800      	cmp	r0, #0
 800196e:	d1d9      	bne.n	8001924 <EE_Write+0x3c>
 8001970:	e7cc      	b.n	800190c <EE_Write+0x24>
 8001972:	bf00      	nop
 8001974:	20000640 	.word	0x20000640
 8001978:	0800fc00 	.word	0x0800fc00
 800197c:	0800fc28 	.word	0x0800fc28

08001980 <buttonInit>:
			GPIO_InitStruct.Pull = GPIO_PULLDOWN;
		}	
		HAL_GPIO_Init(GPIO_Port, &GPIO_InitStruct);
	#endif
	
	button_struct->GPIO_Pin = GPIO_Pin;
 8001980:	6002      	str	r2, [r0, #0]
	button_struct->GPIO_Port = GPIO_Port;
	button_struct->debounce_time = debounce_time;
 8001982:	9a00      	ldr	r2, [sp, #0]
	button_struct->long_press_time = long_press_time;
	button_struct->active_state = active_state;
 8001984:	7203      	strb	r3, [r0, #8]
	button_struct->debounce_time = debounce_time;
 8001986:	60c2      	str	r2, [r0, #12]
	button_struct->long_press_time = long_press_time;
 8001988:	9a01      	ldr	r2, [sp, #4]
	
	button_struct->short_press_handled = 0;
 800198a:	2300      	movs	r3, #0
	button_struct->long_press_time = long_press_time;
 800198c:	6102      	str	r2, [r0, #16]
	button_struct->long_press_handled = 0;
	button_struct->_on_press_time = 0;
	button_struct->_previous_state = button_off;
 800198e:	2201      	movs	r2, #1
	button_struct->GPIO_Port = GPIO_Port;
 8001990:	6041      	str	r1, [r0, #4]
	button_struct->short_press_handled = 0;
 8001992:	7503      	strb	r3, [r0, #20]
	button_struct->long_press_handled = 0;
 8001994:	7543      	strb	r3, [r0, #21]
	button_struct->_on_press_time = 0;
 8001996:	6183      	str	r3, [r0, #24]
	button_struct->_previous_state = button_off;
 8001998:	75c2      	strb	r2, [r0, #23]
	button_struct->_state_changed = 0;
 800199a:	7583      	strb	r3, [r0, #22]
	button_struct->_state = noEvent;
 800199c:	7243      	strb	r3, [r0, #9]
 800199e:	4770      	bx	lr

080019a0 <_button_state>:
/*	PRIVATE FUNCTIONS */
/**********************************************************/
/* Low level GPIO read routine.
button_on - button is currently read as pressed
*/
_phy_state_t _button_state(button_struct_t *button_struct){
 80019a0:	b510      	push	{r4, lr}
 80019a2:	4604      	mov	r4, r0
	if(HAL_GPIO_ReadPin(button_struct->GPIO_Port, button_struct->GPIO_Pin) == button_struct->active_state){
 80019a4:	8801      	ldrh	r1, [r0, #0]
 80019a6:	6840      	ldr	r0, [r0, #4]
 80019a8:	f002 f9ac 	bl	8003d04 <HAL_GPIO_ReadPin>
 80019ac:	7a23      	ldrb	r3, [r4, #8]
		return button_on;
	}
	else{
		return button_off;
	}
}
 80019ae:	1a18      	subs	r0, r3, r0
 80019b0:	bf18      	it	ne
 80019b2:	2001      	movne	r0, #1
 80019b4:	bd10      	pop	{r4, pc}

080019b6 <buttonUpdate>:
button_state_t buttonUpdate(button_struct_t *button_struct){
 80019b6:	b570      	push	{r4, r5, r6, lr}
 80019b8:	4604      	mov	r4, r0
	_phy_state_t state = _button_state(button_struct);	// get button state
 80019ba:	f7ff fff1 	bl	80019a0 <_button_state>
	if(state != button_struct->_previous_state){	// state is	different
 80019be:	7de6      	ldrb	r6, [r4, #23]
	_phy_state_t state = _button_state(button_struct);	// get button state
 80019c0:	4605      	mov	r5, r0
	if(state != button_struct->_previous_state){	// state is	different
 80019c2:	4286      	cmp	r6, r0
 80019c4:	d01a      	beq.n	80019fc <buttonUpdate+0x46>
		if(state == button_on){	
 80019c6:	b938      	cbnz	r0, 80019d8 <buttonUpdate+0x22>
			button_struct->_on_press_time = HAL_GetTick(); // get current time
 80019c8:	f001 f83c 	bl	8002a44 <HAL_GetTick>
			button_struct->_state_changed = 1;	// state is changed
 80019cc:	2301      	movs	r3, #1
			button_struct->_on_press_time = HAL_GetTick(); // get current time
 80019ce:	61a0      	str	r0, [r4, #24]
			button_struct->_state_changed = 1;	// state is changed
 80019d0:	75a3      	strb	r3, [r4, #22]
			button_struct->_previous_state = button_on;
 80019d2:	75e5      	strb	r5, [r4, #23]
			return_status = noEvent;
 80019d4:	2000      	movs	r0, #0
 80019d6:	bd70      	pop	{r4, r5, r6, pc}
			if(HAL_GetTick() >= (button_struct->_on_press_time + button_struct->debounce_time)){	
 80019d8:	f001 f834 	bl	8002a44 <HAL_GetTick>
 80019dc:	69a3      	ldr	r3, [r4, #24]
 80019de:	68e2      	ldr	r2, [r4, #12]
 80019e0:	4413      	add	r3, r2
 80019e2:	4298      	cmp	r0, r3
				button_struct->_state = isReleased;
 80019e4:	bf28      	it	cs
 80019e6:	2304      	movcs	r3, #4
 80019e8:	f04f 0001 	mov.w	r0, #1
 80019ec:	bf22      	ittt	cs
 80019ee:	7263      	strbcs	r3, [r4, #9]
				button_struct->_previous_state = button_off;
 80019f0:	75e0      	strbcs	r0, [r4, #23]
				return_status = button_struct->_state;
 80019f2:	4618      	movcs	r0, r3
			button_struct->long_press_handled = 0;
 80019f4:	2300      	movs	r3, #0
 80019f6:	7563      	strb	r3, [r4, #21]
			button_struct->short_press_handled = 0;
 80019f8:	7523      	strb	r3, [r4, #20]
 80019fa:	bd70      	pop	{r4, r5, r6, pc}
		if(state == button_on){	// state = button_on, prevous state = button_on
 80019fc:	2e00      	cmp	r6, #0
 80019fe:	d1e9      	bne.n	80019d4 <buttonUpdate+0x1e>
			if(HAL_GetTick() >= (button_struct->_on_press_time + button_struct->long_press_time)){	
 8001a00:	f001 f820 	bl	8002a44 <HAL_GetTick>
 8001a04:	69a3      	ldr	r3, [r4, #24]
 8001a06:	6922      	ldr	r2, [r4, #16]
 8001a08:	4413      	add	r3, r2
 8001a0a:	4298      	cmp	r0, r3
 8001a0c:	d308      	bcc.n	8001a20 <buttonUpdate+0x6a>
				if(button_struct->long_press_handled == 1){	//was button handled yet?
 8001a0e:	7d63      	ldrb	r3, [r4, #21]
 8001a10:	2b01      	cmp	r3, #1
 8001a12:	d102      	bne.n	8001a1a <buttonUpdate+0x64>
						button_struct->_state = noEvent;
 8001a14:	7266      	strb	r6, [r4, #9]
					return_status = button_struct->_state;
 8001a16:	7a60      	ldrb	r0, [r4, #9]
}
 8001a18:	bd70      	pop	{r4, r5, r6, pc}
					button_struct->_state = isPressedLong;
 8001a1a:	2303      	movs	r3, #3
						button_struct->_state = isPressed;
 8001a1c:	7263      	strb	r3, [r4, #9]
 8001a1e:	e7fa      	b.n	8001a16 <buttonUpdate+0x60>
				if(HAL_GetTick() >= (button_struct->_on_press_time + button_struct->debounce_time)){	
 8001a20:	f001 f810 	bl	8002a44 <HAL_GetTick>
 8001a24:	69a3      	ldr	r3, [r4, #24]
 8001a26:	68e2      	ldr	r2, [r4, #12]
 8001a28:	4413      	add	r3, r2
 8001a2a:	4298      	cmp	r0, r3
 8001a2c:	d3d2      	bcc.n	80019d4 <buttonUpdate+0x1e>
					if(button_struct->short_press_handled == 1){	//was button handled yet?
 8001a2e:	7d23      	ldrb	r3, [r4, #20]
 8001a30:	2b01      	cmp	r3, #1
 8001a32:	d0ef      	beq.n	8001a14 <buttonUpdate+0x5e>
						button_struct->_state = isPressed;
 8001a34:	2302      	movs	r3, #2
 8001a36:	e7f1      	b.n	8001a1c <buttonUpdate+0x66>

08001a38 <MX_DMA_Init>:
  * Enable DMA controller clock
  */
void MX_DMA_Init(void) 
{
  /* DMA controller clock enable */
  __HAL_RCC_DMA1_CLK_ENABLE();
 8001a38:	4b0e      	ldr	r3, [pc, #56]	; (8001a74 <MX_DMA_Init+0x3c>)
{
 8001a3a:	b507      	push	{r0, r1, r2, lr}
  __HAL_RCC_DMA1_CLK_ENABLE();
 8001a3c:	695a      	ldr	r2, [r3, #20]

  /* DMA interrupt init */
  /* DMA1_Channel1_IRQn interrupt configuration */
  HAL_NVIC_SetPriority(DMA1_Channel1_IRQn, 2, 0);
 8001a3e:	2102      	movs	r1, #2
  __HAL_RCC_DMA1_CLK_ENABLE();
 8001a40:	f042 0201 	orr.w	r2, r2, #1
 8001a44:	615a      	str	r2, [r3, #20]
 8001a46:	695b      	ldr	r3, [r3, #20]
  HAL_NVIC_SetPriority(DMA1_Channel1_IRQn, 2, 0);
 8001a48:	2200      	movs	r2, #0
  __HAL_RCC_DMA1_CLK_ENABLE();
 8001a4a:	f003 0301 	and.w	r3, r3, #1
 8001a4e:	9301      	str	r3, [sp, #4]
  HAL_NVIC_SetPriority(DMA1_Channel1_IRQn, 2, 0);
 8001a50:	200b      	movs	r0, #11
  __HAL_RCC_DMA1_CLK_ENABLE();
 8001a52:	9b01      	ldr	r3, [sp, #4]
  HAL_NVIC_SetPriority(DMA1_Channel1_IRQn, 2, 0);
 8001a54:	f001 fb78 	bl	8003148 <HAL_NVIC_SetPriority>
  HAL_NVIC_EnableIRQ(DMA1_Channel1_IRQn);
 8001a58:	200b      	movs	r0, #11
 8001a5a:	f001 fbb7 	bl	80031cc <HAL_NVIC_EnableIRQ>
  /* DMA1_Channel4_IRQn interrupt configuration */
  HAL_NVIC_SetPriority(DMA1_Channel4_IRQn, 3, 0);
 8001a5e:	2200      	movs	r2, #0
 8001a60:	2103      	movs	r1, #3
 8001a62:	200e      	movs	r0, #14
 8001a64:	f001 fb70 	bl	8003148 <HAL_NVIC_SetPriority>
  HAL_NVIC_EnableIRQ(DMA1_Channel4_IRQn);
 8001a68:	200e      	movs	r0, #14
 8001a6a:	f001 fbaf 	bl	80031cc <HAL_NVIC_EnableIRQ>

}
 8001a6e:	b003      	add	sp, #12
 8001a70:	f85d fb04 	ldr.w	pc, [sp], #4
 8001a74:	40021000 	.word	0x40021000

08001a78 <MX_GPIO_Init>:
        * the Code Generation settings)
*/
void MX_GPIO_Init(void)
{

  GPIO_InitTypeDef GPIO_InitStruct = {0};
 8001a78:	2210      	movs	r2, #16
{
 8001a7a:	b5f0      	push	{r4, r5, r6, r7, lr}
 8001a7c:	b089      	sub	sp, #36	; 0x24
  GPIO_InitTypeDef GPIO_InitStruct = {0};
 8001a7e:	eb0d 0002 	add.w	r0, sp, r2
 8001a82:	2100      	movs	r1, #0
 8001a84:	f004 f890 	bl	8005ba8 <memset>

  /* GPIO Ports Clock Enable */
  __HAL_RCC_GPIOC_CLK_ENABLE();
 8001a88:	4b32      	ldr	r3, [pc, #200]	; (8001b54 <MX_GPIO_Init+0xdc>)
  __HAL_RCC_GPIOD_CLK_ENABLE();
  __HAL_RCC_GPIOA_CLK_ENABLE();
  __HAL_RCC_GPIOB_CLK_ENABLE();

  /*Configure GPIO pin Output Level */
  HAL_GPIO_WritePin(GPIOB, LED2_Pin|LED3_Pin|LED4_Pin|LED1_Pin 
 8001a8a:	4d33      	ldr	r5, [pc, #204]	; (8001b58 <MX_GPIO_Init+0xe0>)
  __HAL_RCC_GPIOC_CLK_ENABLE();
 8001a8c:	699a      	ldr	r2, [r3, #24]
  HAL_GPIO_WritePin(GPIOB, LED2_Pin|LED3_Pin|LED4_Pin|LED1_Pin 
 8001a8e:	4628      	mov	r0, r5
  __HAL_RCC_GPIOC_CLK_ENABLE();
 8001a90:	f042 0210 	orr.w	r2, r2, #16
 8001a94:	619a      	str	r2, [r3, #24]
 8001a96:	699a      	ldr	r2, [r3, #24]
  HAL_GPIO_WritePin(GPIOB, LED2_Pin|LED3_Pin|LED4_Pin|LED1_Pin 
 8001a98:	f247 0121 	movw	r1, #28705	; 0x7021
  __HAL_RCC_GPIOC_CLK_ENABLE();
 8001a9c:	f002 0210 	and.w	r2, r2, #16
 8001aa0:	9200      	str	r2, [sp, #0]
 8001aa2:	9a00      	ldr	r2, [sp, #0]
  __HAL_RCC_GPIOD_CLK_ENABLE();
 8001aa4:	699a      	ldr	r2, [r3, #24]
                          |RST_Pin, GPIO_PIN_SET);

  /*Configure GPIO pin : PC13 */
  GPIO_InitStruct.Pin = GPIO_PIN_13;
  GPIO_InitStruct.Mode = GPIO_MODE_ANALOG;
 8001aa6:	2603      	movs	r6, #3
  __HAL_RCC_GPIOD_CLK_ENABLE();
 8001aa8:	f042 0220 	orr.w	r2, r2, #32
 8001aac:	619a      	str	r2, [r3, #24]
 8001aae:	699a      	ldr	r2, [r3, #24]
  HAL_GPIO_Init(GPIOC, &GPIO_InitStruct);

  /*Configure GPIO pins : PA0 PA9 */
  GPIO_InitStruct.Pin = GPIO_PIN_0|GPIO_PIN_9;
  GPIO_InitStruct.Mode = GPIO_MODE_ANALOG;
  HAL_GPIO_Init(GPIOA, &GPIO_InitStruct);
 8001ab0:	4f2a      	ldr	r7, [pc, #168]	; (8001b5c <MX_GPIO_Init+0xe4>)
  __HAL_RCC_GPIOD_CLK_ENABLE();
 8001ab2:	f002 0220 	and.w	r2, r2, #32
 8001ab6:	9201      	str	r2, [sp, #4]
 8001ab8:	9a01      	ldr	r2, [sp, #4]
  __HAL_RCC_GPIOA_CLK_ENABLE();
 8001aba:	699a      	ldr	r2, [r3, #24]
  /*Configure GPIO pins : PBPin PBPin PBPin PBPin 
                           PBPin */
  GPIO_InitStruct.Pin = LED2_Pin|LED3_Pin|LED4_Pin|LED1_Pin 
                          |RST_Pin;
  GPIO_InitStruct.Mode = GPIO_MODE_OUTPUT_PP;
  GPIO_InitStruct.Pull = GPIO_NOPULL;
 8001abc:	2400      	movs	r4, #0
  __HAL_RCC_GPIOA_CLK_ENABLE();
 8001abe:	f042 0204 	orr.w	r2, r2, #4
 8001ac2:	619a      	str	r2, [r3, #24]
 8001ac4:	699a      	ldr	r2, [r3, #24]
 8001ac6:	f002 0204 	and.w	r2, r2, #4
 8001aca:	9202      	str	r2, [sp, #8]
 8001acc:	9a02      	ldr	r2, [sp, #8]
  __HAL_RCC_GPIOB_CLK_ENABLE();
 8001ace:	699a      	ldr	r2, [r3, #24]
 8001ad0:	f042 0208 	orr.w	r2, r2, #8
 8001ad4:	619a      	str	r2, [r3, #24]
 8001ad6:	699b      	ldr	r3, [r3, #24]
  HAL_GPIO_WritePin(GPIOB, LED2_Pin|LED3_Pin|LED4_Pin|LED1_Pin 
 8001ad8:	2201      	movs	r2, #1
  __HAL_RCC_GPIOB_CLK_ENABLE();
 8001ada:	f003 0308 	and.w	r3, r3, #8
 8001ade:	9303      	str	r3, [sp, #12]
 8001ae0:	9b03      	ldr	r3, [sp, #12]
  HAL_GPIO_WritePin(GPIOB, LED2_Pin|LED3_Pin|LED4_Pin|LED1_Pin 
 8001ae2:	f002 f921 	bl	8003d28 <HAL_GPIO_WritePin>
  GPIO_InitStruct.Pin = GPIO_PIN_13;
 8001ae6:	f44f 5300 	mov.w	r3, #8192	; 0x2000
  HAL_GPIO_Init(GPIOC, &GPIO_InitStruct);
 8001aea:	a904      	add	r1, sp, #16
 8001aec:	481c      	ldr	r0, [pc, #112]	; (8001b60 <MX_GPIO_Init+0xe8>)
  GPIO_InitStruct.Pin = GPIO_PIN_13;
 8001aee:	9304      	str	r3, [sp, #16]
  GPIO_InitStruct.Mode = GPIO_MODE_ANALOG;
 8001af0:	9605      	str	r6, [sp, #20]
  HAL_GPIO_Init(GPIOC, &GPIO_InitStruct);
 8001af2:	f001 ff9b 	bl	8003a2c <HAL_GPIO_Init>
  GPIO_InitStruct.Pin = GPIO_PIN_0|GPIO_PIN_9;
 8001af6:	f240 2301 	movw	r3, #513	; 0x201
  HAL_GPIO_Init(GPIOA, &GPIO_InitStruct);
 8001afa:	a904      	add	r1, sp, #16
 8001afc:	4638      	mov	r0, r7
  GPIO_InitStruct.Pin = GPIO_PIN_0|GPIO_PIN_9;
 8001afe:	9304      	str	r3, [sp, #16]
  GPIO_InitStruct.Mode = GPIO_MODE_ANALOG;
 8001b00:	9605      	str	r6, [sp, #20]
  HAL_GPIO_Init(GPIOA, &GPIO_InitStruct);
 8001b02:	f001 ff93 	bl	8003a2c <HAL_GPIO_Init>
  GPIO_InitStruct.Pin = LED2_Pin|LED3_Pin|LED4_Pin|LED1_Pin 
 8001b06:	f247 0321 	movw	r3, #28705	; 0x7021
 8001b0a:	9304      	str	r3, [sp, #16]
  GPIO_InitStruct.Mode = GPIO_MODE_OUTPUT_PP;
 8001b0c:	2301      	movs	r3, #1
  GPIO_InitStruct.Speed = GPIO_SPEED_FREQ_HIGH;
  HAL_GPIO_Init(GPIOB, &GPIO_InitStruct);
 8001b0e:	a904      	add	r1, sp, #16
 8001b10:	4628      	mov	r0, r5
  GPIO_InitStruct.Mode = GPIO_MODE_OUTPUT_PP;
 8001b12:	9305      	str	r3, [sp, #20]
  GPIO_InitStruct.Pull = GPIO_NOPULL;
 8001b14:	9406      	str	r4, [sp, #24]
  GPIO_InitStruct.Speed = GPIO_SPEED_FREQ_HIGH;
 8001b16:	9607      	str	r6, [sp, #28]
  HAL_GPIO_Init(GPIOB, &GPIO_InitStruct);
 8001b18:	f001 ff88 	bl	8003a2c <HAL_GPIO_Init>

  /*Configure GPIO pins : PBPin PBPin PBPin */
  GPIO_InitStruct.Pin = DEV_MODE2_Pin|FAULT_FEEDBACK_Pin|CALIB_MODE_Pin;
 8001b1c:	f248 4304 	movw	r3, #33796	; 0x8404
  GPIO_InitStruct.Mode = GPIO_MODE_INPUT;
  GPIO_InitStruct.Pull = GPIO_NOPULL;
  HAL_GPIO_Init(GPIOB, &GPIO_InitStruct);
 8001b20:	a904      	add	r1, sp, #16
 8001b22:	4628      	mov	r0, r5
  GPIO_InitStruct.Pin = DEV_MODE2_Pin|FAULT_FEEDBACK_Pin|CALIB_MODE_Pin;
 8001b24:	9304      	str	r3, [sp, #16]
  GPIO_InitStruct.Mode = GPIO_MODE_INPUT;
 8001b26:	9405      	str	r4, [sp, #20]
  GPIO_InitStruct.Pull = GPIO_NOPULL;
 8001b28:	9406      	str	r4, [sp, #24]
  HAL_GPIO_Init(GPIOB, &GPIO_InitStruct);
 8001b2a:	f001 ff7f 	bl	8003a2c <HAL_GPIO_Init>

  /*Configure GPIO pins : PB11 PB4 PB8 PB9 */
  GPIO_InitStruct.Pin = GPIO_PIN_11|GPIO_PIN_4|GPIO_PIN_8|GPIO_PIN_9;
 8001b2e:	f44f 6331 	mov.w	r3, #2832	; 0xb10
  GPIO_InitStruct.Mode = GPIO_MODE_ANALOG;
  HAL_GPIO_Init(GPIOB, &GPIO_InitStruct);
 8001b32:	a904      	add	r1, sp, #16
 8001b34:	4628      	mov	r0, r5
  GPIO_InitStruct.Pin = GPIO_PIN_11|GPIO_PIN_4|GPIO_PIN_8|GPIO_PIN_9;
 8001b36:	9304      	str	r3, [sp, #16]
  GPIO_InitStruct.Mode = GPIO_MODE_ANALOG;
 8001b38:	9605      	str	r6, [sp, #20]
  HAL_GPIO_Init(GPIOB, &GPIO_InitStruct);
 8001b3a:	f001 ff77 	bl	8003a2c <HAL_GPIO_Init>

  /*Configure GPIO pins : PAPin PAPin PAPin */
  GPIO_InitStruct.Pin = DEV_MODE1_Pin|CALIB_V_Pin|CALIB_I_Pin;
 8001b3e:	f44f 53c8 	mov.w	r3, #6400	; 0x1900
  GPIO_InitStruct.Mode = GPIO_MODE_INPUT;
  GPIO_InitStruct.Pull = GPIO_NOPULL;
  HAL_GPIO_Init(GPIOA, &GPIO_InitStruct);
 8001b42:	a904      	add	r1, sp, #16
 8001b44:	4638      	mov	r0, r7
  GPIO_InitStruct.Pin = DEV_MODE1_Pin|CALIB_V_Pin|CALIB_I_Pin;
 8001b46:	9304      	str	r3, [sp, #16]
  GPIO_InitStruct.Mode = GPIO_MODE_INPUT;
 8001b48:	9405      	str	r4, [sp, #20]
  GPIO_InitStruct.Pull = GPIO_NOPULL;
 8001b4a:	9406      	str	r4, [sp, #24]
  HAL_GPIO_Init(GPIOA, &GPIO_InitStruct);
 8001b4c:	f001 ff6e 	bl	8003a2c <HAL_GPIO_Init>

}
 8001b50:	b009      	add	sp, #36	; 0x24
 8001b52:	bdf0      	pop	{r4, r5, r6, r7, pc}
 8001b54:	40021000 	.word	0x40021000
 8001b58:	40010c00 	.word	0x40010c00
 8001b5c:	40010800 	.word	0x40010800
 8001b60:	40011000 	.word	0x40011000

08001b64 <MX_IWDG_Init>:

IWDG_HandleTypeDef hiwdg;

/* IWDG init function */
void MX_IWDG_Init(void)
{
 8001b64:	b508      	push	{r3, lr}

  hiwdg.Instance = IWDG;
  hiwdg.Init.Prescaler = IWDG_PRESCALER_256;
  hiwdg.Init.Reload = 4095;
 8001b66:	2206      	movs	r2, #6
 8001b68:	f640 73ff 	movw	r3, #4095	; 0xfff
  hiwdg.Instance = IWDG;
 8001b6c:	4805      	ldr	r0, [pc, #20]	; (8001b84 <MX_IWDG_Init+0x20>)
  hiwdg.Init.Reload = 4095;
 8001b6e:	4906      	ldr	r1, [pc, #24]	; (8001b88 <MX_IWDG_Init+0x24>)
 8001b70:	e880 000e 	stmia.w	r0, {r1, r2, r3}
  if (HAL_IWDG_Init(&hiwdg) != HAL_OK)
 8001b74:	f002 f902 	bl	8003d7c <HAL_IWDG_Init>
 8001b78:	b118      	cbz	r0, 8001b82 <MX_IWDG_Init+0x1e>
  {
    Error_Handler();
  }

}
 8001b7a:	e8bd 4008 	ldmia.w	sp!, {r3, lr}
    Error_Handler();
 8001b7e:	f000 b9d1 	b.w	8001f24 <Error_Handler>
 8001b82:	bd08      	pop	{r3, pc}
 8001b84:	20000668 	.word	0x20000668
 8001b88:	40003000 	.word	0x40003000

08001b8c <SystemClock_Config>:
  * @brief System Clock Configuration
  * @retval None
  */
void SystemClock_Config(void)
{
  RCC_OscInitTypeDef RCC_OscInitStruct = {0};
 8001b8c:	2228      	movs	r2, #40	; 0x28
{
 8001b8e:	b510      	push	{r4, lr}
 8001b90:	b094      	sub	sp, #80	; 0x50
  RCC_OscInitTypeDef RCC_OscInitStruct = {0};
 8001b92:	eb0d 0002 	add.w	r0, sp, r2
 8001b96:	2100      	movs	r1, #0
 8001b98:	f004 f806 	bl	8005ba8 <memset>
  RCC_ClkInitTypeDef RCC_ClkInitStruct = {0};
 8001b9c:	2214      	movs	r2, #20
 8001b9e:	2100      	movs	r1, #0
 8001ba0:	eb0d 0002 	add.w	r0, sp, r2
 8001ba4:	f004 f800 	bl	8005ba8 <memset>
  RCC_PeriphCLKInitTypeDef PeriphClkInit = {0};
 8001ba8:	2100      	movs	r1, #0
 8001baa:	2210      	movs	r2, #16
 8001bac:	a801      	add	r0, sp, #4
 8001bae:	f003 fffb 	bl	8005ba8 <memset>

  /**Initializes the CPU, AHB and APB busses clocks 
  */
  RCC_OscInitStruct.OscillatorType = RCC_OSCILLATORTYPE_LSI|RCC_OSCILLATORTYPE_HSE;
 8001bb2:	2309      	movs	r3, #9
 8001bb4:	930a      	str	r3, [sp, #40]	; 0x28
  RCC_OscInitStruct.HSEState = RCC_HSE_ON;
 8001bb6:	f44f 3380 	mov.w	r3, #65536	; 0x10000
  RCC_OscInitStruct.HSEPredivValue = RCC_HSE_PREDIV_DIV1;
  RCC_OscInitStruct.HSIState = RCC_HSI_ON;
  RCC_OscInitStruct.LSIState = RCC_LSI_ON;
  RCC_OscInitStruct.PLL.PLLState = RCC_PLL_ON;
 8001bba:	2402      	movs	r4, #2
  RCC_OscInitStruct.HSIState = RCC_HSI_ON;
 8001bbc:	2201      	movs	r2, #1
  RCC_OscInitStruct.HSEState = RCC_HSE_ON;
 8001bbe:	930b      	str	r3, [sp, #44]	; 0x2c
  RCC_OscInitStruct.PLL.PLLSource = RCC_PLLSOURCE_HSE;
 8001bc0:	9312      	str	r3, [sp, #72]	; 0x48
  RCC_OscInitStruct.PLL.PLLMUL = RCC_PLL_MUL9;
 8001bc2:	f44f 13e0 	mov.w	r3, #1835008	; 0x1c0000
  if (HAL_RCC_OscConfig(&RCC_OscInitStruct) != HAL_OK)
 8001bc6:	a80a      	add	r0, sp, #40	; 0x28
  RCC_OscInitStruct.HSIState = RCC_HSI_ON;
 8001bc8:	920e      	str	r2, [sp, #56]	; 0x38
  RCC_OscInitStruct.LSIState = RCC_LSI_ON;
 8001bca:	9210      	str	r2, [sp, #64]	; 0x40
  RCC_OscInitStruct.PLL.PLLMUL = RCC_PLL_MUL9;
 8001bcc:	9313      	str	r3, [sp, #76]	; 0x4c
  RCC_OscInitStruct.PLL.PLLState = RCC_PLL_ON;
 8001bce:	9411      	str	r4, [sp, #68]	; 0x44
  if (HAL_RCC_OscConfig(&RCC_OscInitStruct) != HAL_OK)
 8001bd0:	f002 f922 	bl	8003e18 <HAL_RCC_OscConfig>
  {
    Error_Handler();
  }
  /**Initializes the CPU, AHB and APB busses clocks 
  */
  RCC_ClkInitStruct.ClockType = RCC_CLOCKTYPE_HCLK|RCC_CLOCKTYPE_SYSCLK
 8001bd4:	230f      	movs	r3, #15
                              |RCC_CLOCKTYPE_PCLK1|RCC_CLOCKTYPE_PCLK2;
  RCC_ClkInitStruct.SYSCLKSource = RCC_SYSCLKSOURCE_PLLCLK;
  RCC_ClkInitStruct.AHBCLKDivider = RCC_SYSCLK_DIV1;
  RCC_ClkInitStruct.APB1CLKDivider = RCC_HCLK_DIV2;
 8001bd6:	f44f 6280 	mov.w	r2, #1024	; 0x400
  RCC_ClkInitStruct.ClockType = RCC_CLOCKTYPE_HCLK|RCC_CLOCKTYPE_SYSCLK
 8001bda:	9305      	str	r3, [sp, #20]
  RCC_ClkInitStruct.AHBCLKDivider = RCC_SYSCLK_DIV1;
 8001bdc:	2300      	movs	r3, #0
  RCC_ClkInitStruct.APB2CLKDivider = RCC_HCLK_DIV1;

  if (HAL_RCC_ClockConfig(&RCC_ClkInitStruct, FLASH_LATENCY_2) != HAL_OK)
 8001bde:	4621      	mov	r1, r4
 8001be0:	a805      	add	r0, sp, #20
  RCC_ClkInitStruct.AHBCLKDivider = RCC_SYSCLK_DIV1;
 8001be2:	9307      	str	r3, [sp, #28]
  RCC_ClkInitStruct.APB1CLKDivider = RCC_HCLK_DIV2;
 8001be4:	9208      	str	r2, [sp, #32]
  RCC_ClkInitStruct.APB2CLKDivider = RCC_HCLK_DIV1;
 8001be6:	9309      	str	r3, [sp, #36]	; 0x24
  RCC_ClkInitStruct.SYSCLKSource = RCC_SYSCLKSOURCE_PLLCLK;
 8001be8:	9406      	str	r4, [sp, #24]
  if (HAL_RCC_ClockConfig(&RCC_ClkInitStruct, FLASH_LATENCY_2) != HAL_OK)
 8001bea:	f002 fb53 	bl	8004294 <HAL_RCC_ClockConfig>
  {
    Error_Handler();
  }
  PeriphClkInit.PeriphClockSelection = RCC_PERIPHCLK_ADC;
  PeriphClkInit.AdcClockSelection = RCC_ADCPCLK2_DIV6;
 8001bee:	f44f 4300 	mov.w	r3, #32768	; 0x8000
  if (HAL_RCCEx_PeriphCLKConfig(&PeriphClkInit) != HAL_OK)
 8001bf2:	a801      	add	r0, sp, #4
  PeriphClkInit.PeriphClockSelection = RCC_PERIPHCLK_ADC;
 8001bf4:	9401      	str	r4, [sp, #4]
  PeriphClkInit.AdcClockSelection = RCC_ADCPCLK2_DIV6;
 8001bf6:	9303      	str	r3, [sp, #12]
  if (HAL_RCCEx_PeriphCLKConfig(&PeriphClkInit) != HAL_OK)
 8001bf8:	f002 fc7c 	bl	80044f4 <HAL_RCCEx_PeriphCLKConfig>
  {
    Error_Handler();
  }
}
 8001bfc:	b014      	add	sp, #80	; 0x50
 8001bfe:	bd10      	pop	{r4, pc}

08001c00 <main>:
				DBGMCU->CR |=DBGMCU_CR_DBG_STOP;
 8001c00:	4bb0      	ldr	r3, [pc, #704]	; (8001ec4 <main+0x2c4>)
{
 8001c02:	b583      	push	{r0, r1, r7, lr}
				DBGMCU->CR |=DBGMCU_CR_DBG_STOP;
 8001c04:	685a      	ldr	r2, [r3, #4]
    BoardStatus=sBoot;
 8001c06:	2400      	movs	r4, #0
				DBGMCU->CR |=DBGMCU_CR_DBG_STOP;
 8001c08:	f042 0202 	orr.w	r2, r2, #2
 8001c0c:	605a      	str	r2, [r3, #4]
		__HAL_DBGMCU_FREEZE_IWDG();
 8001c0e:	685a      	ldr	r2, [r3, #4]
      buttonInit(&CALIB_V, CALIB_V_GPIO_Port, CALIB_V_Pin, GPIO_PIN_RESET, 4000, 10000);
 8001c10:	f44f 667a 	mov.w	r6, #4000	; 0xfa0
		__HAL_DBGMCU_FREEZE_IWDG();
 8001c14:	f442 7280 	orr.w	r2, r2, #256	; 0x100
 8001c18:	605a      	str	r2, [r3, #4]
  HAL_Init();
 8001c1a:	f000 fef5 	bl	8002a08 <HAL_Init>
  SystemClock_Config();
 8001c1e:	f7ff ffb5 	bl	8001b8c <SystemClock_Config>
  MX_GPIO_Init();
 8001c22:	f7ff ff29 	bl	8001a78 <MX_GPIO_Init>
  MX_DMA_Init();
 8001c26:	f7ff ff07 	bl	8001a38 <MX_DMA_Init>
  MX_CRC_Init();
 8001c2a:	f7fe fe1f 	bl	800086c <MX_CRC_Init>
  MX_IWDG_Init();
 8001c2e:	f7ff ff99 	bl	8001b64 <MX_IWDG_Init>
  MX_TIM1_Init();
 8001c32:	f000 fd7b 	bl	800272c <MX_TIM1_Init>
  MX_TIM3_Init();
 8001c36:	f000 fde9 	bl	800280c <MX_TIM3_Init>
  MX_TIM4_Init();
 8001c3a:	f000 fc79 	bl	8002530 <MX_TIM4_Init>
  MX_TIM2_Init();
 8001c3e:	f000 fc41 	bl	80024c4 <MX_TIM2_Init>
  MX_USART1_UART_Init();
 8001c42:	f000 fe3b 	bl	80028bc <MX_USART1_UART_Init>
  MX_ADC1_Init();
 8001c46:	f7fe fd81 	bl	800074c <MX_ADC1_Init>
    DigiTOS_IWDG_Init(DigiTOS_IWDG_Timeout_16s);
 8001c4a:	200c      	movs	r0, #12
 8001c4c:	f7ff fd2e 	bl	80016ac <DigiTOS_IWDG_Init>
    ResetWDG();
 8001c50:	f7ff fa44 	bl	80010dc <ResetWDG>
    StartADC();
 8001c54:	f7fe fe2e 	bl	80008b4 <StartADC>
    SinWave=swNOP;
 8001c58:	2203      	movs	r2, #3
 8001c5a:	4b9b      	ldr	r3, [pc, #620]	; (8001ec8 <main+0x2c8>)
      buttonInit(&CALIB_V, CALIB_V_GPIO_Port, CALIB_V_Pin, GPIO_PIN_RESET, 4000, 10000);
 8001c5c:	f242 7710 	movw	r7, #10000	; 0x2710
    SinWave=swNOP;
 8001c60:	701a      	strb	r2, [r3, #0]
    PWM_50Hz_Init();
 8001c62:	f7ff fc0f 	bl	8001484 <PWM_50Hz_Init>
    PWM_50Hz_ON();
 8001c66:	f7ff fc8f 	bl	8001588 <PWM_50Hz_ON>
    PWM_50Hz_OFF();
 8001c6a:	f7ff fc94 	bl	8001596 <PWM_50Hz_OFF>
    PWM_Sinus_Init();
 8001c6e:	f7ff fce5 	bl	800163c <PWM_Sinus_Init>
    PWM_Sinus_ON();
 8001c72:	f7ff fcd5 	bl	8001620 <PWM_Sinus_ON>
    PWM_Sinus_OFF();
 8001c76:	f7ff fcda 	bl	800162e <PWM_Sinus_OFF>
    ResetWDG();
 8001c7a:	f7ff fa2f 	bl	80010dc <ResetWDG>
    HAL_GPIO_WritePin(LED1_GPIO_Port, LED1_Pin,GPIO_PIN_SET);
 8001c7e:	2201      	movs	r2, #1
 8001c80:	f44f 4180 	mov.w	r1, #16384	; 0x4000
 8001c84:	4891      	ldr	r0, [pc, #580]	; (8001ecc <main+0x2cc>)
 8001c86:	f002 f84f 	bl	8003d28 <HAL_GPIO_WritePin>
    HAL_GPIO_WritePin(LED2_GPIO_Port, LED2_Pin,GPIO_PIN_SET);
 8001c8a:	2201      	movs	r2, #1
 8001c8c:	488f      	ldr	r0, [pc, #572]	; (8001ecc <main+0x2cc>)
 8001c8e:	4611      	mov	r1, r2
 8001c90:	f002 f84a 	bl	8003d28 <HAL_GPIO_WritePin>
    HAL_GPIO_WritePin(LED3_GPIO_Port, LED3_Pin,GPIO_PIN_SET);
 8001c94:	2201      	movs	r2, #1
 8001c96:	f44f 5180 	mov.w	r1, #4096	; 0x1000
 8001c9a:	488c      	ldr	r0, [pc, #560]	; (8001ecc <main+0x2cc>)
 8001c9c:	f002 f844 	bl	8003d28 <HAL_GPIO_WritePin>
    HAL_GPIO_WritePin(LED4_GPIO_Port, LED4_Pin,GPIO_PIN_SET);
 8001ca0:	f44f 5100 	mov.w	r1, #8192	; 0x2000
 8001ca4:	2201      	movs	r2, #1
 8001ca6:	4889      	ldr	r0, [pc, #548]	; (8001ecc <main+0x2cc>)
 8001ca8:	f002 f83e 	bl	8003d28 <HAL_GPIO_WritePin>
    HAL_TIM_Base_Start(&htim4);
 8001cac:	4888      	ldr	r0, [pc, #544]	; (8001ed0 <main+0x2d0>)
 8001cae:	f002 fd8b 	bl	80047c8 <HAL_TIM_Base_Start>
    HAL_TIM_Base_Start_IT(&htim4);
 8001cb2:	4887      	ldr	r0, [pc, #540]	; (8001ed0 <main+0x2d0>)
 8001cb4:	f002 fdb0 	bl	8004818 <HAL_TIM_Base_Start_IT>
    TIM2->ARR=sBoot_Delay;
 8001cb8:	2264      	movs	r2, #100	; 0x64
 8001cba:	f04f 4380 	mov.w	r3, #1073741824	; 0x40000000
    BoardStatus=sBoot;
 8001cbe:	4d85      	ldr	r5, [pc, #532]	; (8001ed4 <main+0x2d4>)
 8001cc0:	702c      	strb	r4, [r5, #0]
    TIM2->ARR=sBoot_Delay;
 8001cc2:	62da      	str	r2, [r3, #44]	; 0x2c
      ResetWDG();
 8001cc4:	f7ff fa0a 	bl	80010dc <ResetWDG>
      buttonInit(&CALIB_V, CALIB_V_GPIO_Port, CALIB_V_Pin, GPIO_PIN_RESET, 4000, 10000);
 8001cc8:	e88d 00c0 	stmia.w	sp, {r6, r7}
 8001ccc:	4623      	mov	r3, r4
 8001cce:	f44f 6200 	mov.w	r2, #2048	; 0x800
 8001cd2:	4981      	ldr	r1, [pc, #516]	; (8001ed8 <main+0x2d8>)
 8001cd4:	4881      	ldr	r0, [pc, #516]	; (8001edc <main+0x2dc>)
 8001cd6:	f7ff fe53 	bl	8001980 <buttonInit>
      buttonInit(&CALIB_I, CALIB_I_GPIO_Port, CALIB_I_Pin, GPIO_PIN_RESET, 4000, 10000);
 8001cda:	e88d 00c0 	stmia.w	sp, {r6, r7}
      buttonInit(&CALIB_MODE, CALIB_MODE_GPIO_Port, CALIB_MODE_Pin, GPIO_PIN_RESET, 30, 2000);
 8001cde:	261e      	movs	r6, #30
 8001ce0:	f44f 67fa 	mov.w	r7, #2000	; 0x7d0
      buttonInit(&CALIB_I, CALIB_I_GPIO_Port, CALIB_I_Pin, GPIO_PIN_RESET, 4000, 10000);
 8001ce4:	4623      	mov	r3, r4
 8001ce6:	f44f 5280 	mov.w	r2, #4096	; 0x1000
 8001cea:	497b      	ldr	r1, [pc, #492]	; (8001ed8 <main+0x2d8>)
 8001cec:	487c      	ldr	r0, [pc, #496]	; (8001ee0 <main+0x2e0>)
 8001cee:	f7ff fe47 	bl	8001980 <buttonInit>
      buttonInit(&CALIB_MODE, CALIB_MODE_GPIO_Port, CALIB_MODE_Pin, GPIO_PIN_RESET, 30, 2000);
 8001cf2:	e88d 00c0 	stmia.w	sp, {r6, r7}
 8001cf6:	4623      	mov	r3, r4
 8001cf8:	f44f 4200 	mov.w	r2, #32768	; 0x8000
 8001cfc:	4973      	ldr	r1, [pc, #460]	; (8001ecc <main+0x2cc>)
 8001cfe:	4879      	ldr	r0, [pc, #484]	; (8001ee4 <main+0x2e4>)
 8001d00:	f7ff fe3e 	bl	8001980 <buttonInit>
      buttonInit(&DevModeKey, DEV_MODE1_GPIO_Port, DEV_MODE1_Pin, GPIO_PIN_RESET, 30, 2000);
 8001d04:	e88d 00c0 	stmia.w	sp, {r6, r7}
      buttonInit(&DevModeKey2, DEV_MODE2_GPIO_Port, DEV_MODE2_Pin, GPIO_PIN_RESET, 30, 1000);
 8001d08:	f44f 777a 	mov.w	r7, #1000	; 0x3e8
      buttonInit(&DevModeKey, DEV_MODE1_GPIO_Port, DEV_MODE1_Pin, GPIO_PIN_RESET, 30, 2000);
 8001d0c:	4623      	mov	r3, r4
 8001d0e:	f44f 7280 	mov.w	r2, #256	; 0x100
 8001d12:	4971      	ldr	r1, [pc, #452]	; (8001ed8 <main+0x2d8>)
 8001d14:	4874      	ldr	r0, [pc, #464]	; (8001ee8 <main+0x2e8>)
 8001d16:	f7ff fe33 	bl	8001980 <buttonInit>
      buttonInit(&DevModeKey2, DEV_MODE2_GPIO_Port, DEV_MODE2_Pin, GPIO_PIN_RESET, 30, 1000);
 8001d1a:	4623      	mov	r3, r4
 8001d1c:	2204      	movs	r2, #4
 8001d1e:	496b      	ldr	r1, [pc, #428]	; (8001ecc <main+0x2cc>)
 8001d20:	4872      	ldr	r0, [pc, #456]	; (8001eec <main+0x2ec>)
 8001d22:	e88d 00c0 	stmia.w	sp, {r6, r7}
 8001d26:	f7ff fe2b 	bl	8001980 <buttonInit>
      buttonInit(&FaultFlag, FAULT_FEEDBACK_GPIO_Port, FAULT_FEEDBACK_Pin, GPIO_PIN_RESET, 30, 1000);
 8001d2a:	4623      	mov	r3, r4
 8001d2c:	f44f 6280 	mov.w	r2, #1024	; 0x400
 8001d30:	4966      	ldr	r1, [pc, #408]	; (8001ecc <main+0x2cc>)
 8001d32:	486f      	ldr	r0, [pc, #444]	; (8001ef0 <main+0x2f0>)
 8001d34:	e88d 00c0 	stmia.w	sp, {r6, r7}
 8001d38:	f7ff fe22 	bl	8001980 <buttonInit>
      buttonUpdate(&DevModeKey);
 8001d3c:	486a      	ldr	r0, [pc, #424]	; (8001ee8 <main+0x2e8>)
 8001d3e:	f7ff fe3a 	bl	80019b6 <buttonUpdate>
      buttonUpdate(&DevModeKey2);
 8001d42:	486a      	ldr	r0, [pc, #424]	; (8001eec <main+0x2ec>)
 8001d44:	f7ff fe37 	bl	80019b6 <buttonUpdate>
      buttonUpdate(&FaultFlag);
 8001d48:	4869      	ldr	r0, [pc, #420]	; (8001ef0 <main+0x2f0>)
 8001d4a:	f7ff fe34 	bl	80019b6 <buttonUpdate>
      buttonUpdate(&CALIB_V);
 8001d4e:	4863      	ldr	r0, [pc, #396]	; (8001edc <main+0x2dc>)
 8001d50:	f7ff fe31 	bl	80019b6 <buttonUpdate>
      buttonUpdate(&CALIB_I);
 8001d54:	4862      	ldr	r0, [pc, #392]	; (8001ee0 <main+0x2e0>)
 8001d56:	f7ff fe2e 	bl	80019b6 <buttonUpdate>
      buttonUpdate(&CALIB_MODE);
 8001d5a:	4862      	ldr	r0, [pc, #392]	; (8001ee4 <main+0x2e4>)
 8001d5c:	f7ff fe2b 	bl	80019b6 <buttonUpdate>
      HAL_Delay(500);
 8001d60:	f44f 70fa 	mov.w	r0, #500	; 0x1f4
 8001d64:	f000 fe74 	bl	8002a50 <HAL_Delay>
                 if (InitEEPROM()==0) {
 8001d68:	f7ff faba 	bl	80012e0 <InitEEPROM>
 8001d6c:	2800      	cmp	r0, #0
 8001d6e:	f040 80a0 	bne.w	8001eb2 <main+0x2b2>
               	  strcpy(uart_buff,"NO EEPROM\r\n");
 8001d72:	4960      	ldr	r1, [pc, #384]	; (8001ef4 <main+0x2f4>)
 8001d74:	4860      	ldr	r0, [pc, #384]	; (8001ef8 <main+0x2f8>)
 8001d76:	f003 ff52 	bl	8005c1e <strcpy>
               	  USE_DEF_CALIB();
 8001d7a:	f7ff fa79 	bl	8001270 <USE_DEF_CALIB>
               	  SerialPrintln(1);
 8001d7e:	2001      	movs	r0, #1
 8001d80:	f7ff f984 	bl	800108c <SerialPrintln>
      Get_Version();
 8001d84:	f7ff f964 	bl	8001050 <Get_Version>
      SerialPrintln(1);
 8001d88:	2001      	movs	r0, #1
 8001d8a:	f7ff f97f 	bl	800108c <SerialPrintln>
      Get_ChipID();
 8001d8e:	f7ff f92f 	bl	8000ff0 <Get_ChipID>
      SerialPrintln(1);
 8001d92:	2001      	movs	r0, #1
 8001d94:	f7ff f97a 	bl	800108c <SerialPrintln>
      Get_FlashSize();
 8001d98:	f7ff f946 	bl	8001028 <Get_FlashSize>
      SerialPrintln(1);
 8001d9c:	2001      	movs	r0, #1
 8001d9e:	f7ff f975 	bl	800108c <SerialPrintln>
      ClearUART_Buff();
 8001da2:	f7ff f91d 	bl	8000fe0 <ClearUART_Buff>
      if(buttonUpdate(&CALIB_MODE) == isPressed){
 8001da6:	484f      	ldr	r0, [pc, #316]	; (8001ee4 <main+0x2e4>)
 8001da8:	f7ff fe05 	bl	80019b6 <buttonUpdate>
 8001dac:	2802      	cmp	r0, #2
 8001dae:	4c53      	ldr	r4, [pc, #332]	; (8001efc <main+0x2fc>)
 8001db0:	f040 8086 	bne.w	8001ec0 <main+0x2c0>
    	  strcpy(uart_buff,"CALIB MODE ENABLED\r\n");
 8001db4:	4952      	ldr	r1, [pc, #328]	; (8001f00 <main+0x300>)
 8001db6:	4850      	ldr	r0, [pc, #320]	; (8001ef8 <main+0x2f8>)
 8001db8:	f003 ff31 	bl	8005c1e <strcpy>
    	  SerialPrintln(1);
 8001dbc:	2001      	movs	r0, #1
 8001dbe:	f7ff f965 	bl	800108c <SerialPrintln>
    	  CalibMode=1;
 8001dc2:	2301      	movs	r3, #1
      buttonUpdate(&FaultFlag);
 8001dc4:	484a      	ldr	r0, [pc, #296]	; (8001ef0 <main+0x2f0>)
    	  CalibMode=0;
 8001dc6:	6023      	str	r3, [r4, #0]
      buttonUpdate(&FaultFlag);
 8001dc8:	f7ff fdf5 	bl	80019b6 <buttonUpdate>
      if(buttonUpdate(&DevModeKey) == isPressed){
 8001dcc:	4846      	ldr	r0, [pc, #280]	; (8001ee8 <main+0x2e8>)
 8001dce:	f7ff fdf2 	bl	80019b6 <buttonUpdate>
 8001dd2:	2802      	cmp	r0, #2
 8001dd4:	d11b      	bne.n	8001e0e <main+0x20e>
    	strcpy(uart_buff,"DEV MODE - wait\r\n");
 8001dd6:	494b      	ldr	r1, [pc, #300]	; (8001f04 <main+0x304>)
 8001dd8:	4847      	ldr	r0, [pc, #284]	; (8001ef8 <main+0x2f8>)
 8001dda:	f003 ff20 	bl	8005c1e <strcpy>
    	SerialPrintln(1);
 8001dde:	2001      	movs	r0, #1
 8001de0:	f7ff f954 	bl	800108c <SerialPrintln>
    	ResetWDG();
 8001de4:	f7ff f97a 	bl	80010dc <ResetWDG>
        HAL_Delay(500);
 8001de8:	f44f 70fa 	mov.w	r0, #500	; 0x1f4
 8001dec:	f000 fe30 	bl	8002a50 <HAL_Delay>
    	if(buttonUpdate(&DevModeKey) == isPressed){
 8001df0:	483d      	ldr	r0, [pc, #244]	; (8001ee8 <main+0x2e8>)
 8001df2:	f7ff fde0 	bl	80019b6 <buttonUpdate>
 8001df6:	2802      	cmp	r0, #2
 8001df8:	d109      	bne.n	8001e0e <main+0x20e>
    		strcpy(uart_buff,"DEV MODE - confirmed\r\n");
 8001dfa:	4943      	ldr	r1, [pc, #268]	; (8001f08 <main+0x308>)
 8001dfc:	483e      	ldr	r0, [pc, #248]	; (8001ef8 <main+0x2f8>)
 8001dfe:	f003 ff0e 	bl	8005c1e <strcpy>
    	    SerialPrintln(1);
 8001e02:	2001      	movs	r0, #1
 8001e04:	f7ff f942 	bl	800108c <SerialPrintln>
    		DevMode1=1;
 8001e08:	2201      	movs	r2, #1
 8001e0a:	4b40      	ldr	r3, [pc, #256]	; (8001f0c <main+0x30c>)
 8001e0c:	601a      	str	r2, [r3, #0]
        strcpy(uart_buff,"Start Loop\r\n");
 8001e0e:	4940      	ldr	r1, [pc, #256]	; (8001f10 <main+0x310>)
 8001e10:	4839      	ldr	r0, [pc, #228]	; (8001ef8 <main+0x2f8>)
 8001e12:	f003 ff04 	bl	8005c1e <strcpy>
        SerialPrintln(1);
 8001e16:	2001      	movs	r0, #1
 8001e18:	f7ff f938 	bl	800108c <SerialPrintln>
      	BoardStatus=sGEN;
 8001e1c:	2401      	movs	r4, #1
      	TIM2->ARR=sDEF_Delay;
 8001e1e:	f04f 4380 	mov.w	r3, #1073741824	; 0x40000000
 8001e22:	f44f 727a 	mov.w	r2, #1000	; 0x3e8
      	BoardStatus=sGEN;
 8001e26:	702c      	strb	r4, [r5, #0]
          HAL_GPIO_WritePin(LED1_GPIO_Port, LED1_Pin,GPIO_PIN_RESET);
 8001e28:	f44f 4180 	mov.w	r1, #16384	; 0x4000
      	TIM2->ARR=sDEF_Delay;
 8001e2c:	62da      	str	r2, [r3, #44]	; 0x2c
          HAL_GPIO_WritePin(LED1_GPIO_Port, LED1_Pin,GPIO_PIN_RESET);
 8001e2e:	4827      	ldr	r0, [pc, #156]	; (8001ecc <main+0x2cc>)
 8001e30:	2200      	movs	r2, #0
 8001e32:	f001 ff79 	bl	8003d28 <HAL_GPIO_WritePin>
          HAL_GPIO_WritePin(LED2_GPIO_Port, LED2_Pin,GPIO_PIN_RESET);
 8001e36:	2200      	movs	r2, #0
 8001e38:	4621      	mov	r1, r4
 8001e3a:	4824      	ldr	r0, [pc, #144]	; (8001ecc <main+0x2cc>)
 8001e3c:	f001 ff74 	bl	8003d28 <HAL_GPIO_WritePin>
          HAL_GPIO_WritePin(LED3_GPIO_Port, LED3_Pin,GPIO_PIN_RESET);
 8001e40:	2200      	movs	r2, #0
 8001e42:	f44f 5180 	mov.w	r1, #4096	; 0x1000
 8001e46:	4821      	ldr	r0, [pc, #132]	; (8001ecc <main+0x2cc>)
 8001e48:	f001 ff6e 	bl	8003d28 <HAL_GPIO_WritePin>
          HAL_GPIO_WritePin(LED4_GPIO_Port, LED4_Pin,GPIO_PIN_RESET);
 8001e4c:	2200      	movs	r2, #0
 8001e4e:	f44f 5100 	mov.w	r1, #8192	; 0x2000
 8001e52:	481e      	ldr	r0, [pc, #120]	; (8001ecc <main+0x2cc>)
 8001e54:	f001 ff68 	bl	8003d28 <HAL_GPIO_WritePin>
           buttonUpdate(&FaultFlag);
 8001e58:	4825      	ldr	r0, [pc, #148]	; (8001ef0 <main+0x2f0>)
 8001e5a:	f7ff fdac 	bl	80019b6 <buttonUpdate>
           buttonUpdate(&DevModeKey2);
 8001e5e:	4823      	ldr	r0, [pc, #140]	; (8001eec <main+0x2ec>)
 8001e60:	f7ff fda9 	bl	80019b6 <buttonUpdate>
           HAL_Delay(500);
 8001e64:	f44f 70fa 	mov.w	r0, #500	; 0x1f4
 8001e68:	f000 fdf2 	bl	8002a50 <HAL_Delay>
           if(buttonUpdate(&DevModeKey2) == isPressedLong){
 8001e6c:	481f      	ldr	r0, [pc, #124]	; (8001eec <main+0x2ec>)
 8001e6e:	f7ff fda2 	bl	80019b6 <buttonUpdate>
 8001e72:	2803      	cmp	r0, #3
 8001e74:	d106      	bne.n	8001e84 <main+0x284>
        	   strcpy(uart_buff,"Start GENERATOR\r\n");
 8001e76:	4927      	ldr	r1, [pc, #156]	; (8001f14 <main+0x314>)
 8001e78:	481f      	ldr	r0, [pc, #124]	; (8001ef8 <main+0x2f8>)
 8001e7a:	f003 fed0 	bl	8005c1e <strcpy>
        	   SerialPrintln(1);
 8001e7e:	4620      	mov	r0, r4
 8001e80:	f7ff f904 	bl	800108c <SerialPrintln>
           TIM4->PSC=SinResPSC;
 8001e84:	2400      	movs	r4, #0
           buttonUpdate(&FaultFlag);
 8001e86:	481a      	ldr	r0, [pc, #104]	; (8001ef0 <main+0x2f0>)
 8001e88:	f7ff fd95 	bl	80019b6 <buttonUpdate>
           TIM4->PSC=SinResPSC;
 8001e8c:	4b22      	ldr	r3, [pc, #136]	; (8001f18 <main+0x318>)
           HAL_TIM_Base_Start(&htim4);
 8001e8e:	4810      	ldr	r0, [pc, #64]	; (8001ed0 <main+0x2d0>)
           TIM4->PSC=SinResPSC;
 8001e90:	629c      	str	r4, [r3, #40]	; 0x28
           HAL_TIM_Base_Start(&htim4);
 8001e92:	f002 fc99 	bl	80047c8 <HAL_TIM_Base_Start>
           HAL_TIM_Base_Start_IT(&htim4);
 8001e96:	480e      	ldr	r0, [pc, #56]	; (8001ed0 <main+0x2d0>)
 8001e98:	f002 fcbe 	bl	8004818 <HAL_TIM_Base_Start_IT>
	  			UpdateAmp_FLAG=2;//busy Flag
 8001e9c:	2602      	movs	r6, #2
	  if (UpdateAmp_FLAG==1) {
 8001e9e:	4d1f      	ldr	r5, [pc, #124]	; (8001f1c <main+0x31c>)
 8001ea0:	882b      	ldrh	r3, [r5, #0]
 8001ea2:	b29b      	uxth	r3, r3
 8001ea4:	2b01      	cmp	r3, #1
 8001ea6:	d1fb      	bne.n	8001ea0 <main+0x2a0>
	  			UpdateAmp_FLAG=2;//busy Flag
 8001ea8:	802e      	strh	r6, [r5, #0]
	  			UpdateAmplitudeByV();
 8001eaa:	f7fe feb9 	bl	8000c20 <UpdateAmplitudeByV>
	  			UpdateAmp_FLAG=0; // clear Flag
 8001eae:	802c      	strh	r4, [r5, #0]
 8001eb0:	e7f6      	b.n	8001ea0 <main+0x2a0>
              	  USE_NEW_CALIB();
 8001eb2:	f7ff f9e7 	bl	8001284 <USE_NEW_CALIB>
               	  strcpy(uart_buff,"OK EEPROM\r\n");
 8001eb6:	491a      	ldr	r1, [pc, #104]	; (8001f20 <main+0x320>)
 8001eb8:	480f      	ldr	r0, [pc, #60]	; (8001ef8 <main+0x2f8>)
 8001eba:	f003 feb0 	bl	8005c1e <strcpy>
 8001ebe:	e75e      	b.n	8001d7e <main+0x17e>
    	  CalibMode=0;
 8001ec0:	2300      	movs	r3, #0
 8001ec2:	e77f      	b.n	8001dc4 <main+0x1c4>
 8001ec4:	e0042000 	.word	0xe0042000
 8001ec8:	20000458 	.word	0x20000458
 8001ecc:	40010c00 	.word	0x40010c00
 8001ed0:	20000674 	.word	0x20000674
 8001ed4:	20000424 	.word	0x20000424
 8001ed8:	40010800 	.word	0x40010800
 8001edc:	20000520 	.word	0x20000520
 8001ee0:	2000053c 	.word	0x2000053c
 8001ee4:	200005ec 	.word	0x200005ec
 8001ee8:	200005bc 	.word	0x200005bc
 8001eec:	20000624 	.word	0x20000624
 8001ef0:	20000608 	.word	0x20000608
 8001ef4:	08006549 	.word	0x08006549
 8001ef8:	20000558 	.word	0x20000558
 8001efc:	20000428 	.word	0x20000428
 8001f00:	08006561 	.word	0x08006561
 8001f04:	08006576 	.word	0x08006576
 8001f08:	08006588 	.word	0x08006588
 8001f0c:	20000434 	.word	0x20000434
 8001f10:	0800659f 	.word	0x0800659f
 8001f14:	080065ac 	.word	0x080065ac
 8001f18:	40000800 	.word	0x40000800
 8001f1c:	2000045a 	.word	0x2000045a
 8001f20:	08006555 	.word	0x08006555

08001f24 <Error_Handler>:
/**
  * @brief  This function is executed in case of error occurrence.
  * @retval None
  */
void Error_Handler(void)
{
 8001f24:	4770      	bx	lr

08001f26 <assert_failed>:
  * @param  file: pointer to the source file name
  * @param  line: assert_param error line source number
  * @retval None
  */
void assert_failed(uint8_t *file, uint32_t line)
{ 
 8001f26:	4770      	bx	lr

08001f28 <HAL_MspInit>:
{
  /* USER CODE BEGIN MspInit 0 */

  /* USER CODE END MspInit 0 */

  __HAL_RCC_AFIO_CLK_ENABLE();
 8001f28:	4b1c      	ldr	r3, [pc, #112]	; (8001f9c <HAL_MspInit+0x74>)
{
 8001f2a:	b507      	push	{r0, r1, r2, lr}
  __HAL_RCC_AFIO_CLK_ENABLE();
 8001f2c:	699a      	ldr	r2, [r3, #24]
  __HAL_RCC_PWR_CLK_ENABLE();

  HAL_NVIC_SetPriorityGrouping(NVIC_PRIORITYGROUP_2);
 8001f2e:	2005      	movs	r0, #5
  __HAL_RCC_AFIO_CLK_ENABLE();
 8001f30:	f042 0201 	orr.w	r2, r2, #1
 8001f34:	619a      	str	r2, [r3, #24]
 8001f36:	699a      	ldr	r2, [r3, #24]
 8001f38:	f002 0201 	and.w	r2, r2, #1
 8001f3c:	9200      	str	r2, [sp, #0]
 8001f3e:	9a00      	ldr	r2, [sp, #0]
  __HAL_RCC_PWR_CLK_ENABLE();
 8001f40:	69da      	ldr	r2, [r3, #28]
 8001f42:	f042 5280 	orr.w	r2, r2, #268435456	; 0x10000000
 8001f46:	61da      	str	r2, [r3, #28]
 8001f48:	69db      	ldr	r3, [r3, #28]
 8001f4a:	f003 5380 	and.w	r3, r3, #268435456	; 0x10000000
 8001f4e:	9301      	str	r3, [sp, #4]
 8001f50:	9b01      	ldr	r3, [sp, #4]
  HAL_NVIC_SetPriorityGrouping(NVIC_PRIORITYGROUP_2);
 8001f52:	f001 f8db 	bl	800310c <HAL_NVIC_SetPriorityGrouping>

  /* System interrupt init*/

  /* Peripheral interrupt init */
  /* PVD_IRQn interrupt configuration */
  HAL_NVIC_SetPriority(PVD_IRQn, 0, 0);
 8001f56:	2200      	movs	r2, #0
 8001f58:	2001      	movs	r0, #1
 8001f5a:	4611      	mov	r1, r2
 8001f5c:	f001 f8f4 	bl	8003148 <HAL_NVIC_SetPriority>
  HAL_NVIC_EnableIRQ(PVD_IRQn);
 8001f60:	2001      	movs	r0, #1
 8001f62:	f001 f933 	bl	80031cc <HAL_NVIC_EnableIRQ>
  /* FLASH_IRQn interrupt configuration */
  HAL_NVIC_SetPriority(FLASH_IRQn, 0, 0);
 8001f66:	2200      	movs	r2, #0
 8001f68:	2004      	movs	r0, #4
 8001f6a:	4611      	mov	r1, r2
 8001f6c:	f001 f8ec 	bl	8003148 <HAL_NVIC_SetPriority>
  HAL_NVIC_EnableIRQ(FLASH_IRQn);
 8001f70:	2004      	movs	r0, #4
 8001f72:	f001 f92b 	bl	80031cc <HAL_NVIC_EnableIRQ>
  /* RCC_IRQn interrupt configuration */
  HAL_NVIC_SetPriority(RCC_IRQn, 0, 0);
 8001f76:	2200      	movs	r2, #0
 8001f78:	2005      	movs	r0, #5
 8001f7a:	4611      	mov	r1, r2
 8001f7c:	f001 f8e4 	bl	8003148 <HAL_NVIC_SetPriority>
  HAL_NVIC_EnableIRQ(RCC_IRQn);
 8001f80:	2005      	movs	r0, #5
 8001f82:	f001 f923 	bl	80031cc <HAL_NVIC_EnableIRQ>

  /**NONJTRST: Full SWJ (JTAG-DP + SW-DP) but without NJTRST 
  */
  __HAL_AFIO_REMAP_SWJ_NONJTRST();
 8001f86:	4a06      	ldr	r2, [pc, #24]	; (8001fa0 <HAL_MspInit+0x78>)
 8001f88:	6853      	ldr	r3, [r2, #4]
 8001f8a:	f023 63e0 	bic.w	r3, r3, #117440512	; 0x7000000
 8001f8e:	f043 7380 	orr.w	r3, r3, #16777216	; 0x1000000
 8001f92:	6053      	str	r3, [r2, #4]

  /* USER CODE BEGIN MspInit 1 */

  /* USER CODE END MspInit 1 */
}
 8001f94:	b003      	add	sp, #12
 8001f96:	f85d fb04 	ldr.w	pc, [sp], #4
 8001f9a:	bf00      	nop
 8001f9c:	40021000 	.word	0x40021000
 8001fa0:	40010000 	.word	0x40010000

08001fa4 <NMI_Handler>:
 8001fa4:	4770      	bx	lr

08001fa6 <HardFault_Handler>:

/**
  * @brief This function handles Hard fault interrupt.
  */
void HardFault_Handler(void)
{
 8001fa6:	e7fe      	b.n	8001fa6 <HardFault_Handler>

08001fa8 <MemManage_Handler>:

/**
  * @brief This function handles Memory management fault.
  */
void MemManage_Handler(void)
{
 8001fa8:	e7fe      	b.n	8001fa8 <MemManage_Handler>

08001faa <BusFault_Handler>:

/**
  * @brief This function handles Prefetch fault, memory access fault.
  */
void BusFault_Handler(void)
{
 8001faa:	e7fe      	b.n	8001faa <BusFault_Handler>

08001fac <UsageFault_Handler>:

/**
  * @brief This function handles Undefined instruction or illegal state.
  */
void UsageFault_Handler(void)
{
 8001fac:	e7fe      	b.n	8001fac <UsageFault_Handler>

08001fae <SVC_Handler>:
 8001fae:	4770      	bx	lr

08001fb0 <DebugMon_Handler>:
 8001fb0:	4770      	bx	lr

08001fb2 <PendSV_Handler>:
 8001fb2:	4770      	bx	lr

08001fb4 <SysTick_Handler>:
void SysTick_Handler(void)
{
  /* USER CODE BEGIN SysTick_IRQn 0 */

  /* USER CODE END SysTick_IRQn 0 */
  HAL_IncTick();
 8001fb4:	f000 bd3a 	b.w	8002a2c <HAL_IncTick>

08001fb8 <PVD_IRQHandler>:
void PVD_IRQHandler(void)
{
  /* USER CODE BEGIN PVD_IRQn 0 */

  /* USER CODE END PVD_IRQn 0 */
  HAL_PWR_PVD_IRQHandler();
 8001fb8:	f001 bf20 	b.w	8003dfc <HAL_PWR_PVD_IRQHandler>

08001fbc <FLASH_IRQHandler>:
void FLASH_IRQHandler(void)
{
  /* USER CODE BEGIN FLASH_IRQn 0 */

  /* USER CODE END FLASH_IRQn 0 */
  HAL_FLASH_IRQHandler();
 8001fbc:	f001 bb3a 	b.w	8003634 <HAL_FLASH_IRQHandler>

08001fc0 <RCC_IRQHandler>:

/**
  * @brief This function handles RCC global interrupt.
  */
void RCC_IRQHandler(void)
{
 8001fc0:	4770      	bx	lr
	...

08001fc4 <DMA1_Channel1_IRQHandler>:
void DMA1_Channel1_IRQHandler(void)
{
  /* USER CODE BEGIN DMA1_Channel1_IRQn 0 */

  /* USER CODE END DMA1_Channel1_IRQn 0 */
  HAL_DMA_IRQHandler(&hdma_adc1);
 8001fc4:	4801      	ldr	r0, [pc, #4]	; (8001fcc <DMA1_Channel1_IRQHandler+0x8>)
 8001fc6:	f001 ba77 	b.w	80034b8 <HAL_DMA_IRQHandler>
 8001fca:	bf00      	nop
 8001fcc:	200004c0 	.word	0x200004c0

08001fd0 <DMA1_Channel4_IRQHandler>:
void DMA1_Channel4_IRQHandler(void)
{
  /* USER CODE BEGIN DMA1_Channel4_IRQn 0 */

  /* USER CODE END DMA1_Channel4_IRQn 0 */
  HAL_DMA_IRQHandler(&hdma_usart1_tx);
 8001fd0:	4801      	ldr	r0, [pc, #4]	; (8001fd8 <DMA1_Channel4_IRQHandler+0x8>)
 8001fd2:	f001 ba71 	b.w	80034b8 <HAL_DMA_IRQHandler>
 8001fd6:	bf00      	nop
 8001fd8:	20000774 	.word	0x20000774

08001fdc <ADC1_2_IRQHandler>:
void ADC1_2_IRQHandler(void)
{
  /* USER CODE BEGIN ADC1_2_IRQn 0 */

  /* USER CODE END ADC1_2_IRQn 0 */
  HAL_ADC_IRQHandler(&hadc1);
 8001fdc:	4801      	ldr	r0, [pc, #4]	; (8001fe4 <ADC1_2_IRQHandler+0x8>)
 8001fde:	f000 bd79 	b.w	8002ad4 <HAL_ADC_IRQHandler>
 8001fe2:	bf00      	nop
 8001fe4:	20000490 	.word	0x20000490

08001fe8 <TIM1_BRK_IRQHandler>:

/**
  * @brief This function handles TIM1 break interrupt.
  */
void TIM1_BRK_IRQHandler(void)
{
 8001fe8:	b510      	push	{r4, lr}
  /* USER CODE BEGIN TIM1_BRK_IRQn 0 */

  /* USER CODE END TIM1_BRK_IRQn 0 */
  HAL_TIM_IRQHandler(&htim1);
 8001fea:	4c0f      	ldr	r4, [pc, #60]	; (8002028 <TIM1_BRK_IRQHandler+0x40>)
 8001fec:	4620      	mov	r0, r4
 8001fee:	f002 fe60 	bl	8004cb2 <HAL_TIM_IRQHandler>
  /* USER CODE BEGIN TIM1_BRK_IRQn 1 */

  __HAL_TIM_CLEAR_FLAG(&htim1, TIM_FLAG_UPDATE);
 8001ff2:	f06f 0201 	mvn.w	r2, #1
 8001ff6:	6823      	ldr	r3, [r4, #0]

  sin_step=0;
 8001ff8:	2400      	movs	r4, #0
  __HAL_TIM_CLEAR_FLAG(&htim1, TIM_FLAG_UPDATE);
 8001ffa:	611a      	str	r2, [r3, #16]
  sin_step=0;
 8001ffc:	4b0b      	ldr	r3, [pc, #44]	; (800202c <TIM1_BRK_IRQHandler+0x44>)
 8001ffe:	801c      	strh	r4, [r3, #0]

  sinStatus=0;TempBuffer_Flag=0;ReadTempValue();
 8002000:	4b0b      	ldr	r3, [pc, #44]	; (8002030 <TIM1_BRK_IRQHandler+0x48>)
 8002002:	701c      	strb	r4, [r3, #0]
 8002004:	4b0b      	ldr	r3, [pc, #44]	; (8002034 <TIM1_BRK_IRQHandler+0x4c>)
 8002006:	801c      	strh	r4, [r3, #0]
 8002008:	f7fe fd96 	bl	8000b38 <ReadTempValue>

  TIM3->CCR2=0;TIM3->CCR1=0;
 800200c:	4b0a      	ldr	r3, [pc, #40]	; (8002038 <TIM1_BRK_IRQHandler+0x50>)
 800200e:	639c      	str	r4, [r3, #56]	; 0x38
 8002010:	635c      	str	r4, [r3, #52]	; 0x34

  if (SinWave==swStart) {
 8002012:	4b0a      	ldr	r3, [pc, #40]	; (800203c <TIM1_BRK_IRQHandler+0x54>)
 8002014:	781a      	ldrb	r2, [r3, #0]
 8002016:	2a01      	cmp	r2, #1
 8002018:	d105      	bne.n	8002026 <TIM1_BRK_IRQHandler+0x3e>
	  SinWave=swGEN;
 800201a:	2202      	movs	r2, #2
 800201c:	701a      	strb	r2, [r3, #0]
	  TIM1->CCR3=500;
 800201e:	f44f 72fa 	mov.w	r2, #500	; 0x1f4
 8002022:	4b07      	ldr	r3, [pc, #28]	; (8002040 <TIM1_BRK_IRQHandler+0x58>)
 8002024:	63da      	str	r2, [r3, #60]	; 0x3c
 8002026:	bd10      	pop	{r4, pc}
 8002028:	200006f4 	.word	0x200006f4
 800202c:	20000422 	.word	0x20000422
 8002030:	20000420 	.word	0x20000420
 8002034:	200003c4 	.word	0x200003c4
 8002038:	40000400 	.word	0x40000400
 800203c:	20000458 	.word	0x20000458
 8002040:	40012c00 	.word	0x40012c00

08002044 <TIM1_UP_IRQHandler>:

/**
  * @brief This function handles TIM1 update interrupt.
  */
void TIM1_UP_IRQHandler(void)
{
 8002044:	b510      	push	{r4, lr}
  /* USER CODE BEGIN TIM1_UP_IRQn 0 */

  /* USER CODE END TIM1_UP_IRQn 0 */
  HAL_TIM_IRQHandler(&htim1);
 8002046:	4c04      	ldr	r4, [pc, #16]	; (8002058 <TIM1_UP_IRQHandler+0x14>)
 8002048:	4620      	mov	r0, r4
 800204a:	f002 fe32 	bl	8004cb2 <HAL_TIM_IRQHandler>
  /* USER CODE BEGIN TIM1_UP_IRQn 1 */

  __HAL_TIM_CLEAR_FLAG(&htim1, TIM_FLAG_UPDATE);
 800204e:	f06f 0201 	mvn.w	r2, #1
 8002052:	6823      	ldr	r3, [r4, #0]
 8002054:	611a      	str	r2, [r3, #16]
 8002056:	bd10      	pop	{r4, pc}
 8002058:	200006f4 	.word	0x200006f4

0800205c <TIM2_IRQHandler>:

/**
  * @brief This function handles TIM2 global interrupt.
  */
void TIM2_IRQHandler(void)
{
 800205c:	b5f8      	push	{r3, r4, r5, r6, r7, lr}
  /* USER CODE BEGIN TIM2_IRQn 0 */

  /* USER CODE END TIM2_IRQn 0 */
  HAL_TIM_IRQHandler(&htim2);
 800205e:	4c6b      	ldr	r4, [pc, #428]	; (800220c <TIM2_IRQHandler+0x1b0>)
 8002060:	4620      	mov	r0, r4
 8002062:	f002 fe26 	bl	8004cb2 <HAL_TIM_IRQHandler>
  /* USER CODE BEGIN TIM2_IRQn 1 */

  __HAL_TIM_CLEAR_FLAG(&htim2, TIM_FLAG_UPDATE);
 8002066:	f06f 0201 	mvn.w	r2, #1
 800206a:	6823      	ldr	r3, [r4, #0]

      	// Reset IWDG
        ResetWDG();

          //
          switch(BoardStatus) {
 800206c:	4c68      	ldr	r4, [pc, #416]	; (8002210 <TIM2_IRQHandler+0x1b4>)
  __HAL_TIM_CLEAR_FLAG(&htim2, TIM_FLAG_UPDATE);
 800206e:	611a      	str	r2, [r3, #16]
        ResetWDG();
 8002070:	f7ff f834 	bl	80010dc <ResetWDG>
          switch(BoardStatus) {
 8002074:	7823      	ldrb	r3, [r4, #0]
 8002076:	2b03      	cmp	r3, #3
 8002078:	f200 80c6 	bhi.w	8002208 <TIM2_IRQHandler+0x1ac>
 800207c:	e8df f003 	tbb	[pc, r3]
 8002080:	78021a02 	.word	0x78021a02
        	  case sBoot:
        	  case sUnknown:
        	  	  //TIM3->ARR=sBoot_Delay;
        	  	  HAL_GPIO_TogglePin(LED1_GPIO_Port, LED1_Pin);
 8002084:	f44f 4180 	mov.w	r1, #16384	; 0x4000
 8002088:	4862      	ldr	r0, [pc, #392]	; (8002214 <TIM2_IRQHandler+0x1b8>)
 800208a:	f001 fe67 	bl	8003d5c <HAL_GPIO_TogglePin>
        	  	  HAL_GPIO_TogglePin(LED2_GPIO_Port, LED2_Pin);
 800208e:	2101      	movs	r1, #1
 8002090:	4860      	ldr	r0, [pc, #384]	; (8002214 <TIM2_IRQHandler+0x1b8>)
 8002092:	f001 fe63 	bl	8003d5c <HAL_GPIO_TogglePin>
        	  	  HAL_GPIO_TogglePin(LED3_GPIO_Port, LED3_Pin);
 8002096:	f44f 5180 	mov.w	r1, #4096	; 0x1000
 800209a:	485e      	ldr	r0, [pc, #376]	; (8002214 <TIM2_IRQHandler+0x1b8>)
 800209c:	f001 fe5e 	bl	8003d5c <HAL_GPIO_TogglePin>
        	  	  HAL_GPIO_TogglePin(LED4_GPIO_Port, LED4_Pin);
 80020a0:	485c      	ldr	r0, [pc, #368]	; (8002214 <TIM2_IRQHandler+0x1b8>)
 80020a2:	f44f 5100 	mov.w	r1, #8192	; 0x2000
 80020a6:	f001 fe59 	bl	8003d5c <HAL_GPIO_TogglePin>
        		  	  break;
          }


  /* USER CODE END TIM2_IRQn 1 */
}
 80020aa:	e8bd 40f8 	ldmia.w	sp!, {r3, r4, r5, r6, r7, lr}
        	  	  buttonUpdate(&FaultFlag);
 80020ae:	485a      	ldr	r0, [pc, #360]	; (8002218 <TIM2_IRQHandler+0x1bc>)
 80020b0:	f7ff bc81 	b.w	80019b6 <buttonUpdate>
        		  if (CalibMode == 1) {
 80020b4:	4b59      	ldr	r3, [pc, #356]	; (800221c <TIM2_IRQHandler+0x1c0>)
 80020b6:	681b      	ldr	r3, [r3, #0]
 80020b8:	2b01      	cmp	r3, #1
 80020ba:	d031      	beq.n	8002120 <TIM2_IRQHandler+0xc4>
        		  	PrintCurrentState();
 80020bc:	f7ff f816 	bl	80010ec <PrintCurrentState>
        		  	  if (AMP_BLOCKED==1) {
 80020c0:	4957      	ldr	r1, [pc, #348]	; (8002220 <TIM2_IRQHandler+0x1c4>)
 80020c2:	680b      	ldr	r3, [r1, #0]
 80020c4:	2b01      	cmp	r3, #1
 80020c6:	d105      	bne.n	80020d4 <TIM2_IRQHandler+0x78>
        		  		AMP_PROTECTION_CNT_BEFORESTART++;
 80020c8:	4a56      	ldr	r2, [pc, #344]	; (8002224 <TIM2_IRQHandler+0x1c8>)
 80020ca:	6813      	ldr	r3, [r2, #0]
 80020cc:	3301      	adds	r3, #1
        		  		if (AMP_PROTECTION_CNT_BEFORESTART>=DelaySecBeforeStartAfterAmpProtection) {
 80020ce:	2b1d      	cmp	r3, #29
 80020d0:	dc2b      	bgt.n	800212a <TIM2_IRQHandler+0xce>
        		  		AMP_PROTECTION_CNT_BEFORESTART++;
 80020d2:	6013      	str	r3, [r2, #0]
        		  	  if (VOUT_BLOCKED==1) {
 80020d4:	4954      	ldr	r1, [pc, #336]	; (8002228 <TIM2_IRQHandler+0x1cc>)
 80020d6:	680b      	ldr	r3, [r1, #0]
 80020d8:	2b01      	cmp	r3, #1
 80020da:	d105      	bne.n	80020e8 <TIM2_IRQHandler+0x8c>
        		  		VOUT_PROTECTION_CNT_BEFORESTART++;
 80020dc:	4a53      	ldr	r2, [pc, #332]	; (800222c <TIM2_IRQHandler+0x1d0>)
 80020de:	6813      	ldr	r3, [r2, #0]
 80020e0:	3301      	adds	r3, #1
        		  		if (VOUT_PROTECTION_CNT_BEFORESTART>=DelaySecBeforeStartAfterVOUTProtection) {
 80020e2:	2b1d      	cmp	r3, #29
 80020e4:	dc29      	bgt.n	800213a <TIM2_IRQHandler+0xde>
        		  		VOUT_PROTECTION_CNT_BEFORESTART++;
 80020e6:	6013      	str	r3, [r2, #0]
        		  	  if (IOUT_BLOCKED==1) {
 80020e8:	4951      	ldr	r1, [pc, #324]	; (8002230 <TIM2_IRQHandler+0x1d4>)
 80020ea:	680b      	ldr	r3, [r1, #0]
 80020ec:	2b01      	cmp	r3, #1
 80020ee:	d105      	bne.n	80020fc <TIM2_IRQHandler+0xa0>
        		  		IOUT_PROTECTION_CNT_BEFORESTART++;
 80020f0:	4a50      	ldr	r2, [pc, #320]	; (8002234 <TIM2_IRQHandler+0x1d8>)
 80020f2:	6813      	ldr	r3, [r2, #0]
 80020f4:	3301      	adds	r3, #1
        		  		if (IOUT_PROTECTION_CNT_BEFORESTART>=DelaySecBeforeStartAfterIOUTProtection) {
 80020f6:	2b1d      	cmp	r3, #29
 80020f8:	dc27      	bgt.n	800214a <TIM2_IRQHandler+0xee>
        		  		IOUT_PROTECTION_CNT_BEFORESTART++;
 80020fa:	6013      	str	r3, [r2, #0]
        		  	  if (DC_BLOCKED==1) {
 80020fc:	494e      	ldr	r1, [pc, #312]	; (8002238 <TIM2_IRQHandler+0x1dc>)
 80020fe:	680b      	ldr	r3, [r1, #0]
 8002100:	2b01      	cmp	r3, #1
 8002102:	f040 8081 	bne.w	8002208 <TIM2_IRQHandler+0x1ac>
  					  if (DC_DataAverage<DC_PROTECTION_ROLLBACK) {
 8002106:	4b4d      	ldr	r3, [pc, #308]	; (800223c <TIM2_IRQHandler+0x1e0>)
 8002108:	681a      	ldr	r2, [r3, #0]
 800210a:	f640 33b7 	movw	r3, #2999	; 0xbb7
 800210e:	429a      	cmp	r2, r3
 8002110:	4b4b      	ldr	r3, [pc, #300]	; (8002240 <TIM2_IRQHandler+0x1e4>)
 8002112:	d82b      	bhi.n	800216c <TIM2_IRQHandler+0x110>
  						DC_PROTECTION_CNT_BEFORESTART++;
 8002114:	681a      	ldr	r2, [r3, #0]
 8002116:	3201      	adds	r2, #1
  						if (DC_PROTECTION_CNT_BEFORESTART>=DelaySecBeforeStartAfterDCProtection) {
 8002118:	2a09      	cmp	r2, #9
 800211a:	dc1e      	bgt.n	800215a <TIM2_IRQHandler+0xfe>
  						  DC_PROTECTION_CNT_BEFORESTART=0;
 800211c:	601a      	str	r2, [r3, #0]
 800211e:	bdf8      	pop	{r3, r4, r5, r6, r7, pc}
        			  if (CalibCmdCheck()==1) {
 8002120:	f7ff f926 	bl	8001370 <CalibCmdCheck>
 8002124:	2801      	cmp	r0, #1
 8002126:	d1c9      	bne.n	80020bc <TIM2_IRQHandler+0x60>
 8002128:	bdf8      	pop	{r3, r4, r5, r6, r7, pc}
        		  			AMP_PROTECTION_CNT_BEFORESTART=0;
 800212a:	2300      	movs	r3, #0
 800212c:	6013      	str	r3, [r2, #0]
        		  			AMP_PROTECTION_CNT=0;
 800212e:	4a45      	ldr	r2, [pc, #276]	; (8002244 <TIM2_IRQHandler+0x1e8>)
        		  			AMP_BLOCKED=0;
 8002130:	600b      	str	r3, [r1, #0]
        		  			AMP_PROTECTION_CNT=0;
 8002132:	6013      	str	r3, [r2, #0]
        		  			SetSoftstart();
 8002134:	f7ff fb14 	bl	8001760 <SetSoftstart>
 8002138:	e7cc      	b.n	80020d4 <TIM2_IRQHandler+0x78>
        		  			VOUT_PROTECTION_CNT_BEFORESTART=0;
 800213a:	2300      	movs	r3, #0
 800213c:	6013      	str	r3, [r2, #0]
        		  			VOUT_PROTECTION_CNT=0;
 800213e:	4a42      	ldr	r2, [pc, #264]	; (8002248 <TIM2_IRQHandler+0x1ec>)
        		  			VOUT_BLOCKED=0;
 8002140:	600b      	str	r3, [r1, #0]
        		  			VOUT_PROTECTION_CNT=0;
 8002142:	6013      	str	r3, [r2, #0]
        		  			SetSoftstart();
 8002144:	f7ff fb0c 	bl	8001760 <SetSoftstart>
 8002148:	e7ce      	b.n	80020e8 <TIM2_IRQHandler+0x8c>
        		  			IOUT_PROTECTION_CNT_BEFORESTART=0;
 800214a:	2300      	movs	r3, #0
 800214c:	6013      	str	r3, [r2, #0]
        		  			IOUT_PROTECTION_CNT=0;
 800214e:	4a3f      	ldr	r2, [pc, #252]	; (800224c <TIM2_IRQHandler+0x1f0>)
        		  			IOUT_BLOCKED=0;
 8002150:	600b      	str	r3, [r1, #0]
        		  			IOUT_PROTECTION_CNT=0;
 8002152:	6013      	str	r3, [r2, #0]
        		  			SetSoftstart();
 8002154:	f7ff fb04 	bl	8001760 <SetSoftstart>
 8002158:	e7d0      	b.n	80020fc <TIM2_IRQHandler+0xa0>
  							DC_PROTECTION_CNT_BEFORESTART=0;
 800215a:	2200      	movs	r2, #0
 800215c:	601a      	str	r2, [r3, #0]
  							DC_PROTECTION_CNT=0;
 800215e:	4b3c      	ldr	r3, [pc, #240]	; (8002250 <TIM2_IRQHandler+0x1f4>)
  							DC_BLOCKED=0;
 8002160:	600a      	str	r2, [r1, #0]
  							DC_PROTECTION_CNT=0;
 8002162:	601a      	str	r2, [r3, #0]
}
 8002164:	e8bd 40f8 	ldmia.w	sp!, {r3, r4, r5, r6, r7, lr}
  							SetSoftstart();
 8002168:	f7ff bafa 	b.w	8001760 <SetSoftstart>
  						  DC_PROTECTION_CNT_BEFORESTART=0;
 800216c:	2200      	movs	r2, #0
 800216e:	e7d5      	b.n	800211c <TIM2_IRQHandler+0xc0>
        		  	  	PrintCurrentState();
 8002170:	f7fe ffbc 	bl	80010ec <PrintCurrentState>
  					if ((buttonUpdate(&FaultFlag) == isPressed) || (buttonUpdate(&FaultFlag) == isPressedLong)
 8002174:	4828      	ldr	r0, [pc, #160]	; (8002218 <TIM2_IRQHandler+0x1bc>)
 8002176:	f7ff fc1e 	bl	80019b6 <buttonUpdate>
 800217a:	2802      	cmp	r0, #2
 800217c:	4d35      	ldr	r5, [pc, #212]	; (8002254 <TIM2_IRQHandler+0x1f8>)
 800217e:	4f36      	ldr	r7, [pc, #216]	; (8002258 <TIM2_IRQHandler+0x1fc>)
 8002180:	4e36      	ldr	r6, [pc, #216]	; (800225c <TIM2_IRQHandler+0x200>)
 8002182:	d11b      	bne.n	80021bc <TIM2_IRQHandler+0x160>
  						RstCnt++;
 8002184:	682b      	ldr	r3, [r5, #0]
 8002186:	3301      	adds	r3, #1
  						if (RstCnt==DelaySecBeforeAttemRst) {
 8002188:	2b0a      	cmp	r3, #10
  						RstCnt++;
 800218a:	602b      	str	r3, [r5, #0]
  						if (RstCnt==DelaySecBeforeAttemRst) {
 800218c:	d12c      	bne.n	80021e8 <TIM2_IRQHandler+0x18c>
  							RstCnt=0;
 800218e:	2300      	movs	r3, #0
  							HAL_GPIO_WritePin(RST_GPIO_Port, RST_Pin,GPIO_PIN_SET);
 8002190:	2201      	movs	r2, #1
 8002192:	2120      	movs	r1, #32
 8002194:	481f      	ldr	r0, [pc, #124]	; (8002214 <TIM2_IRQHandler+0x1b8>)
  							RstCnt=0;
 8002196:	602b      	str	r3, [r5, #0]
  							HAL_GPIO_WritePin(RST_GPIO_Port, RST_Pin,GPIO_PIN_SET);
 8002198:	f001 fdc6 	bl	8003d28 <HAL_GPIO_WritePin>
  							TIM2->ARR=sRST_Delay;
 800219c:	f44f 72fa 	mov.w	r2, #500	; 0x1f4
  							TIM2->ARR=sDEF_Delay;
 80021a0:	f04f 4380 	mov.w	r3, #1073741824	; 0x40000000
  						HAL_GPIO_TogglePin(LED4_GPIO_Port, LED4_Pin);
 80021a4:	f44f 5100 	mov.w	r1, #8192	; 0x2000
  							TIM2->ARR=sDEF_Delay;
 80021a8:	62da      	str	r2, [r3, #44]	; 0x2c
  						HAL_GPIO_TogglePin(LED4_GPIO_Port, LED4_Pin);
 80021aa:	481a      	ldr	r0, [pc, #104]	; (8002214 <TIM2_IRQHandler+0x1b8>)
 80021ac:	f001 fdd6 	bl	8003d5c <HAL_GPIO_TogglePin>
  						BoardStatus=sFaultFlag;
 80021b0:	2303      	movs	r3, #3
 80021b2:	7023      	strb	r3, [r4, #0]
  						SinWave=swNOP;
 80021b4:	703b      	strb	r3, [r7, #0]
  						FaultWaitCnt=0;
 80021b6:	2300      	movs	r3, #0
 80021b8:	6033      	str	r3, [r6, #0]
 80021ba:	bdf8      	pop	{r3, r4, r5, r6, r7, pc}
  					if ((buttonUpdate(&FaultFlag) == isPressed) || (buttonUpdate(&FaultFlag) == isPressedLong)
 80021bc:	4816      	ldr	r0, [pc, #88]	; (8002218 <TIM2_IRQHandler+0x1bc>)
 80021be:	f7ff fbfa 	bl	80019b6 <buttonUpdate>
 80021c2:	2803      	cmp	r0, #3
 80021c4:	d0de      	beq.n	8002184 <TIM2_IRQHandler+0x128>
  						  SinWave=swNOP;
 80021c6:	2103      	movs	r1, #3
  						  RstCnt=0;
 80021c8:	2200      	movs	r2, #0
  						  FaultWaitCnt++;
 80021ca:	6833      	ldr	r3, [r6, #0]
  						  SinWave=swNOP;
 80021cc:	7039      	strb	r1, [r7, #0]
  						  FaultWaitCnt++;
 80021ce:	3301      	adds	r3, #1
  						  if (FaultWaitCnt>=DelaySecBeforeStartAfterFault) {
 80021d0:	2b09      	cmp	r3, #9
  						  RstCnt=0;
 80021d2:	602a      	str	r2, [r5, #0]
  						  FaultWaitCnt++;
 80021d4:	6033      	str	r3, [r6, #0]
  						  if (FaultWaitCnt>=DelaySecBeforeStartAfterFault) {
 80021d6:	dd0f      	ble.n	80021f8 <TIM2_IRQHandler+0x19c>
  							  HAL_GPIO_WritePin(LED4_GPIO_Port, LED4_Pin,GPIO_PIN_RESET);
 80021d8:	f44f 5100 	mov.w	r1, #8192	; 0x2000
 80021dc:	480d      	ldr	r0, [pc, #52]	; (8002214 <TIM2_IRQHandler+0x1b8>)
 80021de:	f001 fda3 	bl	8003d28 <HAL_GPIO_WritePin>
  							  BoardStatus=sGEN;
 80021e2:	2301      	movs	r3, #1
 80021e4:	7023      	strb	r3, [r4, #0]
 80021e6:	bdf8      	pop	{r3, r4, r5, r6, r7, pc}
  							HAL_GPIO_WritePin(RST_GPIO_Port, RST_Pin,GPIO_PIN_RESET);
 80021e8:	2200      	movs	r2, #0
 80021ea:	2120      	movs	r1, #32
 80021ec:	4809      	ldr	r0, [pc, #36]	; (8002214 <TIM2_IRQHandler+0x1b8>)
 80021ee:	f001 fd9b 	bl	8003d28 <HAL_GPIO_WritePin>
  							TIM2->ARR=sDEF_Delay;
 80021f2:	f44f 727a 	mov.w	r2, #1000	; 0x3e8
 80021f6:	e7d3      	b.n	80021a0 <TIM2_IRQHandler+0x144>
  							  BoardStatus=sFaultFlag;
 80021f8:	7021      	strb	r1, [r4, #0]
  							  HAL_GPIO_TogglePin(LED4_GPIO_Port, LED4_Pin);
 80021fa:	4806      	ldr	r0, [pc, #24]	; (8002214 <TIM2_IRQHandler+0x1b8>)
 80021fc:	f44f 5100 	mov.w	r1, #8192	; 0x2000
}
 8002200:	e8bd 40f8 	ldmia.w	sp!, {r3, r4, r5, r6, r7, lr}
  							  HAL_GPIO_TogglePin(LED4_GPIO_Port, LED4_Pin);
 8002204:	f001 bdaa 	b.w	8003d5c <HAL_GPIO_TogglePin>
 8002208:	bdf8      	pop	{r3, r4, r5, r6, r7, pc}
 800220a:	bf00      	nop
 800220c:	20000734 	.word	0x20000734
 8002210:	20000424 	.word	0x20000424
 8002214:	40010c00 	.word	0x40010c00
 8002218:	20000608 	.word	0x20000608
 800221c:	20000428 	.word	0x20000428
 8002220:	200003c8 	.word	0x200003c8
 8002224:	200003d0 	.word	0x200003d0
 8002228:	20000408 	.word	0x20000408
 800222c:	20000410 	.word	0x20000410
 8002230:	200003ec 	.word	0x200003ec
 8002234:	200003f4 	.word	0x200003f4
 8002238:	200003d4 	.word	0x200003d4
 800223c:	200003dc 	.word	0x200003dc
 8002240:	200003e8 	.word	0x200003e8
 8002244:	200003cc 	.word	0x200003cc
 8002248:	2000040c 	.word	0x2000040c
 800224c:	200003f0 	.word	0x200003f0
 8002250:	200003e4 	.word	0x200003e4
 8002254:	20000454 	.word	0x20000454
 8002258:	20000458 	.word	0x20000458
 800225c:	20000448 	.word	0x20000448

08002260 <TIM3_IRQHandler>:

/**
  * @brief This function handles TIM3 global interrupt.
  */
void TIM3_IRQHandler(void)
{
 8002260:	b538      	push	{r3, r4, r5, lr}
  /* USER CODE BEGIN TIM3_IRQn 0 */

  /* USER CODE END TIM3_IRQn 0 */
  HAL_TIM_IRQHandler(&htim3);
 8002262:	4c2d      	ldr	r4, [pc, #180]	; (8002318 <TIM3_IRQHandler+0xb8>)
 8002264:	4620      	mov	r0, r4
 8002266:	f002 fd24 	bl	8004cb2 <HAL_TIM_IRQHandler>
  /* USER CODE BEGIN TIM3_IRQn 1 */

  __HAL_TIM_CLEAR_FLAG(&htim3, TIM_FLAG_UPDATE);
 800226a:	f06f 0201 	mvn.w	r2, #1
 800226e:	6823      	ldr	r3, [r4, #0]
 8002270:	611a      	str	r2, [r3, #16]

  	if ((SinWave==swStop) || (SinWave==swStart) || (SinWave==swNOP))  {
 8002272:	4b2a      	ldr	r3, [pc, #168]	; (800231c <TIM3_IRQHandler+0xbc>)
 8002274:	781a      	ldrb	r2, [r3, #0]
 8002276:	b12a      	cbz	r2, 8002284 <TIM3_IRQHandler+0x24>
 8002278:	781a      	ldrb	r2, [r3, #0]
 800227a:	2a01      	cmp	r2, #1
 800227c:	d002      	beq.n	8002284 <TIM3_IRQHandler+0x24>
 800227e:	781a      	ldrb	r2, [r3, #0]
 8002280:	2a03      	cmp	r2, #3
 8002282:	d105      	bne.n	8002290 <TIM3_IRQHandler+0x30>
   		TIM3->CCR2=0;
 8002284:	2200      	movs	r2, #0
 8002286:	4926      	ldr	r1, [pc, #152]	; (8002320 <TIM3_IRQHandler+0xc0>)
 8002288:	638a      	str	r2, [r1, #56]	; 0x38
   		TIM3->CCR1=0;
 800228a:	634a      	str	r2, [r1, #52]	; 0x34
   		//TIM1->CCR3=0;
   		sin_step=0;
 800228c:	4925      	ldr	r1, [pc, #148]	; (8002324 <TIM3_IRQHandler+0xc4>)
 800228e:	800a      	strh	r2, [r1, #0]
   	}

  	if (SinWave==swNOP) {return;}
 8002290:	781a      	ldrb	r2, [r3, #0]
 8002292:	2a03      	cmp	r2, #3
 8002294:	d03f      	beq.n	8002316 <TIM3_IRQHandler+0xb6>

     	if (SinWave==swStart)  {
 8002296:	781a      	ldrb	r2, [r3, #0]
 8002298:	2a01      	cmp	r2, #1
     		SinWave=swGEN;
 800229a:	bf04      	itt	eq
 800229c:	2202      	moveq	r2, #2
 800229e:	701a      	strbeq	r2, [r3, #0]
     	}

      if  ( (TIM1->CNT==498) || (TIM1->CNT==998) )  {
 80022a0:	4b21      	ldr	r3, [pc, #132]	; (8002328 <TIM3_IRQHandler+0xc8>)
 80022a2:	6a5a      	ldr	r2, [r3, #36]	; 0x24
 80022a4:	f5b2 7ff9 	cmp.w	r2, #498	; 0x1f2
 80022a8:	d004      	beq.n	80022b4 <TIM3_IRQHandler+0x54>
 80022aa:	6a5a      	ldr	r2, [r3, #36]	; 0x24
 80022ac:	f240 33e6 	movw	r3, #998	; 0x3e6
 80022b0:	429a      	cmp	r2, r3
 80022b2:	d10e      	bne.n	80022d2 <TIM3_IRQHandler+0x72>
        	    sin_step=0;
 80022b4:	2300      	movs	r3, #0
        	    TIM3->CCR1=0;
 80022b6:	4a1a      	ldr	r2, [pc, #104]	; (8002320 <TIM3_IRQHandler+0xc0>)
        	    sin_step=0;
 80022b8:	491a      	ldr	r1, [pc, #104]	; (8002324 <TIM3_IRQHandler+0xc4>)
        	    TIM3->CCR2=0;
        	    if (UpdateAmp_FLAG==0) {
 80022ba:	4c1c      	ldr	r4, [pc, #112]	; (800232c <TIM3_IRQHandler+0xcc>)
        	    sin_step=0;
 80022bc:	800b      	strh	r3, [r1, #0]
        	    TIM3->CCR1=0;
 80022be:	6353      	str	r3, [r2, #52]	; 0x34
        	    TIM3->CCR2=0;
 80022c0:	6393      	str	r3, [r2, #56]	; 0x38
        	    if (UpdateAmp_FLAG==0) {
 80022c2:	8820      	ldrh	r0, [r4, #0]
 80022c4:	b280      	uxth	r0, r0
 80022c6:	b908      	cbnz	r0, 80022cc <TIM3_IRQHandler+0x6c>
        	    	UpdateAmp_FLAG=1;
 80022c8:	2001      	movs	r0, #1
 80022ca:	8020      	strh	r0, [r4, #0]
        	    }
        	    sin_step=0;
 80022cc:	800b      	strh	r3, [r1, #0]
        	    TIM3->CCR1=0;
 80022ce:	6353      	str	r3, [r2, #52]	; 0x34
        	    TIM3->CCR2=0;
 80022d0:	6393      	str	r3, [r2, #56]	; 0x38
        	    //return;
           }

     if  (TIM1->CNT>499) { sinStatus=1;TempBuffer_Flag=0;ReadTempValue();} else { sinStatus=0;TempBuffer_Flag=0;ReadTempValue();}
 80022d2:	4b15      	ldr	r3, [pc, #84]	; (8002328 <TIM3_IRQHandler+0xc8>)
 80022d4:	4c16      	ldr	r4, [pc, #88]	; (8002330 <TIM3_IRQHandler+0xd0>)
 80022d6:	6a5b      	ldr	r3, [r3, #36]	; 0x24
 80022d8:	f5b3 7ffa 	cmp.w	r3, #500	; 0x1f4
 80022dc:	bf29      	itett	cs
 80022de:	2201      	movcs	r2, #1
 80022e0:	2200      	movcc	r2, #0
 80022e2:	7022      	strbcs	r2, [r4, #0]
 80022e4:	2200      	movcs	r2, #0
 80022e6:	4b13      	ldr	r3, [pc, #76]	; (8002334 <TIM3_IRQHandler+0xd4>)
 80022e8:	bf38      	it	cc
 80022ea:	7022      	strbcc	r2, [r4, #0]
 80022ec:	801a      	strh	r2, [r3, #0]
 80022ee:	f7fe fc23 	bl	8000b38 <ReadTempValue>

     if (sinStatus==0) {
 80022f2:	7823      	ldrb	r3, [r4, #0]
 80022f4:	f003 02ff 	and.w	r2, r3, #255	; 0xff
 80022f8:	b923      	cbnz	r3, 8002304 <TIM3_IRQHandler+0xa4>
  	   TIM3->CCR2=0;
 80022fa:	4d09      	ldr	r5, [pc, #36]	; (8002320 <TIM3_IRQHandler+0xc0>)
 80022fc:	63aa      	str	r2, [r5, #56]	; 0x38
  	   TIM3->CCR1=GetSinus();
 80022fe:	f7ff fa87 	bl	8001810 <GetSinus>
 8002302:	6368      	str	r0, [r5, #52]	; 0x34
     }
     if (sinStatus==1) {
 8002304:	7823      	ldrb	r3, [r4, #0]
 8002306:	2b01      	cmp	r3, #1
 8002308:	d105      	bne.n	8002316 <TIM3_IRQHandler+0xb6>
  	   TIM3->CCR1=0;
 800230a:	2300      	movs	r3, #0
 800230c:	4c04      	ldr	r4, [pc, #16]	; (8002320 <TIM3_IRQHandler+0xc0>)
 800230e:	6363      	str	r3, [r4, #52]	; 0x34
  	   TIM3->CCR2=GetSinus();
 8002310:	f7ff fa7e 	bl	8001810 <GetSinus>
 8002314:	63a0      	str	r0, [r4, #56]	; 0x38
 8002316:	bd38      	pop	{r3, r4, r5, pc}
 8002318:	200006b4 	.word	0x200006b4
 800231c:	20000458 	.word	0x20000458
 8002320:	40000400 	.word	0x40000400
 8002324:	20000422 	.word	0x20000422
 8002328:	40012c00 	.word	0x40012c00
 800232c:	2000045a 	.word	0x2000045a
 8002330:	20000420 	.word	0x20000420
 8002334:	200003c4 	.word	0x200003c4

08002338 <TIM4_IRQHandler>:

/**
  * @brief This function handles TIM4 global interrupt.
  */
void TIM4_IRQHandler(void)
{
 8002338:	b5f8      	push	{r3, r4, r5, r6, r7, lr}
  /* USER CODE BEGIN TIM4_IRQn 0 */

  /* USER CODE END TIM4_IRQn 0 */
  HAL_TIM_IRQHandler(&htim4);
 800233a:	4c3f      	ldr	r4, [pc, #252]	; (8002438 <TIM4_IRQHandler+0x100>)
 800233c:	4620      	mov	r0, r4
 800233e:	f002 fcb8 	bl	8004cb2 <HAL_TIM_IRQHandler>
  /* USER CODE BEGIN TIM4_IRQn 1 */

  __HAL_TIM_CLEAR_FLAG(&htim4, TIM_FLAG_UPDATE);
 8002342:	f06f 0201 	mvn.w	r2, #1
 8002346:	6823      	ldr	r3, [r4, #0]


    if ((buttonUpdate(&FaultFlag) == isPressed) || (buttonUpdate(&FaultFlag) == isPressedLong)) {
 8002348:	483c      	ldr	r0, [pc, #240]	; (800243c <TIM4_IRQHandler+0x104>)
  __HAL_TIM_CLEAR_FLAG(&htim4, TIM_FLAG_UPDATE);
 800234a:	611a      	str	r2, [r3, #16]
    if ((buttonUpdate(&FaultFlag) == isPressed) || (buttonUpdate(&FaultFlag) == isPressedLong)) {
 800234c:	f7ff fb33 	bl	80019b6 <buttonUpdate>
 8002350:	2802      	cmp	r0, #2
 8002352:	4c3b      	ldr	r4, [pc, #236]	; (8002440 <TIM4_IRQHandler+0x108>)
 8002354:	d109      	bne.n	800236a <TIM4_IRQHandler+0x32>
  	  BoardStatus=sFaultFlag;
 8002356:	2203      	movs	r2, #3
 8002358:	4b3a      	ldr	r3, [pc, #232]	; (8002444 <TIM4_IRQHandler+0x10c>)
 800235a:	701a      	strb	r2, [r3, #0]
  	  FaultWaitCnt=0;
 800235c:	2200      	movs	r2, #0
 800235e:	4b3a      	ldr	r3, [pc, #232]	; (8002448 <TIM4_IRQHandler+0x110>)
 8002360:	601a      	str	r2, [r3, #0]
  		  if (SinWave!=swGEN) {
 8002362:	7823      	ldrb	r3, [r4, #0]
 8002364:	2b02      	cmp	r3, #2
 8002366:	d131      	bne.n	80023cc <TIM4_IRQHandler+0x94>
 8002368:	bdf8      	pop	{r3, r4, r5, r6, r7, pc}
    if ((buttonUpdate(&FaultFlag) == isPressed) || (buttonUpdate(&FaultFlag) == isPressedLong)) {
 800236a:	4834      	ldr	r0, [pc, #208]	; (800243c <TIM4_IRQHandler+0x104>)
 800236c:	f7ff fb23 	bl	80019b6 <buttonUpdate>
 8002370:	2803      	cmp	r0, #3
 8002372:	d0f0      	beq.n	8002356 <TIM4_IRQHandler+0x1e>
  		  }
    } else {
  	  //BoardStatus=sGEN;
    }

    	  if ((SinWave==swNOP) && (BoardStatus == sGEN) && (AMP_BLOCKED==0)
 8002374:	7823      	ldrb	r3, [r4, #0]
 8002376:	4e35      	ldr	r6, [pc, #212]	; (800244c <TIM4_IRQHandler+0x114>)
 8002378:	2b03      	cmp	r3, #3
 800237a:	d12a      	bne.n	80023d2 <TIM4_IRQHandler+0x9a>
 800237c:	4b31      	ldr	r3, [pc, #196]	; (8002444 <TIM4_IRQHandler+0x10c>)
 800237e:	781f      	ldrb	r7, [r3, #0]
 8002380:	b2ff      	uxtb	r7, r7
 8002382:	2f01      	cmp	r7, #1
 8002384:	d125      	bne.n	80023d2 <TIM4_IRQHandler+0x9a>
 8002386:	4b32      	ldr	r3, [pc, #200]	; (8002450 <TIM4_IRQHandler+0x118>)
 8002388:	681b      	ldr	r3, [r3, #0]
 800238a:	bb13      	cbnz	r3, 80023d2 <TIM4_IRQHandler+0x9a>
    			  && (DC_BLOCKED==0) && (VOUT_BLOCKED==0)  && (IOUT_BLOCKED==0) && (EEPROM_FLAG==0)) {
 800238c:	4b31      	ldr	r3, [pc, #196]	; (8002454 <TIM4_IRQHandler+0x11c>)
 800238e:	681b      	ldr	r3, [r3, #0]
 8002390:	b9fb      	cbnz	r3, 80023d2 <TIM4_IRQHandler+0x9a>
 8002392:	4b31      	ldr	r3, [pc, #196]	; (8002458 <TIM4_IRQHandler+0x120>)
 8002394:	681b      	ldr	r3, [r3, #0]
 8002396:	b9e3      	cbnz	r3, 80023d2 <TIM4_IRQHandler+0x9a>
 8002398:	4b30      	ldr	r3, [pc, #192]	; (800245c <TIM4_IRQHandler+0x124>)
 800239a:	681b      	ldr	r3, [r3, #0]
 800239c:	b9cb      	cbnz	r3, 80023d2 <TIM4_IRQHandler+0x9a>
 800239e:	4b30      	ldr	r3, [pc, #192]	; (8002460 <TIM4_IRQHandler+0x128>)
 80023a0:	681d      	ldr	r5, [r3, #0]
 80023a2:	b9b5      	cbnz	r5, 80023d2 <TIM4_IRQHandler+0x9a>
  	//#ifndef AMP_PROTECTION
    	  //if ((SinWave==swNOP) && (BoardStatus == sGEN)) {
  	//#endif
    	  sin_step=0;
    	  	  if  (buttonUpdate(&DevModeKey2) == isPressedLong) {
 80023a4:	482f      	ldr	r0, [pc, #188]	; (8002464 <TIM4_IRQHandler+0x12c>)
    	  sin_step=0;
 80023a6:	8035      	strh	r5, [r6, #0]
    	  	  if  (buttonUpdate(&DevModeKey2) == isPressedLong) {
 80023a8:	f7ff fb05 	bl	80019b6 <buttonUpdate>
 80023ac:	2803      	cmp	r0, #3
 80023ae:	d110      	bne.n	80023d2 <TIM4_IRQHandler+0x9a>
      		SinWave=swStart;
      		TIM3->CCR2=0;
 80023b0:	4b2d      	ldr	r3, [pc, #180]	; (8002468 <TIM4_IRQHandler+0x130>)
      		SinWave=swStart;
 80023b2:	7027      	strb	r7, [r4, #0]
      		TIM3->CCR2=0;
 80023b4:	639d      	str	r5, [r3, #56]	; 0x38
      		 		TIM3->CCR1=0;
 80023b6:	635d      	str	r5, [r3, #52]	; 0x34
      		 		TIM1->CCR3=0;
 80023b8:	f503 3394 	add.w	r3, r3, #75776	; 0x12800
 80023bc:	63dd      	str	r5, [r3, #60]	; 0x3c
      		 		sin_step=0;
 80023be:	8035      	strh	r5, [r6, #0]
      		PWM_50Hz_ON();
 80023c0:	f7ff f8e2 	bl	8001588 <PWM_50Hz_ON>
    	    		sin_step = 0;
    	    	}*/


  /* USER CODE END TIM4_IRQn 1 */
}
 80023c4:	e8bd 40f8 	ldmia.w	sp!, {r3, r4, r5, r6, r7, lr}
      		PWM_Sinus_ON();
 80023c8:	f7ff b92a 	b.w	8001620 <PWM_Sinus_ON>
  			  SinWave=swGEN;
 80023cc:	2302      	movs	r3, #2
 80023ce:	7023      	strb	r3, [r4, #0]
 80023d0:	e7d0      	b.n	8002374 <TIM4_IRQHandler+0x3c>
    if (SinWave==swGEN) {
 80023d2:	7823      	ldrb	r3, [r4, #0]
 80023d4:	2b02      	cmp	r3, #2
 80023d6:	d128      	bne.n	800242a <TIM4_IRQHandler+0xf2>
  				if (  (BoardStatus == sFaultFlag) || (buttonUpdate(&DevModeKey2) == isReleased)
 80023d8:	4b1a      	ldr	r3, [pc, #104]	; (8002444 <TIM4_IRQHandler+0x10c>)
 80023da:	781b      	ldrb	r3, [r3, #0]
 80023dc:	2b03      	cmp	r3, #3
 80023de:	d10f      	bne.n	8002400 <TIM4_IRQHandler+0xc8>
  		  SinWave=swNOP;
 80023e0:	2303      	movs	r3, #3
 80023e2:	7023      	strb	r3, [r4, #0]
  		  	  	TIM3->CCR2=0;
 80023e4:	2300      	movs	r3, #0
 80023e6:	4a20      	ldr	r2, [pc, #128]	; (8002468 <TIM4_IRQHandler+0x130>)
 80023e8:	6393      	str	r3, [r2, #56]	; 0x38
  		   		TIM3->CCR1=0;
 80023ea:	6353      	str	r3, [r2, #52]	; 0x34
  		   		TIM1->CCR3=0;
 80023ec:	f502 3294 	add.w	r2, r2, #75776	; 0x12800
 80023f0:	63d3      	str	r3, [r2, #60]	; 0x3c
  		   		sin_step=0;
 80023f2:	8033      	strh	r3, [r6, #0]
  		  PWM_50Hz_OFF();
 80023f4:	f7ff f8cf 	bl	8001596 <PWM_50Hz_OFF>
}
 80023f8:	e8bd 40f8 	ldmia.w	sp!, {r3, r4, r5, r6, r7, lr}
  		  PWM_Sinus_OFF();
 80023fc:	f7ff b917 	b.w	800162e <PWM_Sinus_OFF>
  				if (  (BoardStatus == sFaultFlag) || (buttonUpdate(&DevModeKey2) == isReleased)
 8002400:	4818      	ldr	r0, [pc, #96]	; (8002464 <TIM4_IRQHandler+0x12c>)
 8002402:	f7ff fad8 	bl	80019b6 <buttonUpdate>
 8002406:	2804      	cmp	r0, #4
 8002408:	d0ea      	beq.n	80023e0 <TIM4_IRQHandler+0xa8>
  						|| (AMP_BLOCKED==1)  || (DC_BLOCKED==1) || (VOUT_BLOCKED==1)  || (IOUT_BLOCKED==1)) {
 800240a:	4b11      	ldr	r3, [pc, #68]	; (8002450 <TIM4_IRQHandler+0x118>)
 800240c:	681b      	ldr	r3, [r3, #0]
 800240e:	2b01      	cmp	r3, #1
 8002410:	d0e6      	beq.n	80023e0 <TIM4_IRQHandler+0xa8>
 8002412:	4b10      	ldr	r3, [pc, #64]	; (8002454 <TIM4_IRQHandler+0x11c>)
 8002414:	681b      	ldr	r3, [r3, #0]
 8002416:	2b01      	cmp	r3, #1
 8002418:	d0e2      	beq.n	80023e0 <TIM4_IRQHandler+0xa8>
 800241a:	4b0f      	ldr	r3, [pc, #60]	; (8002458 <TIM4_IRQHandler+0x120>)
 800241c:	681b      	ldr	r3, [r3, #0]
 800241e:	2b01      	cmp	r3, #1
 8002420:	d0de      	beq.n	80023e0 <TIM4_IRQHandler+0xa8>
 8002422:	4b0e      	ldr	r3, [pc, #56]	; (800245c <TIM4_IRQHandler+0x124>)
 8002424:	681b      	ldr	r3, [r3, #0]
 8002426:	2b01      	cmp	r3, #1
 8002428:	d0da      	beq.n	80023e0 <TIM4_IRQHandler+0xa8>
    	  	  	  CheckV_Feedback();
 800242a:	f7fe fd09 	bl	8000e40 <CheckV_Feedback>
    	  	  	  sin_step++;
 800242e:	8833      	ldrh	r3, [r6, #0]
 8002430:	3301      	adds	r3, #1
 8002432:	b29b      	uxth	r3, r3
 8002434:	8033      	strh	r3, [r6, #0]
 8002436:	bdf8      	pop	{r3, r4, r5, r6, r7, pc}
 8002438:	20000674 	.word	0x20000674
 800243c:	20000608 	.word	0x20000608
 8002440:	20000458 	.word	0x20000458
 8002444:	20000424 	.word	0x20000424
 8002448:	20000448 	.word	0x20000448
 800244c:	20000422 	.word	0x20000422
 8002450:	200003c8 	.word	0x200003c8
 8002454:	200003d4 	.word	0x200003d4
 8002458:	20000408 	.word	0x20000408
 800245c:	200003ec 	.word	0x200003ec
 8002460:	20000444 	.word	0x20000444
 8002464:	20000624 	.word	0x20000624
 8002468:	40000400 	.word	0x40000400

0800246c <USART1_IRQHandler>:
void USART1_IRQHandler(void)
{
  /* USER CODE BEGIN USART1_IRQn 0 */

  /* USER CODE END USART1_IRQn 0 */
  HAL_UART_IRQHandler(&huart1);
 800246c:	4801      	ldr	r0, [pc, #4]	; (8002474 <USART1_IRQHandler+0x8>)
 800246e:	f003 baa9 	b.w	80059c4 <HAL_UART_IRQHandler>
 8002472:	bf00      	nop
 8002474:	200007b8 	.word	0x200007b8

08002478 <SystemInit>:
  */
void SystemInit (void)
{
  /* Reset the RCC clock configuration to the default reset state(for debug purpose) */
  /* Set HSION bit */
  RCC->CR |= 0x00000001U;
 8002478:	4b0f      	ldr	r3, [pc, #60]	; (80024b8 <SystemInit+0x40>)
 800247a:	681a      	ldr	r2, [r3, #0]
 800247c:	f042 0201 	orr.w	r2, r2, #1
 8002480:	601a      	str	r2, [r3, #0]

  /* Reset SW, HPRE, PPRE1, PPRE2, ADCPRE and MCO bits */
#if !defined(STM32F105xC) && !defined(STM32F107xC)
  RCC->CFGR &= 0xF8FF0000U;
 8002482:	6859      	ldr	r1, [r3, #4]
 8002484:	4a0d      	ldr	r2, [pc, #52]	; (80024bc <SystemInit+0x44>)
 8002486:	400a      	ands	r2, r1
 8002488:	605a      	str	r2, [r3, #4]
#else
  RCC->CFGR &= 0xF0FF0000U;
#endif /* STM32F105xC */   
  
  /* Reset HSEON, CSSON and PLLON bits */
  RCC->CR &= 0xFEF6FFFFU;
 800248a:	681a      	ldr	r2, [r3, #0]
 800248c:	f022 7284 	bic.w	r2, r2, #17301504	; 0x1080000
 8002490:	f422 3280 	bic.w	r2, r2, #65536	; 0x10000
 8002494:	601a      	str	r2, [r3, #0]

  /* Reset HSEBYP bit */
  RCC->CR &= 0xFFFBFFFFU;
 8002496:	681a      	ldr	r2, [r3, #0]
 8002498:	f422 2280 	bic.w	r2, r2, #262144	; 0x40000
 800249c:	601a      	str	r2, [r3, #0]

  /* Reset PLLSRC, PLLXTPRE, PLLMUL and USBPRE/OTGFSPRE bits */
  RCC->CFGR &= 0xFF80FFFFU;
 800249e:	685a      	ldr	r2, [r3, #4]
 80024a0:	f422 02fe 	bic.w	r2, r2, #8323072	; 0x7f0000
 80024a4:	605a      	str	r2, [r3, #4]

  /* Reset CFGR2 register */
  RCC->CFGR2 = 0x00000000U;      
#else
  /* Disable all interrupts and clear pending bits  */
  RCC->CIR = 0x009F0000U;
 80024a6:	f44f 021f 	mov.w	r2, #10420224	; 0x9f0000
 80024aa:	609a      	str	r2, [r3, #8]
#endif 

#ifdef VECT_TAB_SRAM
  SCB->VTOR = SRAM_BASE | VECT_TAB_OFFSET; /* Vector Table Relocation in Internal SRAM. */
#else
  SCB->VTOR = FLASH_BASE | VECT_TAB_OFFSET; /* Vector Table Relocation in Internal FLASH. */
 80024ac:	f04f 6200 	mov.w	r2, #134217728	; 0x8000000
 80024b0:	4b03      	ldr	r3, [pc, #12]	; (80024c0 <SystemInit+0x48>)
 80024b2:	609a      	str	r2, [r3, #8]
 80024b4:	4770      	bx	lr
 80024b6:	bf00      	nop
 80024b8:	40021000 	.word	0x40021000
 80024bc:	f8ff0000 	.word	0xf8ff0000
 80024c0:	e000ed00 	.word	0xe000ed00

080024c4 <MX_TIM2_Init>:
  HAL_TIM_MspPostInit(&htim1);

}
/* TIM2 init function */
void MX_TIM2_Init(void)
{
 80024c4:	b57f      	push	{r0, r1, r2, r3, r4, r5, r6, lr}
  TIM_ClockConfigTypeDef sClockSourceConfig = {0};
 80024c6:	2210      	movs	r2, #16
 80024c8:	2100      	movs	r1, #0
 80024ca:	a802      	add	r0, sp, #8
 80024cc:	f003 fb6c 	bl	8005ba8 <memset>
  TIM_MasterConfigTypeDef sMasterConfig = {0};
 80024d0:	2300      	movs	r3, #0

  htim2.Instance = TIM2;
  htim2.Init.Prescaler = 35999;
 80024d2:	f648 429f 	movw	r2, #35999	; 0x8c9f
 80024d6:	f04f 4180 	mov.w	r1, #1073741824	; 0x40000000
  htim2.Instance = TIM2;
 80024da:	4814      	ldr	r0, [pc, #80]	; (800252c <MX_TIM2_Init+0x68>)
  TIM_MasterConfigTypeDef sMasterConfig = {0};
 80024dc:	9300      	str	r3, [sp, #0]
 80024de:	9301      	str	r3, [sp, #4]
  htim2.Init.Prescaler = 35999;
 80024e0:	e880 0006 	stmia.w	r0, {r1, r2}
  htim2.Init.CounterMode = TIM_COUNTERMODE_UP;
 80024e4:	6083      	str	r3, [r0, #8]
  htim2.Init.Period = 1000;
 80024e6:	f44f 727a 	mov.w	r2, #1000	; 0x3e8
  htim2.Init.ClockDivision = TIM_CLOCKDIVISION_DIV1;
 80024ea:	6103      	str	r3, [r0, #16]
  htim2.Init.AutoReloadPreload = TIM_AUTORELOAD_PRELOAD_ENABLE;
 80024ec:	2380      	movs	r3, #128	; 0x80
  htim2.Init.Period = 1000;
 80024ee:	60c2      	str	r2, [r0, #12]
  htim2.Init.AutoReloadPreload = TIM_AUTORELOAD_PRELOAD_ENABLE;
 80024f0:	6183      	str	r3, [r0, #24]
  if (HAL_TIM_Base_Init(&htim2) != HAL_OK)
 80024f2:	f002 fcb9 	bl	8004e68 <HAL_TIM_Base_Init>
 80024f6:	b108      	cbz	r0, 80024fc <MX_TIM2_Init+0x38>
  {
    Error_Handler();
 80024f8:	f7ff fd14 	bl	8001f24 <Error_Handler>
  }
  sClockSourceConfig.ClockSource = TIM_CLOCKSOURCE_INTERNAL;
 80024fc:	f44f 5380 	mov.w	r3, #4096	; 0x1000
  if (HAL_TIM_ConfigClockSource(&htim2, &sClockSourceConfig) != HAL_OK)
 8002500:	a902      	add	r1, sp, #8
 8002502:	480a      	ldr	r0, [pc, #40]	; (800252c <MX_TIM2_Init+0x68>)
  sClockSourceConfig.ClockSource = TIM_CLOCKSOURCE_INTERNAL;
 8002504:	9302      	str	r3, [sp, #8]
  if (HAL_TIM_ConfigClockSource(&htim2, &sClockSourceConfig) != HAL_OK)
 8002506:	f002 f9af 	bl	8004868 <HAL_TIM_ConfigClockSource>
 800250a:	b108      	cbz	r0, 8002510 <MX_TIM2_Init+0x4c>
  {
    Error_Handler();
 800250c:	f7ff fd0a 	bl	8001f24 <Error_Handler>
  }
  sMasterConfig.MasterOutputTrigger = TIM_TRGO_RESET;
 8002510:	2300      	movs	r3, #0
  sMasterConfig.MasterSlaveMode = TIM_MASTERSLAVEMODE_DISABLE;
  if (HAL_TIMEx_MasterConfigSynchronization(&htim2, &sMasterConfig) != HAL_OK)
 8002512:	4669      	mov	r1, sp
 8002514:	4805      	ldr	r0, [pc, #20]	; (800252c <MX_TIM2_Init+0x68>)
  sMasterConfig.MasterOutputTrigger = TIM_TRGO_RESET;
 8002516:	9300      	str	r3, [sp, #0]
  sMasterConfig.MasterSlaveMode = TIM_MASTERSLAVEMODE_DISABLE;
 8002518:	9301      	str	r3, [sp, #4]
  if (HAL_TIMEx_MasterConfigSynchronization(&htim2, &sMasterConfig) != HAL_OK)
 800251a:	f002 fffd 	bl	8005518 <HAL_TIMEx_MasterConfigSynchronization>
 800251e:	b108      	cbz	r0, 8002524 <MX_TIM2_Init+0x60>
  {
    Error_Handler();
 8002520:	f7ff fd00 	bl	8001f24 <Error_Handler>
  }

}
 8002524:	b007      	add	sp, #28
 8002526:	f85d fb04 	ldr.w	pc, [sp], #4
 800252a:	bf00      	nop
 800252c:	20000734 	.word	0x20000734

08002530 <MX_TIM4_Init>:
  HAL_TIM_MspPostInit(&htim3);

}
/* TIM4 init function */
void MX_TIM4_Init(void)
{
 8002530:	b57f      	push	{r0, r1, r2, r3, r4, r5, r6, lr}
  TIM_ClockConfigTypeDef sClockSourceConfig = {0};
 8002532:	2210      	movs	r2, #16
 8002534:	2100      	movs	r1, #0
 8002536:	a802      	add	r0, sp, #8
 8002538:	f003 fb36 	bl	8005ba8 <memset>
  TIM_MasterConfigTypeDef sMasterConfig = {0};
 800253c:	2300      	movs	r3, #0

  htim4.Instance = TIM4;
 800253e:	4814      	ldr	r0, [pc, #80]	; (8002590 <MX_TIM4_Init+0x60>)
 8002540:	4a14      	ldr	r2, [pc, #80]	; (8002594 <MX_TIM4_Init+0x64>)
  TIM_MasterConfigTypeDef sMasterConfig = {0};
 8002542:	9300      	str	r3, [sp, #0]
  htim4.Init.Prescaler = 0;
 8002544:	e880 000c 	stmia.w	r0, {r2, r3}
  TIM_MasterConfigTypeDef sMasterConfig = {0};
 8002548:	9301      	str	r3, [sp, #4]
  htim4.Init.CounterMode = TIM_COUNTERMODE_UP;
 800254a:	6083      	str	r3, [r0, #8]
  htim4.Init.Period = 1000;
 800254c:	f44f 727a 	mov.w	r2, #1000	; 0x3e8
  htim4.Init.ClockDivision = TIM_CLOCKDIVISION_DIV1;
 8002550:	6103      	str	r3, [r0, #16]
  htim4.Init.AutoReloadPreload = TIM_AUTORELOAD_PRELOAD_ENABLE;
 8002552:	2380      	movs	r3, #128	; 0x80
  htim4.Init.Period = 1000;
 8002554:	60c2      	str	r2, [r0, #12]
  htim4.Init.AutoReloadPreload = TIM_AUTORELOAD_PRELOAD_ENABLE;
 8002556:	6183      	str	r3, [r0, #24]
  if (HAL_TIM_Base_Init(&htim4) != HAL_OK)
 8002558:	f002 fc86 	bl	8004e68 <HAL_TIM_Base_Init>
 800255c:	b108      	cbz	r0, 8002562 <MX_TIM4_Init+0x32>
  {
    Error_Handler();
 800255e:	f7ff fce1 	bl	8001f24 <Error_Handler>
  }
  sClockSourceConfig.ClockSource = TIM_CLOCKSOURCE_INTERNAL;
 8002562:	f44f 5380 	mov.w	r3, #4096	; 0x1000
  if (HAL_TIM_ConfigClockSource(&htim4, &sClockSourceConfig) != HAL_OK)
 8002566:	a902      	add	r1, sp, #8
 8002568:	4809      	ldr	r0, [pc, #36]	; (8002590 <MX_TIM4_Init+0x60>)
  sClockSourceConfig.ClockSource = TIM_CLOCKSOURCE_INTERNAL;
 800256a:	9302      	str	r3, [sp, #8]
  if (HAL_TIM_ConfigClockSource(&htim4, &sClockSourceConfig) != HAL_OK)
 800256c:	f002 f97c 	bl	8004868 <HAL_TIM_ConfigClockSource>
 8002570:	b108      	cbz	r0, 8002576 <MX_TIM4_Init+0x46>
  {
    Error_Handler();
 8002572:	f7ff fcd7 	bl	8001f24 <Error_Handler>
  }
  sMasterConfig.MasterOutputTrigger = TIM_TRGO_RESET;
 8002576:	2300      	movs	r3, #0
  sMasterConfig.MasterSlaveMode = TIM_MASTERSLAVEMODE_DISABLE;
  if (HAL_TIMEx_MasterConfigSynchronization(&htim4, &sMasterConfig) != HAL_OK)
 8002578:	4669      	mov	r1, sp
 800257a:	4805      	ldr	r0, [pc, #20]	; (8002590 <MX_TIM4_Init+0x60>)
  sMasterConfig.MasterOutputTrigger = TIM_TRGO_RESET;
 800257c:	9300      	str	r3, [sp, #0]
  sMasterConfig.MasterSlaveMode = TIM_MASTERSLAVEMODE_DISABLE;
 800257e:	9301      	str	r3, [sp, #4]
  if (HAL_TIMEx_MasterConfigSynchronization(&htim4, &sMasterConfig) != HAL_OK)
 8002580:	f002 ffca 	bl	8005518 <HAL_TIMEx_MasterConfigSynchronization>
 8002584:	b108      	cbz	r0, 800258a <MX_TIM4_Init+0x5a>
  {
    Error_Handler();
 8002586:	f7ff fccd 	bl	8001f24 <Error_Handler>
  }

}
 800258a:	b007      	add	sp, #28
 800258c:	f85d fb04 	ldr.w	pc, [sp], #4
 8002590:	20000674 	.word	0x20000674
 8002594:	40000800 	.word	0x40000800

08002598 <HAL_TIM_Base_MspInit>:

void HAL_TIM_Base_MspInit(TIM_HandleTypeDef* tim_baseHandle)
{
 8002598:	b51f      	push	{r0, r1, r2, r3, r4, lr}

  if(tim_baseHandle->Instance==TIM1)
 800259a:	6803      	ldr	r3, [r0, #0]
 800259c:	4a2e      	ldr	r2, [pc, #184]	; (8002658 <HAL_TIM_Base_MspInit+0xc0>)
 800259e:	4293      	cmp	r3, r2
 80025a0:	d11c      	bne.n	80025dc <HAL_TIM_Base_MspInit+0x44>
  {
  /* USER CODE BEGIN TIM1_MspInit 0 */

  /* USER CODE END TIM1_MspInit 0 */
    /* TIM1 clock enable */
    __HAL_RCC_TIM1_CLK_ENABLE();
 80025a2:	4b2e      	ldr	r3, [pc, #184]	; (800265c <HAL_TIM_Base_MspInit+0xc4>)

    /* TIM1 interrupt Init */
    HAL_NVIC_SetPriority(TIM1_BRK_IRQn, 0, 0);
 80025a4:	2018      	movs	r0, #24
    __HAL_RCC_TIM1_CLK_ENABLE();
 80025a6:	699a      	ldr	r2, [r3, #24]
 80025a8:	f442 6200 	orr.w	r2, r2, #2048	; 0x800
 80025ac:	619a      	str	r2, [r3, #24]
    HAL_NVIC_SetPriority(TIM1_BRK_IRQn, 0, 0);
 80025ae:	2200      	movs	r2, #0
    __HAL_RCC_TIM1_CLK_ENABLE();
 80025b0:	699b      	ldr	r3, [r3, #24]
    HAL_NVIC_SetPriority(TIM1_BRK_IRQn, 0, 0);
 80025b2:	4611      	mov	r1, r2
    __HAL_RCC_TIM1_CLK_ENABLE();
 80025b4:	f403 6300 	and.w	r3, r3, #2048	; 0x800
 80025b8:	9300      	str	r3, [sp, #0]
 80025ba:	9b00      	ldr	r3, [sp, #0]
    HAL_NVIC_SetPriority(TIM1_BRK_IRQn, 0, 0);
 80025bc:	f000 fdc4 	bl	8003148 <HAL_NVIC_SetPriority>
    HAL_NVIC_EnableIRQ(TIM1_BRK_IRQn);
 80025c0:	2018      	movs	r0, #24
 80025c2:	f000 fe03 	bl	80031cc <HAL_NVIC_EnableIRQ>
    HAL_NVIC_SetPriority(TIM1_UP_IRQn, 0, 0);
 80025c6:	2200      	movs	r2, #0
 80025c8:	2019      	movs	r0, #25
 80025ca:	4611      	mov	r1, r2
 80025cc:	f000 fdbc 	bl	8003148 <HAL_NVIC_SetPriority>
    HAL_NVIC_EnableIRQ(TIM1_UP_IRQn);
 80025d0:	2019      	movs	r0, #25
    /* TIM4 clock enable */
    __HAL_RCC_TIM4_CLK_ENABLE();

    /* TIM4 interrupt Init */
    HAL_NVIC_SetPriority(TIM4_IRQn, 1, 0);
    HAL_NVIC_EnableIRQ(TIM4_IRQn);
 80025d2:	f000 fdfb 	bl	80031cc <HAL_NVIC_EnableIRQ>
  /* USER CODE BEGIN TIM4_MspInit 1 */

  /* USER CODE END TIM4_MspInit 1 */
  }
}
 80025d6:	b005      	add	sp, #20
 80025d8:	f85d fb04 	ldr.w	pc, [sp], #4
  else if(tim_baseHandle->Instance==TIM2)
 80025dc:	f1b3 4f80 	cmp.w	r3, #1073741824	; 0x40000000
 80025e0:	d111      	bne.n	8002606 <HAL_TIM_Base_MspInit+0x6e>
    __HAL_RCC_TIM2_CLK_ENABLE();
 80025e2:	f503 3304 	add.w	r3, r3, #135168	; 0x21000
 80025e6:	69da      	ldr	r2, [r3, #28]
    HAL_NVIC_SetPriority(TIM2_IRQn, 1, 3);
 80025e8:	201c      	movs	r0, #28
    __HAL_RCC_TIM2_CLK_ENABLE();
 80025ea:	f042 0201 	orr.w	r2, r2, #1
 80025ee:	61da      	str	r2, [r3, #28]
 80025f0:	69db      	ldr	r3, [r3, #28]
    HAL_NVIC_SetPriority(TIM2_IRQn, 1, 3);
 80025f2:	2203      	movs	r2, #3
    __HAL_RCC_TIM2_CLK_ENABLE();
 80025f4:	f003 0301 	and.w	r3, r3, #1
 80025f8:	9301      	str	r3, [sp, #4]
    HAL_NVIC_SetPriority(TIM2_IRQn, 1, 3);
 80025fa:	2101      	movs	r1, #1
    __HAL_RCC_TIM2_CLK_ENABLE();
 80025fc:	9b01      	ldr	r3, [sp, #4]
    HAL_NVIC_SetPriority(TIM2_IRQn, 1, 3);
 80025fe:	f000 fda3 	bl	8003148 <HAL_NVIC_SetPriority>
    HAL_NVIC_EnableIRQ(TIM2_IRQn);
 8002602:	201c      	movs	r0, #28
 8002604:	e7e5      	b.n	80025d2 <HAL_TIM_Base_MspInit+0x3a>
  else if(tim_baseHandle->Instance==TIM3)
 8002606:	4a16      	ldr	r2, [pc, #88]	; (8002660 <HAL_TIM_Base_MspInit+0xc8>)
 8002608:	4293      	cmp	r3, r2
 800260a:	d110      	bne.n	800262e <HAL_TIM_Base_MspInit+0x96>
    __HAL_RCC_TIM3_CLK_ENABLE();
 800260c:	4b13      	ldr	r3, [pc, #76]	; (800265c <HAL_TIM_Base_MspInit+0xc4>)
    HAL_NVIC_SetPriority(TIM3_IRQn, 0, 0);
 800260e:	201d      	movs	r0, #29
    __HAL_RCC_TIM3_CLK_ENABLE();
 8002610:	69da      	ldr	r2, [r3, #28]
 8002612:	f042 0202 	orr.w	r2, r2, #2
 8002616:	61da      	str	r2, [r3, #28]
    HAL_NVIC_SetPriority(TIM3_IRQn, 0, 0);
 8002618:	2200      	movs	r2, #0
    __HAL_RCC_TIM3_CLK_ENABLE();
 800261a:	69db      	ldr	r3, [r3, #28]
    HAL_NVIC_SetPriority(TIM3_IRQn, 0, 0);
 800261c:	4611      	mov	r1, r2
    __HAL_RCC_TIM3_CLK_ENABLE();
 800261e:	f003 0302 	and.w	r3, r3, #2
 8002622:	9302      	str	r3, [sp, #8]
 8002624:	9b02      	ldr	r3, [sp, #8]
    HAL_NVIC_SetPriority(TIM3_IRQn, 0, 0);
 8002626:	f000 fd8f 	bl	8003148 <HAL_NVIC_SetPriority>
    HAL_NVIC_EnableIRQ(TIM3_IRQn);
 800262a:	201d      	movs	r0, #29
 800262c:	e7d1      	b.n	80025d2 <HAL_TIM_Base_MspInit+0x3a>
  else if(tim_baseHandle->Instance==TIM4)
 800262e:	4a0d      	ldr	r2, [pc, #52]	; (8002664 <HAL_TIM_Base_MspInit+0xcc>)
 8002630:	4293      	cmp	r3, r2
 8002632:	d1d0      	bne.n	80025d6 <HAL_TIM_Base_MspInit+0x3e>
    __HAL_RCC_TIM4_CLK_ENABLE();
 8002634:	4b09      	ldr	r3, [pc, #36]	; (800265c <HAL_TIM_Base_MspInit+0xc4>)
    HAL_NVIC_SetPriority(TIM4_IRQn, 1, 0);
 8002636:	201e      	movs	r0, #30
    __HAL_RCC_TIM4_CLK_ENABLE();
 8002638:	69da      	ldr	r2, [r3, #28]
    HAL_NVIC_SetPriority(TIM4_IRQn, 1, 0);
 800263a:	2101      	movs	r1, #1
    __HAL_RCC_TIM4_CLK_ENABLE();
 800263c:	f042 0204 	orr.w	r2, r2, #4
 8002640:	61da      	str	r2, [r3, #28]
 8002642:	69db      	ldr	r3, [r3, #28]
    HAL_NVIC_SetPriority(TIM4_IRQn, 1, 0);
 8002644:	2200      	movs	r2, #0
    __HAL_RCC_TIM4_CLK_ENABLE();
 8002646:	f003 0304 	and.w	r3, r3, #4
 800264a:	9303      	str	r3, [sp, #12]
 800264c:	9b03      	ldr	r3, [sp, #12]
    HAL_NVIC_SetPriority(TIM4_IRQn, 1, 0);
 800264e:	f000 fd7b 	bl	8003148 <HAL_NVIC_SetPriority>
    HAL_NVIC_EnableIRQ(TIM4_IRQn);
 8002652:	201e      	movs	r0, #30
 8002654:	e7bd      	b.n	80025d2 <HAL_TIM_Base_MspInit+0x3a>
 8002656:	bf00      	nop
 8002658:	40012c00 	.word	0x40012c00
 800265c:	40021000 	.word	0x40021000
 8002660:	40000400 	.word	0x40000400
 8002664:	40000800 	.word	0x40000800

08002668 <HAL_TIM_MspPostInit>:
void HAL_TIM_MspPostInit(TIM_HandleTypeDef* timHandle)
{

  GPIO_InitTypeDef GPIO_InitStruct = {0};
 8002668:	2210      	movs	r2, #16
{
 800266a:	b530      	push	{r4, r5, lr}
 800266c:	4604      	mov	r4, r0
 800266e:	b089      	sub	sp, #36	; 0x24
  GPIO_InitTypeDef GPIO_InitStruct = {0};
 8002670:	eb0d 0002 	add.w	r0, sp, r2
 8002674:	2100      	movs	r1, #0
 8002676:	f003 fa97 	bl	8005ba8 <memset>
  if(timHandle->Instance==TIM1)
 800267a:	6823      	ldr	r3, [r4, #0]
 800267c:	4a25      	ldr	r2, [pc, #148]	; (8002714 <HAL_TIM_MspPostInit+0xac>)
 800267e:	4293      	cmp	r3, r2
 8002680:	d12f      	bne.n	80026e2 <HAL_TIM_MspPostInit+0x7a>
    __HAL_RCC_GPIOA_CLK_ENABLE();
    /**TIM1 GPIO Configuration    
    PB1     ------> TIM1_CH3N
    PA10     ------> TIM1_CH3 
    */
    GPIO_InitStruct.Pin = CH4_Pin;
 8002682:	2402      	movs	r4, #2
    GPIO_InitStruct.Mode = GPIO_MODE_AF_PP;
    GPIO_InitStruct.Speed = GPIO_SPEED_FREQ_HIGH;
 8002684:	2503      	movs	r5, #3
    __HAL_RCC_GPIOB_CLK_ENABLE();
 8002686:	4b24      	ldr	r3, [pc, #144]	; (8002718 <HAL_TIM_MspPostInit+0xb0>)
    HAL_GPIO_Init(CH4_GPIO_Port, &GPIO_InitStruct);
 8002688:	a904      	add	r1, sp, #16
    __HAL_RCC_GPIOB_CLK_ENABLE();
 800268a:	699a      	ldr	r2, [r3, #24]
    HAL_GPIO_Init(CH4_GPIO_Port, &GPIO_InitStruct);
 800268c:	4823      	ldr	r0, [pc, #140]	; (800271c <HAL_TIM_MspPostInit+0xb4>)
    __HAL_RCC_GPIOB_CLK_ENABLE();
 800268e:	f042 0208 	orr.w	r2, r2, #8
 8002692:	619a      	str	r2, [r3, #24]
 8002694:	699a      	ldr	r2, [r3, #24]
 8002696:	f002 0208 	and.w	r2, r2, #8
 800269a:	9201      	str	r2, [sp, #4]
 800269c:	9a01      	ldr	r2, [sp, #4]
    __HAL_RCC_GPIOA_CLK_ENABLE();
 800269e:	699a      	ldr	r2, [r3, #24]
 80026a0:	f042 0204 	orr.w	r2, r2, #4
 80026a4:	619a      	str	r2, [r3, #24]
 80026a6:	699b      	ldr	r3, [r3, #24]
    GPIO_InitStruct.Pin = CH4_Pin;
 80026a8:	9404      	str	r4, [sp, #16]
    __HAL_RCC_GPIOA_CLK_ENABLE();
 80026aa:	f003 0304 	and.w	r3, r3, #4
 80026ae:	9302      	str	r3, [sp, #8]
 80026b0:	9b02      	ldr	r3, [sp, #8]
    GPIO_InitStruct.Mode = GPIO_MODE_AF_PP;
 80026b2:	9405      	str	r4, [sp, #20]
    GPIO_InitStruct.Speed = GPIO_SPEED_FREQ_HIGH;
 80026b4:	9507      	str	r5, [sp, #28]
    HAL_GPIO_Init(CH4_GPIO_Port, &GPIO_InitStruct);
 80026b6:	f001 f9b9 	bl	8003a2c <HAL_GPIO_Init>

    GPIO_InitStruct.Pin = CH3_Pin;
 80026ba:	f44f 6380 	mov.w	r3, #1024	; 0x400
    GPIO_InitStruct.Mode = GPIO_MODE_AF_PP;
    GPIO_InitStruct.Speed = GPIO_SPEED_FREQ_HIGH;
    HAL_GPIO_Init(CH3_GPIO_Port, &GPIO_InitStruct);
 80026be:	a904      	add	r1, sp, #16
 80026c0:	4817      	ldr	r0, [pc, #92]	; (8002720 <HAL_TIM_MspPostInit+0xb8>)
    GPIO_InitStruct.Pin = CH3_Pin;
 80026c2:	9304      	str	r3, [sp, #16]
    GPIO_InitStruct.Mode = GPIO_MODE_AF_PP;
 80026c4:	9405      	str	r4, [sp, #20]
    GPIO_InitStruct.Speed = GPIO_SPEED_FREQ_HIGH;
 80026c6:	9507      	str	r5, [sp, #28]
    HAL_GPIO_Init(CH3_GPIO_Port, &GPIO_InitStruct);
 80026c8:	f001 f9b0 	bl	8003a2c <HAL_GPIO_Init>

    __HAL_AFIO_REMAP_TIM1_PARTIAL();
 80026cc:	4a15      	ldr	r2, [pc, #84]	; (8002724 <HAL_TIM_MspPostInit+0xbc>)
 80026ce:	6853      	ldr	r3, [r2, #4]
 80026d0:	f023 03c0 	bic.w	r3, r3, #192	; 0xc0
 80026d4:	f043 63e0 	orr.w	r3, r3, #117440512	; 0x7000000
 80026d8:	f043 0340 	orr.w	r3, r3, #64	; 0x40
 80026dc:	6053      	str	r3, [r2, #4]
  /* USER CODE BEGIN TIM3_MspPostInit 1 */

  /* USER CODE END TIM3_MspPostInit 1 */
  }

}
 80026de:	b009      	add	sp, #36	; 0x24
 80026e0:	bd30      	pop	{r4, r5, pc}
  else if(timHandle->Instance==TIM3)
 80026e2:	4a11      	ldr	r2, [pc, #68]	; (8002728 <HAL_TIM_MspPostInit+0xc0>)
 80026e4:	4293      	cmp	r3, r2
 80026e6:	d1fa      	bne.n	80026de <HAL_TIM_MspPostInit+0x76>
    __HAL_RCC_GPIOA_CLK_ENABLE();
 80026e8:	4b0b      	ldr	r3, [pc, #44]	; (8002718 <HAL_TIM_MspPostInit+0xb0>)
    HAL_GPIO_Init(GPIOA, &GPIO_InitStruct);
 80026ea:	a904      	add	r1, sp, #16
    __HAL_RCC_GPIOA_CLK_ENABLE();
 80026ec:	699a      	ldr	r2, [r3, #24]
    HAL_GPIO_Init(GPIOA, &GPIO_InitStruct);
 80026ee:	480c      	ldr	r0, [pc, #48]	; (8002720 <HAL_TIM_MspPostInit+0xb8>)
    __HAL_RCC_GPIOA_CLK_ENABLE();
 80026f0:	f042 0204 	orr.w	r2, r2, #4
 80026f4:	619a      	str	r2, [r3, #24]
 80026f6:	699b      	ldr	r3, [r3, #24]
 80026f8:	f003 0304 	and.w	r3, r3, #4
 80026fc:	9303      	str	r3, [sp, #12]
 80026fe:	9b03      	ldr	r3, [sp, #12]
    GPIO_InitStruct.Pin = CH1_Pin|CH2_Pin;
 8002700:	23c0      	movs	r3, #192	; 0xc0
 8002702:	9304      	str	r3, [sp, #16]
    GPIO_InitStruct.Mode = GPIO_MODE_AF_PP;
 8002704:	2302      	movs	r3, #2
 8002706:	9305      	str	r3, [sp, #20]
    GPIO_InitStruct.Speed = GPIO_SPEED_FREQ_HIGH;
 8002708:	2303      	movs	r3, #3
 800270a:	9307      	str	r3, [sp, #28]
    HAL_GPIO_Init(GPIOA, &GPIO_InitStruct);
 800270c:	f001 f98e 	bl	8003a2c <HAL_GPIO_Init>
}
 8002710:	e7e5      	b.n	80026de <HAL_TIM_MspPostInit+0x76>
 8002712:	bf00      	nop
 8002714:	40012c00 	.word	0x40012c00
 8002718:	40021000 	.word	0x40021000
 800271c:	40010c00 	.word	0x40010c00
 8002720:	40010800 	.word	0x40010800
 8002724:	40010000 	.word	0x40010000
 8002728:	40000400 	.word	0x40000400

0800272c <MX_TIM1_Init>:
{
 800272c:	b510      	push	{r4, lr}
  TIM_MasterConfigTypeDef sMasterConfig = {0};
 800272e:	2400      	movs	r4, #0
{
 8002730:	b094      	sub	sp, #80	; 0x50
  TIM_ClockConfigTypeDef sClockSourceConfig = {0};
 8002732:	2210      	movs	r2, #16
 8002734:	2100      	movs	r1, #0
 8002736:	a802      	add	r0, sp, #8
 8002738:	f003 fa36 	bl	8005ba8 <memset>
  TIM_OC_InitTypeDef sConfigOC = {0};
 800273c:	221c      	movs	r2, #28
 800273e:	4621      	mov	r1, r4
 8002740:	a806      	add	r0, sp, #24
  TIM_MasterConfigTypeDef sMasterConfig = {0};
 8002742:	9400      	str	r4, [sp, #0]
 8002744:	9401      	str	r4, [sp, #4]
  TIM_OC_InitTypeDef sConfigOC = {0};
 8002746:	f003 fa2f 	bl	8005ba8 <memset>
  TIM_BreakDeadTimeConfigTypeDef sBreakDeadTimeConfig = {0};
 800274a:	221c      	movs	r2, #28
 800274c:	4621      	mov	r1, r4
 800274e:	a80d      	add	r0, sp, #52	; 0x34
 8002750:	f003 fa2a 	bl	8005ba8 <memset>
  htim1.Init.Prescaler = 1439;
 8002754:	f240 539f 	movw	r3, #1439	; 0x59f
  htim1.Instance = TIM1;
 8002758:	482a      	ldr	r0, [pc, #168]	; (8002804 <MX_TIM1_Init+0xd8>)
  htim1.Init.Prescaler = 1439;
 800275a:	4a2b      	ldr	r2, [pc, #172]	; (8002808 <MX_TIM1_Init+0xdc>)
  htim1.Init.CounterMode = TIM_COUNTERMODE_UP;
 800275c:	6084      	str	r4, [r0, #8]
  htim1.Init.Prescaler = 1439;
 800275e:	e880 000c 	stmia.w	r0, {r2, r3}
  htim1.Init.Period = 1000;
 8002762:	f44f 737a 	mov.w	r3, #1000	; 0x3e8
 8002766:	60c3      	str	r3, [r0, #12]
  htim1.Init.AutoReloadPreload = TIM_AUTORELOAD_PRELOAD_ENABLE;
 8002768:	2380      	movs	r3, #128	; 0x80
  htim1.Init.ClockDivision = TIM_CLOCKDIVISION_DIV1;
 800276a:	6104      	str	r4, [r0, #16]
  htim1.Init.RepetitionCounter = 0;
 800276c:	6144      	str	r4, [r0, #20]
  htim1.Init.AutoReloadPreload = TIM_AUTORELOAD_PRELOAD_ENABLE;
 800276e:	6183      	str	r3, [r0, #24]
  if (HAL_TIM_Base_Init(&htim1) != HAL_OK)
 8002770:	f002 fb7a 	bl	8004e68 <HAL_TIM_Base_Init>
 8002774:	b108      	cbz	r0, 800277a <MX_TIM1_Init+0x4e>
    Error_Handler();
 8002776:	f7ff fbd5 	bl	8001f24 <Error_Handler>
  sClockSourceConfig.ClockSource = TIM_CLOCKSOURCE_INTERNAL;
 800277a:	f44f 5380 	mov.w	r3, #4096	; 0x1000
  if (HAL_TIM_ConfigClockSource(&htim1, &sClockSourceConfig) != HAL_OK)
 800277e:	a902      	add	r1, sp, #8
 8002780:	4820      	ldr	r0, [pc, #128]	; (8002804 <MX_TIM1_Init+0xd8>)
  sClockSourceConfig.ClockSource = TIM_CLOCKSOURCE_INTERNAL;
 8002782:	9302      	str	r3, [sp, #8]
  if (HAL_TIM_ConfigClockSource(&htim1, &sClockSourceConfig) != HAL_OK)
 8002784:	f002 f870 	bl	8004868 <HAL_TIM_ConfigClockSource>
 8002788:	b108      	cbz	r0, 800278e <MX_TIM1_Init+0x62>
    Error_Handler();
 800278a:	f7ff fbcb 	bl	8001f24 <Error_Handler>
  if (HAL_TIM_OC_Init(&htim1) != HAL_OK)
 800278e:	481d      	ldr	r0, [pc, #116]	; (8002804 <MX_TIM1_Init+0xd8>)
 8002790:	f002 fbbe 	bl	8004f10 <HAL_TIM_OC_Init>
 8002794:	b108      	cbz	r0, 800279a <MX_TIM1_Init+0x6e>
    Error_Handler();
 8002796:	f7ff fbc5 	bl	8001f24 <Error_Handler>
  sMasterConfig.MasterOutputTrigger = TIM_TRGO_RESET;
 800279a:	2400      	movs	r4, #0
  if (HAL_TIMEx_MasterConfigSynchronization(&htim1, &sMasterConfig) != HAL_OK)
 800279c:	4669      	mov	r1, sp
 800279e:	4819      	ldr	r0, [pc, #100]	; (8002804 <MX_TIM1_Init+0xd8>)
  sMasterConfig.MasterOutputTrigger = TIM_TRGO_RESET;
 80027a0:	9400      	str	r4, [sp, #0]
  sMasterConfig.MasterSlaveMode = TIM_MASTERSLAVEMODE_DISABLE;
 80027a2:	9401      	str	r4, [sp, #4]
  if (HAL_TIMEx_MasterConfigSynchronization(&htim1, &sMasterConfig) != HAL_OK)
 80027a4:	f002 feb8 	bl	8005518 <HAL_TIMEx_MasterConfigSynchronization>
 80027a8:	b108      	cbz	r0, 80027ae <MX_TIM1_Init+0x82>
    Error_Handler();
 80027aa:	f7ff fbbb 	bl	8001f24 <Error_Handler>
  sConfigOC.Pulse = 500;
 80027ae:	f44f 73fa 	mov.w	r3, #500	; 0x1f4
 80027b2:	9307      	str	r3, [sp, #28]
  sConfigOC.OCIdleState = TIM_OCIDLESTATE_SET;
 80027b4:	f44f 7380 	mov.w	r3, #256	; 0x100
  if (HAL_TIM_OC_ConfigChannel(&htim1, &sConfigOC, TIM_CHANNEL_3) != HAL_OK)
 80027b8:	2208      	movs	r2, #8
 80027ba:	a906      	add	r1, sp, #24
 80027bc:	4811      	ldr	r0, [pc, #68]	; (8002804 <MX_TIM1_Init+0xd8>)
  sConfigOC.OCMode = TIM_OCMODE_TIMING;
 80027be:	9406      	str	r4, [sp, #24]
  sConfigOC.OCPolarity = TIM_OCPOLARITY_HIGH;
 80027c0:	9408      	str	r4, [sp, #32]
  sConfigOC.OCNPolarity = TIM_OCNPOLARITY_HIGH;
 80027c2:	9409      	str	r4, [sp, #36]	; 0x24
  sConfigOC.OCFastMode = TIM_OCFAST_DISABLE;
 80027c4:	940a      	str	r4, [sp, #40]	; 0x28
  sConfigOC.OCIdleState = TIM_OCIDLESTATE_SET;
 80027c6:	930b      	str	r3, [sp, #44]	; 0x2c
  sConfigOC.OCNIdleState = TIM_OCIDLESTATE_SET;
 80027c8:	930c      	str	r3, [sp, #48]	; 0x30
  if (HAL_TIM_OC_ConfigChannel(&htim1, &sConfigOC, TIM_CHANNEL_3) != HAL_OK)
 80027ca:	f002 fc9f 	bl	800510c <HAL_TIM_OC_ConfigChannel>
 80027ce:	b108      	cbz	r0, 80027d4 <MX_TIM1_Init+0xa8>
    Error_Handler();
 80027d0:	f7ff fba8 	bl	8001f24 <Error_Handler>
  sBreakDeadTimeConfig.DeadTime = 0b01011111;
 80027d4:	225f      	movs	r2, #95	; 0x5f
  sBreakDeadTimeConfig.OffStateRunMode = TIM_OSSR_DISABLE;
 80027d6:	2300      	movs	r3, #0
  sBreakDeadTimeConfig.DeadTime = 0b01011111;
 80027d8:	9210      	str	r2, [sp, #64]	; 0x40
  sBreakDeadTimeConfig.BreakPolarity = TIM_BREAKPOLARITY_HIGH;
 80027da:	f44f 5200 	mov.w	r2, #8192	; 0x2000
  if (HAL_TIMEx_ConfigBreakDeadTime(&htim1, &sBreakDeadTimeConfig) != HAL_OK)
 80027de:	a90d      	add	r1, sp, #52	; 0x34
 80027e0:	4808      	ldr	r0, [pc, #32]	; (8002804 <MX_TIM1_Init+0xd8>)
  sBreakDeadTimeConfig.OffStateRunMode = TIM_OSSR_DISABLE;
 80027e2:	930d      	str	r3, [sp, #52]	; 0x34
  sBreakDeadTimeConfig.OffStateIDLEMode = TIM_OSSI_DISABLE;
 80027e4:	930e      	str	r3, [sp, #56]	; 0x38
  sBreakDeadTimeConfig.LockLevel = TIM_LOCKLEVEL_OFF;
 80027e6:	930f      	str	r3, [sp, #60]	; 0x3c
  sBreakDeadTimeConfig.BreakState = TIM_BREAK_DISABLE;
 80027e8:	9311      	str	r3, [sp, #68]	; 0x44
  sBreakDeadTimeConfig.BreakPolarity = TIM_BREAKPOLARITY_HIGH;
 80027ea:	9212      	str	r2, [sp, #72]	; 0x48
  sBreakDeadTimeConfig.AutomaticOutput = TIM_AUTOMATICOUTPUT_DISABLE;
 80027ec:	9313      	str	r3, [sp, #76]	; 0x4c
  if (HAL_TIMEx_ConfigBreakDeadTime(&htim1, &sBreakDeadTimeConfig) != HAL_OK)
 80027ee:	f002 fe1f 	bl	8005430 <HAL_TIMEx_ConfigBreakDeadTime>
 80027f2:	b108      	cbz	r0, 80027f8 <MX_TIM1_Init+0xcc>
    Error_Handler();
 80027f4:	f7ff fb96 	bl	8001f24 <Error_Handler>
  HAL_TIM_MspPostInit(&htim1);
 80027f8:	4802      	ldr	r0, [pc, #8]	; (8002804 <MX_TIM1_Init+0xd8>)
 80027fa:	f7ff ff35 	bl	8002668 <HAL_TIM_MspPostInit>
}
 80027fe:	b014      	add	sp, #80	; 0x50
 8002800:	bd10      	pop	{r4, pc}
 8002802:	bf00      	nop
 8002804:	200006f4 	.word	0x200006f4
 8002808:	40012c00 	.word	0x40012c00

0800280c <MX_TIM3_Init>:
{
 800280c:	b510      	push	{r4, lr}
 800280e:	b08e      	sub	sp, #56	; 0x38
  TIM_ClockConfigTypeDef sClockSourceConfig = {0};
 8002810:	2210      	movs	r2, #16
 8002812:	2100      	movs	r1, #0
 8002814:	a803      	add	r0, sp, #12
 8002816:	f003 f9c7 	bl	8005ba8 <memset>
  TIM_MasterConfigTypeDef sMasterConfig = {0};
 800281a:	2400      	movs	r4, #0
  TIM_OC_InitTypeDef sConfigOC = {0};
 800281c:	221c      	movs	r2, #28
 800281e:	4621      	mov	r1, r4
 8002820:	eb0d 0002 	add.w	r0, sp, r2
  TIM_MasterConfigTypeDef sMasterConfig = {0};
 8002824:	9401      	str	r4, [sp, #4]
 8002826:	9402      	str	r4, [sp, #8]
  TIM_OC_InitTypeDef sConfigOC = {0};
 8002828:	f003 f9be 	bl	8005ba8 <memset>
  htim3.Instance = TIM3;
 800282c:	4821      	ldr	r0, [pc, #132]	; (80028b4 <MX_TIM3_Init+0xa8>)
 800282e:	4b22      	ldr	r3, [pc, #136]	; (80028b8 <MX_TIM3_Init+0xac>)
  htim3.Init.CounterMode = TIM_COUNTERMODE_UP;
 8002830:	6084      	str	r4, [r0, #8]
  htim3.Init.Prescaler = 0;
 8002832:	e880 0018 	stmia.w	r0, {r3, r4}
  htim3.Init.Period = 1000;
 8002836:	f44f 737a 	mov.w	r3, #1000	; 0x3e8
 800283a:	60c3      	str	r3, [r0, #12]
  htim3.Init.AutoReloadPreload = TIM_AUTORELOAD_PRELOAD_ENABLE;
 800283c:	2380      	movs	r3, #128	; 0x80
  htim3.Init.ClockDivision = TIM_CLOCKDIVISION_DIV1;
 800283e:	6104      	str	r4, [r0, #16]
  htim3.Init.AutoReloadPreload = TIM_AUTORELOAD_PRELOAD_ENABLE;
 8002840:	6183      	str	r3, [r0, #24]
  if (HAL_TIM_Base_Init(&htim3) != HAL_OK)
 8002842:	f002 fb11 	bl	8004e68 <HAL_TIM_Base_Init>
 8002846:	b108      	cbz	r0, 800284c <MX_TIM3_Init+0x40>
    Error_Handler();
 8002848:	f7ff fb6c 	bl	8001f24 <Error_Handler>
  sClockSourceConfig.ClockSource = TIM_CLOCKSOURCE_INTERNAL;
 800284c:	f44f 5380 	mov.w	r3, #4096	; 0x1000
  if (HAL_TIM_ConfigClockSource(&htim3, &sClockSourceConfig) != HAL_OK)
 8002850:	a903      	add	r1, sp, #12
 8002852:	4818      	ldr	r0, [pc, #96]	; (80028b4 <MX_TIM3_Init+0xa8>)
  sClockSourceConfig.ClockSource = TIM_CLOCKSOURCE_INTERNAL;
 8002854:	9303      	str	r3, [sp, #12]
  if (HAL_TIM_ConfigClockSource(&htim3, &sClockSourceConfig) != HAL_OK)
 8002856:	f002 f807 	bl	8004868 <HAL_TIM_ConfigClockSource>
 800285a:	b108      	cbz	r0, 8002860 <MX_TIM3_Init+0x54>
    Error_Handler();
 800285c:	f7ff fb62 	bl	8001f24 <Error_Handler>
  if (HAL_TIM_PWM_Init(&htim3) != HAL_OK)
 8002860:	4814      	ldr	r0, [pc, #80]	; (80028b4 <MX_TIM3_Init+0xa8>)
 8002862:	f002 fbad 	bl	8004fc0 <HAL_TIM_PWM_Init>
 8002866:	b108      	cbz	r0, 800286c <MX_TIM3_Init+0x60>
    Error_Handler();
 8002868:	f7ff fb5c 	bl	8001f24 <Error_Handler>
  sMasterConfig.MasterOutputTrigger = TIM_TRGO_RESET;
 800286c:	2400      	movs	r4, #0
  if (HAL_TIMEx_MasterConfigSynchronization(&htim3, &sMasterConfig) != HAL_OK)
 800286e:	a901      	add	r1, sp, #4
 8002870:	4810      	ldr	r0, [pc, #64]	; (80028b4 <MX_TIM3_Init+0xa8>)
  sMasterConfig.MasterOutputTrigger = TIM_TRGO_RESET;
 8002872:	9401      	str	r4, [sp, #4]
  sMasterConfig.MasterSlaveMode = TIM_MASTERSLAVEMODE_DISABLE;
 8002874:	9402      	str	r4, [sp, #8]
  if (HAL_TIMEx_MasterConfigSynchronization(&htim3, &sMasterConfig) != HAL_OK)
 8002876:	f002 fe4f 	bl	8005518 <HAL_TIMEx_MasterConfigSynchronization>
 800287a:	b108      	cbz	r0, 8002880 <MX_TIM3_Init+0x74>
    Error_Handler();
 800287c:	f7ff fb52 	bl	8001f24 <Error_Handler>
  sConfigOC.OCMode = TIM_OCMODE_PWM1;
 8002880:	2360      	movs	r3, #96	; 0x60
  if (HAL_TIM_PWM_ConfigChannel(&htim3, &sConfigOC, TIM_CHANNEL_1) != HAL_OK)
 8002882:	2200      	movs	r2, #0
 8002884:	a907      	add	r1, sp, #28
 8002886:	480b      	ldr	r0, [pc, #44]	; (80028b4 <MX_TIM3_Init+0xa8>)
  sConfigOC.OCMode = TIM_OCMODE_PWM1;
 8002888:	9307      	str	r3, [sp, #28]
  sConfigOC.Pulse = 0;
 800288a:	9408      	str	r4, [sp, #32]
  sConfigOC.OCPolarity = TIM_OCPOLARITY_HIGH;
 800288c:	9409      	str	r4, [sp, #36]	; 0x24
  sConfigOC.OCFastMode = TIM_OCFAST_DISABLE;
 800288e:	940b      	str	r4, [sp, #44]	; 0x2c
  if (HAL_TIM_PWM_ConfigChannel(&htim3, &sConfigOC, TIM_CHANNEL_1) != HAL_OK)
 8002890:	f002 fce6 	bl	8005260 <HAL_TIM_PWM_ConfigChannel>
 8002894:	b108      	cbz	r0, 800289a <MX_TIM3_Init+0x8e>
    Error_Handler();
 8002896:	f7ff fb45 	bl	8001f24 <Error_Handler>
  if (HAL_TIM_PWM_ConfigChannel(&htim3, &sConfigOC, TIM_CHANNEL_2) != HAL_OK)
 800289a:	2204      	movs	r2, #4
 800289c:	a907      	add	r1, sp, #28
 800289e:	4805      	ldr	r0, [pc, #20]	; (80028b4 <MX_TIM3_Init+0xa8>)
 80028a0:	f002 fcde 	bl	8005260 <HAL_TIM_PWM_ConfigChannel>
 80028a4:	b108      	cbz	r0, 80028aa <MX_TIM3_Init+0x9e>
    Error_Handler();
 80028a6:	f7ff fb3d 	bl	8001f24 <Error_Handler>
  HAL_TIM_MspPostInit(&htim3);
 80028aa:	4802      	ldr	r0, [pc, #8]	; (80028b4 <MX_TIM3_Init+0xa8>)
 80028ac:	f7ff fedc 	bl	8002668 <HAL_TIM_MspPostInit>
}
 80028b0:	b00e      	add	sp, #56	; 0x38
 80028b2:	bd10      	pop	{r4, pc}
 80028b4:	200006b4 	.word	0x200006b4
 80028b8:	40000400 	.word	0x40000400

080028bc <MX_USART1_UART_Init>:
DMA_HandleTypeDef hdma_usart1_tx;

/* USART1 init function */

void MX_USART1_UART_Init(void)
{
 80028bc:	b508      	push	{r3, lr}

  huart1.Instance = USART1;
  huart1.Init.BaudRate = 115200;
 80028be:	f44f 3ee1 	mov.w	lr, #115200	; 0x1c200
  huart1.Instance = USART1;
 80028c2:	480a      	ldr	r0, [pc, #40]	; (80028ec <MX_USART1_UART_Init+0x30>)
  huart1.Init.BaudRate = 115200;
 80028c4:	4b0a      	ldr	r3, [pc, #40]	; (80028f0 <MX_USART1_UART_Init+0x34>)
  huart1.Init.WordLength = UART_WORDLENGTH_8B;
  huart1.Init.StopBits = UART_STOPBITS_1;
  huart1.Init.Parity = UART_PARITY_NONE;
  huart1.Init.Mode = UART_MODE_TX_RX;
 80028c6:	220c      	movs	r2, #12
  huart1.Init.BaudRate = 115200;
 80028c8:	e880 4008 	stmia.w	r0, {r3, lr}
  huart1.Init.WordLength = UART_WORDLENGTH_8B;
 80028cc:	2300      	movs	r3, #0
  huart1.Init.Mode = UART_MODE_TX_RX;
 80028ce:	6142      	str	r2, [r0, #20]
  huart1.Init.WordLength = UART_WORDLENGTH_8B;
 80028d0:	6083      	str	r3, [r0, #8]
  huart1.Init.StopBits = UART_STOPBITS_1;
 80028d2:	60c3      	str	r3, [r0, #12]
  huart1.Init.Parity = UART_PARITY_NONE;
 80028d4:	6103      	str	r3, [r0, #16]
  huart1.Init.HwFlowCtl = UART_HWCONTROL_NONE;
 80028d6:	6183      	str	r3, [r0, #24]
  huart1.Init.OverSampling = UART_OVERSAMPLING_16;
 80028d8:	61c3      	str	r3, [r0, #28]
  if (HAL_UART_Init(&huart1) != HAL_OK)
 80028da:	f002 ff4d 	bl	8005778 <HAL_UART_Init>
 80028de:	b118      	cbz	r0, 80028e8 <MX_USART1_UART_Init+0x2c>
  {
    Error_Handler();
  }

}
 80028e0:	e8bd 4008 	ldmia.w	sp!, {r3, lr}
    Error_Handler();
 80028e4:	f7ff bb1e 	b.w	8001f24 <Error_Handler>
 80028e8:	bd08      	pop	{r3, pc}
 80028ea:	bf00      	nop
 80028ec:	200007b8 	.word	0x200007b8
 80028f0:	40013800 	.word	0x40013800

080028f4 <HAL_UART_MspInit>:

void HAL_UART_MspInit(UART_HandleTypeDef* uartHandle)
{
 80028f4:	e92d 41f0 	stmdb	sp!, {r4, r5, r6, r7, r8, lr}

  GPIO_InitTypeDef GPIO_InitStruct = {0};
 80028f8:	2710      	movs	r7, #16
{
 80028fa:	4606      	mov	r6, r0
 80028fc:	b086      	sub	sp, #24
  GPIO_InitTypeDef GPIO_InitStruct = {0};
 80028fe:	463a      	mov	r2, r7
 8002900:	2100      	movs	r1, #0
 8002902:	a802      	add	r0, sp, #8
 8002904:	f003 f950 	bl	8005ba8 <memset>
  if(uartHandle->Instance==USART1)
 8002908:	6832      	ldr	r2, [r6, #0]
 800290a:	4b28      	ldr	r3, [pc, #160]	; (80029ac <HAL_UART_MspInit+0xb8>)
 800290c:	429a      	cmp	r2, r3
 800290e:	d14a      	bne.n	80029a6 <HAL_UART_MspInit+0xb2>
  {
  /* USER CODE BEGIN USART1_MspInit 0 */

  /* USER CODE END USART1_MspInit 0 */
    /* USART1 clock enable */
    __HAL_RCC_USART1_CLK_ENABLE();
 8002910:	f503 4358 	add.w	r3, r3, #55296	; 0xd800
 8002914:	699a      	ldr	r2, [r3, #24]
    GPIO_InitStruct.Mode = GPIO_MODE_AF_PP;
    GPIO_InitStruct.Speed = GPIO_SPEED_FREQ_HIGH;
    HAL_GPIO_Init(TX_GPIO_Port, &GPIO_InitStruct);

    GPIO_InitStruct.Pin = RX_Pin;
    GPIO_InitStruct.Mode = GPIO_MODE_INPUT;
 8002916:	2500      	movs	r5, #0
    __HAL_RCC_USART1_CLK_ENABLE();
 8002918:	f442 4280 	orr.w	r2, r2, #16384	; 0x4000
 800291c:	619a      	str	r2, [r3, #24]
 800291e:	699a      	ldr	r2, [r3, #24]
    GPIO_InitStruct.Pin = RX_Pin;
 8002920:	f04f 0880 	mov.w	r8, #128	; 0x80
    __HAL_RCC_USART1_CLK_ENABLE();
 8002924:	f402 4280 	and.w	r2, r2, #16384	; 0x4000
 8002928:	9200      	str	r2, [sp, #0]
 800292a:	9a00      	ldr	r2, [sp, #0]
    __HAL_RCC_GPIOB_CLK_ENABLE();
 800292c:	699a      	ldr	r2, [r3, #24]
    HAL_GPIO_Init(TX_GPIO_Port, &GPIO_InitStruct);
 800292e:	a902      	add	r1, sp, #8
    __HAL_RCC_GPIOB_CLK_ENABLE();
 8002930:	f042 0208 	orr.w	r2, r2, #8
 8002934:	619a      	str	r2, [r3, #24]
 8002936:	699b      	ldr	r3, [r3, #24]
    HAL_GPIO_Init(TX_GPIO_Port, &GPIO_InitStruct);
 8002938:	481d      	ldr	r0, [pc, #116]	; (80029b0 <HAL_UART_MspInit+0xbc>)
    __HAL_RCC_GPIOB_CLK_ENABLE();
 800293a:	f003 0308 	and.w	r3, r3, #8
 800293e:	9301      	str	r3, [sp, #4]
 8002940:	9b01      	ldr	r3, [sp, #4]
    GPIO_InitStruct.Pin = TX_Pin;
 8002942:	2340      	movs	r3, #64	; 0x40
 8002944:	9302      	str	r3, [sp, #8]
    GPIO_InitStruct.Mode = GPIO_MODE_AF_PP;
 8002946:	2302      	movs	r3, #2
 8002948:	9303      	str	r3, [sp, #12]
    GPIO_InitStruct.Speed = GPIO_SPEED_FREQ_HIGH;
 800294a:	2303      	movs	r3, #3
 800294c:	9305      	str	r3, [sp, #20]
    HAL_GPIO_Init(TX_GPIO_Port, &GPIO_InitStruct);
 800294e:	f001 f86d 	bl	8003a2c <HAL_GPIO_Init>
    GPIO_InitStruct.Pull = GPIO_NOPULL;
    HAL_GPIO_Init(RX_GPIO_Port, &GPIO_InitStruct);
 8002952:	4817      	ldr	r0, [pc, #92]	; (80029b0 <HAL_UART_MspInit+0xbc>)
 8002954:	a902      	add	r1, sp, #8
    GPIO_InitStruct.Pin = RX_Pin;
 8002956:	f8cd 8008 	str.w	r8, [sp, #8]
    GPIO_InitStruct.Mode = GPIO_MODE_INPUT;
 800295a:	9503      	str	r5, [sp, #12]
    GPIO_InitStruct.Pull = GPIO_NOPULL;
 800295c:	9504      	str	r5, [sp, #16]
    HAL_GPIO_Init(RX_GPIO_Port, &GPIO_InitStruct);
 800295e:	f001 f865 	bl	8003a2c <HAL_GPIO_Init>

    __HAL_AFIO_REMAP_USART1_ENABLE();
 8002962:	4a14      	ldr	r2, [pc, #80]	; (80029b4 <HAL_UART_MspInit+0xc0>)

    /* USART1 DMA Init */
    /* USART1_TX Init */
    hdma_usart1_tx.Instance = DMA1_Channel4;
 8002964:	4c14      	ldr	r4, [pc, #80]	; (80029b8 <HAL_UART_MspInit+0xc4>)
    __HAL_AFIO_REMAP_USART1_ENABLE();
 8002966:	6853      	ldr	r3, [r2, #4]
    hdma_usart1_tx.Init.MemInc = DMA_MINC_ENABLE;
    hdma_usart1_tx.Init.PeriphDataAlignment = DMA_PDATAALIGN_BYTE;
    hdma_usart1_tx.Init.MemDataAlignment = DMA_MDATAALIGN_BYTE;
    hdma_usart1_tx.Init.Mode = DMA_NORMAL;
    hdma_usart1_tx.Init.Priority = DMA_PRIORITY_LOW;
    if (HAL_DMA_Init(&hdma_usart1_tx) != HAL_OK)
 8002968:	4620      	mov	r0, r4
    __HAL_AFIO_REMAP_USART1_ENABLE();
 800296a:	f043 63e0 	orr.w	r3, r3, #117440512	; 0x7000000
 800296e:	f043 0304 	orr.w	r3, r3, #4
 8002972:	6053      	str	r3, [r2, #4]
    hdma_usart1_tx.Instance = DMA1_Channel4;
 8002974:	4b11      	ldr	r3, [pc, #68]	; (80029bc <HAL_UART_MspInit+0xc8>)
    hdma_usart1_tx.Init.PeriphInc = DMA_PINC_DISABLE;
 8002976:	60a5      	str	r5, [r4, #8]
    hdma_usart1_tx.Init.Direction = DMA_MEMORY_TO_PERIPH;
 8002978:	e884 0088 	stmia.w	r4, {r3, r7}
    hdma_usart1_tx.Init.MemInc = DMA_MINC_ENABLE;
 800297c:	f8c4 800c 	str.w	r8, [r4, #12]
    hdma_usart1_tx.Init.PeriphDataAlignment = DMA_PDATAALIGN_BYTE;
 8002980:	6125      	str	r5, [r4, #16]
    hdma_usart1_tx.Init.MemDataAlignment = DMA_MDATAALIGN_BYTE;
 8002982:	6165      	str	r5, [r4, #20]
    hdma_usart1_tx.Init.Mode = DMA_NORMAL;
 8002984:	61a5      	str	r5, [r4, #24]
    hdma_usart1_tx.Init.Priority = DMA_PRIORITY_LOW;
 8002986:	61e5      	str	r5, [r4, #28]
    if (HAL_DMA_Init(&hdma_usart1_tx) != HAL_OK)
 8002988:	f000 fc6a 	bl	8003260 <HAL_DMA_Init>
 800298c:	b108      	cbz	r0, 8002992 <HAL_UART_MspInit+0x9e>
    {
      Error_Handler();
 800298e:	f7ff fac9 	bl	8001f24 <Error_Handler>
    }

    __HAL_LINKDMA(uartHandle,hdmatx,hdma_usart1_tx);

    /* USART1 interrupt Init */
    HAL_NVIC_SetPriority(USART1_IRQn, 3, 2);
 8002992:	2025      	movs	r0, #37	; 0x25
    __HAL_LINKDMA(uartHandle,hdmatx,hdma_usart1_tx);
 8002994:	6334      	str	r4, [r6, #48]	; 0x30
    HAL_NVIC_SetPriority(USART1_IRQn, 3, 2);
 8002996:	2202      	movs	r2, #2
 8002998:	2103      	movs	r1, #3
    __HAL_LINKDMA(uartHandle,hdmatx,hdma_usart1_tx);
 800299a:	6266      	str	r6, [r4, #36]	; 0x24
    HAL_NVIC_SetPriority(USART1_IRQn, 3, 2);
 800299c:	f000 fbd4 	bl	8003148 <HAL_NVIC_SetPriority>
    HAL_NVIC_EnableIRQ(USART1_IRQn);
 80029a0:	2025      	movs	r0, #37	; 0x25
 80029a2:	f000 fc13 	bl	80031cc <HAL_NVIC_EnableIRQ>
  /* USER CODE BEGIN USART1_MspInit 1 */

  /* USER CODE END USART1_MspInit 1 */
  }
}
 80029a6:	b006      	add	sp, #24
 80029a8:	e8bd 81f0 	ldmia.w	sp!, {r4, r5, r6, r7, r8, pc}
 80029ac:	40013800 	.word	0x40013800
 80029b0:	40010c00 	.word	0x40010c00
 80029b4:	40010000 	.word	0x40010000
 80029b8:	20000774 	.word	0x20000774
 80029bc:	40020044 	.word	0x40020044

080029c0 <HAL_InitTick>:
  *       implementation  in user file.
  * @param TickPriority Tick interrupt priority.
  * @retval HAL status
  */
__weak HAL_StatusTypeDef HAL_InitTick(uint32_t TickPriority)
{
 80029c0:	b538      	push	{r3, r4, r5, lr}
  /* Configure the SysTick to have interrupt in 1ms time basis*/
  if (HAL_SYSTICK_Config(SystemCoreClock / (1000U / uwTickFreq)) > 0U)
 80029c2:	4b0e      	ldr	r3, [pc, #56]	; (80029fc <HAL_InitTick+0x3c>)
{
 80029c4:	4605      	mov	r5, r0
  if (HAL_SYSTICK_Config(SystemCoreClock / (1000U / uwTickFreq)) > 0U)
 80029c6:	7818      	ldrb	r0, [r3, #0]
 80029c8:	f44f 737a 	mov.w	r3, #1000	; 0x3e8
 80029cc:	fbb3 f3f0 	udiv	r3, r3, r0
 80029d0:	4a0b      	ldr	r2, [pc, #44]	; (8002a00 <HAL_InitTick+0x40>)
 80029d2:	6810      	ldr	r0, [r2, #0]
 80029d4:	fbb0 f0f3 	udiv	r0, r0, r3
 80029d8:	f000 fc0e 	bl	80031f8 <HAL_SYSTICK_Config>
 80029dc:	4604      	mov	r4, r0
 80029de:	b958      	cbnz	r0, 80029f8 <HAL_InitTick+0x38>
  {
    return HAL_ERROR;
  }

  /* Configure the SysTick IRQ priority */
  if (TickPriority < (1UL << __NVIC_PRIO_BITS))
 80029e0:	2d0f      	cmp	r5, #15
 80029e2:	d809      	bhi.n	80029f8 <HAL_InitTick+0x38>
  {
    HAL_NVIC_SetPriority(SysTick_IRQn, TickPriority, 0U);
 80029e4:	4602      	mov	r2, r0
 80029e6:	4629      	mov	r1, r5
 80029e8:	f04f 30ff 	mov.w	r0, #4294967295
 80029ec:	f000 fbac 	bl	8003148 <HAL_NVIC_SetPriority>
    uwTickPrio = TickPriority;
 80029f0:	4b04      	ldr	r3, [pc, #16]	; (8002a04 <HAL_InitTick+0x44>)
 80029f2:	4620      	mov	r0, r4
 80029f4:	601d      	str	r5, [r3, #0]
 80029f6:	bd38      	pop	{r3, r4, r5, pc}
    return HAL_ERROR;
 80029f8:	2001      	movs	r0, #1
    return HAL_ERROR;
  }

  /* Return function status */
  return HAL_OK;
}
 80029fa:	bd38      	pop	{r3, r4, r5, pc}
 80029fc:	2000033c 	.word	0x2000033c
 8002a00:	20000338 	.word	0x20000338
 8002a04:	20000340 	.word	0x20000340

08002a08 <HAL_Init>:
  __HAL_FLASH_PREFETCH_BUFFER_ENABLE();
 8002a08:	4a07      	ldr	r2, [pc, #28]	; (8002a28 <HAL_Init+0x20>)
{
 8002a0a:	b508      	push	{r3, lr}
  __HAL_FLASH_PREFETCH_BUFFER_ENABLE();
 8002a0c:	6813      	ldr	r3, [r2, #0]
  HAL_NVIC_SetPriorityGrouping(NVIC_PRIORITYGROUP_4);
 8002a0e:	2003      	movs	r0, #3
  __HAL_FLASH_PREFETCH_BUFFER_ENABLE();
 8002a10:	f043 0310 	orr.w	r3, r3, #16
 8002a14:	6013      	str	r3, [r2, #0]
  HAL_NVIC_SetPriorityGrouping(NVIC_PRIORITYGROUP_4);
 8002a16:	f000 fb79 	bl	800310c <HAL_NVIC_SetPriorityGrouping>
  HAL_InitTick(TICK_INT_PRIORITY);
 8002a1a:	2000      	movs	r0, #0
 8002a1c:	f7ff ffd0 	bl	80029c0 <HAL_InitTick>
  HAL_MspInit();
 8002a20:	f7ff fa82 	bl	8001f28 <HAL_MspInit>
}
 8002a24:	2000      	movs	r0, #0
 8002a26:	bd08      	pop	{r3, pc}
 8002a28:	40022000 	.word	0x40022000

08002a2c <HAL_IncTick>:
  *      implementations in user file.
  * @retval None
  */
__weak void HAL_IncTick(void)
{
  uwTick += uwTickFreq;
 8002a2c:	4a03      	ldr	r2, [pc, #12]	; (8002a3c <HAL_IncTick+0x10>)
 8002a2e:	4b04      	ldr	r3, [pc, #16]	; (8002a40 <HAL_IncTick+0x14>)
 8002a30:	6811      	ldr	r1, [r2, #0]
 8002a32:	781b      	ldrb	r3, [r3, #0]
 8002a34:	440b      	add	r3, r1
 8002a36:	6013      	str	r3, [r2, #0]
 8002a38:	4770      	bx	lr
 8002a3a:	bf00      	nop
 8002a3c:	200007f8 	.word	0x200007f8
 8002a40:	2000033c 	.word	0x2000033c

08002a44 <HAL_GetTick>:
  *       implementations in user file.
  * @retval tick value
  */
__weak uint32_t HAL_GetTick(void)
{
  return uwTick;
 8002a44:	4b01      	ldr	r3, [pc, #4]	; (8002a4c <HAL_GetTick+0x8>)
 8002a46:	6818      	ldr	r0, [r3, #0]
}
 8002a48:	4770      	bx	lr
 8002a4a:	bf00      	nop
 8002a4c:	200007f8 	.word	0x200007f8

08002a50 <HAL_Delay>:
  *       implementations in user file.
  * @param Delay specifies the delay time length, in milliseconds.
  * @retval None
  */
__weak void HAL_Delay(uint32_t Delay)
{
 8002a50:	b538      	push	{r3, r4, r5, lr}
 8002a52:	4604      	mov	r4, r0
  uint32_t tickstart = HAL_GetTick();
 8002a54:	f7ff fff6 	bl	8002a44 <HAL_GetTick>
 8002a58:	4605      	mov	r5, r0
  uint32_t wait = Delay;

  /* Add a freq to guarantee minimum wait */
  if (wait < HAL_MAX_DELAY)
 8002a5a:	1c63      	adds	r3, r4, #1
  {
    wait += (uint32_t)(uwTickFreq);
 8002a5c:	bf1e      	ittt	ne
 8002a5e:	4b04      	ldrne	r3, [pc, #16]	; (8002a70 <HAL_Delay+0x20>)
 8002a60:	781b      	ldrbne	r3, [r3, #0]
 8002a62:	18e4      	addne	r4, r4, r3
  }

  while ((HAL_GetTick() - tickstart) < wait)
 8002a64:	f7ff ffee 	bl	8002a44 <HAL_GetTick>
 8002a68:	1b40      	subs	r0, r0, r5
 8002a6a:	4284      	cmp	r4, r0
 8002a6c:	d8fa      	bhi.n	8002a64 <HAL_Delay+0x14>
  {
  }
}
 8002a6e:	bd38      	pop	{r3, r4, r5, pc}
 8002a70:	2000033c 	.word	0x2000033c

08002a74 <HAL_ADC_ConvCpltCallback>:
 8002a74:	4770      	bx	lr

08002a76 <ADC_DMAConvCplt>:
  * @retval None
  */
void ADC_DMAConvCplt(DMA_HandleTypeDef *hdma)
{
  /* Retrieve ADC handle corresponding to current DMA handle */
  ADC_HandleTypeDef* hadc = ( ADC_HandleTypeDef* )((DMA_HandleTypeDef* )hdma)->Parent;
 8002a76:	6a43      	ldr	r3, [r0, #36]	; 0x24
{
 8002a78:	b510      	push	{r4, lr}
 
  /* Update state machine on conversion status if not in error state */
  if (HAL_IS_BIT_CLR(hadc->State, HAL_ADC_STATE_ERROR_INTERNAL | HAL_ADC_STATE_ERROR_DMA))
 8002a7a:	6a9a      	ldr	r2, [r3, #40]	; 0x28
 8002a7c:	f012 0f50 	tst.w	r2, #80	; 0x50
 8002a80:	d11b      	bne.n	8002aba <ADC_DMAConvCplt+0x44>
  {
    /* Update ADC state machine */
    SET_BIT(hadc->State, HAL_ADC_STATE_REG_EOC);
 8002a82:	6a9a      	ldr	r2, [r3, #40]	; 0x28
 8002a84:	f442 7200 	orr.w	r2, r2, #512	; 0x200
 8002a88:	629a      	str	r2, [r3, #40]	; 0x28
    /* Determine whether any further conversion upcoming on group regular     */
    /* by external trigger, continuous mode or scan sequence on going.        */
    /* Note: On STM32F1 devices, in case of sequencer enabled                 */
    /*       (several ranks selected), end of conversion flag is raised       */
    /*       at the end of the sequence.                                      */
    if(ADC_IS_SOFTWARE_START_REGULAR(hadc)        && 
 8002a8a:	681a      	ldr	r2, [r3, #0]
 8002a8c:	6892      	ldr	r2, [r2, #8]
 8002a8e:	f402 2260 	and.w	r2, r2, #917504	; 0xe0000
 8002a92:	f5b2 2f60 	cmp.w	r2, #917504	; 0xe0000
 8002a96:	d10c      	bne.n	8002ab2 <ADC_DMAConvCplt+0x3c>
 8002a98:	68da      	ldr	r2, [r3, #12]
 8002a9a:	b952      	cbnz	r2, 8002ab2 <ADC_DMAConvCplt+0x3c>
       (hadc->Init.ContinuousConvMode == DISABLE)   )
    {
      /* Set ADC state */
      CLEAR_BIT(hadc->State, HAL_ADC_STATE_REG_BUSY);   
 8002a9c:	6a9a      	ldr	r2, [r3, #40]	; 0x28
 8002a9e:	f422 7280 	bic.w	r2, r2, #256	; 0x100
 8002aa2:	629a      	str	r2, [r3, #40]	; 0x28
      
      if (HAL_IS_BIT_CLR(hadc->State, HAL_ADC_STATE_INJ_BUSY))
 8002aa4:	6a9a      	ldr	r2, [r3, #40]	; 0x28
 8002aa6:	04d2      	lsls	r2, r2, #19
      {
        SET_BIT(hadc->State, HAL_ADC_STATE_READY);
 8002aa8:	bf5e      	ittt	pl
 8002aaa:	6a9a      	ldrpl	r2, [r3, #40]	; 0x28
 8002aac:	f042 0201 	orrpl.w	r2, r2, #1
 8002ab0:	629a      	strpl	r2, [r3, #40]	; 0x28
      }
    }
    
    /* Conversion complete callback */
    HAL_ADC_ConvCpltCallback(hadc); 
 8002ab2:	4618      	mov	r0, r3
 8002ab4:	f7ff ffde 	bl	8002a74 <HAL_ADC_ConvCpltCallback>
 8002ab8:	bd10      	pop	{r4, pc}
  }
  else
  {
    /* Call DMA error callback */
    hadc->DMA_Handle->XferErrorCallback(hdma);
 8002aba:	6a1b      	ldr	r3, [r3, #32]
  }
}
 8002abc:	e8bd 4010 	ldmia.w	sp!, {r4, lr}
    hadc->DMA_Handle->XferErrorCallback(hdma);
 8002ac0:	6b1b      	ldr	r3, [r3, #48]	; 0x30
 8002ac2:	4718      	bx	r3

08002ac4 <HAL_ADC_ConvHalfCpltCallback>:
 8002ac4:	4770      	bx	lr

08002ac6 <ADC_DMAHalfConvCplt>:
  * @brief  DMA half transfer complete callback. 
  * @param  hdma: pointer to DMA handle.
  * @retval None
  */
void ADC_DMAHalfConvCplt(DMA_HandleTypeDef *hdma)   
{
 8002ac6:	b508      	push	{r3, lr}
  /* Retrieve ADC handle corresponding to current DMA handle */
  ADC_HandleTypeDef* hadc = ( ADC_HandleTypeDef* )((DMA_HandleTypeDef* )hdma)->Parent;
  
  /* Half conversion callback */
  HAL_ADC_ConvHalfCpltCallback(hadc); 
 8002ac8:	6a40      	ldr	r0, [r0, #36]	; 0x24
 8002aca:	f7ff fffb 	bl	8002ac4 <HAL_ADC_ConvHalfCpltCallback>
 8002ace:	bd08      	pop	{r3, pc}

08002ad0 <HAL_ADC_LevelOutOfWindowCallback>:
 8002ad0:	4770      	bx	lr
	...

08002ad4 <HAL_ADC_IRQHandler>:
  assert_param(IS_ADC_ALL_INSTANCE(hadc->Instance));
 8002ad4:	6803      	ldr	r3, [r0, #0]
 8002ad6:	4a49      	ldr	r2, [pc, #292]	; (8002bfc <HAL_ADC_IRQHandler+0x128>)
{
 8002ad8:	b510      	push	{r4, lr}
  assert_param(IS_ADC_ALL_INSTANCE(hadc->Instance));
 8002ada:	4293      	cmp	r3, r2
{
 8002adc:	4604      	mov	r4, r0
  assert_param(IS_ADC_ALL_INSTANCE(hadc->Instance));
 8002ade:	d008      	beq.n	8002af2 <HAL_ADC_IRQHandler+0x1e>
 8002ae0:	f502 6280 	add.w	r2, r2, #1024	; 0x400
 8002ae4:	4293      	cmp	r3, r2
 8002ae6:	d004      	beq.n	8002af2 <HAL_ADC_IRQHandler+0x1e>
 8002ae8:	f240 51d9 	movw	r1, #1497	; 0x5d9
 8002aec:	4844      	ldr	r0, [pc, #272]	; (8002c00 <HAL_ADC_IRQHandler+0x12c>)
 8002aee:	f7ff fa1a 	bl	8001f26 <assert_failed>
  assert_param(IS_FUNCTIONAL_STATE(hadc->Init.ContinuousConvMode));
 8002af2:	68e3      	ldr	r3, [r4, #12]
 8002af4:	2b01      	cmp	r3, #1
 8002af6:	d904      	bls.n	8002b02 <HAL_ADC_IRQHandler+0x2e>
 8002af8:	f240 51da 	movw	r1, #1498	; 0x5da
 8002afc:	4840      	ldr	r0, [pc, #256]	; (8002c00 <HAL_ADC_IRQHandler+0x12c>)
 8002afe:	f7ff fa12 	bl	8001f26 <assert_failed>
  assert_param(IS_ADC_REGULAR_NB_CONV(hadc->Init.NbrOfConversion));
 8002b02:	6923      	ldr	r3, [r4, #16]
 8002b04:	3b01      	subs	r3, #1
 8002b06:	2b0f      	cmp	r3, #15
 8002b08:	d904      	bls.n	8002b14 <HAL_ADC_IRQHandler+0x40>
 8002b0a:	f240 51db 	movw	r1, #1499	; 0x5db
 8002b0e:	483c      	ldr	r0, [pc, #240]	; (8002c00 <HAL_ADC_IRQHandler+0x12c>)
 8002b10:	f7ff fa09 	bl	8001f26 <assert_failed>
  if(__HAL_ADC_GET_IT_SOURCE(hadc, ADC_IT_EOC))
 8002b14:	6823      	ldr	r3, [r4, #0]
 8002b16:	685a      	ldr	r2, [r3, #4]
 8002b18:	0690      	lsls	r0, r2, #26
 8002b1a:	d527      	bpl.n	8002b6c <HAL_ADC_IRQHandler+0x98>
    if(__HAL_ADC_GET_FLAG(hadc, ADC_FLAG_EOC) )
 8002b1c:	681a      	ldr	r2, [r3, #0]
 8002b1e:	0791      	lsls	r1, r2, #30
 8002b20:	d524      	bpl.n	8002b6c <HAL_ADC_IRQHandler+0x98>
      if (HAL_IS_BIT_CLR(hadc->State, HAL_ADC_STATE_ERROR_INTERNAL))
 8002b22:	6aa2      	ldr	r2, [r4, #40]	; 0x28
 8002b24:	06d2      	lsls	r2, r2, #27
        SET_BIT(hadc->State, HAL_ADC_STATE_REG_EOC); 
 8002b26:	bf5e      	ittt	pl
 8002b28:	6aa2      	ldrpl	r2, [r4, #40]	; 0x28
 8002b2a:	f442 7200 	orrpl.w	r2, r2, #512	; 0x200
 8002b2e:	62a2      	strpl	r2, [r4, #40]	; 0x28
      if(ADC_IS_SOFTWARE_START_REGULAR(hadc)        && 
 8002b30:	689a      	ldr	r2, [r3, #8]
 8002b32:	f402 2260 	and.w	r2, r2, #917504	; 0xe0000
 8002b36:	f5b2 2f60 	cmp.w	r2, #917504	; 0xe0000
 8002b3a:	d110      	bne.n	8002b5e <HAL_ADC_IRQHandler+0x8a>
 8002b3c:	68e2      	ldr	r2, [r4, #12]
 8002b3e:	b972      	cbnz	r2, 8002b5e <HAL_ADC_IRQHandler+0x8a>
        __HAL_ADC_DISABLE_IT(hadc, ADC_IT_EOC);
 8002b40:	685a      	ldr	r2, [r3, #4]
 8002b42:	f022 0220 	bic.w	r2, r2, #32
 8002b46:	605a      	str	r2, [r3, #4]
        CLEAR_BIT(hadc->State, HAL_ADC_STATE_REG_BUSY);   
 8002b48:	6aa3      	ldr	r3, [r4, #40]	; 0x28
 8002b4a:	f423 7380 	bic.w	r3, r3, #256	; 0x100
 8002b4e:	62a3      	str	r3, [r4, #40]	; 0x28
        if (HAL_IS_BIT_CLR(hadc->State, HAL_ADC_STATE_INJ_BUSY))
 8002b50:	6aa3      	ldr	r3, [r4, #40]	; 0x28
 8002b52:	04db      	lsls	r3, r3, #19
          SET_BIT(hadc->State, HAL_ADC_STATE_READY);
 8002b54:	bf5e      	ittt	pl
 8002b56:	6aa3      	ldrpl	r3, [r4, #40]	; 0x28
 8002b58:	f043 0301 	orrpl.w	r3, r3, #1
 8002b5c:	62a3      	strpl	r3, [r4, #40]	; 0x28
      HAL_ADC_ConvCpltCallback(hadc);
 8002b5e:	4620      	mov	r0, r4
 8002b60:	f7ff ff88 	bl	8002a74 <HAL_ADC_ConvCpltCallback>
      __HAL_ADC_CLEAR_FLAG(hadc, ADC_FLAG_STRT | ADC_FLAG_EOC);
 8002b64:	f06f 0212 	mvn.w	r2, #18
 8002b68:	6823      	ldr	r3, [r4, #0]
 8002b6a:	601a      	str	r2, [r3, #0]
  if(__HAL_ADC_GET_IT_SOURCE(hadc, ADC_IT_JEOC))
 8002b6c:	6823      	ldr	r3, [r4, #0]
 8002b6e:	685a      	ldr	r2, [r3, #4]
 8002b70:	0610      	lsls	r0, r2, #24
 8002b72:	d530      	bpl.n	8002bd6 <HAL_ADC_IRQHandler+0x102>
    if(__HAL_ADC_GET_FLAG(hadc, ADC_FLAG_JEOC))
 8002b74:	681a      	ldr	r2, [r3, #0]
 8002b76:	0751      	lsls	r1, r2, #29
 8002b78:	d52d      	bpl.n	8002bd6 <HAL_ADC_IRQHandler+0x102>
      if (HAL_IS_BIT_CLR(hadc->State, HAL_ADC_STATE_ERROR_INTERNAL))
 8002b7a:	6aa2      	ldr	r2, [r4, #40]	; 0x28
 8002b7c:	06d2      	lsls	r2, r2, #27
        SET_BIT(hadc->State, HAL_ADC_STATE_INJ_EOC);
 8002b7e:	bf5e      	ittt	pl
 8002b80:	6aa2      	ldrpl	r2, [r4, #40]	; 0x28
 8002b82:	f442 5200 	orrpl.w	r2, r2, #8192	; 0x2000
 8002b86:	62a2      	strpl	r2, [r4, #40]	; 0x28
      if(ADC_IS_SOFTWARE_START_INJECTED(hadc)                     || 
 8002b88:	689a      	ldr	r2, [r3, #8]
 8002b8a:	f402 42e0 	and.w	r2, r2, #28672	; 0x7000
 8002b8e:	f5b2 4fe0 	cmp.w	r2, #28672	; 0x7000
 8002b92:	d00a      	beq.n	8002baa <HAL_ADC_IRQHandler+0xd6>
         (HAL_IS_BIT_CLR(hadc->Instance->CR1, ADC_CR1_JAUTO) &&     
 8002b94:	685a      	ldr	r2, [r3, #4]
      if(ADC_IS_SOFTWARE_START_INJECTED(hadc)                     || 
 8002b96:	0550      	lsls	r0, r2, #21
 8002b98:	d416      	bmi.n	8002bc8 <HAL_ADC_IRQHandler+0xf4>
         (ADC_IS_SOFTWARE_START_REGULAR(hadc)        &&
 8002b9a:	689a      	ldr	r2, [r3, #8]
 8002b9c:	f402 2260 	and.w	r2, r2, #917504	; 0xe0000
         (HAL_IS_BIT_CLR(hadc->Instance->CR1, ADC_CR1_JAUTO) &&     
 8002ba0:	f5b2 2f60 	cmp.w	r2, #917504	; 0xe0000
 8002ba4:	d110      	bne.n	8002bc8 <HAL_ADC_IRQHandler+0xf4>
         (ADC_IS_SOFTWARE_START_REGULAR(hadc)        &&
 8002ba6:	68e2      	ldr	r2, [r4, #12]
 8002ba8:	b972      	cbnz	r2, 8002bc8 <HAL_ADC_IRQHandler+0xf4>
        __HAL_ADC_DISABLE_IT(hadc, ADC_IT_JEOC);
 8002baa:	685a      	ldr	r2, [r3, #4]
 8002bac:	f022 0280 	bic.w	r2, r2, #128	; 0x80
 8002bb0:	605a      	str	r2, [r3, #4]
        CLEAR_BIT(hadc->State, HAL_ADC_STATE_INJ_BUSY);   
 8002bb2:	6aa3      	ldr	r3, [r4, #40]	; 0x28
 8002bb4:	f423 5380 	bic.w	r3, r3, #4096	; 0x1000
 8002bb8:	62a3      	str	r3, [r4, #40]	; 0x28
        if (HAL_IS_BIT_CLR(hadc->State, HAL_ADC_STATE_REG_BUSY))
 8002bba:	6aa3      	ldr	r3, [r4, #40]	; 0x28
 8002bbc:	05d9      	lsls	r1, r3, #23
          SET_BIT(hadc->State, HAL_ADC_STATE_READY);
 8002bbe:	bf5e      	ittt	pl
 8002bc0:	6aa3      	ldrpl	r3, [r4, #40]	; 0x28
 8002bc2:	f043 0301 	orrpl.w	r3, r3, #1
 8002bc6:	62a3      	strpl	r3, [r4, #40]	; 0x28
      HAL_ADCEx_InjectedConvCpltCallback(hadc);
 8002bc8:	4620      	mov	r0, r4
 8002bca:	f000 fa9d 	bl	8003108 <HAL_ADCEx_InjectedConvCpltCallback>
      __HAL_ADC_CLEAR_FLAG(hadc, (ADC_FLAG_JSTRT | ADC_FLAG_JEOC));
 8002bce:	f06f 020c 	mvn.w	r2, #12
 8002bd2:	6823      	ldr	r3, [r4, #0]
 8002bd4:	601a      	str	r2, [r3, #0]
  if(__HAL_ADC_GET_IT_SOURCE(hadc, ADC_IT_AWD))
 8002bd6:	6823      	ldr	r3, [r4, #0]
 8002bd8:	685a      	ldr	r2, [r3, #4]
 8002bda:	0652      	lsls	r2, r2, #25
 8002bdc:	d50d      	bpl.n	8002bfa <HAL_ADC_IRQHandler+0x126>
    if(__HAL_ADC_GET_FLAG(hadc, ADC_FLAG_AWD))
 8002bde:	681b      	ldr	r3, [r3, #0]
 8002be0:	07db      	lsls	r3, r3, #31
 8002be2:	d50a      	bpl.n	8002bfa <HAL_ADC_IRQHandler+0x126>
      SET_BIT(hadc->State, HAL_ADC_STATE_AWD1);
 8002be4:	6aa3      	ldr	r3, [r4, #40]	; 0x28
      HAL_ADC_LevelOutOfWindowCallback(hadc);
 8002be6:	4620      	mov	r0, r4
      SET_BIT(hadc->State, HAL_ADC_STATE_AWD1);
 8002be8:	f443 3380 	orr.w	r3, r3, #65536	; 0x10000
 8002bec:	62a3      	str	r3, [r4, #40]	; 0x28
      HAL_ADC_LevelOutOfWindowCallback(hadc);
 8002bee:	f7ff ff6f 	bl	8002ad0 <HAL_ADC_LevelOutOfWindowCallback>
      __HAL_ADC_CLEAR_FLAG(hadc, ADC_FLAG_AWD);
 8002bf2:	f06f 0201 	mvn.w	r2, #1
 8002bf6:	6823      	ldr	r3, [r4, #0]
 8002bf8:	601a      	str	r2, [r3, #0]
 8002bfa:	bd10      	pop	{r4, pc}
 8002bfc:	40012400 	.word	0x40012400
 8002c00:	080065d6 	.word	0x080065d6

08002c04 <HAL_ADC_ErrorCallback>:
{
 8002c04:	4770      	bx	lr

08002c06 <ADC_DMAError>:
  * @retval None
  */
void ADC_DMAError(DMA_HandleTypeDef *hdma)   
{
  /* Retrieve ADC handle corresponding to current DMA handle */
  ADC_HandleTypeDef* hadc = ( ADC_HandleTypeDef* )((DMA_HandleTypeDef* )hdma)->Parent;
 8002c06:	6a40      	ldr	r0, [r0, #36]	; 0x24
{
 8002c08:	b508      	push	{r3, lr}
  
  /* Set ADC state */
  SET_BIT(hadc->State, HAL_ADC_STATE_ERROR_DMA);
 8002c0a:	6a83      	ldr	r3, [r0, #40]	; 0x28
 8002c0c:	f043 0340 	orr.w	r3, r3, #64	; 0x40
 8002c10:	6283      	str	r3, [r0, #40]	; 0x28
  
  /* Set ADC error code to DMA error */
  SET_BIT(hadc->ErrorCode, HAL_ADC_ERROR_DMA);
 8002c12:	6ac3      	ldr	r3, [r0, #44]	; 0x2c
 8002c14:	f043 0304 	orr.w	r3, r3, #4
 8002c18:	62c3      	str	r3, [r0, #44]	; 0x2c
  
  /* Error callback */
  HAL_ADC_ErrorCallback(hadc); 
 8002c1a:	f7ff fff3 	bl	8002c04 <HAL_ADC_ErrorCallback>
 8002c1e:	bd08      	pop	{r3, pc}

08002c20 <HAL_ADC_ConfigChannel>:
  __IO uint32_t wait_loop_index = 0U;
 8002c20:	2300      	movs	r3, #0
{ 
 8002c22:	b573      	push	{r0, r1, r4, r5, r6, lr}
  assert_param(IS_ADC_ALL_INSTANCE(hadc->Instance));
 8002c24:	4a51      	ldr	r2, [pc, #324]	; (8002d6c <HAL_ADC_ConfigChannel+0x14c>)
  __IO uint32_t wait_loop_index = 0U;
 8002c26:	9301      	str	r3, [sp, #4]
  assert_param(IS_ADC_ALL_INSTANCE(hadc->Instance));
 8002c28:	6803      	ldr	r3, [r0, #0]
{ 
 8002c2a:	4604      	mov	r4, r0
  assert_param(IS_ADC_ALL_INSTANCE(hadc->Instance));
 8002c2c:	4293      	cmp	r3, r2
{ 
 8002c2e:	460d      	mov	r5, r1
  assert_param(IS_ADC_ALL_INSTANCE(hadc->Instance));
 8002c30:	d008      	beq.n	8002c44 <HAL_ADC_ConfigChannel+0x24>
 8002c32:	f502 6280 	add.w	r2, r2, #1024	; 0x400
 8002c36:	4293      	cmp	r3, r2
 8002c38:	d004      	beq.n	8002c44 <HAL_ADC_ConfigChannel+0x24>
 8002c3a:	f240 61aa 	movw	r1, #1706	; 0x6aa
 8002c3e:	484c      	ldr	r0, [pc, #304]	; (8002d70 <HAL_ADC_ConfigChannel+0x150>)
 8002c40:	f7ff f971 	bl	8001f26 <assert_failed>
  assert_param(IS_ADC_CHANNEL(sConfig->Channel));
 8002c44:	682b      	ldr	r3, [r5, #0]
 8002c46:	2b11      	cmp	r3, #17
 8002c48:	d904      	bls.n	8002c54 <HAL_ADC_ConfigChannel+0x34>
 8002c4a:	f240 61ab 	movw	r1, #1707	; 0x6ab
 8002c4e:	4848      	ldr	r0, [pc, #288]	; (8002d70 <HAL_ADC_ConfigChannel+0x150>)
 8002c50:	f7ff f969 	bl	8001f26 <assert_failed>
  assert_param(IS_ADC_REGULAR_RANK(sConfig->Rank));
 8002c54:	686b      	ldr	r3, [r5, #4]
 8002c56:	3b01      	subs	r3, #1
 8002c58:	2b0f      	cmp	r3, #15
 8002c5a:	d904      	bls.n	8002c66 <HAL_ADC_ConfigChannel+0x46>
 8002c5c:	f240 61ac 	movw	r1, #1708	; 0x6ac
 8002c60:	4843      	ldr	r0, [pc, #268]	; (8002d70 <HAL_ADC_ConfigChannel+0x150>)
 8002c62:	f7ff f960 	bl	8001f26 <assert_failed>
  assert_param(IS_ADC_SAMPLE_TIME(sConfig->SamplingTime));
 8002c66:	68ab      	ldr	r3, [r5, #8]
 8002c68:	2b07      	cmp	r3, #7
 8002c6a:	d904      	bls.n	8002c76 <HAL_ADC_ConfigChannel+0x56>
 8002c6c:	f240 61ad 	movw	r1, #1709	; 0x6ad
 8002c70:	483f      	ldr	r0, [pc, #252]	; (8002d70 <HAL_ADC_ConfigChannel+0x150>)
 8002c72:	f7ff f958 	bl	8001f26 <assert_failed>
  __HAL_LOCK(hadc);
 8002c76:	f894 3024 	ldrb.w	r3, [r4, #36]	; 0x24
 8002c7a:	2b01      	cmp	r3, #1
 8002c7c:	d073      	beq.n	8002d66 <HAL_ADC_ConfigChannel+0x146>
 8002c7e:	2301      	movs	r3, #1
  if (sConfig->Rank < 7U)
 8002c80:	6868      	ldr	r0, [r5, #4]
  __HAL_LOCK(hadc);
 8002c82:	f884 3024 	strb.w	r3, [r4, #36]	; 0x24
  if (sConfig->Rank < 7U)
 8002c86:	2806      	cmp	r0, #6
 8002c88:	6822      	ldr	r2, [r4, #0]
 8002c8a:	6829      	ldr	r1, [r5, #0]
 8002c8c:	ea4f 0380 	mov.w	r3, r0, lsl #2
 8002c90:	d824      	bhi.n	8002cdc <HAL_ADC_ConfigChannel+0xbc>
    MODIFY_REG(hadc->Instance->SQR3                        ,
 8002c92:	4403      	add	r3, r0
 8002c94:	201f      	movs	r0, #31
 8002c96:	6b56      	ldr	r6, [r2, #52]	; 0x34
 8002c98:	3b05      	subs	r3, #5
 8002c9a:	4098      	lsls	r0, r3
 8002c9c:	ea26 0000 	bic.w	r0, r6, r0
 8002ca0:	fa01 f303 	lsl.w	r3, r1, r3
 8002ca4:	4303      	orrs	r3, r0
 8002ca6:	6353      	str	r3, [r2, #52]	; 0x34
  if (sConfig->Channel >= ADC_CHANNEL_10)
 8002ca8:	2909      	cmp	r1, #9
 8002caa:	68ad      	ldr	r5, [r5, #8]
 8002cac:	ea4f 0341 	mov.w	r3, r1, lsl #1
 8002cb0:	d92e      	bls.n	8002d10 <HAL_ADC_ConfigChannel+0xf0>
    MODIFY_REG(hadc->Instance->SMPR1                             ,
 8002cb2:	2607      	movs	r6, #7
 8002cb4:	440b      	add	r3, r1
 8002cb6:	68d0      	ldr	r0, [r2, #12]
 8002cb8:	3b1e      	subs	r3, #30
 8002cba:	409e      	lsls	r6, r3
 8002cbc:	ea20 0006 	bic.w	r0, r0, r6
 8002cc0:	fa05 f303 	lsl.w	r3, r5, r3
 8002cc4:	4303      	orrs	r3, r0
 8002cc6:	60d3      	str	r3, [r2, #12]
  if ((sConfig->Channel == ADC_CHANNEL_TEMPSENSOR) ||
 8002cc8:	f1a1 0310 	sub.w	r3, r1, #16
 8002ccc:	2b01      	cmp	r3, #1
 8002cce:	d92a      	bls.n	8002d26 <HAL_ADC_ConfigChannel+0x106>
  HAL_StatusTypeDef tmp_hal_status = HAL_OK;
 8002cd0:	2000      	movs	r0, #0
  __HAL_UNLOCK(hadc);
 8002cd2:	2300      	movs	r3, #0
 8002cd4:	f884 3024 	strb.w	r3, [r4, #36]	; 0x24
}
 8002cd8:	b002      	add	sp, #8
 8002cda:	bd70      	pop	{r4, r5, r6, pc}
  else if (sConfig->Rank < 13U)
 8002cdc:	280c      	cmp	r0, #12
 8002cde:	d80b      	bhi.n	8002cf8 <HAL_ADC_ConfigChannel+0xd8>
    MODIFY_REG(hadc->Instance->SQR2                        ,
 8002ce0:	4403      	add	r3, r0
 8002ce2:	201f      	movs	r0, #31
 8002ce4:	6b16      	ldr	r6, [r2, #48]	; 0x30
 8002ce6:	3b23      	subs	r3, #35	; 0x23
 8002ce8:	4098      	lsls	r0, r3
 8002cea:	ea26 0000 	bic.w	r0, r6, r0
 8002cee:	fa01 f303 	lsl.w	r3, r1, r3
 8002cf2:	4303      	orrs	r3, r0
 8002cf4:	6313      	str	r3, [r2, #48]	; 0x30
 8002cf6:	e7d7      	b.n	8002ca8 <HAL_ADC_ConfigChannel+0x88>
    MODIFY_REG(hadc->Instance->SQR1                        ,
 8002cf8:	4403      	add	r3, r0
 8002cfa:	201f      	movs	r0, #31
 8002cfc:	6ad6      	ldr	r6, [r2, #44]	; 0x2c
 8002cfe:	3b41      	subs	r3, #65	; 0x41
 8002d00:	4098      	lsls	r0, r3
 8002d02:	ea26 0000 	bic.w	r0, r6, r0
 8002d06:	fa01 f303 	lsl.w	r3, r1, r3
 8002d0a:	4303      	orrs	r3, r0
 8002d0c:	62d3      	str	r3, [r2, #44]	; 0x2c
 8002d0e:	e7cb      	b.n	8002ca8 <HAL_ADC_ConfigChannel+0x88>
    MODIFY_REG(hadc->Instance->SMPR2                             ,
 8002d10:	2607      	movs	r6, #7
 8002d12:	6910      	ldr	r0, [r2, #16]
 8002d14:	440b      	add	r3, r1
 8002d16:	409e      	lsls	r6, r3
 8002d18:	ea20 0006 	bic.w	r0, r0, r6
 8002d1c:	fa05 f303 	lsl.w	r3, r5, r3
 8002d20:	4303      	orrs	r3, r0
 8002d22:	6113      	str	r3, [r2, #16]
 8002d24:	e7d0      	b.n	8002cc8 <HAL_ADC_ConfigChannel+0xa8>
    if (hadc->Instance == ADC1)
 8002d26:	4b11      	ldr	r3, [pc, #68]	; (8002d6c <HAL_ADC_ConfigChannel+0x14c>)
 8002d28:	429a      	cmp	r2, r3
 8002d2a:	d116      	bne.n	8002d5a <HAL_ADC_ConfigChannel+0x13a>
      if (READ_BIT(hadc->Instance->CR2, ADC_CR2_TSVREFE) == RESET)
 8002d2c:	6893      	ldr	r3, [r2, #8]
 8002d2e:	021b      	lsls	r3, r3, #8
 8002d30:	d4ce      	bmi.n	8002cd0 <HAL_ADC_ConfigChannel+0xb0>
        SET_BIT(hadc->Instance->CR2, ADC_CR2_TSVREFE);
 8002d32:	6893      	ldr	r3, [r2, #8]
        if ((sConfig->Channel == ADC_CHANNEL_TEMPSENSOR))
 8002d34:	2910      	cmp	r1, #16
        SET_BIT(hadc->Instance->CR2, ADC_CR2_TSVREFE);
 8002d36:	f443 0300 	orr.w	r3, r3, #8388608	; 0x800000
 8002d3a:	6093      	str	r3, [r2, #8]
        if ((sConfig->Channel == ADC_CHANNEL_TEMPSENSOR))
 8002d3c:	d1c8      	bne.n	8002cd0 <HAL_ADC_ConfigChannel+0xb0>
          wait_loop_index = (ADC_TEMPSENSOR_DELAY_US * (SystemCoreClock / 1000000U));
 8002d3e:	4b0d      	ldr	r3, [pc, #52]	; (8002d74 <HAL_ADC_ConfigChannel+0x154>)
 8002d40:	4a0d      	ldr	r2, [pc, #52]	; (8002d78 <HAL_ADC_ConfigChannel+0x158>)
 8002d42:	681b      	ldr	r3, [r3, #0]
 8002d44:	fbb3 f2f2 	udiv	r2, r3, r2
 8002d48:	230a      	movs	r3, #10
 8002d4a:	4353      	muls	r3, r2
            wait_loop_index--;
 8002d4c:	9301      	str	r3, [sp, #4]
          while(wait_loop_index != 0U)
 8002d4e:	9b01      	ldr	r3, [sp, #4]
 8002d50:	2b00      	cmp	r3, #0
 8002d52:	d0bd      	beq.n	8002cd0 <HAL_ADC_ConfigChannel+0xb0>
            wait_loop_index--;
 8002d54:	9b01      	ldr	r3, [sp, #4]
 8002d56:	3b01      	subs	r3, #1
 8002d58:	e7f8      	b.n	8002d4c <HAL_ADC_ConfigChannel+0x12c>
      SET_BIT(hadc->State, HAL_ADC_STATE_ERROR_CONFIG);
 8002d5a:	6aa3      	ldr	r3, [r4, #40]	; 0x28
      tmp_hal_status = HAL_ERROR;
 8002d5c:	2001      	movs	r0, #1
      SET_BIT(hadc->State, HAL_ADC_STATE_ERROR_CONFIG);
 8002d5e:	f043 0320 	orr.w	r3, r3, #32
 8002d62:	62a3      	str	r3, [r4, #40]	; 0x28
 8002d64:	e7b5      	b.n	8002cd2 <HAL_ADC_ConfigChannel+0xb2>
  __HAL_LOCK(hadc);
 8002d66:	2002      	movs	r0, #2
 8002d68:	e7b6      	b.n	8002cd8 <HAL_ADC_ConfigChannel+0xb8>
 8002d6a:	bf00      	nop
 8002d6c:	40012400 	.word	0x40012400
 8002d70:	080065d6 	.word	0x080065d6
 8002d74:	20000338 	.word	0x20000338
 8002d78:	000f4240 	.word	0x000f4240

08002d7c <ADC_Enable>:
  __IO uint32_t wait_loop_index = 0U;
 8002d7c:	2300      	movs	r3, #0
{
 8002d7e:	b573      	push	{r0, r1, r4, r5, r6, lr}
  __IO uint32_t wait_loop_index = 0U;
 8002d80:	9301      	str	r3, [sp, #4]
  if (ADC_IS_ENABLE(hadc) == RESET)
 8002d82:	6803      	ldr	r3, [r0, #0]
{
 8002d84:	4604      	mov	r4, r0
  if (ADC_IS_ENABLE(hadc) == RESET)
 8002d86:	689a      	ldr	r2, [r3, #8]
 8002d88:	07d2      	lsls	r2, r2, #31
 8002d8a:	d502      	bpl.n	8002d92 <ADC_Enable+0x16>
  return HAL_OK;
 8002d8c:	2000      	movs	r0, #0
}
 8002d8e:	b002      	add	sp, #8
 8002d90:	bd70      	pop	{r4, r5, r6, pc}
    __HAL_ADC_ENABLE(hadc);
 8002d92:	689a      	ldr	r2, [r3, #8]
 8002d94:	f042 0201 	orr.w	r2, r2, #1
 8002d98:	609a      	str	r2, [r3, #8]
    wait_loop_index = (ADC_STAB_DELAY_US * (SystemCoreClock / 1000000U));
 8002d9a:	4b12      	ldr	r3, [pc, #72]	; (8002de4 <ADC_Enable+0x68>)
 8002d9c:	4a12      	ldr	r2, [pc, #72]	; (8002de8 <ADC_Enable+0x6c>)
 8002d9e:	681b      	ldr	r3, [r3, #0]
 8002da0:	fbb3 f3f2 	udiv	r3, r3, r2
      wait_loop_index--;
 8002da4:	9301      	str	r3, [sp, #4]
    while(wait_loop_index != 0U)
 8002da6:	9b01      	ldr	r3, [sp, #4]
 8002da8:	b9c3      	cbnz	r3, 8002ddc <ADC_Enable+0x60>
    tickstart = HAL_GetTick();
 8002daa:	f7ff fe4b 	bl	8002a44 <HAL_GetTick>
 8002dae:	4606      	mov	r6, r0
    while(ADC_IS_ENABLE(hadc) == RESET)
 8002db0:	6823      	ldr	r3, [r4, #0]
 8002db2:	689d      	ldr	r5, [r3, #8]
 8002db4:	f015 0501 	ands.w	r5, r5, #1
 8002db8:	d1e8      	bne.n	8002d8c <ADC_Enable+0x10>
      if((HAL_GetTick() - tickstart) > ADC_ENABLE_TIMEOUT)
 8002dba:	f7ff fe43 	bl	8002a44 <HAL_GetTick>
 8002dbe:	1b80      	subs	r0, r0, r6
 8002dc0:	2802      	cmp	r0, #2
 8002dc2:	d9f5      	bls.n	8002db0 <ADC_Enable+0x34>
        SET_BIT(hadc->State, HAL_ADC_STATE_ERROR_INTERNAL);
 8002dc4:	6aa3      	ldr	r3, [r4, #40]	; 0x28
        __HAL_UNLOCK(hadc);
 8002dc6:	f884 5024 	strb.w	r5, [r4, #36]	; 0x24
        SET_BIT(hadc->State, HAL_ADC_STATE_ERROR_INTERNAL);
 8002dca:	f043 0310 	orr.w	r3, r3, #16
 8002dce:	62a3      	str	r3, [r4, #40]	; 0x28
        SET_BIT(hadc->ErrorCode, HAL_ADC_ERROR_INTERNAL);
 8002dd0:	6ae3      	ldr	r3, [r4, #44]	; 0x2c
        __HAL_UNLOCK(hadc);
 8002dd2:	2001      	movs	r0, #1
        SET_BIT(hadc->ErrorCode, HAL_ADC_ERROR_INTERNAL);
 8002dd4:	f043 0301 	orr.w	r3, r3, #1
 8002dd8:	62e3      	str	r3, [r4, #44]	; 0x2c
 8002dda:	e7d8      	b.n	8002d8e <ADC_Enable+0x12>
      wait_loop_index--;
 8002ddc:	9b01      	ldr	r3, [sp, #4]
 8002dde:	3b01      	subs	r3, #1
 8002de0:	e7e0      	b.n	8002da4 <ADC_Enable+0x28>
 8002de2:	bf00      	nop
 8002de4:	20000338 	.word	0x20000338
 8002de8:	000f4240 	.word	0x000f4240

08002dec <HAL_ADC_Start_DMA>:
{
 8002dec:	b5f8      	push	{r3, r4, r5, r6, r7, lr}
 8002dee:	4617      	mov	r7, r2
  assert_param(IS_ADC_DMA_CAPABILITY_INSTANCE(hadc->Instance));
 8002df0:	4d40      	ldr	r5, [pc, #256]	; (8002ef4 <HAL_ADC_Start_DMA+0x108>)
 8002df2:	6802      	ldr	r2, [r0, #0]
{
 8002df4:	4604      	mov	r4, r0
  assert_param(IS_ADC_DMA_CAPABILITY_INSTANCE(hadc->Instance));
 8002df6:	42aa      	cmp	r2, r5
{
 8002df8:	460e      	mov	r6, r1
  assert_param(IS_ADC_DMA_CAPABILITY_INSTANCE(hadc->Instance));
 8002dfa:	d004      	beq.n	8002e06 <HAL_ADC_Start_DMA+0x1a>
 8002dfc:	f240 41fc 	movw	r1, #1276	; 0x4fc
 8002e00:	483d      	ldr	r0, [pc, #244]	; (8002ef8 <HAL_ADC_Start_DMA+0x10c>)
 8002e02:	f7ff f890 	bl	8001f26 <assert_failed>
  if(ADC_MULTIMODE_IS_ENABLE(hadc) == RESET)
 8002e06:	6823      	ldr	r3, [r4, #0]
 8002e08:	42ab      	cmp	r3, r5
 8002e0a:	d002      	beq.n	8002e12 <HAL_ADC_Start_DMA+0x26>
 8002e0c:	4a3b      	ldr	r2, [pc, #236]	; (8002efc <HAL_ADC_Start_DMA+0x110>)
 8002e0e:	4293      	cmp	r3, r2
 8002e10:	d104      	bne.n	8002e1c <HAL_ADC_Start_DMA+0x30>
 8002e12:	4b38      	ldr	r3, [pc, #224]	; (8002ef4 <HAL_ADC_Start_DMA+0x108>)
 8002e14:	685b      	ldr	r3, [r3, #4]
 8002e16:	f413 2f70 	tst.w	r3, #983040	; 0xf0000
 8002e1a:	d167      	bne.n	8002eec <HAL_ADC_Start_DMA+0x100>
    __HAL_LOCK(hadc);
 8002e1c:	f894 3024 	ldrb.w	r3, [r4, #36]	; 0x24
 8002e20:	2b01      	cmp	r3, #1
 8002e22:	d065      	beq.n	8002ef0 <HAL_ADC_Start_DMA+0x104>
 8002e24:	2301      	movs	r3, #1
    tmp_hal_status = ADC_Enable(hadc);
 8002e26:	4620      	mov	r0, r4
    __HAL_LOCK(hadc);
 8002e28:	f884 3024 	strb.w	r3, [r4, #36]	; 0x24
    tmp_hal_status = ADC_Enable(hadc);
 8002e2c:	f7ff ffa6 	bl	8002d7c <ADC_Enable>
    if (tmp_hal_status == HAL_OK)
 8002e30:	4605      	mov	r5, r0
 8002e32:	2800      	cmp	r0, #0
 8002e34:	d156      	bne.n	8002ee4 <HAL_ADC_Start_DMA+0xf8>
      ADC_STATE_CLR_SET(hadc->State,
 8002e36:	6aa3      	ldr	r3, [r4, #40]	; 0x28
    if (ADC_NONMULTIMODE_OR_MULTIMODEMASTER(hadc))
 8002e38:	6821      	ldr	r1, [r4, #0]
      ADC_STATE_CLR_SET(hadc->State,
 8002e3a:	f423 6370 	bic.w	r3, r3, #3840	; 0xf00
 8002e3e:	f023 0301 	bic.w	r3, r3, #1
 8002e42:	f443 7380 	orr.w	r3, r3, #256	; 0x100
 8002e46:	62a3      	str	r3, [r4, #40]	; 0x28
    if (ADC_NONMULTIMODE_OR_MULTIMODEMASTER(hadc))
 8002e48:	4b2c      	ldr	r3, [pc, #176]	; (8002efc <HAL_ADC_Start_DMA+0x110>)
 8002e4a:	4299      	cmp	r1, r3
 8002e4c:	d104      	bne.n	8002e58 <HAL_ADC_Start_DMA+0x6c>
 8002e4e:	4a29      	ldr	r2, [pc, #164]	; (8002ef4 <HAL_ADC_Start_DMA+0x108>)
 8002e50:	6853      	ldr	r3, [r2, #4]
 8002e52:	f413 2f70 	tst.w	r3, #983040	; 0xf0000
 8002e56:	d13f      	bne.n	8002ed8 <HAL_ADC_Start_DMA+0xec>
      CLEAR_BIT(hadc->State, HAL_ADC_STATE_MULTIMODE_SLAVE);
 8002e58:	6aa3      	ldr	r3, [r4, #40]	; 0x28
 8002e5a:	f423 1380 	bic.w	r3, r3, #1048576	; 0x100000
 8002e5e:	62a3      	str	r3, [r4, #40]	; 0x28
      if (READ_BIT(hadc->Instance->CR1, ADC_CR1_JAUTO) != RESET)
 8002e60:	684b      	ldr	r3, [r1, #4]
      if (ADC_MULTIMODE_AUTO_INJECTED(hadc))
 8002e62:	055b      	lsls	r3, r3, #21
        ADC_STATE_CLR_SET(hadc->State, HAL_ADC_STATE_INJ_EOC, HAL_ADC_STATE_INJ_BUSY);
 8002e64:	bf48      	it	mi
 8002e66:	6aa3      	ldrmi	r3, [r4, #40]	; 0x28
      hadc->DMA_Handle->XferCpltCallback = ADC_DMAConvCplt;
 8002e68:	6a20      	ldr	r0, [r4, #32]
        ADC_STATE_CLR_SET(hadc->State, HAL_ADC_STATE_INJ_EOC, HAL_ADC_STATE_INJ_BUSY);
 8002e6a:	bf42      	ittt	mi
 8002e6c:	f423 5340 	bicmi.w	r3, r3, #12288	; 0x3000
 8002e70:	f443 5380 	orrmi.w	r3, r3, #4096	; 0x1000
 8002e74:	62a3      	strmi	r3, [r4, #40]	; 0x28
      if (HAL_IS_BIT_SET(hadc->State, HAL_ADC_STATE_INJ_BUSY))
 8002e76:	6aa3      	ldr	r3, [r4, #40]	; 0x28
      HAL_DMA_Start_IT(hadc->DMA_Handle, (uint32_t)&hadc->Instance->DR, (uint32_t)pData, Length);
 8002e78:	4632      	mov	r2, r6
      if (HAL_IS_BIT_SET(hadc->State, HAL_ADC_STATE_INJ_BUSY))
 8002e7a:	f413 5380 	ands.w	r3, r3, #4096	; 0x1000
        CLEAR_BIT(hadc->ErrorCode, (HAL_ADC_ERROR_OVR | HAL_ADC_ERROR_DMA));         
 8002e7e:	bf18      	it	ne
 8002e80:	6ae3      	ldrne	r3, [r4, #44]	; 0x2c
      HAL_DMA_Start_IT(hadc->DMA_Handle, (uint32_t)&hadc->Instance->DR, (uint32_t)pData, Length);
 8002e82:	f101 014c 	add.w	r1, r1, #76	; 0x4c
        CLEAR_BIT(hadc->ErrorCode, (HAL_ADC_ERROR_OVR | HAL_ADC_ERROR_DMA));         
 8002e86:	bf18      	it	ne
 8002e88:	f023 0306 	bicne.w	r3, r3, #6
        ADC_CLEAR_ERRORCODE(hadc);
 8002e8c:	62e3      	str	r3, [r4, #44]	; 0x2c
      __HAL_UNLOCK(hadc);
 8002e8e:	2300      	movs	r3, #0
 8002e90:	f884 3024 	strb.w	r3, [r4, #36]	; 0x24
      hadc->DMA_Handle->XferCpltCallback = ADC_DMAConvCplt;
 8002e94:	4b1a      	ldr	r3, [pc, #104]	; (8002f00 <HAL_ADC_Start_DMA+0x114>)
 8002e96:	6283      	str	r3, [r0, #40]	; 0x28
      hadc->DMA_Handle->XferHalfCpltCallback = ADC_DMAHalfConvCplt;
 8002e98:	4b1a      	ldr	r3, [pc, #104]	; (8002f04 <HAL_ADC_Start_DMA+0x118>)
 8002e9a:	62c3      	str	r3, [r0, #44]	; 0x2c
      hadc->DMA_Handle->XferErrorCallback = ADC_DMAError;
 8002e9c:	4b1a      	ldr	r3, [pc, #104]	; (8002f08 <HAL_ADC_Start_DMA+0x11c>)
 8002e9e:	6303      	str	r3, [r0, #48]	; 0x30
      __HAL_ADC_CLEAR_FLAG(hadc, ADC_FLAG_EOC);
 8002ea0:	f06f 0302 	mvn.w	r3, #2
 8002ea4:	f841 3c4c 	str.w	r3, [r1, #-76]
      SET_BIT(hadc->Instance->CR2, ADC_CR2_DMA);
 8002ea8:	f851 3c44 	ldr.w	r3, [r1, #-68]
 8002eac:	f443 7380 	orr.w	r3, r3, #256	; 0x100
 8002eb0:	f841 3c44 	str.w	r3, [r1, #-68]
      HAL_DMA_Start_IT(hadc->DMA_Handle, (uint32_t)&hadc->Instance->DR, (uint32_t)pData, Length);
 8002eb4:	463b      	mov	r3, r7
 8002eb6:	f000 fa63 	bl	8003380 <HAL_DMA_Start_IT>
      if (ADC_IS_SOFTWARE_START_REGULAR(hadc))
 8002eba:	6823      	ldr	r3, [r4, #0]
 8002ebc:	689a      	ldr	r2, [r3, #8]
 8002ebe:	f402 2260 	and.w	r2, r2, #917504	; 0xe0000
 8002ec2:	f5b2 2f60 	cmp.w	r2, #917504	; 0xe0000
        SET_BIT(hadc->Instance->CR2, (ADC_CR2_SWSTART | ADC_CR2_EXTTRIG));
 8002ec6:	689a      	ldr	r2, [r3, #8]
 8002ec8:	bf0c      	ite	eq
 8002eca:	f442 02a0 	orreq.w	r2, r2, #5242880	; 0x500000
        SET_BIT(hadc->Instance->CR2, ADC_CR2_EXTTRIG);
 8002ece:	f442 1280 	orrne.w	r2, r2, #1048576	; 0x100000
 8002ed2:	609a      	str	r2, [r3, #8]
}
 8002ed4:	4628      	mov	r0, r5
 8002ed6:	bdf8      	pop	{r3, r4, r5, r6, r7, pc}
      SET_BIT(hadc->State, HAL_ADC_STATE_MULTIMODE_SLAVE);
 8002ed8:	6aa3      	ldr	r3, [r4, #40]	; 0x28
 8002eda:	f443 1380 	orr.w	r3, r3, #1048576	; 0x100000
 8002ede:	62a3      	str	r3, [r4, #40]	; 0x28
      if (ADC_MULTIMODE_AUTO_INJECTED(hadc))
 8002ee0:	6853      	ldr	r3, [r2, #4]
 8002ee2:	e7be      	b.n	8002e62 <HAL_ADC_Start_DMA+0x76>
      __HAL_UNLOCK(hadc);
 8002ee4:	2300      	movs	r3, #0
 8002ee6:	f884 3024 	strb.w	r3, [r4, #36]	; 0x24
 8002eea:	e7f3      	b.n	8002ed4 <HAL_ADC_Start_DMA+0xe8>
    tmp_hal_status = HAL_ERROR;
 8002eec:	2501      	movs	r5, #1
 8002eee:	e7f1      	b.n	8002ed4 <HAL_ADC_Start_DMA+0xe8>
    __HAL_LOCK(hadc);
 8002ef0:	2502      	movs	r5, #2
 8002ef2:	e7ef      	b.n	8002ed4 <HAL_ADC_Start_DMA+0xe8>
 8002ef4:	40012400 	.word	0x40012400
 8002ef8:	080065d6 	.word	0x080065d6
 8002efc:	40012800 	.word	0x40012800
 8002f00:	08002a77 	.word	0x08002a77
 8002f04:	08002ac7 	.word	0x08002ac7
 8002f08:	08002c07 	.word	0x08002c07

08002f0c <ADC_ConversionStop_Disable>:
{
 8002f0c:	b538      	push	{r3, r4, r5, lr}
  if (ADC_IS_ENABLE(hadc) != RESET)
 8002f0e:	6803      	ldr	r3, [r0, #0]
{
 8002f10:	4604      	mov	r4, r0
  if (ADC_IS_ENABLE(hadc) != RESET)
 8002f12:	689a      	ldr	r2, [r3, #8]
 8002f14:	07d2      	lsls	r2, r2, #31
 8002f16:	d401      	bmi.n	8002f1c <ADC_ConversionStop_Disable+0x10>
  return HAL_OK;
 8002f18:	2000      	movs	r0, #0
 8002f1a:	bd38      	pop	{r3, r4, r5, pc}
    __HAL_ADC_DISABLE(hadc);
 8002f1c:	689a      	ldr	r2, [r3, #8]
 8002f1e:	f022 0201 	bic.w	r2, r2, #1
 8002f22:	609a      	str	r2, [r3, #8]
    tickstart = HAL_GetTick();
 8002f24:	f7ff fd8e 	bl	8002a44 <HAL_GetTick>
 8002f28:	4605      	mov	r5, r0
    while(ADC_IS_ENABLE(hadc) != RESET)
 8002f2a:	6823      	ldr	r3, [r4, #0]
 8002f2c:	689b      	ldr	r3, [r3, #8]
 8002f2e:	07db      	lsls	r3, r3, #31
 8002f30:	d5f2      	bpl.n	8002f18 <ADC_ConversionStop_Disable+0xc>
      if((HAL_GetTick() - tickstart) > ADC_DISABLE_TIMEOUT)
 8002f32:	f7ff fd87 	bl	8002a44 <HAL_GetTick>
 8002f36:	1b40      	subs	r0, r0, r5
 8002f38:	2802      	cmp	r0, #2
 8002f3a:	d9f6      	bls.n	8002f2a <ADC_ConversionStop_Disable+0x1e>
        SET_BIT(hadc->State, HAL_ADC_STATE_ERROR_INTERNAL);
 8002f3c:	6aa3      	ldr	r3, [r4, #40]	; 0x28
        SET_BIT(hadc->ErrorCode, HAL_ADC_ERROR_INTERNAL);
 8002f3e:	2001      	movs	r0, #1
        SET_BIT(hadc->State, HAL_ADC_STATE_ERROR_INTERNAL);
 8002f40:	f043 0310 	orr.w	r3, r3, #16
 8002f44:	62a3      	str	r3, [r4, #40]	; 0x28
        SET_BIT(hadc->ErrorCode, HAL_ADC_ERROR_INTERNAL);
 8002f46:	6ae3      	ldr	r3, [r4, #44]	; 0x2c
 8002f48:	f043 0301 	orr.w	r3, r3, #1
 8002f4c:	62e3      	str	r3, [r4, #44]	; 0x2c
 8002f4e:	bd38      	pop	{r3, r4, r5, pc}

08002f50 <HAL_ADC_Init>:
{
 8002f50:	b570      	push	{r4, r5, r6, lr}
  if(hadc == NULL)
 8002f52:	4604      	mov	r4, r0
 8002f54:	2800      	cmp	r0, #0
 8002f56:	f000 80c9 	beq.w	80030ec <HAL_ADC_Init+0x19c>
  assert_param(IS_ADC_ALL_INSTANCE(hadc->Instance));
 8002f5a:	6803      	ldr	r3, [r0, #0]
 8002f5c:	4a66      	ldr	r2, [pc, #408]	; (80030f8 <HAL_ADC_Init+0x1a8>)
 8002f5e:	4293      	cmp	r3, r2
 8002f60:	d008      	beq.n	8002f74 <HAL_ADC_Init+0x24>
 8002f62:	f502 6280 	add.w	r2, r2, #1024	; 0x400
 8002f66:	4293      	cmp	r3, r2
 8002f68:	d004      	beq.n	8002f74 <HAL_ADC_Init+0x24>
 8002f6a:	f44f 71c1 	mov.w	r1, #386	; 0x182
 8002f6e:	4863      	ldr	r0, [pc, #396]	; (80030fc <HAL_ADC_Init+0x1ac>)
 8002f70:	f7fe ffd9 	bl	8001f26 <assert_failed>
  assert_param(IS_ADC_DATA_ALIGN(hadc->Init.DataAlign));
 8002f74:	6863      	ldr	r3, [r4, #4]
 8002f76:	f433 6300 	bics.w	r3, r3, #2048	; 0x800
 8002f7a:	d004      	beq.n	8002f86 <HAL_ADC_Init+0x36>
 8002f7c:	f240 1183 	movw	r1, #387	; 0x183
 8002f80:	485e      	ldr	r0, [pc, #376]	; (80030fc <HAL_ADC_Init+0x1ac>)
 8002f82:	f7fe ffd0 	bl	8001f26 <assert_failed>
  assert_param(IS_ADC_SCAN_MODE(hadc->Init.ScanConvMode));
 8002f86:	68a3      	ldr	r3, [r4, #8]
 8002f88:	f433 7380 	bics.w	r3, r3, #256	; 0x100
 8002f8c:	d004      	beq.n	8002f98 <HAL_ADC_Init+0x48>
 8002f8e:	f44f 71c2 	mov.w	r1, #388	; 0x184
 8002f92:	485a      	ldr	r0, [pc, #360]	; (80030fc <HAL_ADC_Init+0x1ac>)
 8002f94:	f7fe ffc7 	bl	8001f26 <assert_failed>
  assert_param(IS_FUNCTIONAL_STATE(hadc->Init.ContinuousConvMode));
 8002f98:	68e3      	ldr	r3, [r4, #12]
 8002f9a:	2b01      	cmp	r3, #1
 8002f9c:	d904      	bls.n	8002fa8 <HAL_ADC_Init+0x58>
 8002f9e:	f240 1185 	movw	r1, #389	; 0x185
 8002fa2:	4856      	ldr	r0, [pc, #344]	; (80030fc <HAL_ADC_Init+0x1ac>)
 8002fa4:	f7fe ffbf 	bl	8001f26 <assert_failed>
  assert_param(IS_ADC_EXTTRIG(hadc->Init.ExternalTrigConv));
 8002fa8:	69e3      	ldr	r3, [r4, #28]
 8002faa:	f433 2220 	bics.w	r2, r3, #655360	; 0xa0000
 8002fae:	d00c      	beq.n	8002fca <HAL_ADC_Init+0x7a>
 8002fb0:	f423 2200 	bic.w	r2, r3, #524288	; 0x80000
 8002fb4:	f5b2 2fc0 	cmp.w	r2, #393216	; 0x60000
 8002fb8:	d007      	beq.n	8002fca <HAL_ADC_Init+0x7a>
 8002fba:	f5b3 2f40 	cmp.w	r3, #786432	; 0xc0000
 8002fbe:	d004      	beq.n	8002fca <HAL_ADC_Init+0x7a>
 8002fc0:	f44f 71c3 	mov.w	r1, #390	; 0x186
 8002fc4:	484d      	ldr	r0, [pc, #308]	; (80030fc <HAL_ADC_Init+0x1ac>)
 8002fc6:	f7fe ffae 	bl	8001f26 <assert_failed>
  if(hadc->Init.ScanConvMode != ADC_SCAN_DISABLE)
 8002fca:	68a3      	ldr	r3, [r4, #8]
 8002fcc:	b1db      	cbz	r3, 8003006 <HAL_ADC_Init+0xb6>
    assert_param(IS_ADC_REGULAR_NB_CONV(hadc->Init.NbrOfConversion));
 8002fce:	6923      	ldr	r3, [r4, #16]
 8002fd0:	3b01      	subs	r3, #1
 8002fd2:	2b0f      	cmp	r3, #15
 8002fd4:	d904      	bls.n	8002fe0 <HAL_ADC_Init+0x90>
 8002fd6:	f44f 71c5 	mov.w	r1, #394	; 0x18a
 8002fda:	4848      	ldr	r0, [pc, #288]	; (80030fc <HAL_ADC_Init+0x1ac>)
 8002fdc:	f7fe ffa3 	bl	8001f26 <assert_failed>
    assert_param(IS_FUNCTIONAL_STATE(hadc->Init.DiscontinuousConvMode));
 8002fe0:	6963      	ldr	r3, [r4, #20]
 8002fe2:	2b01      	cmp	r3, #1
 8002fe4:	d904      	bls.n	8002ff0 <HAL_ADC_Init+0xa0>
 8002fe6:	f240 118b 	movw	r1, #395	; 0x18b
 8002fea:	4844      	ldr	r0, [pc, #272]	; (80030fc <HAL_ADC_Init+0x1ac>)
 8002fec:	f7fe ff9b 	bl	8001f26 <assert_failed>
    if(hadc->Init.DiscontinuousConvMode != DISABLE)
 8002ff0:	6963      	ldr	r3, [r4, #20]
 8002ff2:	b143      	cbz	r3, 8003006 <HAL_ADC_Init+0xb6>
      assert_param(IS_ADC_REGULAR_DISCONT_NUMBER(hadc->Init.NbrOfDiscConversion));
 8002ff4:	69a3      	ldr	r3, [r4, #24]
 8002ff6:	3b01      	subs	r3, #1
 8002ff8:	2b07      	cmp	r3, #7
 8002ffa:	d904      	bls.n	8003006 <HAL_ADC_Init+0xb6>
 8002ffc:	f44f 71c7 	mov.w	r1, #398	; 0x18e
 8003000:	483e      	ldr	r0, [pc, #248]	; (80030fc <HAL_ADC_Init+0x1ac>)
 8003002:	f7fe ff90 	bl	8001f26 <assert_failed>
  if (hadc->State == HAL_ADC_STATE_RESET)
 8003006:	6aa3      	ldr	r3, [r4, #40]	; 0x28
 8003008:	b92b      	cbnz	r3, 8003016 <HAL_ADC_Init+0xc6>
    ADC_CLEAR_ERRORCODE(hadc);
 800300a:	62e3      	str	r3, [r4, #44]	; 0x2c
    hadc->Lock = HAL_UNLOCKED;
 800300c:	f884 3024 	strb.w	r3, [r4, #36]	; 0x24
    HAL_ADC_MspInit(hadc);
 8003010:	4620      	mov	r0, r4
 8003012:	f7fd fbd5 	bl	80007c0 <HAL_ADC_MspInit>
  tmp_hal_status = ADC_ConversionStop_Disable(hadc);
 8003016:	4620      	mov	r0, r4
 8003018:	f7ff ff78 	bl	8002f0c <ADC_ConversionStop_Disable>
  if (HAL_IS_BIT_CLR(hadc->State, HAL_ADC_STATE_ERROR_INTERNAL) &&
 800301c:	6aa3      	ldr	r3, [r4, #40]	; 0x28
 800301e:	f013 0f10 	tst.w	r3, #16
    ADC_STATE_CLR_SET(hadc->State,
 8003022:	6aa3      	ldr	r3, [r4, #40]	; 0x28
  if (HAL_IS_BIT_CLR(hadc->State, HAL_ADC_STATE_ERROR_INTERNAL) &&
 8003024:	d164      	bne.n	80030f0 <HAL_ADC_Init+0x1a0>
 8003026:	2800      	cmp	r0, #0
 8003028:	d162      	bne.n	80030f0 <HAL_ADC_Init+0x1a0>
    tmp_cr2 |= (hadc->Init.DataAlign                               |
 800302a:	69e1      	ldr	r1, [r4, #28]
    ADC_STATE_CLR_SET(hadc->State,
 800302c:	f423 5388 	bic.w	r3, r3, #4352	; 0x1100
    tmp_cr2 |= (hadc->Init.DataAlign                               |
 8003030:	6862      	ldr	r2, [r4, #4]
    ADC_STATE_CLR_SET(hadc->State,
 8003032:	f023 0302 	bic.w	r3, r3, #2
 8003036:	f043 0302 	orr.w	r3, r3, #2
    tmp_cr2 |= (hadc->Init.DataAlign                               |
 800303a:	430a      	orrs	r2, r1
    tmp_cr1 |= (ADC_CR1_SCAN_SET(hadc->Init.ScanConvMode));
 800303c:	68a1      	ldr	r1, [r4, #8]
    ADC_STATE_CLR_SET(hadc->State,
 800303e:	62a3      	str	r3, [r4, #40]	; 0x28
                ADC_CR2_CONTINUOUS(hadc->Init.ContinuousConvMode)   );
 8003040:	68e3      	ldr	r3, [r4, #12]
    tmp_cr1 |= (ADC_CR1_SCAN_SET(hadc->Init.ScanConvMode));
 8003042:	f5b1 7f80 	cmp.w	r1, #256	; 0x100
                ADC_CFGR_EXTSEL(hadc, hadc->Init.ExternalTrigConv) |
 8003046:	ea42 0243 	orr.w	r2, r2, r3, lsl #1
    tmp_cr1 |= (ADC_CR1_SCAN_SET(hadc->Init.ScanConvMode));
 800304a:	d038      	beq.n	80030be <HAL_ADC_Init+0x16e>
 800304c:	2901      	cmp	r1, #1
 800304e:	bf14      	ite	ne
 8003050:	4606      	movne	r6, r0
 8003052:	f44f 7680 	moveq.w	r6, #256	; 0x100
    if (hadc->Init.DiscontinuousConvMode == ENABLE)
 8003056:	6965      	ldr	r5, [r4, #20]
 8003058:	2d01      	cmp	r5, #1
 800305a:	d107      	bne.n	800306c <HAL_ADC_Init+0x11c>
      if (hadc->Init.ContinuousConvMode == DISABLE)
 800305c:	2b00      	cmp	r3, #0
 800305e:	d130      	bne.n	80030c2 <HAL_ADC_Init+0x172>
        SET_BIT(tmp_cr1, ADC_CR1_DISCEN                                            |
 8003060:	69a3      	ldr	r3, [r4, #24]
 8003062:	3b01      	subs	r3, #1
 8003064:	ea46 3543 	orr.w	r5, r6, r3, lsl #13
 8003068:	f445 6600 	orr.w	r6, r5, #2048	; 0x800
      MODIFY_REG(hadc->Instance->CR1,
 800306c:	6823      	ldr	r3, [r4, #0]
    if (ADC_CR1_SCAN_SET(hadc->Init.ScanConvMode) == ADC_SCAN_ENABLE)
 800306e:	f5b1 7f80 	cmp.w	r1, #256	; 0x100
      MODIFY_REG(hadc->Instance->CR1,
 8003072:	685d      	ldr	r5, [r3, #4]
 8003074:	f425 4569 	bic.w	r5, r5, #59648	; 0xe900
 8003078:	ea45 0506 	orr.w	r5, r5, r6
 800307c:	605d      	str	r5, [r3, #4]
      MODIFY_REG(hadc->Instance->CR2,
 800307e:	689e      	ldr	r6, [r3, #8]
 8003080:	4d1f      	ldr	r5, [pc, #124]	; (8003100 <HAL_ADC_Init+0x1b0>)
 8003082:	ea05 0506 	and.w	r5, r5, r6
 8003086:	ea45 0502 	orr.w	r5, r5, r2
 800308a:	609d      	str	r5, [r3, #8]
    if (ADC_CR1_SCAN_SET(hadc->Init.ScanConvMode) == ADC_SCAN_ENABLE)
 800308c:	d001      	beq.n	8003092 <HAL_ADC_Init+0x142>
 800308e:	2901      	cmp	r1, #1
 8003090:	d120      	bne.n	80030d4 <HAL_ADC_Init+0x184>
      tmp_sqr1 = ADC_SQR1_L_SHIFT(hadc->Init.NbrOfConversion);
 8003092:	6921      	ldr	r1, [r4, #16]
 8003094:	3901      	subs	r1, #1
 8003096:	0509      	lsls	r1, r1, #20
    MODIFY_REG(hadc->Instance->SQR1,
 8003098:	6add      	ldr	r5, [r3, #44]	; 0x2c
 800309a:	f425 0570 	bic.w	r5, r5, #15728640	; 0xf00000
 800309e:	4329      	orrs	r1, r5
 80030a0:	62d9      	str	r1, [r3, #44]	; 0x2c
    if (READ_BIT(hadc->Instance->CR2, ~(ADC_CR2_ADON | ADC_CR2_DMA |
 80030a2:	6899      	ldr	r1, [r3, #8]
 80030a4:	4b17      	ldr	r3, [pc, #92]	; (8003104 <HAL_ADC_Init+0x1b4>)
 80030a6:	400b      	ands	r3, r1
 80030a8:	429a      	cmp	r2, r3
 80030aa:	d115      	bne.n	80030d8 <HAL_ADC_Init+0x188>
      ADC_CLEAR_ERRORCODE(hadc);
 80030ac:	2300      	movs	r3, #0
 80030ae:	62e3      	str	r3, [r4, #44]	; 0x2c
      ADC_STATE_CLR_SET(hadc->State,
 80030b0:	6aa3      	ldr	r3, [r4, #40]	; 0x28
 80030b2:	f023 0303 	bic.w	r3, r3, #3
 80030b6:	f043 0301 	orr.w	r3, r3, #1
 80030ba:	62a3      	str	r3, [r4, #40]	; 0x28
 80030bc:	bd70      	pop	{r4, r5, r6, pc}
    tmp_cr1 |= (ADC_CR1_SCAN_SET(hadc->Init.ScanConvMode));
 80030be:	460e      	mov	r6, r1
 80030c0:	e7c9      	b.n	8003056 <HAL_ADC_Init+0x106>
        SET_BIT(hadc->State, HAL_ADC_STATE_ERROR_CONFIG);
 80030c2:	6aa3      	ldr	r3, [r4, #40]	; 0x28
 80030c4:	f043 0320 	orr.w	r3, r3, #32
 80030c8:	62a3      	str	r3, [r4, #40]	; 0x28
        SET_BIT(hadc->ErrorCode, HAL_ADC_ERROR_INTERNAL);
 80030ca:	6ae3      	ldr	r3, [r4, #44]	; 0x2c
 80030cc:	f043 0301 	orr.w	r3, r3, #1
 80030d0:	62e3      	str	r3, [r4, #44]	; 0x2c
 80030d2:	e7cb      	b.n	800306c <HAL_ADC_Init+0x11c>
  uint32_t tmp_sqr1 = 0U;
 80030d4:	2100      	movs	r1, #0
 80030d6:	e7df      	b.n	8003098 <HAL_ADC_Init+0x148>
      ADC_STATE_CLR_SET(hadc->State,
 80030d8:	6aa3      	ldr	r3, [r4, #40]	; 0x28
 80030da:	f023 0312 	bic.w	r3, r3, #18
 80030de:	f043 0310 	orr.w	r3, r3, #16
 80030e2:	62a3      	str	r3, [r4, #40]	; 0x28
      SET_BIT(hadc->ErrorCode, HAL_ADC_ERROR_INTERNAL);
 80030e4:	6ae3      	ldr	r3, [r4, #44]	; 0x2c
 80030e6:	f043 0301 	orr.w	r3, r3, #1
 80030ea:	62e3      	str	r3, [r4, #44]	; 0x2c
    return HAL_ERROR;
 80030ec:	2001      	movs	r0, #1
}
 80030ee:	bd70      	pop	{r4, r5, r6, pc}
    SET_BIT(hadc->State, HAL_ADC_STATE_ERROR_INTERNAL);
 80030f0:	f043 0310 	orr.w	r3, r3, #16
 80030f4:	62a3      	str	r3, [r4, #40]	; 0x28
 80030f6:	e7f9      	b.n	80030ec <HAL_ADC_Init+0x19c>
 80030f8:	40012400 	.word	0x40012400
 80030fc:	080065d6 	.word	0x080065d6
 8003100:	ffe1f7fd 	.word	0xffe1f7fd
 8003104:	ff1f0efe 	.word	0xff1f0efe

08003108 <HAL_ADCEx_InjectedConvCpltCallback>:
  * @brief  Injected conversion complete callback in non blocking mode 
  * @param  hadc: ADC handle
  * @retval None
  */
__weak void HAL_ADCEx_InjectedConvCpltCallback(ADC_HandleTypeDef* hadc)
{
 8003108:	4770      	bx	lr
	...

0800310c <HAL_NVIC_SetPriorityGrouping>:
  * @retval None
  */
void HAL_NVIC_SetPriorityGrouping(uint32_t PriorityGroup)
{
  /* Check the parameters */
  assert_param(IS_NVIC_PRIORITY_GROUP(PriorityGroup));
 800310c:	1ec3      	subs	r3, r0, #3
 800310e:	2b04      	cmp	r3, #4
{
 8003110:	b510      	push	{r4, lr}
 8003112:	4604      	mov	r4, r0
  assert_param(IS_NVIC_PRIORITY_GROUP(PriorityGroup));
 8003114:	d903      	bls.n	800311e <HAL_NVIC_SetPriorityGrouping+0x12>
 8003116:	21a2      	movs	r1, #162	; 0xa2
 8003118:	4809      	ldr	r0, [pc, #36]	; (8003140 <HAL_NVIC_SetPriorityGrouping+0x34>)
 800311a:	f7fe ff04 	bl	8001f26 <assert_failed>
__STATIC_INLINE void NVIC_SetPriorityGrouping(uint32_t PriorityGroup)
{
  uint32_t reg_value;
  uint32_t PriorityGroupTmp = (PriorityGroup & (uint32_t)0x07UL);             /* only values 0..7 are used          */

  reg_value  =  SCB->AIRCR;                                                   /* read old register configuration    */
 800311e:	4a09      	ldr	r2, [pc, #36]	; (8003144 <HAL_NVIC_SetPriorityGrouping+0x38>)
  reg_value &= ~((uint32_t)(SCB_AIRCR_VECTKEY_Msk | SCB_AIRCR_PRIGROUP_Msk)); /* clear bits to change               */
  reg_value  =  (reg_value                                   |
                ((uint32_t)0x5FAUL << SCB_AIRCR_VECTKEY_Pos) |
                (PriorityGroupTmp << 8U)                      );              /* Insert write key and priorty group */
 8003120:	0224      	lsls	r4, r4, #8
  reg_value  =  SCB->AIRCR;                                                   /* read old register configuration    */
 8003122:	68d3      	ldr	r3, [r2, #12]
                (PriorityGroupTmp << 8U)                      );              /* Insert write key and priorty group */
 8003124:	f404 64e0 	and.w	r4, r4, #1792	; 0x700
  reg_value &= ~((uint32_t)(SCB_AIRCR_VECTKEY_Msk | SCB_AIRCR_PRIGROUP_Msk)); /* clear bits to change               */
 8003128:	f423 63e0 	bic.w	r3, r3, #1792	; 0x700
 800312c:	041b      	lsls	r3, r3, #16
 800312e:	0c1b      	lsrs	r3, r3, #16
 8003130:	f043 63bf 	orr.w	r3, r3, #100139008	; 0x5f80000
 8003134:	f443 3300 	orr.w	r3, r3, #131072	; 0x20000
  reg_value  =  (reg_value                                   |
 8003138:	431c      	orrs	r4, r3
  SCB->AIRCR =  reg_value;
 800313a:	60d4      	str	r4, [r2, #12]
 800313c:	bd10      	pop	{r4, pc}
 800313e:	bf00      	nop
 8003140:	0800660e 	.word	0x0800660e
 8003144:	e000ed00 	.word	0xe000ed00

08003148 <HAL_NVIC_SetPriority>:
void HAL_NVIC_SetPriority(IRQn_Type IRQn, uint32_t PreemptPriority, uint32_t SubPriority)
{ 
  uint32_t prioritygroup = 0x00U;
  
  /* Check the parameters */
  assert_param(IS_NVIC_SUB_PRIORITY(SubPriority));
 8003148:	2a0f      	cmp	r2, #15
{ 
 800314a:	b570      	push	{r4, r5, r6, lr}
 800314c:	4604      	mov	r4, r0
 800314e:	460e      	mov	r6, r1
 8003150:	4615      	mov	r5, r2
  assert_param(IS_NVIC_SUB_PRIORITY(SubPriority));
 8003152:	d903      	bls.n	800315c <HAL_NVIC_SetPriority+0x14>
 8003154:	21ba      	movs	r1, #186	; 0xba
 8003156:	481a      	ldr	r0, [pc, #104]	; (80031c0 <HAL_NVIC_SetPriority+0x78>)
 8003158:	f7fe fee5 	bl	8001f26 <assert_failed>
  assert_param(IS_NVIC_PREEMPTION_PRIORITY(PreemptPriority));
 800315c:	2e0f      	cmp	r6, #15
 800315e:	d903      	bls.n	8003168 <HAL_NVIC_SetPriority+0x20>
 8003160:	21bb      	movs	r1, #187	; 0xbb
 8003162:	4817      	ldr	r0, [pc, #92]	; (80031c0 <HAL_NVIC_SetPriority+0x78>)
 8003164:	f7fe fedf 	bl	8001f26 <assert_failed>
  \details Reads the priority grouping field from the NVIC Interrupt Controller.
  \return                Priority grouping field (SCB->AIRCR [10:8] PRIGROUP field).
 */
__STATIC_INLINE uint32_t NVIC_GetPriorityGrouping(void)
{
  return ((uint32_t)((SCB->AIRCR & SCB_AIRCR_PRIGROUP_Msk) >> SCB_AIRCR_PRIGROUP_Pos));
 8003168:	4b16      	ldr	r3, [pc, #88]	; (80031c4 <HAL_NVIC_SetPriority+0x7c>)

  PreemptPriorityBits = ((7UL - PriorityGroupTmp) > (uint32_t)(__NVIC_PRIO_BITS)) ? (uint32_t)(__NVIC_PRIO_BITS) : (uint32_t)(7UL - PriorityGroupTmp);
  SubPriorityBits     = ((PriorityGroupTmp + (uint32_t)(__NVIC_PRIO_BITS)) < (uint32_t)7UL) ? (uint32_t)0UL : (uint32_t)((PriorityGroupTmp - 7UL) + (uint32_t)(__NVIC_PRIO_BITS));

  return (
           ((PreemptPriority & (uint32_t)((1UL << (PreemptPriorityBits)) - 1UL)) << SubPriorityBits) |
 800316a:	2001      	movs	r0, #1
  return ((uint32_t)((SCB->AIRCR & SCB_AIRCR_PRIGROUP_Msk) >> SCB_AIRCR_PRIGROUP_Pos));
 800316c:	68d9      	ldr	r1, [r3, #12]
 800316e:	f3c1 2102 	ubfx	r1, r1, #8, #3
  PreemptPriorityBits = ((7UL - PriorityGroupTmp) > (uint32_t)(__NVIC_PRIO_BITS)) ? (uint32_t)(__NVIC_PRIO_BITS) : (uint32_t)(7UL - PriorityGroupTmp);
 8003172:	f1c1 0307 	rsb	r3, r1, #7
  SubPriorityBits     = ((PriorityGroupTmp + (uint32_t)(__NVIC_PRIO_BITS)) < (uint32_t)7UL) ? (uint32_t)0UL : (uint32_t)((PriorityGroupTmp - 7UL) + (uint32_t)(__NVIC_PRIO_BITS));
 8003176:	1d0a      	adds	r2, r1, #4
  PreemptPriorityBits = ((7UL - PriorityGroupTmp) > (uint32_t)(__NVIC_PRIO_BITS)) ? (uint32_t)(__NVIC_PRIO_BITS) : (uint32_t)(7UL - PriorityGroupTmp);
 8003178:	2b04      	cmp	r3, #4
 800317a:	bf28      	it	cs
 800317c:	2304      	movcs	r3, #4
  SubPriorityBits     = ((PriorityGroupTmp + (uint32_t)(__NVIC_PRIO_BITS)) < (uint32_t)7UL) ? (uint32_t)0UL : (uint32_t)((PriorityGroupTmp - 7UL) + (uint32_t)(__NVIC_PRIO_BITS));
 800317e:	2a06      	cmp	r2, #6
 8003180:	bf94      	ite	ls
 8003182:	2100      	movls	r1, #0
 8003184:	3903      	subhi	r1, #3
           ((PreemptPriority & (uint32_t)((1UL << (PreemptPriorityBits)) - 1UL)) << SubPriorityBits) |
 8003186:	fa00 f203 	lsl.w	r2, r0, r3
 800318a:	3a01      	subs	r2, #1
           ((SubPriority     & (uint32_t)((1UL << (SubPriorityBits    )) - 1UL)))
 800318c:	4088      	lsls	r0, r1
           ((PreemptPriority & (uint32_t)((1UL << (PreemptPriorityBits)) - 1UL)) << SubPriorityBits) |
 800318e:	4032      	ands	r2, r6
           ((SubPriority     & (uint32_t)((1UL << (SubPriorityBits    )) - 1UL)))
 8003190:	3801      	subs	r0, #1
           ((PreemptPriority & (uint32_t)((1UL << (PreemptPriorityBits)) - 1UL)) << SubPriorityBits) |
 8003192:	408a      	lsls	r2, r1
           ((SubPriority     & (uint32_t)((1UL << (SubPriorityBits    )) - 1UL)))
 8003194:	4005      	ands	r5, r0
  if ((int32_t)(IRQn) < 0)
 8003196:	2c00      	cmp	r4, #0
           ((PreemptPriority & (uint32_t)((1UL << (PreemptPriorityBits)) - 1UL)) << SubPriorityBits) |
 8003198:	ea42 0205 	orr.w	r2, r2, r5
 800319c:	ea4f 1202 	mov.w	r2, r2, lsl #4
    NVIC->IP[((uint32_t)(int32_t)IRQn)]               = (uint8_t)((priority << (8U - __NVIC_PRIO_BITS)) & (uint32_t)0xFFUL);
 80031a0:	bfaf      	iteee	ge
 80031a2:	f104 4460 	addge.w	r4, r4, #3758096384	; 0xe0000000
    SCB->SHP[(((uint32_t)(int32_t)IRQn) & 0xFUL)-4UL] = (uint8_t)((priority << (8U - __NVIC_PRIO_BITS)) & (uint32_t)0xFFUL);
 80031a6:	4b08      	ldrlt	r3, [pc, #32]	; (80031c8 <HAL_NVIC_SetPriority+0x80>)
 80031a8:	f004 040f 	andlt.w	r4, r4, #15
 80031ac:	b2d2      	uxtblt	r2, r2
    NVIC->IP[((uint32_t)(int32_t)IRQn)]               = (uint8_t)((priority << (8U - __NVIC_PRIO_BITS)) & (uint32_t)0xFFUL);
 80031ae:	bfa5      	ittet	ge
 80031b0:	b2d2      	uxtbge	r2, r2
 80031b2:	f504 4461 	addge.w	r4, r4, #57600	; 0xe100
    SCB->SHP[(((uint32_t)(int32_t)IRQn) & 0xFUL)-4UL] = (uint8_t)((priority << (8U - __NVIC_PRIO_BITS)) & (uint32_t)0xFFUL);
 80031b6:	551a      	strblt	r2, [r3, r4]
    NVIC->IP[((uint32_t)(int32_t)IRQn)]               = (uint8_t)((priority << (8U - __NVIC_PRIO_BITS)) & (uint32_t)0xFFUL);
 80031b8:	f884 2300 	strbge.w	r2, [r4, #768]	; 0x300
 80031bc:	bd70      	pop	{r4, r5, r6, pc}
 80031be:	bf00      	nop
 80031c0:	0800660e 	.word	0x0800660e
 80031c4:	e000ed00 	.word	0xe000ed00
 80031c8:	e000ed14 	.word	0xe000ed14

080031cc <HAL_NVIC_EnableIRQ>:
  *         This parameter can be an enumerator of IRQn_Type enumeration
  *         (For the complete STM32 Devices IRQ Channels list, please refer to the appropriate CMSIS device file (stm32f10xxx.h))
  * @retval None
  */
void HAL_NVIC_EnableIRQ(IRQn_Type IRQn)
{
 80031cc:	b510      	push	{r4, lr}
  /* Check the parameters */
  assert_param(IS_NVIC_DEVICE_IRQ(IRQn));
 80031ce:	1e04      	subs	r4, r0, #0
 80031d0:	da03      	bge.n	80031da <HAL_NVIC_EnableIRQ+0xe>
 80031d2:	21ce      	movs	r1, #206	; 0xce
 80031d4:	4806      	ldr	r0, [pc, #24]	; (80031f0 <HAL_NVIC_EnableIRQ+0x24>)
 80031d6:	f7fe fea6 	bl	8001f26 <assert_failed>
  NVIC->ISER[(((uint32_t)(int32_t)IRQn) >> 5UL)] = (uint32_t)(1UL << (((uint32_t)(int32_t)IRQn) & 0x1FUL));
 80031da:	2301      	movs	r3, #1
 80031dc:	0962      	lsrs	r2, r4, #5
 80031de:	f004 041f 	and.w	r4, r4, #31
 80031e2:	fa03 f404 	lsl.w	r4, r3, r4
 80031e6:	4b03      	ldr	r3, [pc, #12]	; (80031f4 <HAL_NVIC_EnableIRQ+0x28>)
 80031e8:	f843 4022 	str.w	r4, [r3, r2, lsl #2]
 80031ec:	bd10      	pop	{r4, pc}
 80031ee:	bf00      	nop
 80031f0:	0800660e 	.word	0x0800660e
 80031f4:	e000e100 	.word	0xe000e100

080031f8 <HAL_SYSTICK_Config>:
           function <b>SysTick_Config</b> is not included. In this case, the file <b><i>device</i>.h</b>
           must contain a vendor-specific implementation of this function.
 */
__STATIC_INLINE uint32_t SysTick_Config(uint32_t ticks)
{
  if ((ticks - 1UL) > SysTick_LOAD_RELOAD_Msk)
 80031f8:	3801      	subs	r0, #1
 80031fa:	f1b0 7f80 	cmp.w	r0, #16777216	; 0x1000000
 80031fe:	d20a      	bcs.n	8003216 <HAL_SYSTICK_Config+0x1e>
    SCB->SHP[(((uint32_t)(int32_t)IRQn) & 0xFUL)-4UL] = (uint8_t)((priority << (8U - __NVIC_PRIO_BITS)) & (uint32_t)0xFFUL);
 8003200:	21f0      	movs	r1, #240	; 0xf0
  {
    return (1UL);                                                   /* Reload value impossible */
  }

  SysTick->LOAD  = (uint32_t)(ticks - 1UL);                         /* set reload register */
 8003202:	4b06      	ldr	r3, [pc, #24]	; (800321c <HAL_SYSTICK_Config+0x24>)
    SCB->SHP[(((uint32_t)(int32_t)IRQn) & 0xFUL)-4UL] = (uint8_t)((priority << (8U - __NVIC_PRIO_BITS)) & (uint32_t)0xFFUL);
 8003204:	4a06      	ldr	r2, [pc, #24]	; (8003220 <HAL_SYSTICK_Config+0x28>)
  SysTick->LOAD  = (uint32_t)(ticks - 1UL);                         /* set reload register */
 8003206:	6058      	str	r0, [r3, #4]
    SCB->SHP[(((uint32_t)(int32_t)IRQn) & 0xFUL)-4UL] = (uint8_t)((priority << (8U - __NVIC_PRIO_BITS)) & (uint32_t)0xFFUL);
 8003208:	f882 1023 	strb.w	r1, [r2, #35]	; 0x23
  NVIC_SetPriority (SysTick_IRQn, (1UL << __NVIC_PRIO_BITS) - 1UL); /* set Priority for Systick Interrupt */
  SysTick->VAL   = 0UL;                                             /* Load the SysTick Counter Value */
 800320c:	2000      	movs	r0, #0
  SysTick->CTRL  = SysTick_CTRL_CLKSOURCE_Msk |
 800320e:	2207      	movs	r2, #7
  SysTick->VAL   = 0UL;                                             /* Load the SysTick Counter Value */
 8003210:	6098      	str	r0, [r3, #8]
  SysTick->CTRL  = SysTick_CTRL_CLKSOURCE_Msk |
 8003212:	601a      	str	r2, [r3, #0]
 8003214:	4770      	bx	lr
    return (1UL);                                                   /* Reload value impossible */
 8003216:	2001      	movs	r0, #1
  *                  - 1  Function failed.
  */
uint32_t HAL_SYSTICK_Config(uint32_t TicksNumb)
{
   return SysTick_Config(TicksNumb);
}
 8003218:	4770      	bx	lr
 800321a:	bf00      	nop
 800321c:	e000e010 	.word	0xe000e010
 8003220:	e000ed00 	.word	0xe000ed00

08003224 <HAL_CRC_Init>:
  * @param  hcrc: pointer to a CRC_HandleTypeDef structure that contains
  *         the configuration information for CRC
  * @retval HAL status
  */
HAL_StatusTypeDef HAL_CRC_Init(CRC_HandleTypeDef *hcrc)
{
 8003224:	b510      	push	{r4, lr}
  /* Check the CRC handle allocation */
  if(hcrc == NULL)
 8003226:	4604      	mov	r4, r0
 8003228:	b198      	cbz	r0, 8003252 <HAL_CRC_Init+0x2e>
  {
    return HAL_ERROR;
  }

  /* Check the parameters */
  assert_param(IS_CRC_ALL_INSTANCE(hcrc->Instance));
 800322a:	6802      	ldr	r2, [r0, #0]
 800322c:	4b0a      	ldr	r3, [pc, #40]	; (8003258 <HAL_CRC_Init+0x34>)
 800322e:	429a      	cmp	r2, r3
 8003230:	d003      	beq.n	800323a <HAL_CRC_Init+0x16>
 8003232:	2177      	movs	r1, #119	; 0x77
 8003234:	4809      	ldr	r0, [pc, #36]	; (800325c <HAL_CRC_Init+0x38>)
 8003236:	f7fe fe76 	bl	8001f26 <assert_failed>

  if(hcrc->State == HAL_CRC_STATE_RESET)
 800323a:	7963      	ldrb	r3, [r4, #5]
 800323c:	f003 02ff 	and.w	r2, r3, #255	; 0xff
 8003240:	b91b      	cbnz	r3, 800324a <HAL_CRC_Init+0x26>
  {
    /* Allocate lock resource and initialize it */
    hcrc->Lock = HAL_UNLOCKED;
 8003242:	7122      	strb	r2, [r4, #4]
    
    /* Init the low level hardware */
    HAL_CRC_MspInit(hcrc);
 8003244:	4620      	mov	r0, r4
 8003246:	f7fd fb21 	bl	800088c <HAL_CRC_MspInit>
  }

  /* Change CRC peripheral state */
  hcrc->State = HAL_CRC_STATE_READY;
 800324a:	2301      	movs	r3, #1
  
  /* Return function status */
  return HAL_OK;
 800324c:	2000      	movs	r0, #0
  hcrc->State = HAL_CRC_STATE_READY;
 800324e:	7163      	strb	r3, [r4, #5]
  return HAL_OK;
 8003250:	bd10      	pop	{r4, pc}
    return HAL_ERROR;
 8003252:	2001      	movs	r0, #1
}
 8003254:	bd10      	pop	{r4, pc}
 8003256:	bf00      	nop
 8003258:	40023000 	.word	0x40023000
 800325c:	08006649 	.word	0x08006649

08003260 <HAL_DMA_Init>:
  * @param  hdma: Pointer to a DMA_HandleTypeDef structure that contains
  *               the configuration information for the specified DMA Channel.
  * @retval HAL status
  */
HAL_StatusTypeDef HAL_DMA_Init(DMA_HandleTypeDef *hdma)
{
 8003260:	b510      	push	{r4, lr}
  uint32_t tmp = 0U;

  /* Check the DMA handle allocation */
  if(hdma == NULL)
 8003262:	4604      	mov	r4, r0
 8003264:	2800      	cmp	r0, #0
 8003266:	f000 8081 	beq.w	800336c <HAL_DMA_Init+0x10c>
  {
    return HAL_ERROR;
  }

  /* Check the parameters */
  assert_param(IS_DMA_ALL_INSTANCE(hdma->Instance));
 800326a:	6803      	ldr	r3, [r0, #0]
 800326c:	4a40      	ldr	r2, [pc, #256]	; (8003370 <HAL_DMA_Init+0x110>)
 800326e:	4293      	cmp	r3, r2
 8003270:	d015      	beq.n	800329e <HAL_DMA_Init+0x3e>
 8003272:	3214      	adds	r2, #20
 8003274:	4293      	cmp	r3, r2
 8003276:	d012      	beq.n	800329e <HAL_DMA_Init+0x3e>
 8003278:	3214      	adds	r2, #20
 800327a:	4293      	cmp	r3, r2
 800327c:	d00f      	beq.n	800329e <HAL_DMA_Init+0x3e>
 800327e:	3214      	adds	r2, #20
 8003280:	4293      	cmp	r3, r2
 8003282:	d00c      	beq.n	800329e <HAL_DMA_Init+0x3e>
 8003284:	3214      	adds	r2, #20
 8003286:	4293      	cmp	r3, r2
 8003288:	d009      	beq.n	800329e <HAL_DMA_Init+0x3e>
 800328a:	3214      	adds	r2, #20
 800328c:	4293      	cmp	r3, r2
 800328e:	d006      	beq.n	800329e <HAL_DMA_Init+0x3e>
 8003290:	3214      	adds	r2, #20
 8003292:	4293      	cmp	r3, r2
 8003294:	d003      	beq.n	800329e <HAL_DMA_Init+0x3e>
 8003296:	21aa      	movs	r1, #170	; 0xaa
 8003298:	4836      	ldr	r0, [pc, #216]	; (8003374 <HAL_DMA_Init+0x114>)
 800329a:	f7fe fe44 	bl	8001f26 <assert_failed>
  assert_param(IS_DMA_DIRECTION(hdma->Init.Direction));
 800329e:	6863      	ldr	r3, [r4, #4]
 80032a0:	f033 0210 	bics.w	r2, r3, #16
 80032a4:	d006      	beq.n	80032b4 <HAL_DMA_Init+0x54>
 80032a6:	f5b3 4f80 	cmp.w	r3, #16384	; 0x4000
 80032aa:	d003      	beq.n	80032b4 <HAL_DMA_Init+0x54>
 80032ac:	21ab      	movs	r1, #171	; 0xab
 80032ae:	4831      	ldr	r0, [pc, #196]	; (8003374 <HAL_DMA_Init+0x114>)
 80032b0:	f7fe fe39 	bl	8001f26 <assert_failed>
  assert_param(IS_DMA_PERIPHERAL_INC_STATE(hdma->Init.PeriphInc));
 80032b4:	68a3      	ldr	r3, [r4, #8]
 80032b6:	f033 0340 	bics.w	r3, r3, #64	; 0x40
 80032ba:	d003      	beq.n	80032c4 <HAL_DMA_Init+0x64>
 80032bc:	21ac      	movs	r1, #172	; 0xac
 80032be:	482d      	ldr	r0, [pc, #180]	; (8003374 <HAL_DMA_Init+0x114>)
 80032c0:	f7fe fe31 	bl	8001f26 <assert_failed>
  assert_param(IS_DMA_MEMORY_INC_STATE(hdma->Init.MemInc));
 80032c4:	68e3      	ldr	r3, [r4, #12]
 80032c6:	f033 0380 	bics.w	r3, r3, #128	; 0x80
 80032ca:	d003      	beq.n	80032d4 <HAL_DMA_Init+0x74>
 80032cc:	21ad      	movs	r1, #173	; 0xad
 80032ce:	4829      	ldr	r0, [pc, #164]	; (8003374 <HAL_DMA_Init+0x114>)
 80032d0:	f7fe fe29 	bl	8001f26 <assert_failed>
  assert_param(IS_DMA_PERIPHERAL_DATA_SIZE(hdma->Init.PeriphDataAlignment));
 80032d4:	6923      	ldr	r3, [r4, #16]
 80032d6:	f433 7280 	bics.w	r2, r3, #256	; 0x100
 80032da:	d006      	beq.n	80032ea <HAL_DMA_Init+0x8a>
 80032dc:	f5b3 7f00 	cmp.w	r3, #512	; 0x200
 80032e0:	d003      	beq.n	80032ea <HAL_DMA_Init+0x8a>
 80032e2:	21ae      	movs	r1, #174	; 0xae
 80032e4:	4823      	ldr	r0, [pc, #140]	; (8003374 <HAL_DMA_Init+0x114>)
 80032e6:	f7fe fe1e 	bl	8001f26 <assert_failed>
  assert_param(IS_DMA_MEMORY_DATA_SIZE(hdma->Init.MemDataAlignment));
 80032ea:	6963      	ldr	r3, [r4, #20]
 80032ec:	f433 6280 	bics.w	r2, r3, #1024	; 0x400
 80032f0:	d006      	beq.n	8003300 <HAL_DMA_Init+0xa0>
 80032f2:	f5b3 6f00 	cmp.w	r3, #2048	; 0x800
 80032f6:	d003      	beq.n	8003300 <HAL_DMA_Init+0xa0>
 80032f8:	21af      	movs	r1, #175	; 0xaf
 80032fa:	481e      	ldr	r0, [pc, #120]	; (8003374 <HAL_DMA_Init+0x114>)
 80032fc:	f7fe fe13 	bl	8001f26 <assert_failed>
  assert_param(IS_DMA_MODE(hdma->Init.Mode));
 8003300:	69a3      	ldr	r3, [r4, #24]
 8003302:	f033 0320 	bics.w	r3, r3, #32
 8003306:	d003      	beq.n	8003310 <HAL_DMA_Init+0xb0>
 8003308:	21b0      	movs	r1, #176	; 0xb0
 800330a:	481a      	ldr	r0, [pc, #104]	; (8003374 <HAL_DMA_Init+0x114>)
 800330c:	f7fe fe0b 	bl	8001f26 <assert_failed>
  assert_param(IS_DMA_PRIORITY(hdma->Init.Priority));
 8003310:	69e3      	ldr	r3, [r4, #28]
 8003312:	f433 5340 	bics.w	r3, r3, #12288	; 0x3000
 8003316:	d003      	beq.n	8003320 <HAL_DMA_Init+0xc0>
 8003318:	21b1      	movs	r1, #177	; 0xb1
 800331a:	4816      	ldr	r0, [pc, #88]	; (8003374 <HAL_DMA_Init+0x114>)
 800331c:	f7fe fe03 	bl	8001f26 <assert_failed>
    hdma->ChannelIndex = (((uint32_t)hdma->Instance - (uint32_t)DMA2_Channel1) / ((uint32_t)DMA2_Channel2 - (uint32_t)DMA2_Channel1)) << 2;
    hdma->DmaBaseAddress = DMA2;
  }
#else
  /* DMA1 */
  hdma->ChannelIndex = (((uint32_t)hdma->Instance - (uint32_t)DMA1_Channel1) / ((uint32_t)DMA1_Channel2 - (uint32_t)DMA1_Channel1)) << 2;
 8003320:	2214      	movs	r2, #20
 8003322:	6821      	ldr	r1, [r4, #0]
 8003324:	4b14      	ldr	r3, [pc, #80]	; (8003378 <HAL_DMA_Init+0x118>)
  tmp &= ((uint32_t)~(DMA_CCR_PL    | DMA_CCR_MSIZE  | DMA_CCR_PSIZE  | \
                      DMA_CCR_MINC  | DMA_CCR_PINC   | DMA_CCR_CIRC   | \
                      DMA_CCR_DIR));

  /* Prepare the DMA Channel configuration */
  tmp |=  hdma->Init.Direction        |
 8003326:	68a0      	ldr	r0, [r4, #8]
  hdma->ChannelIndex = (((uint32_t)hdma->Instance - (uint32_t)DMA1_Channel1) / ((uint32_t)DMA1_Channel2 - (uint32_t)DMA1_Channel1)) << 2;
 8003328:	440b      	add	r3, r1
 800332a:	fbb3 f3f2 	udiv	r3, r3, r2
 800332e:	009b      	lsls	r3, r3, #2
 8003330:	6423      	str	r3, [r4, #64]	; 0x40
  hdma->DmaBaseAddress = DMA1;
 8003332:	4b12      	ldr	r3, [pc, #72]	; (800337c <HAL_DMA_Init+0x11c>)
  tmp = hdma->Instance->CCR;
 8003334:	680a      	ldr	r2, [r1, #0]
  hdma->DmaBaseAddress = DMA1;
 8003336:	63e3      	str	r3, [r4, #60]	; 0x3c
  tmp |=  hdma->Init.Direction        |
 8003338:	6863      	ldr	r3, [r4, #4]
  tmp &= ((uint32_t)~(DMA_CCR_PL    | DMA_CCR_MSIZE  | DMA_CCR_PSIZE  | \
 800333a:	f422 527f 	bic.w	r2, r2, #16320	; 0x3fc0
  tmp |=  hdma->Init.Direction        |
 800333e:	4303      	orrs	r3, r0
          hdma->Init.PeriphInc           | hdma->Init.MemInc           |
 8003340:	68e0      	ldr	r0, [r4, #12]
  tmp &= ((uint32_t)~(DMA_CCR_PL    | DMA_CCR_MSIZE  | DMA_CCR_PSIZE  | \
 8003342:	f022 0230 	bic.w	r2, r2, #48	; 0x30
          hdma->Init.PeriphInc           | hdma->Init.MemInc           |
 8003346:	4303      	orrs	r3, r0
 8003348:	6920      	ldr	r0, [r4, #16]
 800334a:	4303      	orrs	r3, r0
          hdma->Init.PeriphDataAlignment | hdma->Init.MemDataAlignment |
 800334c:	6960      	ldr	r0, [r4, #20]
 800334e:	4303      	orrs	r3, r0
 8003350:	69a0      	ldr	r0, [r4, #24]
 8003352:	4303      	orrs	r3, r0
          hdma->Init.Mode                | hdma->Init.Priority;
 8003354:	69e0      	ldr	r0, [r4, #28]
 8003356:	4303      	orrs	r3, r0
  tmp |=  hdma->Init.Direction        |
 8003358:	4313      	orrs	r3, r2

  /* Write to DMA Channel CR register */
  hdma->Instance->CCR = tmp;
 800335a:	600b      	str	r3, [r1, #0]

  /* Initialise the error code */
  hdma->ErrorCode = HAL_DMA_ERROR_NONE;
 800335c:	2000      	movs	r0, #0

  /* Initialize the DMA state*/
  hdma->State = HAL_DMA_STATE_READY;
 800335e:	2301      	movs	r3, #1
  hdma->ErrorCode = HAL_DMA_ERROR_NONE;
 8003360:	63a0      	str	r0, [r4, #56]	; 0x38
  hdma->State = HAL_DMA_STATE_READY;
 8003362:	f884 3021 	strb.w	r3, [r4, #33]	; 0x21
  /* Allocate lock resource and initialize it */
  hdma->Lock = HAL_UNLOCKED;
 8003366:	f884 0020 	strb.w	r0, [r4, #32]

  return HAL_OK;
 800336a:	bd10      	pop	{r4, pc}
    return HAL_ERROR;
 800336c:	2001      	movs	r0, #1
}
 800336e:	bd10      	pop	{r4, pc}
 8003370:	40020008 	.word	0x40020008
 8003374:	08006681 	.word	0x08006681
 8003378:	bffdfff8 	.word	0xbffdfff8
 800337c:	40020000 	.word	0x40020000

08003380 <HAL_DMA_Start_IT>:
  * @param  DstAddress: The destination memory Buffer address
  * @param  DataLength: The length of data to be transferred from source to destination
  * @retval HAL status
  */
HAL_StatusTypeDef HAL_DMA_Start_IT(DMA_HandleTypeDef *hdma, uint32_t SrcAddress, uint32_t DstAddress, uint32_t DataLength)
{
 8003380:	e92d 41f0 	stmdb	sp!, {r4, r5, r6, r7, r8, lr}
 8003384:	4617      	mov	r7, r2
 8003386:	4698      	mov	r8, r3
  HAL_StatusTypeDef status = HAL_OK;

  /* Check the parameters */
  assert_param(IS_DMA_BUFFER_SIZE(DataLength));
 8003388:	1e5a      	subs	r2, r3, #1
 800338a:	f64f 73fe 	movw	r3, #65534	; 0xfffe
 800338e:	429a      	cmp	r2, r3
{
 8003390:	4604      	mov	r4, r0
 8003392:	460e      	mov	r6, r1
  assert_param(IS_DMA_BUFFER_SIZE(DataLength));
 8003394:	d904      	bls.n	80033a0 <HAL_DMA_Start_IT+0x20>
 8003396:	f240 117f 	movw	r1, #383	; 0x17f
 800339a:	4822      	ldr	r0, [pc, #136]	; (8003424 <HAL_DMA_Start_IT+0xa4>)
 800339c:	f7fe fdc3 	bl	8001f26 <assert_failed>

  /* Process locked */
  __HAL_LOCK(hdma);
 80033a0:	f894 3020 	ldrb.w	r3, [r4, #32]
 80033a4:	2b01      	cmp	r3, #1
 80033a6:	d039      	beq.n	800341c <HAL_DMA_Start_IT+0x9c>
 80033a8:	2301      	movs	r3, #1
  
  if(HAL_DMA_STATE_READY == hdma->State)
 80033aa:	f894 5021 	ldrb.w	r5, [r4, #33]	; 0x21
  __HAL_LOCK(hdma);
 80033ae:	f884 3020 	strb.w	r3, [r4, #32]
  if(HAL_DMA_STATE_READY == hdma->State)
 80033b2:	429d      	cmp	r5, r3
 80033b4:	f04f 0002 	mov.w	r0, #2
 80033b8:	f04f 0300 	mov.w	r3, #0
 80033bc:	d12a      	bne.n	8003414 <HAL_DMA_Start_IT+0x94>
    /* Change DMA peripheral state */
    hdma->State = HAL_DMA_STATE_BUSY;
    hdma->ErrorCode = HAL_DMA_ERROR_NONE;
    
    /* Disable the peripheral */
    __HAL_DMA_DISABLE(hdma);
 80033be:	6821      	ldr	r1, [r4, #0]
    hdma->ErrorCode = HAL_DMA_ERROR_NONE;
 80033c0:	63a3      	str	r3, [r4, #56]	; 0x38
    hdma->State = HAL_DMA_STATE_BUSY;
 80033c2:	f884 0021 	strb.w	r0, [r4, #33]	; 0x21
  * @retval HAL status
  */
static void DMA_SetConfig(DMA_HandleTypeDef *hdma, uint32_t SrcAddress, uint32_t DstAddress, uint32_t DataLength)
{
  /* Clear all flags */
  hdma->DmaBaseAddress->IFCR = (DMA_ISR_GIF1 << hdma->ChannelIndex);
 80033c6:	6c22      	ldr	r2, [r4, #64]	; 0x40
    __HAL_DMA_DISABLE(hdma);
 80033c8:	6808      	ldr	r0, [r1, #0]
  hdma->DmaBaseAddress->IFCR = (DMA_ISR_GIF1 << hdma->ChannelIndex);
 80033ca:	6be3      	ldr	r3, [r4, #60]	; 0x3c
 80033cc:	4095      	lsls	r5, r2
    __HAL_DMA_DISABLE(hdma);
 80033ce:	f020 0001 	bic.w	r0, r0, #1
 80033d2:	6008      	str	r0, [r1, #0]
  hdma->DmaBaseAddress->IFCR = (DMA_ISR_GIF1 << hdma->ChannelIndex);
 80033d4:	605d      	str	r5, [r3, #4]

  /* Configure DMA Channel data length */
  hdma->Instance->CNDTR = DataLength;

  /* Memory to Peripheral */
  if((hdma->Init.Direction) == DMA_MEMORY_TO_PERIPH)
 80033d6:	6863      	ldr	r3, [r4, #4]
  hdma->Instance->CNDTR = DataLength;
 80033d8:	f8c1 8004 	str.w	r8, [r1, #4]
  if((hdma->Init.Direction) == DMA_MEMORY_TO_PERIPH)
 80033dc:	2b10      	cmp	r3, #16
    if(NULL != hdma->XferHalfCpltCallback)
 80033de:	6ae3      	ldr	r3, [r4, #44]	; 0x2c
 80033e0:	6822      	ldr	r2, [r4, #0]
  {
    /* Configure DMA Channel destination address */
    hdma->Instance->CPAR = DstAddress;
 80033e2:	bf0b      	itete	eq
 80033e4:	608f      	streq	r7, [r1, #8]
  }
  /* Peripheral to Memory */
  else
  {
    /* Configure DMA Channel source address */
    hdma->Instance->CPAR = SrcAddress;
 80033e6:	608e      	strne	r6, [r1, #8]
    hdma->Instance->CMAR = SrcAddress;
 80033e8:	60ce      	streq	r6, [r1, #12]

    /* Configure DMA Channel destination address */
    hdma->Instance->CMAR = DstAddress;
 80033ea:	60cf      	strne	r7, [r1, #12]
    if(NULL != hdma->XferHalfCpltCallback)
 80033ec:	b153      	cbz	r3, 8003404 <HAL_DMA_Start_IT+0x84>
      __HAL_DMA_ENABLE_IT(hdma, (DMA_IT_TC | DMA_IT_HT | DMA_IT_TE));
 80033ee:	680b      	ldr	r3, [r1, #0]
 80033f0:	f043 030e 	orr.w	r3, r3, #14
      __HAL_DMA_ENABLE_IT(hdma, (DMA_IT_TC | DMA_IT_TE));
 80033f4:	600b      	str	r3, [r1, #0]
    __HAL_DMA_ENABLE(hdma);
 80033f6:	6813      	ldr	r3, [r2, #0]
  HAL_StatusTypeDef status = HAL_OK;
 80033f8:	2000      	movs	r0, #0
    __HAL_DMA_ENABLE(hdma);
 80033fa:	f043 0301 	orr.w	r3, r3, #1
 80033fe:	6013      	str	r3, [r2, #0]
 8003400:	e8bd 81f0 	ldmia.w	sp!, {r4, r5, r6, r7, r8, pc}
      __HAL_DMA_DISABLE_IT(hdma, DMA_IT_HT);
 8003404:	680b      	ldr	r3, [r1, #0]
 8003406:	f023 0304 	bic.w	r3, r3, #4
 800340a:	600b      	str	r3, [r1, #0]
      __HAL_DMA_ENABLE_IT(hdma, (DMA_IT_TC | DMA_IT_TE));
 800340c:	680b      	ldr	r3, [r1, #0]
 800340e:	f043 030a 	orr.w	r3, r3, #10
 8003412:	e7ef      	b.n	80033f4 <HAL_DMA_Start_IT+0x74>
    __HAL_UNLOCK(hdma); 
 8003414:	f884 3020 	strb.w	r3, [r4, #32]
 8003418:	e8bd 81f0 	ldmia.w	sp!, {r4, r5, r6, r7, r8, pc}
  __HAL_LOCK(hdma);
 800341c:	2002      	movs	r0, #2
}
 800341e:	e8bd 81f0 	ldmia.w	sp!, {r4, r5, r6, r7, r8, pc}
 8003422:	bf00      	nop
 8003424:	08006681 	.word	0x08006681

08003428 <HAL_DMA_Abort_IT>:
  if(HAL_DMA_STATE_BUSY != hdma->State)
 8003428:	f890 3021 	ldrb.w	r3, [r0, #33]	; 0x21
{  
 800342c:	b510      	push	{r4, lr}
  if(HAL_DMA_STATE_BUSY != hdma->State)
 800342e:	2b02      	cmp	r3, #2
 8003430:	d003      	beq.n	800343a <HAL_DMA_Abort_IT+0x12>
    hdma->ErrorCode = HAL_DMA_ERROR_NO_XFER;
 8003432:	2304      	movs	r3, #4
 8003434:	6383      	str	r3, [r0, #56]	; 0x38
    status = HAL_ERROR;
 8003436:	2001      	movs	r0, #1
 8003438:	bd10      	pop	{r4, pc}
    __HAL_DMA_DISABLE_IT(hdma, (DMA_IT_TC | DMA_IT_HT | DMA_IT_TE));
 800343a:	6803      	ldr	r3, [r0, #0]
 800343c:	681a      	ldr	r2, [r3, #0]
 800343e:	f022 020e 	bic.w	r2, r2, #14
 8003442:	601a      	str	r2, [r3, #0]
    __HAL_DMA_DISABLE(hdma);
 8003444:	681a      	ldr	r2, [r3, #0]
 8003446:	f022 0201 	bic.w	r2, r2, #1
 800344a:	601a      	str	r2, [r3, #0]
    __HAL_DMA_CLEAR_FLAG(hdma, __HAL_DMA_GET_GI_FLAG_INDEX(hdma));
 800344c:	4a18      	ldr	r2, [pc, #96]	; (80034b0 <HAL_DMA_Abort_IT+0x88>)
 800344e:	4293      	cmp	r3, r2
 8003450:	d01f      	beq.n	8003492 <HAL_DMA_Abort_IT+0x6a>
 8003452:	3214      	adds	r2, #20
 8003454:	4293      	cmp	r3, r2
 8003456:	d01e      	beq.n	8003496 <HAL_DMA_Abort_IT+0x6e>
 8003458:	3214      	adds	r2, #20
 800345a:	4293      	cmp	r3, r2
 800345c:	d01d      	beq.n	800349a <HAL_DMA_Abort_IT+0x72>
 800345e:	3214      	adds	r2, #20
 8003460:	4293      	cmp	r3, r2
 8003462:	d01d      	beq.n	80034a0 <HAL_DMA_Abort_IT+0x78>
 8003464:	3214      	adds	r2, #20
 8003466:	4293      	cmp	r3, r2
 8003468:	d01d      	beq.n	80034a6 <HAL_DMA_Abort_IT+0x7e>
 800346a:	3214      	adds	r2, #20
 800346c:	4293      	cmp	r3, r2
 800346e:	bf0c      	ite	eq
 8003470:	f44f 1380 	moveq.w	r3, #1048576	; 0x100000
 8003474:	f04f 7380 	movne.w	r3, #16777216	; 0x1000000
 8003478:	4a0e      	ldr	r2, [pc, #56]	; (80034b4 <HAL_DMA_Abort_IT+0x8c>)
    __HAL_UNLOCK(hdma);
 800347a:	2400      	movs	r4, #0
    __HAL_DMA_CLEAR_FLAG(hdma, __HAL_DMA_GET_GI_FLAG_INDEX(hdma));
 800347c:	6053      	str	r3, [r2, #4]
    hdma->State = HAL_DMA_STATE_READY;
 800347e:	2301      	movs	r3, #1
 8003480:	f880 3021 	strb.w	r3, [r0, #33]	; 0x21
    if(hdma->XferAbortCallback != NULL)
 8003484:	6b43      	ldr	r3, [r0, #52]	; 0x34
    __HAL_UNLOCK(hdma);
 8003486:	f880 4020 	strb.w	r4, [r0, #32]
    if(hdma->XferAbortCallback != NULL)
 800348a:	b17b      	cbz	r3, 80034ac <HAL_DMA_Abort_IT+0x84>
      hdma->XferAbortCallback(hdma);
 800348c:	4798      	blx	r3
  HAL_StatusTypeDef status = HAL_OK;
 800348e:	4620      	mov	r0, r4
 8003490:	bd10      	pop	{r4, pc}
    __HAL_DMA_CLEAR_FLAG(hdma, __HAL_DMA_GET_GI_FLAG_INDEX(hdma));
 8003492:	2301      	movs	r3, #1
 8003494:	e7f0      	b.n	8003478 <HAL_DMA_Abort_IT+0x50>
 8003496:	2310      	movs	r3, #16
 8003498:	e7ee      	b.n	8003478 <HAL_DMA_Abort_IT+0x50>
 800349a:	f44f 7380 	mov.w	r3, #256	; 0x100
 800349e:	e7eb      	b.n	8003478 <HAL_DMA_Abort_IT+0x50>
 80034a0:	f44f 5380 	mov.w	r3, #4096	; 0x1000
 80034a4:	e7e8      	b.n	8003478 <HAL_DMA_Abort_IT+0x50>
 80034a6:	f44f 3380 	mov.w	r3, #65536	; 0x10000
 80034aa:	e7e5      	b.n	8003478 <HAL_DMA_Abort_IT+0x50>
  HAL_StatusTypeDef status = HAL_OK;
 80034ac:	4618      	mov	r0, r3
}
 80034ae:	bd10      	pop	{r4, pc}
 80034b0:	40020008 	.word	0x40020008
 80034b4:	40020000 	.word	0x40020000

080034b8 <HAL_DMA_IRQHandler>:
{
 80034b8:	b470      	push	{r4, r5, r6}
  if (((flag_it & (DMA_FLAG_HT1 << hdma->ChannelIndex)) != RESET) && ((source_it & DMA_IT_HT) != RESET))
 80034ba:	2504      	movs	r5, #4
  uint32_t flag_it = hdma->DmaBaseAddress->ISR;
 80034bc:	6bc6      	ldr	r6, [r0, #60]	; 0x3c
  if (((flag_it & (DMA_FLAG_HT1 << hdma->ChannelIndex)) != RESET) && ((source_it & DMA_IT_HT) != RESET))
 80034be:	6c02      	ldr	r2, [r0, #64]	; 0x40
  uint32_t flag_it = hdma->DmaBaseAddress->ISR;
 80034c0:	6834      	ldr	r4, [r6, #0]
  uint32_t source_it = hdma->Instance->CCR;
 80034c2:	6803      	ldr	r3, [r0, #0]
  if (((flag_it & (DMA_FLAG_HT1 << hdma->ChannelIndex)) != RESET) && ((source_it & DMA_IT_HT) != RESET))
 80034c4:	4095      	lsls	r5, r2
 80034c6:	4225      	tst	r5, r4
  uint32_t source_it = hdma->Instance->CCR;
 80034c8:	6819      	ldr	r1, [r3, #0]
  if (((flag_it & (DMA_FLAG_HT1 << hdma->ChannelIndex)) != RESET) && ((source_it & DMA_IT_HT) != RESET))
 80034ca:	d032      	beq.n	8003532 <HAL_DMA_IRQHandler+0x7a>
 80034cc:	074d      	lsls	r5, r1, #29
 80034ce:	d530      	bpl.n	8003532 <HAL_DMA_IRQHandler+0x7a>
    if((hdma->Instance->CCR & DMA_CCR_CIRC) == 0U)
 80034d0:	681a      	ldr	r2, [r3, #0]
 80034d2:	0696      	lsls	r6, r2, #26
      __HAL_DMA_DISABLE_IT(hdma, DMA_IT_HT);
 80034d4:	bf5e      	ittt	pl
 80034d6:	681a      	ldrpl	r2, [r3, #0]
 80034d8:	f022 0204 	bicpl.w	r2, r2, #4
 80034dc:	601a      	strpl	r2, [r3, #0]
    __HAL_DMA_CLEAR_FLAG(hdma, __HAL_DMA_GET_HT_FLAG_INDEX(hdma));
 80034de:	4a3e      	ldr	r2, [pc, #248]	; (80035d8 <HAL_DMA_IRQHandler+0x120>)
 80034e0:	4293      	cmp	r3, r2
 80034e2:	d019      	beq.n	8003518 <HAL_DMA_IRQHandler+0x60>
 80034e4:	3214      	adds	r2, #20
 80034e6:	4293      	cmp	r3, r2
 80034e8:	d018      	beq.n	800351c <HAL_DMA_IRQHandler+0x64>
 80034ea:	3214      	adds	r2, #20
 80034ec:	4293      	cmp	r3, r2
 80034ee:	d017      	beq.n	8003520 <HAL_DMA_IRQHandler+0x68>
 80034f0:	3214      	adds	r2, #20
 80034f2:	4293      	cmp	r3, r2
 80034f4:	d017      	beq.n	8003526 <HAL_DMA_IRQHandler+0x6e>
 80034f6:	3214      	adds	r2, #20
 80034f8:	4293      	cmp	r3, r2
 80034fa:	d017      	beq.n	800352c <HAL_DMA_IRQHandler+0x74>
 80034fc:	3214      	adds	r2, #20
 80034fe:	4293      	cmp	r3, r2
 8003500:	bf0c      	ite	eq
 8003502:	f44f 0380 	moveq.w	r3, #4194304	; 0x400000
 8003506:	f04f 6380 	movne.w	r3, #67108864	; 0x4000000
 800350a:	4a34      	ldr	r2, [pc, #208]	; (80035dc <HAL_DMA_IRQHandler+0x124>)
 800350c:	6053      	str	r3, [r2, #4]
    if(hdma->XferHalfCpltCallback != NULL)
 800350e:	6ac3      	ldr	r3, [r0, #44]	; 0x2c
    if (hdma->XferErrorCallback != NULL)
 8003510:	2b00      	cmp	r3, #0
 8003512:	d05e      	beq.n	80035d2 <HAL_DMA_IRQHandler+0x11a>
}
 8003514:	bc70      	pop	{r4, r5, r6}
      hdma->XferErrorCallback(hdma);
 8003516:	4718      	bx	r3
    __HAL_DMA_CLEAR_FLAG(hdma, __HAL_DMA_GET_HT_FLAG_INDEX(hdma));
 8003518:	2304      	movs	r3, #4
 800351a:	e7f6      	b.n	800350a <HAL_DMA_IRQHandler+0x52>
 800351c:	2340      	movs	r3, #64	; 0x40
 800351e:	e7f4      	b.n	800350a <HAL_DMA_IRQHandler+0x52>
 8003520:	f44f 6380 	mov.w	r3, #1024	; 0x400
 8003524:	e7f1      	b.n	800350a <HAL_DMA_IRQHandler+0x52>
 8003526:	f44f 4380 	mov.w	r3, #16384	; 0x4000
 800352a:	e7ee      	b.n	800350a <HAL_DMA_IRQHandler+0x52>
 800352c:	f44f 2380 	mov.w	r3, #262144	; 0x40000
 8003530:	e7eb      	b.n	800350a <HAL_DMA_IRQHandler+0x52>
  else if (((flag_it & (DMA_FLAG_TC1 << hdma->ChannelIndex)) != RESET) && ((source_it & DMA_IT_TC) != RESET))
 8003532:	2502      	movs	r5, #2
 8003534:	4095      	lsls	r5, r2
 8003536:	4225      	tst	r5, r4
 8003538:	d035      	beq.n	80035a6 <HAL_DMA_IRQHandler+0xee>
 800353a:	078d      	lsls	r5, r1, #30
 800353c:	d533      	bpl.n	80035a6 <HAL_DMA_IRQHandler+0xee>
    if((hdma->Instance->CCR & DMA_CCR_CIRC) == 0U)
 800353e:	681a      	ldr	r2, [r3, #0]
 8003540:	0694      	lsls	r4, r2, #26
 8003542:	d406      	bmi.n	8003552 <HAL_DMA_IRQHandler+0x9a>
      __HAL_DMA_DISABLE_IT(hdma, DMA_IT_TE | DMA_IT_TC);  
 8003544:	681a      	ldr	r2, [r3, #0]
 8003546:	f022 020a 	bic.w	r2, r2, #10
 800354a:	601a      	str	r2, [r3, #0]
      hdma->State = HAL_DMA_STATE_READY;
 800354c:	2201      	movs	r2, #1
 800354e:	f880 2021 	strb.w	r2, [r0, #33]	; 0x21
      __HAL_DMA_CLEAR_FLAG(hdma, __HAL_DMA_GET_TC_FLAG_INDEX(hdma));
 8003552:	4a21      	ldr	r2, [pc, #132]	; (80035d8 <HAL_DMA_IRQHandler+0x120>)
 8003554:	4293      	cmp	r3, r2
 8003556:	d019      	beq.n	800358c <HAL_DMA_IRQHandler+0xd4>
 8003558:	3214      	adds	r2, #20
 800355a:	4293      	cmp	r3, r2
 800355c:	d018      	beq.n	8003590 <HAL_DMA_IRQHandler+0xd8>
 800355e:	3214      	adds	r2, #20
 8003560:	4293      	cmp	r3, r2
 8003562:	d017      	beq.n	8003594 <HAL_DMA_IRQHandler+0xdc>
 8003564:	3214      	adds	r2, #20
 8003566:	4293      	cmp	r3, r2
 8003568:	d017      	beq.n	800359a <HAL_DMA_IRQHandler+0xe2>
 800356a:	3214      	adds	r2, #20
 800356c:	4293      	cmp	r3, r2
 800356e:	d017      	beq.n	80035a0 <HAL_DMA_IRQHandler+0xe8>
 8003570:	3214      	adds	r2, #20
 8003572:	4293      	cmp	r3, r2
 8003574:	bf0c      	ite	eq
 8003576:	f44f 1300 	moveq.w	r3, #2097152	; 0x200000
 800357a:	f04f 7300 	movne.w	r3, #33554432	; 0x2000000
 800357e:	4a17      	ldr	r2, [pc, #92]	; (80035dc <HAL_DMA_IRQHandler+0x124>)
 8003580:	6053      	str	r3, [r2, #4]
    __HAL_UNLOCK(hdma);
 8003582:	2300      	movs	r3, #0
 8003584:	f880 3020 	strb.w	r3, [r0, #32]
    if(hdma->XferCpltCallback != NULL)
 8003588:	6a83      	ldr	r3, [r0, #40]	; 0x28
 800358a:	e7c1      	b.n	8003510 <HAL_DMA_IRQHandler+0x58>
      __HAL_DMA_CLEAR_FLAG(hdma, __HAL_DMA_GET_TC_FLAG_INDEX(hdma));
 800358c:	2302      	movs	r3, #2
 800358e:	e7f6      	b.n	800357e <HAL_DMA_IRQHandler+0xc6>
 8003590:	2320      	movs	r3, #32
 8003592:	e7f4      	b.n	800357e <HAL_DMA_IRQHandler+0xc6>
 8003594:	f44f 7300 	mov.w	r3, #512	; 0x200
 8003598:	e7f1      	b.n	800357e <HAL_DMA_IRQHandler+0xc6>
 800359a:	f44f 5300 	mov.w	r3, #8192	; 0x2000
 800359e:	e7ee      	b.n	800357e <HAL_DMA_IRQHandler+0xc6>
 80035a0:	f44f 3300 	mov.w	r3, #131072	; 0x20000
 80035a4:	e7eb      	b.n	800357e <HAL_DMA_IRQHandler+0xc6>
  else if (( RESET != (flag_it & (DMA_FLAG_TE1 << hdma->ChannelIndex))) && (RESET != (source_it & DMA_IT_TE)))
 80035a6:	2508      	movs	r5, #8
 80035a8:	4095      	lsls	r5, r2
 80035aa:	4225      	tst	r5, r4
 80035ac:	d011      	beq.n	80035d2 <HAL_DMA_IRQHandler+0x11a>
 80035ae:	0709      	lsls	r1, r1, #28
 80035b0:	d50f      	bpl.n	80035d2 <HAL_DMA_IRQHandler+0x11a>
    __HAL_DMA_DISABLE_IT(hdma, (DMA_IT_TC | DMA_IT_HT | DMA_IT_TE));
 80035b2:	6819      	ldr	r1, [r3, #0]
 80035b4:	f021 010e 	bic.w	r1, r1, #14
 80035b8:	6019      	str	r1, [r3, #0]
    hdma->DmaBaseAddress->IFCR = (DMA_ISR_GIF1 << hdma->ChannelIndex);
 80035ba:	2301      	movs	r3, #1
 80035bc:	fa03 f202 	lsl.w	r2, r3, r2
 80035c0:	6072      	str	r2, [r6, #4]
    hdma->ErrorCode = HAL_DMA_ERROR_TE;
 80035c2:	6383      	str	r3, [r0, #56]	; 0x38
    hdma->State = HAL_DMA_STATE_READY;
 80035c4:	f880 3021 	strb.w	r3, [r0, #33]	; 0x21
    __HAL_UNLOCK(hdma);
 80035c8:	2300      	movs	r3, #0
 80035ca:	f880 3020 	strb.w	r3, [r0, #32]
    if (hdma->XferErrorCallback != NULL)
 80035ce:	6b03      	ldr	r3, [r0, #48]	; 0x30
 80035d0:	e79e      	b.n	8003510 <HAL_DMA_IRQHandler+0x58>
}
 80035d2:	bc70      	pop	{r4, r5, r6}
 80035d4:	4770      	bx	lr
 80035d6:	bf00      	nop
 80035d8:	40020008 	.word	0x40020008
 80035dc:	40020000 	.word	0x40020000

080035e0 <FLASH_SetErrorCode>:
  uint32_t flags = 0U;
  
#if defined(FLASH_BANK2_END)
  if(__HAL_FLASH_GET_FLAG(FLASH_FLAG_WRPERR) || __HAL_FLASH_GET_FLAG(FLASH_FLAG_WRPERR_BANK2))
#else
  if(__HAL_FLASH_GET_FLAG(FLASH_FLAG_WRPERR))
 80035e0:	4a11      	ldr	r2, [pc, #68]	; (8003628 <FLASH_SetErrorCode+0x48>)
 80035e2:	68d3      	ldr	r3, [r2, #12]
 80035e4:	f013 0310 	ands.w	r3, r3, #16
 80035e8:	d005      	beq.n	80035f6 <FLASH_SetErrorCode+0x16>
#endif /* FLASH_BANK2_END */
  {
    pFlash.ErrorCode |= HAL_FLASH_ERROR_WRP;
 80035ea:	4910      	ldr	r1, [pc, #64]	; (800362c <FLASH_SetErrorCode+0x4c>)
 80035ec:	69cb      	ldr	r3, [r1, #28]
 80035ee:	f043 0302 	orr.w	r3, r3, #2
 80035f2:	61cb      	str	r3, [r1, #28]
#if defined(FLASH_BANK2_END)
    flags |= FLASH_FLAG_WRPERR | FLASH_FLAG_WRPERR_BANK2;
#else
    flags |= FLASH_FLAG_WRPERR;
 80035f4:	2310      	movs	r3, #16
#endif /* FLASH_BANK2_END */
  }
#if defined(FLASH_BANK2_END)
  if(__HAL_FLASH_GET_FLAG(FLASH_FLAG_PGERR) || __HAL_FLASH_GET_FLAG(FLASH_FLAG_PGERR_BANK2))
#else
  if(__HAL_FLASH_GET_FLAG(FLASH_FLAG_PGERR))
 80035f6:	68d2      	ldr	r2, [r2, #12]
 80035f8:	0750      	lsls	r0, r2, #29
 80035fa:	d506      	bpl.n	800360a <FLASH_SetErrorCode+0x2a>
#endif /* FLASH_BANK2_END */
  {
    pFlash.ErrorCode |= HAL_FLASH_ERROR_PROG;
 80035fc:	490b      	ldr	r1, [pc, #44]	; (800362c <FLASH_SetErrorCode+0x4c>)
#if defined(FLASH_BANK2_END)
    flags |= FLASH_FLAG_PGERR | FLASH_FLAG_PGERR_BANK2;
#else
    flags |= FLASH_FLAG_PGERR;
 80035fe:	f043 0304 	orr.w	r3, r3, #4
    pFlash.ErrorCode |= HAL_FLASH_ERROR_PROG;
 8003602:	69ca      	ldr	r2, [r1, #28]
 8003604:	f042 0201 	orr.w	r2, r2, #1
 8003608:	61ca      	str	r2, [r1, #28]
#endif /* FLASH_BANK2_END */
  }
  if(__HAL_FLASH_GET_FLAG(FLASH_FLAG_OPTVERR))
 800360a:	4a07      	ldr	r2, [pc, #28]	; (8003628 <FLASH_SetErrorCode+0x48>)
 800360c:	69d1      	ldr	r1, [r2, #28]
 800360e:	07c9      	lsls	r1, r1, #31
 8003610:	d508      	bpl.n	8003624 <FLASH_SetErrorCode+0x44>
  {
    pFlash.ErrorCode |= HAL_FLASH_ERROR_OPTV;
 8003612:	4806      	ldr	r0, [pc, #24]	; (800362c <FLASH_SetErrorCode+0x4c>)
 8003614:	69c1      	ldr	r1, [r0, #28]
 8003616:	f041 0104 	orr.w	r1, r1, #4
 800361a:	61c1      	str	r1, [r0, #28]
  __HAL_FLASH_CLEAR_FLAG(FLASH_FLAG_OPTVERR);
 800361c:	69d1      	ldr	r1, [r2, #28]
 800361e:	f021 0101 	bic.w	r1, r1, #1
 8003622:	61d1      	str	r1, [r2, #28]
  }

  /* Clear FLASH error pending bits */
  __HAL_FLASH_CLEAR_FLAG(flags);
 8003624:	60d3      	str	r3, [r2, #12]
 8003626:	4770      	bx	lr
 8003628:	40022000 	.word	0x40022000
 800362c:	20000800 	.word	0x20000800

08003630 <HAL_FLASH_EndOfOperationCallback>:
 8003630:	4770      	bx	lr

08003632 <HAL_FLASH_OperationErrorCallback>:
{
 8003632:	4770      	bx	lr

08003634 <HAL_FLASH_IRQHandler>:
  if(__HAL_FLASH_GET_FLAG(FLASH_FLAG_WRPERR) ||__HAL_FLASH_GET_FLAG(FLASH_FLAG_PGERR))
 8003634:	4b42      	ldr	r3, [pc, #264]	; (8003740 <HAL_FLASH_IRQHandler+0x10c>)
{
 8003636:	b570      	push	{r4, r5, r6, lr}
  if(__HAL_FLASH_GET_FLAG(FLASH_FLAG_WRPERR) ||__HAL_FLASH_GET_FLAG(FLASH_FLAG_PGERR))
 8003638:	68da      	ldr	r2, [r3, #12]
 800363a:	4c42      	ldr	r4, [pc, #264]	; (8003744 <HAL_FLASH_IRQHandler+0x110>)
 800363c:	f012 0f10 	tst.w	r2, #16
 8003640:	d102      	bne.n	8003648 <HAL_FLASH_IRQHandler+0x14>
 8003642:	68db      	ldr	r3, [r3, #12]
 8003644:	075a      	lsls	r2, r3, #29
 8003646:	d50a      	bpl.n	800365e <HAL_FLASH_IRQHandler+0x2a>
    pFlash.Address = 0xFFFFFFFFU;
 8003648:	f04f 33ff 	mov.w	r3, #4294967295
    addresstmp = pFlash.Address;
 800364c:	68a5      	ldr	r5, [r4, #8]
    pFlash.Address = 0xFFFFFFFFU;
 800364e:	60a3      	str	r3, [r4, #8]
    FLASH_SetErrorCode();
 8003650:	f7ff ffc6 	bl	80035e0 <FLASH_SetErrorCode>
    HAL_FLASH_OperationErrorCallback(addresstmp);
 8003654:	4628      	mov	r0, r5
 8003656:	f7ff ffec 	bl	8003632 <HAL_FLASH_OperationErrorCallback>
    pFlash.ProcedureOnGoing = FLASH_PROC_NONE;
 800365a:	2300      	movs	r3, #0
 800365c:	7023      	strb	r3, [r4, #0]
  if(__HAL_FLASH_GET_FLAG(FLASH_FLAG_EOP))
 800365e:	4d38      	ldr	r5, [pc, #224]	; (8003740 <HAL_FLASH_IRQHandler+0x10c>)
 8003660:	68eb      	ldr	r3, [r5, #12]
 8003662:	069b      	lsls	r3, r3, #26
 8003664:	d518      	bpl.n	8003698 <HAL_FLASH_IRQHandler+0x64>
    __HAL_FLASH_CLEAR_FLAG(FLASH_FLAG_EOP);
 8003666:	2320      	movs	r3, #32
 8003668:	60eb      	str	r3, [r5, #12]
    if(pFlash.ProcedureOnGoing != FLASH_PROC_NONE)
 800366a:	7823      	ldrb	r3, [r4, #0]
 800366c:	b1a3      	cbz	r3, 8003698 <HAL_FLASH_IRQHandler+0x64>
      if(pFlash.ProcedureOnGoing == FLASH_PROC_PAGEERASE)
 800366e:	7823      	ldrb	r3, [r4, #0]
 8003670:	2b01      	cmp	r3, #1
 8003672:	d127      	bne.n	80036c4 <HAL_FLASH_IRQHandler+0x90>
        pFlash.DataRemaining--;
 8003674:	6863      	ldr	r3, [r4, #4]
 8003676:	3b01      	subs	r3, #1
 8003678:	6063      	str	r3, [r4, #4]
        if(pFlash.DataRemaining != 0U)
 800367a:	6863      	ldr	r3, [r4, #4]
 800367c:	b1db      	cbz	r3, 80036b6 <HAL_FLASH_IRQHandler+0x82>
          addresstmp = pFlash.Address;
 800367e:	68a0      	ldr	r0, [r4, #8]
          HAL_FLASH_EndOfOperationCallback(addresstmp);
 8003680:	f7ff ffd6 	bl	8003630 <HAL_FLASH_EndOfOperationCallback>
          addresstmp = pFlash.Address + FLASH_PAGE_SIZE;
 8003684:	68a0      	ldr	r0, [r4, #8]
 8003686:	f500 6080 	add.w	r0, r0, #1024	; 0x400
          pFlash.Address = addresstmp;
 800368a:	60a0      	str	r0, [r4, #8]
          CLEAR_BIT(FLASH->CR, FLASH_CR_PER);
 800368c:	692b      	ldr	r3, [r5, #16]
 800368e:	f023 0302 	bic.w	r3, r3, #2
 8003692:	612b      	str	r3, [r5, #16]
          FLASH_PageErase(addresstmp);
 8003694:	f000 f910 	bl	80038b8 <FLASH_PageErase>
  if(pFlash.ProcedureOnGoing == FLASH_PROC_NONE)
 8003698:	7823      	ldrb	r3, [r4, #0]
 800369a:	f003 01ff 	and.w	r1, r3, #255	; 0xff
 800369e:	b94b      	cbnz	r3, 80036b4 <HAL_FLASH_IRQHandler+0x80>
    CLEAR_BIT(FLASH->CR, (FLASH_CR_PG | FLASH_CR_PER | FLASH_CR_MER));
 80036a0:	4b27      	ldr	r3, [pc, #156]	; (8003740 <HAL_FLASH_IRQHandler+0x10c>)
 80036a2:	691a      	ldr	r2, [r3, #16]
 80036a4:	f022 0207 	bic.w	r2, r2, #7
 80036a8:	611a      	str	r2, [r3, #16]
    __HAL_FLASH_DISABLE_IT(FLASH_IT_EOP | FLASH_IT_ERR);
 80036aa:	691a      	ldr	r2, [r3, #16]
 80036ac:	f422 52a0 	bic.w	r2, r2, #5120	; 0x1400
 80036b0:	611a      	str	r2, [r3, #16]
    __HAL_UNLOCK(&pFlash);
 80036b2:	7621      	strb	r1, [r4, #24]
 80036b4:	bd70      	pop	{r4, r5, r6, pc}
          pFlash.Address = addresstmp = 0xFFFFFFFFU;
 80036b6:	f04f 30ff 	mov.w	r0, #4294967295
 80036ba:	60a0      	str	r0, [r4, #8]
          pFlash.ProcedureOnGoing = FLASH_PROC_NONE;
 80036bc:	7023      	strb	r3, [r4, #0]
          HAL_FLASH_EndOfOperationCallback(addresstmp);
 80036be:	f7ff ffb7 	bl	8003630 <HAL_FLASH_EndOfOperationCallback>
 80036c2:	e7e9      	b.n	8003698 <HAL_FLASH_IRQHandler+0x64>
      else if(pFlash.ProcedureOnGoing == FLASH_PROC_MASSERASE)
 80036c4:	7823      	ldrb	r3, [r4, #0]
 80036c6:	2b02      	cmp	r3, #2
 80036c8:	d109      	bne.n	80036de <HAL_FLASH_IRQHandler+0xaa>
        CLEAR_BIT(FLASH->CR, FLASH_CR_MER);
 80036ca:	692b      	ldr	r3, [r5, #16]
          HAL_FLASH_EndOfOperationCallback(0U);
 80036cc:	2000      	movs	r0, #0
        CLEAR_BIT(FLASH->CR, FLASH_CR_MER);
 80036ce:	f023 0304 	bic.w	r3, r3, #4
 80036d2:	612b      	str	r3, [r5, #16]
          HAL_FLASH_EndOfOperationCallback(0U);
 80036d4:	f7ff ffac 	bl	8003630 <HAL_FLASH_EndOfOperationCallback>
          pFlash.ProcedureOnGoing = FLASH_PROC_NONE;
 80036d8:	2300      	movs	r3, #0
 80036da:	7023      	strb	r3, [r4, #0]
 80036dc:	e7dc      	b.n	8003698 <HAL_FLASH_IRQHandler+0x64>
        pFlash.DataRemaining--;
 80036de:	6863      	ldr	r3, [r4, #4]
 80036e0:	3b01      	subs	r3, #1
 80036e2:	6063      	str	r3, [r4, #4]
        if(pFlash.DataRemaining != 0U)
 80036e4:	6863      	ldr	r3, [r4, #4]
 80036e6:	b1d3      	cbz	r3, 800371e <HAL_FLASH_IRQHandler+0xea>
          pFlash.Address += 2U;
 80036e8:	68a3      	ldr	r3, [r4, #8]
 80036ea:	3302      	adds	r3, #2
 80036ec:	60a3      	str	r3, [r4, #8]
          addresstmp = pFlash.Address;
 80036ee:	68a6      	ldr	r6, [r4, #8]
          pFlash.Data = (pFlash.Data >> 16U);
 80036f0:	e9d4 0104 	ldrd	r0, r1, [r4, #16]
 80036f4:	0c02      	lsrs	r2, r0, #16
 80036f6:	ea42 4201 	orr.w	r2, r2, r1, lsl #16
 80036fa:	0c0b      	lsrs	r3, r1, #16
 80036fc:	e9c4 2304 	strd	r2, r3, [r4, #16]
          CLEAR_BIT(FLASH->CR, FLASH_CR_PG);
 8003700:	692b      	ldr	r3, [r5, #16]
 8003702:	f023 0301 	bic.w	r3, r3, #1
 8003706:	612b      	str	r3, [r5, #16]
          FLASH_Program_HalfWord(addresstmp, (uint16_t)pFlash.Data);
 8003708:	e9d4 2304 	ldrd	r2, r3, [r4, #16]
  pFlash.ErrorCode = HAL_FLASH_ERROR_NONE;
 800370c:	2300      	movs	r3, #0
 800370e:	61e3      	str	r3, [r4, #28]
    SET_BIT(FLASH->CR, FLASH_CR_PG);
 8003710:	692b      	ldr	r3, [r5, #16]
          FLASH_Program_HalfWord(addresstmp, (uint16_t)pFlash.Data);
 8003712:	b292      	uxth	r2, r2
    SET_BIT(FLASH->CR, FLASH_CR_PG);
 8003714:	f043 0301 	orr.w	r3, r3, #1
 8003718:	612b      	str	r3, [r5, #16]
  *(__IO uint16_t*)Address = Data;
 800371a:	8032      	strh	r2, [r6, #0]
 800371c:	e7bc      	b.n	8003698 <HAL_FLASH_IRQHandler+0x64>
          if (pFlash.ProcedureOnGoing == FLASH_PROC_PROGRAMHALFWORD)
 800371e:	7823      	ldrb	r3, [r4, #0]
 8003720:	2b03      	cmp	r3, #3
 8003722:	d106      	bne.n	8003732 <HAL_FLASH_IRQHandler+0xfe>
            HAL_FLASH_EndOfOperationCallback(pFlash.Address);
 8003724:	68a0      	ldr	r0, [r4, #8]
            HAL_FLASH_EndOfOperationCallback(pFlash.Address - 6U);
 8003726:	f7ff ff83 	bl	8003630 <HAL_FLASH_EndOfOperationCallback>
          pFlash.Address = 0xFFFFFFFFU;
 800372a:	f04f 33ff 	mov.w	r3, #4294967295
 800372e:	60a3      	str	r3, [r4, #8]
 8003730:	e7d2      	b.n	80036d8 <HAL_FLASH_IRQHandler+0xa4>
          else if (pFlash.ProcedureOnGoing == FLASH_PROC_PROGRAMWORD)
 8003732:	7823      	ldrb	r3, [r4, #0]
            HAL_FLASH_EndOfOperationCallback(pFlash.Address - 2U);
 8003734:	68a0      	ldr	r0, [r4, #8]
          else if (pFlash.ProcedureOnGoing == FLASH_PROC_PROGRAMWORD)
 8003736:	2b04      	cmp	r3, #4
            HAL_FLASH_EndOfOperationCallback(pFlash.Address - 2U);
 8003738:	bf0c      	ite	eq
 800373a:	3802      	subeq	r0, #2
            HAL_FLASH_EndOfOperationCallback(pFlash.Address - 6U);
 800373c:	3806      	subne	r0, #6
 800373e:	e7f2      	b.n	8003726 <HAL_FLASH_IRQHandler+0xf2>
 8003740:	40022000 	.word	0x40022000
 8003744:	20000800 	.word	0x20000800

08003748 <HAL_FLASH_Unlock>:
  if(READ_BIT(FLASH->CR, FLASH_CR_LOCK) != RESET)
 8003748:	4b06      	ldr	r3, [pc, #24]	; (8003764 <HAL_FLASH_Unlock+0x1c>)
 800374a:	6918      	ldr	r0, [r3, #16]
 800374c:	f010 0080 	ands.w	r0, r0, #128	; 0x80
 8003750:	d007      	beq.n	8003762 <HAL_FLASH_Unlock+0x1a>
    WRITE_REG(FLASH->KEYR, FLASH_KEY1);
 8003752:	4a05      	ldr	r2, [pc, #20]	; (8003768 <HAL_FLASH_Unlock+0x20>)
 8003754:	605a      	str	r2, [r3, #4]
    WRITE_REG(FLASH->KEYR, FLASH_KEY2);
 8003756:	f102 3288 	add.w	r2, r2, #2290649224	; 0x88888888
 800375a:	605a      	str	r2, [r3, #4]
    if(READ_BIT(FLASH->CR, FLASH_CR_LOCK) != RESET)
 800375c:	6918      	ldr	r0, [r3, #16]
  HAL_StatusTypeDef status = HAL_OK;
 800375e:	f3c0 10c0 	ubfx	r0, r0, #7, #1
}
 8003762:	4770      	bx	lr
 8003764:	40022000 	.word	0x40022000
 8003768:	45670123 	.word	0x45670123

0800376c <HAL_FLASH_Lock>:
  SET_BIT(FLASH->CR, FLASH_CR_LOCK);
 800376c:	4a03      	ldr	r2, [pc, #12]	; (800377c <HAL_FLASH_Lock+0x10>)
}
 800376e:	2000      	movs	r0, #0
  SET_BIT(FLASH->CR, FLASH_CR_LOCK);
 8003770:	6913      	ldr	r3, [r2, #16]
 8003772:	f043 0380 	orr.w	r3, r3, #128	; 0x80
 8003776:	6113      	str	r3, [r2, #16]
}
 8003778:	4770      	bx	lr
 800377a:	bf00      	nop
 800377c:	40022000 	.word	0x40022000

08003780 <FLASH_WaitForLastOperation>:
{
 8003780:	b5f8      	push	{r3, r4, r5, r6, r7, lr}
 8003782:	4606      	mov	r6, r0
  uint32_t tickstart = HAL_GetTick();
 8003784:	f7ff f95e 	bl	8002a44 <HAL_GetTick>
  while(__HAL_FLASH_GET_FLAG(FLASH_FLAG_BSY)) 
 8003788:	4c11      	ldr	r4, [pc, #68]	; (80037d0 <FLASH_WaitForLastOperation+0x50>)
  uint32_t tickstart = HAL_GetTick();
 800378a:	4607      	mov	r7, r0
 800378c:	4625      	mov	r5, r4
  while(__HAL_FLASH_GET_FLAG(FLASH_FLAG_BSY)) 
 800378e:	68e3      	ldr	r3, [r4, #12]
 8003790:	07d8      	lsls	r0, r3, #31
 8003792:	d412      	bmi.n	80037ba <FLASH_WaitForLastOperation+0x3a>
  if (__HAL_FLASH_GET_FLAG(FLASH_FLAG_EOP))
 8003794:	68e3      	ldr	r3, [r4, #12]
 8003796:	0699      	lsls	r1, r3, #26
    __HAL_FLASH_CLEAR_FLAG(FLASH_FLAG_EOP);
 8003798:	bf44      	itt	mi
 800379a:	2320      	movmi	r3, #32
 800379c:	60e3      	strmi	r3, [r4, #12]
  if(__HAL_FLASH_GET_FLAG(FLASH_FLAG_WRPERR)  || 
 800379e:	68eb      	ldr	r3, [r5, #12]
 80037a0:	06da      	lsls	r2, r3, #27
 80037a2:	d406      	bmi.n	80037b2 <FLASH_WaitForLastOperation+0x32>
     __HAL_FLASH_GET_FLAG(FLASH_FLAG_OPTVERR) || 
 80037a4:	69eb      	ldr	r3, [r5, #28]
  if(__HAL_FLASH_GET_FLAG(FLASH_FLAG_WRPERR)  || 
 80037a6:	07db      	lsls	r3, r3, #31
 80037a8:	d403      	bmi.n	80037b2 <FLASH_WaitForLastOperation+0x32>
     __HAL_FLASH_GET_FLAG(FLASH_FLAG_PGERR))
 80037aa:	68e8      	ldr	r0, [r5, #12]
     __HAL_FLASH_GET_FLAG(FLASH_FLAG_OPTVERR) || 
 80037ac:	f010 0004 	ands.w	r0, r0, #4
 80037b0:	d002      	beq.n	80037b8 <FLASH_WaitForLastOperation+0x38>
    FLASH_SetErrorCode();
 80037b2:	f7ff ff15 	bl	80035e0 <FLASH_SetErrorCode>
    return HAL_ERROR;
 80037b6:	2001      	movs	r0, #1
}
 80037b8:	bdf8      	pop	{r3, r4, r5, r6, r7, pc}
    if (Timeout != HAL_MAX_DELAY)
 80037ba:	1c73      	adds	r3, r6, #1
 80037bc:	d0e7      	beq.n	800378e <FLASH_WaitForLastOperation+0xe>
      if((Timeout == 0U) || ((HAL_GetTick()-tickstart) > Timeout))
 80037be:	b90e      	cbnz	r6, 80037c4 <FLASH_WaitForLastOperation+0x44>
        return HAL_TIMEOUT;
 80037c0:	2003      	movs	r0, #3
 80037c2:	bdf8      	pop	{r3, r4, r5, r6, r7, pc}
      if((Timeout == 0U) || ((HAL_GetTick()-tickstart) > Timeout))
 80037c4:	f7ff f93e 	bl	8002a44 <HAL_GetTick>
 80037c8:	1bc0      	subs	r0, r0, r7
 80037ca:	4286      	cmp	r6, r0
 80037cc:	d2df      	bcs.n	800378e <FLASH_WaitForLastOperation+0xe>
 80037ce:	e7f7      	b.n	80037c0 <FLASH_WaitForLastOperation+0x40>
 80037d0:	40022000 	.word	0x40022000

080037d4 <HAL_FLASH_Program>:
{
 80037d4:	e92d 4ff8 	stmdb	sp!, {r3, r4, r5, r6, r7, r8, r9, sl, fp, lr}
 80037d8:	461f      	mov	r7, r3
  __HAL_LOCK(&pFlash);
 80037da:	4b2f      	ldr	r3, [pc, #188]	; (8003898 <HAL_FLASH_Program+0xc4>)
{
 80037dc:	4616      	mov	r6, r2
  __HAL_LOCK(&pFlash);
 80037de:	7e1a      	ldrb	r2, [r3, #24]
{
 80037e0:	4683      	mov	fp, r0
  __HAL_LOCK(&pFlash);
 80037e2:	2a01      	cmp	r2, #1
{
 80037e4:	4689      	mov	r9, r1
 80037e6:	4698      	mov	r8, r3
  __HAL_LOCK(&pFlash);
 80037e8:	d052      	beq.n	8003890 <HAL_FLASH_Program+0xbc>
 80037ea:	2301      	movs	r3, #1
 80037ec:	f888 3018 	strb.w	r3, [r8, #24]
  assert_param(IS_FLASH_TYPEPROGRAM(TypeProgram));
 80037f0:	1e43      	subs	r3, r0, #1
 80037f2:	2b02      	cmp	r3, #2
 80037f4:	d903      	bls.n	80037fe <HAL_FLASH_Program+0x2a>
 80037f6:	21c2      	movs	r1, #194	; 0xc2
 80037f8:	4828      	ldr	r0, [pc, #160]	; (800389c <HAL_FLASH_Program+0xc8>)
 80037fa:	f7fe fb94 	bl	8001f26 <assert_failed>
  assert_param(IS_FLASH_PROGRAM_ADDRESS(Address));
 80037fe:	f1b9 6f00 	cmp.w	r9, #134217728	; 0x8000000
 8003802:	d306      	bcc.n	8003812 <HAL_FLASH_Program+0x3e>
 8003804:	4b26      	ldr	r3, [pc, #152]	; (80038a0 <HAL_FLASH_Program+0xcc>)
 8003806:	881b      	ldrh	r3, [r3, #0]
 8003808:	2b80      	cmp	r3, #128	; 0x80
 800380a:	d138      	bne.n	800387e <HAL_FLASH_Program+0xaa>
 800380c:	4b25      	ldr	r3, [pc, #148]	; (80038a4 <HAL_FLASH_Program+0xd0>)
 800380e:	4599      	cmp	r9, r3
 8003810:	d903      	bls.n	800381a <HAL_FLASH_Program+0x46>
 8003812:	21c3      	movs	r1, #195	; 0xc3
 8003814:	4821      	ldr	r0, [pc, #132]	; (800389c <HAL_FLASH_Program+0xc8>)
 8003816:	f7fe fb86 	bl	8001f26 <assert_failed>
    status = FLASH_WaitForLastOperation(FLASH_TIMEOUT_VALUE);
 800381a:	f24c 3050 	movw	r0, #50000	; 0xc350
 800381e:	f7ff ffaf 	bl	8003780 <FLASH_WaitForLastOperation>
  if(status == HAL_OK)
 8003822:	bb38      	cbnz	r0, 8003874 <HAL_FLASH_Program+0xa0>
    if(TypeProgram == FLASH_TYPEPROGRAM_HALFWORD)
 8003824:	f1bb 0f01 	cmp.w	fp, #1
 8003828:	d006      	beq.n	8003838 <HAL_FLASH_Program+0x64>
      nbiterations = 4U;
 800382a:	f1bb 0f02 	cmp.w	fp, #2
 800382e:	bf0c      	ite	eq
 8003830:	f04f 0b02 	moveq.w	fp, #2
 8003834:	f04f 0b04 	movne.w	fp, #4
 8003838:	2400      	movs	r4, #0
  pFlash.ErrorCode = HAL_FLASH_ERROR_NONE;
 800383a:	46a2      	mov	sl, r4
    SET_BIT(FLASH->CR, FLASH_CR_PG);
 800383c:	4d1a      	ldr	r5, [pc, #104]	; (80038a8 <HAL_FLASH_Program+0xd4>)
      FLASH_Program_HalfWord((Address + (2U*index)), (uint16_t)(Data >> (16U*index)));
 800383e:	0122      	lsls	r2, r4, #4
 8003840:	4630      	mov	r0, r6
 8003842:	4639      	mov	r1, r7
 8003844:	f7fc fc82 	bl	800014c <__aeabi_llsr>
  pFlash.ErrorCode = HAL_FLASH_ERROR_NONE;
 8003848:	f8c8 a01c 	str.w	sl, [r8, #28]
    SET_BIT(FLASH->CR, FLASH_CR_PG);
 800384c:	692b      	ldr	r3, [r5, #16]
      FLASH_Program_HalfWord((Address + (2U*index)), (uint16_t)(Data >> (16U*index)));
 800384e:	b280      	uxth	r0, r0
    SET_BIT(FLASH->CR, FLASH_CR_PG);
 8003850:	f043 0301 	orr.w	r3, r3, #1
 8003854:	612b      	str	r3, [r5, #16]
  *(__IO uint16_t*)Address = Data;
 8003856:	f829 0014 	strh.w	r0, [r9, r4, lsl #1]
        status = FLASH_WaitForLastOperation(FLASH_TIMEOUT_VALUE);
 800385a:	f24c 3050 	movw	r0, #50000	; 0xc350
 800385e:	f7ff ff8f 	bl	8003780 <FLASH_WaitForLastOperation>
        CLEAR_BIT(FLASH->CR, FLASH_CR_PG);
 8003862:	692b      	ldr	r3, [r5, #16]
 8003864:	f023 0301 	bic.w	r3, r3, #1
 8003868:	612b      	str	r3, [r5, #16]
      if (status != HAL_OK)
 800386a:	b918      	cbnz	r0, 8003874 <HAL_FLASH_Program+0xa0>
 800386c:	3401      	adds	r4, #1
    for (index = 0U; index < nbiterations; index++)
 800386e:	b2e3      	uxtb	r3, r4
 8003870:	459b      	cmp	fp, r3
 8003872:	d8e4      	bhi.n	800383e <HAL_FLASH_Program+0x6a>
  __HAL_UNLOCK(&pFlash);
 8003874:	2300      	movs	r3, #0
 8003876:	f888 3018 	strb.w	r3, [r8, #24]
  return status;
 800387a:	e8bd 8ff8 	ldmia.w	sp!, {r3, r4, r5, r6, r7, r8, r9, sl, fp, pc}
  assert_param(IS_FLASH_PROGRAM_ADDRESS(Address));
 800387e:	2b40      	cmp	r3, #64	; 0x40
 8003880:	d101      	bne.n	8003886 <HAL_FLASH_Program+0xb2>
 8003882:	4b0a      	ldr	r3, [pc, #40]	; (80038ac <HAL_FLASH_Program+0xd8>)
 8003884:	e7c3      	b.n	800380e <HAL_FLASH_Program+0x3a>
 8003886:	2b20      	cmp	r3, #32
 8003888:	bf0c      	ite	eq
 800388a:	4b09      	ldreq	r3, [pc, #36]	; (80038b0 <HAL_FLASH_Program+0xdc>)
 800388c:	4b09      	ldrne	r3, [pc, #36]	; (80038b4 <HAL_FLASH_Program+0xe0>)
 800388e:	e7be      	b.n	800380e <HAL_FLASH_Program+0x3a>
  __HAL_LOCK(&pFlash);
 8003890:	2002      	movs	r0, #2
}
 8003892:	e8bd 8ff8 	ldmia.w	sp!, {r3, r4, r5, r6, r7, r8, r9, sl, fp, pc}
 8003896:	bf00      	nop
 8003898:	20000800 	.word	0x20000800
 800389c:	080066b9 	.word	0x080066b9
 80038a0:	1ffff7e0 	.word	0x1ffff7e0
 80038a4:	0801ffff 	.word	0x0801ffff
 80038a8:	40022000 	.word	0x40022000
 80038ac:	0800ffff 	.word	0x0800ffff
 80038b0:	08007fff 	.word	0x08007fff
 80038b4:	08003fff 	.word	0x08003fff

080038b8 <FLASH_PageErase>:
  * @retval None
  */
void FLASH_PageErase(uint32_t PageAddress)
{
  /* Clean the error context */
  pFlash.ErrorCode = HAL_FLASH_ERROR_NONE;
 80038b8:	2200      	movs	r2, #0
 80038ba:	4b06      	ldr	r3, [pc, #24]	; (80038d4 <FLASH_PageErase+0x1c>)
 80038bc:	61da      	str	r2, [r3, #28]
  }
  else
  {
#endif /* FLASH_BANK2_END */
    /* Proceed to erase the page */
    SET_BIT(FLASH->CR, FLASH_CR_PER);
 80038be:	4b06      	ldr	r3, [pc, #24]	; (80038d8 <FLASH_PageErase+0x20>)
 80038c0:	691a      	ldr	r2, [r3, #16]
 80038c2:	f042 0202 	orr.w	r2, r2, #2
 80038c6:	611a      	str	r2, [r3, #16]
    WRITE_REG(FLASH->AR, PageAddress);
 80038c8:	6158      	str	r0, [r3, #20]
    SET_BIT(FLASH->CR, FLASH_CR_STRT);
 80038ca:	691a      	ldr	r2, [r3, #16]
 80038cc:	f042 0240 	orr.w	r2, r2, #64	; 0x40
 80038d0:	611a      	str	r2, [r3, #16]
 80038d2:	4770      	bx	lr
 80038d4:	20000800 	.word	0x20000800
 80038d8:	40022000 	.word	0x40022000

080038dc <HAL_FLASHEx_Erase>:
{
 80038dc:	e92d 41f0 	stmdb	sp!, {r4, r5, r6, r7, r8, lr}
  __HAL_LOCK(&pFlash);
 80038e0:	4c4a      	ldr	r4, [pc, #296]	; (8003a0c <HAL_FLASHEx_Erase+0x130>)
{
 80038e2:	4606      	mov	r6, r0
  __HAL_LOCK(&pFlash);
 80038e4:	7e23      	ldrb	r3, [r4, #24]
{
 80038e6:	460d      	mov	r5, r1
  __HAL_LOCK(&pFlash);
 80038e8:	2b01      	cmp	r3, #1
 80038ea:	f000 808b 	beq.w	8003a04 <HAL_FLASHEx_Erase+0x128>
 80038ee:	2301      	movs	r3, #1
 80038f0:	7623      	strb	r3, [r4, #24]
  assert_param(IS_FLASH_TYPEERASE(pEraseInit->TypeErase));
 80038f2:	6803      	ldr	r3, [r0, #0]
 80038f4:	f033 0302 	bics.w	r3, r3, #2
 80038f8:	d003      	beq.n	8003902 <HAL_FLASHEx_Erase+0x26>
 80038fa:	21b8      	movs	r1, #184	; 0xb8
 80038fc:	4844      	ldr	r0, [pc, #272]	; (8003a10 <HAL_FLASHEx_Erase+0x134>)
 80038fe:	f7fe fb12 	bl	8001f26 <assert_failed>
  if (pEraseInit->TypeErase == FLASH_TYPEERASE_MASSERASE)
 8003902:	6833      	ldr	r3, [r6, #0]
 8003904:	2b02      	cmp	r3, #2
 8003906:	d11c      	bne.n	8003942 <HAL_FLASHEx_Erase+0x66>
      if (FLASH_WaitForLastOperation((uint32_t)FLASH_TIMEOUT_VALUE) == HAL_OK)
 8003908:	f24c 3050 	movw	r0, #50000	; 0xc350
 800390c:	f7ff ff38 	bl	8003780 <FLASH_WaitForLastOperation>
 8003910:	b120      	cbz	r0, 800391c <HAL_FLASHEx_Erase+0x40>
  HAL_StatusTypeDef status = HAL_ERROR;
 8003912:	2001      	movs	r0, #1
  __HAL_UNLOCK(&pFlash);
 8003914:	2300      	movs	r3, #0
 8003916:	7623      	strb	r3, [r4, #24]
  return status;
 8003918:	e8bd 81f0 	ldmia.w	sp!, {r4, r5, r6, r7, r8, pc}
    SET_BIT(FLASH->CR, FLASH_CR_MER);
 800391c:	4d3d      	ldr	r5, [pc, #244]	; (8003a14 <HAL_FLASHEx_Erase+0x138>)
  pFlash.ErrorCode = HAL_FLASH_ERROR_NONE;
 800391e:	61e0      	str	r0, [r4, #28]
    SET_BIT(FLASH->CR, FLASH_CR_MER);
 8003920:	692b      	ldr	r3, [r5, #16]
        status = FLASH_WaitForLastOperation((uint32_t)FLASH_TIMEOUT_VALUE);
 8003922:	f24c 3050 	movw	r0, #50000	; 0xc350
    SET_BIT(FLASH->CR, FLASH_CR_MER);
 8003926:	f043 0304 	orr.w	r3, r3, #4
 800392a:	612b      	str	r3, [r5, #16]
    SET_BIT(FLASH->CR, FLASH_CR_STRT);
 800392c:	692b      	ldr	r3, [r5, #16]
 800392e:	f043 0340 	orr.w	r3, r3, #64	; 0x40
 8003932:	612b      	str	r3, [r5, #16]
        status = FLASH_WaitForLastOperation((uint32_t)FLASH_TIMEOUT_VALUE);
 8003934:	f7ff ff24 	bl	8003780 <FLASH_WaitForLastOperation>
        CLEAR_BIT(FLASH->CR, FLASH_CR_MER);
 8003938:	692b      	ldr	r3, [r5, #16]
 800393a:	f023 0304 	bic.w	r3, r3, #4
 800393e:	612b      	str	r3, [r5, #16]
 8003940:	e7e8      	b.n	8003914 <HAL_FLASHEx_Erase+0x38>
    assert_param(IS_FLASH_PROGRAM_ADDRESS(pEraseInit->PageAddress));
 8003942:	68b3      	ldr	r3, [r6, #8]
 8003944:	f1b3 6f00 	cmp.w	r3, #134217728	; 0x8000000
 8003948:	d306      	bcc.n	8003958 <HAL_FLASHEx_Erase+0x7c>
 800394a:	4a33      	ldr	r2, [pc, #204]	; (8003a18 <HAL_FLASHEx_Erase+0x13c>)
 800394c:	8812      	ldrh	r2, [r2, #0]
 800394e:	2a80      	cmp	r2, #128	; 0x80
 8003950:	d13c      	bne.n	80039cc <HAL_FLASHEx_Erase+0xf0>
 8003952:	4a32      	ldr	r2, [pc, #200]	; (8003a1c <HAL_FLASHEx_Erase+0x140>)
 8003954:	4293      	cmp	r3, r2
 8003956:	d903      	bls.n	8003960 <HAL_FLASHEx_Erase+0x84>
 8003958:	21f9      	movs	r1, #249	; 0xf9
 800395a:	482d      	ldr	r0, [pc, #180]	; (8003a10 <HAL_FLASHEx_Erase+0x134>)
 800395c:	f7fe fae3 	bl	8001f26 <assert_failed>
    assert_param(IS_FLASH_NB_PAGES(pEraseInit->PageAddress, pEraseInit->NbPages));
 8003960:	4b2d      	ldr	r3, [pc, #180]	; (8003a18 <HAL_FLASHEx_Erase+0x13c>)
 8003962:	68b2      	ldr	r2, [r6, #8]
 8003964:	881b      	ldrh	r3, [r3, #0]
 8003966:	68f1      	ldr	r1, [r6, #12]
 8003968:	2b80      	cmp	r3, #128	; 0x80
 800396a:	d138      	bne.n	80039de <HAL_FLASHEx_Erase+0x102>
 800396c:	3a01      	subs	r2, #1
 800396e:	eb02 2381 	add.w	r3, r2, r1, lsl #10
 8003972:	4a2a      	ldr	r2, [pc, #168]	; (8003a1c <HAL_FLASHEx_Erase+0x140>)
 8003974:	4293      	cmp	r3, r2
 8003976:	bf8c      	ite	hi
 8003978:	2300      	movhi	r3, #0
 800397a:	2301      	movls	r3, #1
 800397c:	b91b      	cbnz	r3, 8003986 <HAL_FLASHEx_Erase+0xaa>
 800397e:	21fa      	movs	r1, #250	; 0xfa
 8003980:	4823      	ldr	r0, [pc, #140]	; (8003a10 <HAL_FLASHEx_Erase+0x134>)
 8003982:	f7fe fad0 	bl	8001f26 <assert_failed>
      if (FLASH_WaitForLastOperation((uint32_t)FLASH_TIMEOUT_VALUE) == HAL_OK)
 8003986:	f24c 3050 	movw	r0, #50000	; 0xc350
 800398a:	f7ff fef9 	bl	8003780 <FLASH_WaitForLastOperation>
 800398e:	2800      	cmp	r0, #0
 8003990:	d1bf      	bne.n	8003912 <HAL_FLASHEx_Erase+0x36>
        *PageError = 0xFFFFFFFFU;
 8003992:	f04f 33ff 	mov.w	r3, #4294967295
  HAL_StatusTypeDef status = HAL_ERROR;
 8003996:	2001      	movs	r0, #1
        *PageError = 0xFFFFFFFFU;
 8003998:	602b      	str	r3, [r5, #0]
        for(address = pEraseInit->PageAddress;
 800399a:	68b7      	ldr	r7, [r6, #8]
          CLEAR_BIT(FLASH->CR, FLASH_CR_PER);
 800399c:	f8df 8074 	ldr.w	r8, [pc, #116]	; 8003a14 <HAL_FLASHEx_Erase+0x138>
            address < ((pEraseInit->NbPages * FLASH_PAGE_SIZE) + pEraseInit->PageAddress);
 80039a0:	68f2      	ldr	r2, [r6, #12]
 80039a2:	68b3      	ldr	r3, [r6, #8]
 80039a4:	eb03 2382 	add.w	r3, r3, r2, lsl #10
        for(address = pEraseInit->PageAddress;
 80039a8:	429f      	cmp	r7, r3
 80039aa:	d2b3      	bcs.n	8003914 <HAL_FLASHEx_Erase+0x38>
          FLASH_PageErase(address);
 80039ac:	4638      	mov	r0, r7
 80039ae:	f7ff ff83 	bl	80038b8 <FLASH_PageErase>
          status = FLASH_WaitForLastOperation((uint32_t)FLASH_TIMEOUT_VALUE);
 80039b2:	f24c 3050 	movw	r0, #50000	; 0xc350
 80039b6:	f7ff fee3 	bl	8003780 <FLASH_WaitForLastOperation>
          CLEAR_BIT(FLASH->CR, FLASH_CR_PER);
 80039ba:	f8d8 3010 	ldr.w	r3, [r8, #16]
 80039be:	f023 0302 	bic.w	r3, r3, #2
 80039c2:	f8c8 3010 	str.w	r3, [r8, #16]
          if (status != HAL_OK)
 80039c6:	b1d0      	cbz	r0, 80039fe <HAL_FLASHEx_Erase+0x122>
            *PageError = address;
 80039c8:	602f      	str	r7, [r5, #0]
            break;
 80039ca:	e7a3      	b.n	8003914 <HAL_FLASHEx_Erase+0x38>
    assert_param(IS_FLASH_PROGRAM_ADDRESS(pEraseInit->PageAddress));
 80039cc:	2a40      	cmp	r2, #64	; 0x40
 80039ce:	d101      	bne.n	80039d4 <HAL_FLASHEx_Erase+0xf8>
 80039d0:	4a13      	ldr	r2, [pc, #76]	; (8003a20 <HAL_FLASHEx_Erase+0x144>)
 80039d2:	e7bf      	b.n	8003954 <HAL_FLASHEx_Erase+0x78>
 80039d4:	2a20      	cmp	r2, #32
 80039d6:	bf0c      	ite	eq
 80039d8:	4a12      	ldreq	r2, [pc, #72]	; (8003a24 <HAL_FLASHEx_Erase+0x148>)
 80039da:	4a13      	ldrne	r2, [pc, #76]	; (8003a28 <HAL_FLASHEx_Erase+0x14c>)
 80039dc:	e7ba      	b.n	8003954 <HAL_FLASHEx_Erase+0x78>
    assert_param(IS_FLASH_NB_PAGES(pEraseInit->PageAddress, pEraseInit->NbPages));
 80039de:	2b40      	cmp	r3, #64	; 0x40
 80039e0:	d104      	bne.n	80039ec <HAL_FLASHEx_Erase+0x110>
 80039e2:	1e53      	subs	r3, r2, #1
 80039e4:	eb03 2381 	add.w	r3, r3, r1, lsl #10
 80039e8:	4a0d      	ldr	r2, [pc, #52]	; (8003a20 <HAL_FLASHEx_Erase+0x144>)
 80039ea:	e7c3      	b.n	8003974 <HAL_FLASHEx_Erase+0x98>
 80039ec:	2b20      	cmp	r3, #32
 80039ee:	f102 33ff 	add.w	r3, r2, #4294967295
 80039f2:	eb03 2381 	add.w	r3, r3, r1, lsl #10
 80039f6:	bf0c      	ite	eq
 80039f8:	4a0a      	ldreq	r2, [pc, #40]	; (8003a24 <HAL_FLASHEx_Erase+0x148>)
 80039fa:	4a0b      	ldrne	r2, [pc, #44]	; (8003a28 <HAL_FLASHEx_Erase+0x14c>)
 80039fc:	e7ba      	b.n	8003974 <HAL_FLASHEx_Erase+0x98>
            address += FLASH_PAGE_SIZE)
 80039fe:	f507 6780 	add.w	r7, r7, #1024	; 0x400
 8003a02:	e7cd      	b.n	80039a0 <HAL_FLASHEx_Erase+0xc4>
  __HAL_LOCK(&pFlash);
 8003a04:	2002      	movs	r0, #2
}
 8003a06:	e8bd 81f0 	ldmia.w	sp!, {r4, r5, r6, r7, r8, pc}
 8003a0a:	bf00      	nop
 8003a0c:	20000800 	.word	0x20000800
 8003a10:	080066f3 	.word	0x080066f3
 8003a14:	40022000 	.word	0x40022000
 8003a18:	1ffff7e0 	.word	0x1ffff7e0
 8003a1c:	0801ffff 	.word	0x0801ffff
 8003a20:	0800ffff 	.word	0x0800ffff
 8003a24:	08007fff 	.word	0x08007fff
 8003a28:	08003fff 	.word	0x08003fff

08003a2c <HAL_GPIO_Init>:
  * @param  GPIO_Init: pointer to a GPIO_InitTypeDef structure that contains
  *         the configuration information for the specified GPIO peripheral.
  * @retval None
  */
void HAL_GPIO_Init(GPIO_TypeDef  *GPIOx, GPIO_InitTypeDef *GPIO_Init)
{
 8003a2c:	e92d 4ff0 	stmdb	sp!, {r4, r5, r6, r7, r8, r9, sl, fp, lr}
  uint32_t config = 0x00U;
  __IO uint32_t *configregister; /* Store the address of CRL or CRH register based on pin number */
  uint32_t registeroffset = 0U; /* offset used during computation of CNF and MODE bits placement inside CRL or CRH register */

  /* Check the parameters */
  assert_param(IS_GPIO_ALL_INSTANCE(GPIOx));
 8003a30:	4aaa      	ldr	r2, [pc, #680]	; (8003cdc <HAL_GPIO_Init+0x2b0>)
{
 8003a32:	b085      	sub	sp, #20
  assert_param(IS_GPIO_ALL_INSTANCE(GPIOx));
 8003a34:	4290      	cmp	r0, r2
{
 8003a36:	4604      	mov	r4, r0
 8003a38:	468b      	mov	fp, r1
 8003a3a:	9201      	str	r2, [sp, #4]
  assert_param(IS_GPIO_ALL_INSTANCE(GPIOx));
 8003a3c:	d013      	beq.n	8003a66 <HAL_GPIO_Init+0x3a>
 8003a3e:	f502 6280 	add.w	r2, r2, #1024	; 0x400
 8003a42:	4290      	cmp	r0, r2
 8003a44:	d00f      	beq.n	8003a66 <HAL_GPIO_Init+0x3a>
 8003a46:	f502 6280 	add.w	r2, r2, #1024	; 0x400
 8003a4a:	4290      	cmp	r0, r2
 8003a4c:	d00b      	beq.n	8003a66 <HAL_GPIO_Init+0x3a>
 8003a4e:	f502 6280 	add.w	r2, r2, #1024	; 0x400
 8003a52:	4290      	cmp	r0, r2
 8003a54:	d007      	beq.n	8003a66 <HAL_GPIO_Init+0x3a>
 8003a56:	f502 6280 	add.w	r2, r2, #1024	; 0x400
 8003a5a:	4290      	cmp	r0, r2
 8003a5c:	d003      	beq.n	8003a66 <HAL_GPIO_Init+0x3a>
 8003a5e:	21cd      	movs	r1, #205	; 0xcd
 8003a60:	489f      	ldr	r0, [pc, #636]	; (8003ce0 <HAL_GPIO_Init+0x2b4>)
 8003a62:	f7fe fa60 	bl	8001f26 <assert_failed>
  assert_param(IS_GPIO_PIN(GPIO_Init->Pin));
 8003a66:	f8db 2000 	ldr.w	r2, [fp]
 8003a6a:	b291      	uxth	r1, r2
 8003a6c:	b111      	cbz	r1, 8003a74 <HAL_GPIO_Init+0x48>
 8003a6e:	0c12      	lsrs	r2, r2, #16
 8003a70:	0412      	lsls	r2, r2, #16
 8003a72:	b11a      	cbz	r2, 8003a7c <HAL_GPIO_Init+0x50>
 8003a74:	21ce      	movs	r1, #206	; 0xce
 8003a76:	489a      	ldr	r0, [pc, #616]	; (8003ce0 <HAL_GPIO_Init+0x2b4>)
 8003a78:	f7fe fa55 	bl	8001f26 <assert_failed>
  assert_param(IS_GPIO_MODE(GPIO_Init->Mode));
 8003a7c:	f8db 2004 	ldr.w	r2, [fp, #4]
 8003a80:	2a03      	cmp	r2, #3
 8003a82:	d917      	bls.n	8003ab4 <HAL_GPIO_Init+0x88>
 8003a84:	f1a2 0111 	sub.w	r1, r2, #17
 8003a88:	2901      	cmp	r1, #1
 8003a8a:	d913      	bls.n	8003ab4 <HAL_GPIO_Init+0x88>
 8003a8c:	4895      	ldr	r0, [pc, #596]	; (8003ce4 <HAL_GPIO_Init+0x2b8>)
 8003a8e:	f422 1100 	bic.w	r1, r2, #2097152	; 0x200000
 8003a92:	4281      	cmp	r1, r0
 8003a94:	d00e      	beq.n	8003ab4 <HAL_GPIO_Init+0x88>
 8003a96:	f500 1080 	add.w	r0, r0, #1048576	; 0x100000
 8003a9a:	4282      	cmp	r2, r0
 8003a9c:	d00a      	beq.n	8003ab4 <HAL_GPIO_Init+0x88>
 8003a9e:	f5a0 2070 	sub.w	r0, r0, #983040	; 0xf0000
 8003aa2:	4281      	cmp	r1, r0
 8003aa4:	d006      	beq.n	8003ab4 <HAL_GPIO_Init+0x88>
 8003aa6:	4990      	ldr	r1, [pc, #576]	; (8003ce8 <HAL_GPIO_Init+0x2bc>)
 8003aa8:	428a      	cmp	r2, r1
 8003aaa:	d003      	beq.n	8003ab4 <HAL_GPIO_Init+0x88>
 8003aac:	21cf      	movs	r1, #207	; 0xcf
 8003aae:	488c      	ldr	r0, [pc, #560]	; (8003ce0 <HAL_GPIO_Init+0x2b4>)
 8003ab0:	f7fe fa39 	bl	8001f26 <assert_failed>
{
 8003ab4:	2500      	movs	r5, #0
 8003ab6:	46a8      	mov	r8, r5
      /*--------------------- EXTI Mode Configuration ------------------------*/
      /* Configure the External Interrupt or event for the current IO */
      if ((GPIO_Init->Mode & EXTI_MODE) == EXTI_MODE)
      {
        /* Enable AFIO Clock */
        __HAL_RCC_AFIO_CLK_ENABLE();
 8003ab8:	f8df a244 	ldr.w	sl, [pc, #580]	; 8003d00 <HAL_GPIO_Init+0x2d4>
 8003abc:	4e8b      	ldr	r6, [pc, #556]	; (8003cec <HAL_GPIO_Init+0x2c0>)
    ioposition = (0x01U << position);
 8003abe:	2201      	movs	r2, #1
    iocurrent = (uint32_t)(GPIO_Init->Pin) & ioposition;
 8003ac0:	f8db 7000 	ldr.w	r7, [fp]
    ioposition = (0x01U << position);
 8003ac4:	fa02 f908 	lsl.w	r9, r2, r8
    iocurrent = (uint32_t)(GPIO_Init->Pin) & ioposition;
 8003ac8:	ea09 0707 	and.w	r7, r9, r7
    if (iocurrent == ioposition)
 8003acc:	45b9      	cmp	r9, r7
 8003ace:	f040 808f 	bne.w	8003bf0 <HAL_GPIO_Init+0x1c4>
      assert_param(IS_GPIO_AF_INSTANCE(GPIOx));
 8003ad2:	9b01      	ldr	r3, [sp, #4]
 8003ad4:	429c      	cmp	r4, r3
 8003ad6:	d011      	beq.n	8003afc <HAL_GPIO_Init+0xd0>
 8003ad8:	4985      	ldr	r1, [pc, #532]	; (8003cf0 <HAL_GPIO_Init+0x2c4>)
 8003ada:	428c      	cmp	r4, r1
 8003adc:	d00e      	beq.n	8003afc <HAL_GPIO_Init+0xd0>
 8003ade:	4b85      	ldr	r3, [pc, #532]	; (8003cf4 <HAL_GPIO_Init+0x2c8>)
 8003ae0:	429c      	cmp	r4, r3
 8003ae2:	d00b      	beq.n	8003afc <HAL_GPIO_Init+0xd0>
 8003ae4:	f501 6100 	add.w	r1, r1, #2048	; 0x800
 8003ae8:	428c      	cmp	r4, r1
 8003aea:	d007      	beq.n	8003afc <HAL_GPIO_Init+0xd0>
 8003aec:	f501 6180 	add.w	r1, r1, #1024	; 0x400
 8003af0:	428c      	cmp	r4, r1
 8003af2:	d003      	beq.n	8003afc <HAL_GPIO_Init+0xd0>
 8003af4:	21dd      	movs	r1, #221	; 0xdd
 8003af6:	487a      	ldr	r0, [pc, #488]	; (8003ce0 <HAL_GPIO_Init+0x2b4>)
 8003af8:	f7fe fa15 	bl	8001f26 <assert_failed>
      switch (GPIO_Init->Mode)
 8003afc:	f8db 1004 	ldr.w	r1, [fp, #4]
 8003b00:	2912      	cmp	r1, #18
 8003b02:	f000 80d3 	beq.w	8003cac <HAL_GPIO_Init+0x280>
 8003b06:	f200 808d 	bhi.w	8003c24 <HAL_GPIO_Init+0x1f8>
 8003b0a:	2902      	cmp	r1, #2
 8003b0c:	f000 80c1 	beq.w	8003c92 <HAL_GPIO_Init+0x266>
 8003b10:	d877      	bhi.n	8003c02 <HAL_GPIO_Init+0x1d6>
 8003b12:	2900      	cmp	r1, #0
 8003b14:	f000 8093 	beq.w	8003c3e <HAL_GPIO_Init+0x212>
 8003b18:	2901      	cmp	r1, #1
 8003b1a:	f000 80ae 	beq.w	8003c7a <HAL_GPIO_Init+0x24e>
      configregister = (iocurrent < GPIO_PIN_8) ? &GPIOx->CRL     : &GPIOx->CRH;
 8003b1e:	2fff      	cmp	r7, #255	; 0xff
 8003b20:	bf82      	ittt	hi
 8003b22:	f108 4e80 	addhi.w	lr, r8, #1073741824	; 0x40000000
 8003b26:	f1ae 0e08 	subhi.w	lr, lr, #8
 8003b2a:	ea4f 018e 	movhi.w	r1, lr, lsl #2
      MODIFY_REG((*configregister), ((GPIO_CRL_MODE0 | GPIO_CRL_CNF0) << registeroffset), (config << registeroffset));
 8003b2e:	f04f 0e0f 	mov.w	lr, #15
      configregister = (iocurrent < GPIO_PIN_8) ? &GPIOx->CRL     : &GPIOx->CRH;
 8003b32:	bf9d      	ittte	ls
 8003b34:	4620      	movls	r0, r4
 8003b36:	6822      	ldrls	r2, [r4, #0]
 8003b38:	ea4f 0188 	movls.w	r1, r8, lsl #2
 8003b3c:	6862      	ldrhi	r2, [r4, #4]
      MODIFY_REG((*configregister), ((GPIO_CRL_MODE0 | GPIO_CRL_CNF0) << registeroffset), (config << registeroffset));
 8003b3e:	fa0e fc01 	lsl.w	ip, lr, r1
 8003b42:	ea22 020c 	bic.w	r2, r2, ip
 8003b46:	fa05 f101 	lsl.w	r1, r5, r1
      configregister = (iocurrent < GPIO_PIN_8) ? &GPIOx->CRL     : &GPIOx->CRH;
 8003b4a:	bf88      	it	hi
 8003b4c:	1d20      	addhi	r0, r4, #4
      MODIFY_REG((*configregister), ((GPIO_CRL_MODE0 | GPIO_CRL_CNF0) << registeroffset), (config << registeroffset));
 8003b4e:	4311      	orrs	r1, r2
 8003b50:	6001      	str	r1, [r0, #0]
      if ((GPIO_Init->Mode & EXTI_MODE) == EXTI_MODE)
 8003b52:	f8db 0004 	ldr.w	r0, [fp, #4]
 8003b56:	00c3      	lsls	r3, r0, #3
 8003b58:	d54a      	bpl.n	8003bf0 <HAL_GPIO_Init+0x1c4>
        __HAL_RCC_AFIO_CLK_ENABLE();
 8003b5a:	f8da 2018 	ldr.w	r2, [sl, #24]
 8003b5e:	f028 0103 	bic.w	r1, r8, #3
 8003b62:	f042 0201 	orr.w	r2, r2, #1
 8003b66:	f8ca 2018 	str.w	r2, [sl, #24]
 8003b6a:	f8da 2018 	ldr.w	r2, [sl, #24]
 8003b6e:	f101 4180 	add.w	r1, r1, #1073741824	; 0x40000000
 8003b72:	f002 0201 	and.w	r2, r2, #1
 8003b76:	9203      	str	r2, [sp, #12]
 8003b78:	f501 3180 	add.w	r1, r1, #65536	; 0x10000
        temp = AFIO->EXTICR[position >> 2U];
        CLEAR_BIT(temp, (0x0FU) << (4U * (position & 0x03U)));
 8003b7c:	f008 0c03 	and.w	ip, r8, #3
        SET_BIT(temp, (GPIO_GET_INDEX(GPIOx)) << (4U * (position & 0x03U)));
 8003b80:	9b01      	ldr	r3, [sp, #4]
        __HAL_RCC_AFIO_CLK_ENABLE();
 8003b82:	9a03      	ldr	r2, [sp, #12]
        CLEAR_BIT(temp, (0x0FU) << (4U * (position & 0x03U)));
 8003b84:	ea4f 0c8c 	mov.w	ip, ip, lsl #2
        temp = AFIO->EXTICR[position >> 2U];
 8003b88:	688a      	ldr	r2, [r1, #8]
        CLEAR_BIT(temp, (0x0FU) << (4U * (position & 0x03U)));
 8003b8a:	fa0e fe0c 	lsl.w	lr, lr, ip
        SET_BIT(temp, (GPIO_GET_INDEX(GPIOx)) << (4U * (position & 0x03U)));
 8003b8e:	429c      	cmp	r4, r3
        CLEAR_BIT(temp, (0x0FU) << (4U * (position & 0x03U)));
 8003b90:	ea22 0e0e 	bic.w	lr, r2, lr
        SET_BIT(temp, (GPIO_GET_INDEX(GPIOx)) << (4U * (position & 0x03U)));
 8003b94:	f000 809b 	beq.w	8003cce <HAL_GPIO_Init+0x2a2>
 8003b98:	4a55      	ldr	r2, [pc, #340]	; (8003cf0 <HAL_GPIO_Init+0x2c4>)
 8003b9a:	4294      	cmp	r4, r2
 8003b9c:	f000 8099 	beq.w	8003cd2 <HAL_GPIO_Init+0x2a6>
 8003ba0:	4b54      	ldr	r3, [pc, #336]	; (8003cf4 <HAL_GPIO_Init+0x2c8>)
 8003ba2:	429c      	cmp	r4, r3
 8003ba4:	f000 8097 	beq.w	8003cd6 <HAL_GPIO_Init+0x2aa>
 8003ba8:	f502 6200 	add.w	r2, r2, #2048	; 0x800
 8003bac:	4294      	cmp	r4, r2
 8003bae:	bf14      	ite	ne
 8003bb0:	2204      	movne	r2, #4
 8003bb2:	2203      	moveq	r2, #3
 8003bb4:	fa02 f20c 	lsl.w	r2, r2, ip
 8003bb8:	ea42 020e 	orr.w	r2, r2, lr
        AFIO->EXTICR[position >> 2U] = temp;
 8003bbc:	608a      	str	r2, [r1, #8]


        /* Configure the interrupt mask */
        if ((GPIO_Init->Mode & GPIO_MODE_IT) == GPIO_MODE_IT)
        {
          SET_BIT(EXTI->IMR, iocurrent);
 8003bbe:	6832      	ldr	r2, [r6, #0]
        if ((GPIO_Init->Mode & GPIO_MODE_IT) == GPIO_MODE_IT)
 8003bc0:	03c1      	lsls	r1, r0, #15
          SET_BIT(EXTI->IMR, iocurrent);
 8003bc2:	bf4c      	ite	mi
 8003bc4:	433a      	orrmi	r2, r7
        }
        else
        {
          CLEAR_BIT(EXTI->IMR, iocurrent);
 8003bc6:	43ba      	bicpl	r2, r7
 8003bc8:	6032      	str	r2, [r6, #0]
        }

        /* Configure the event mask */
        if ((GPIO_Init->Mode & GPIO_MODE_EVT) == GPIO_MODE_EVT)
        {
          SET_BIT(EXTI->EMR, iocurrent);
 8003bca:	6872      	ldr	r2, [r6, #4]
        if ((GPIO_Init->Mode & GPIO_MODE_EVT) == GPIO_MODE_EVT)
 8003bcc:	0383      	lsls	r3, r0, #14
          SET_BIT(EXTI->EMR, iocurrent);
 8003bce:	bf4c      	ite	mi
 8003bd0:	433a      	orrmi	r2, r7
        }
        else
        {
          CLEAR_BIT(EXTI->EMR, iocurrent);
 8003bd2:	43ba      	bicpl	r2, r7
 8003bd4:	6072      	str	r2, [r6, #4]
        }

        /* Enable or disable the rising trigger */
        if ((GPIO_Init->Mode & RISING_EDGE) == RISING_EDGE)
        {
          SET_BIT(EXTI->RTSR, iocurrent);
 8003bd6:	68b2      	ldr	r2, [r6, #8]
        if ((GPIO_Init->Mode & RISING_EDGE) == RISING_EDGE)
 8003bd8:	02c1      	lsls	r1, r0, #11
          SET_BIT(EXTI->RTSR, iocurrent);
 8003bda:	bf4c      	ite	mi
 8003bdc:	433a      	orrmi	r2, r7
        }
        else
        {
          CLEAR_BIT(EXTI->RTSR, iocurrent);
 8003bde:	43ba      	bicpl	r2, r7
 8003be0:	60b2      	str	r2, [r6, #8]
        }

        /* Enable or disable the falling trigger */
        if ((GPIO_Init->Mode & FALLING_EDGE) == FALLING_EDGE)
        {
          SET_BIT(EXTI->FTSR, iocurrent);
 8003be2:	68f2      	ldr	r2, [r6, #12]
        if ((GPIO_Init->Mode & FALLING_EDGE) == FALLING_EDGE)
 8003be4:	0283      	lsls	r3, r0, #10
          SET_BIT(EXTI->FTSR, iocurrent);
 8003be6:	bf4c      	ite	mi
 8003be8:	4317      	orrmi	r7, r2
        }
        else
        {
          CLEAR_BIT(EXTI->FTSR, iocurrent);
 8003bea:	ea22 0707 	bicpl.w	r7, r2, r7
 8003bee:	60f7      	str	r7, [r6, #12]
  for (position = 0U; position < GPIO_NUMBER; position++)
 8003bf0:	f108 0801 	add.w	r8, r8, #1
 8003bf4:	f1b8 0f10 	cmp.w	r8, #16
 8003bf8:	f47f af61 	bne.w	8003abe <HAL_GPIO_Init+0x92>
        }
      }
    }
  }
}
 8003bfc:	b005      	add	sp, #20
 8003bfe:	e8bd 8ff0 	ldmia.w	sp!, {r4, r5, r6, r7, r8, r9, sl, fp, pc}
      switch (GPIO_Init->Mode)
 8003c02:	2903      	cmp	r1, #3
 8003c04:	d05f      	beq.n	8003cc6 <HAL_GPIO_Init+0x29a>
 8003c06:	2911      	cmp	r1, #17
 8003c08:	d189      	bne.n	8003b1e <HAL_GPIO_Init+0xf2>
          assert_param(IS_GPIO_SPEED(GPIO_Init->Speed));
 8003c0a:	f8db 200c 	ldr.w	r2, [fp, #12]
 8003c0e:	3a01      	subs	r2, #1
 8003c10:	2a02      	cmp	r2, #2
 8003c12:	d903      	bls.n	8003c1c <HAL_GPIO_Init+0x1f0>
 8003c14:	21ec      	movs	r1, #236	; 0xec
 8003c16:	4832      	ldr	r0, [pc, #200]	; (8003ce0 <HAL_GPIO_Init+0x2b4>)
 8003c18:	f7fe f985 	bl	8001f26 <assert_failed>
          config = GPIO_Init->Speed + GPIO_CR_CNF_GP_OUTPUT_OD;
 8003c1c:	f8db 500c 	ldr.w	r5, [fp, #12]
 8003c20:	3504      	adds	r5, #4
          break;
 8003c22:	e77c      	b.n	8003b1e <HAL_GPIO_Init+0xf2>
      switch (GPIO_Init->Mode)
 8003c24:	4834      	ldr	r0, [pc, #208]	; (8003cf8 <HAL_GPIO_Init+0x2cc>)
 8003c26:	4281      	cmp	r1, r0
 8003c28:	d009      	beq.n	8003c3e <HAL_GPIO_Init+0x212>
 8003c2a:	d81c      	bhi.n	8003c66 <HAL_GPIO_Init+0x23a>
 8003c2c:	f5a0 1080 	sub.w	r0, r0, #1048576	; 0x100000
 8003c30:	4281      	cmp	r1, r0
 8003c32:	d004      	beq.n	8003c3e <HAL_GPIO_Init+0x212>
 8003c34:	f500 3080 	add.w	r0, r0, #65536	; 0x10000
 8003c38:	4281      	cmp	r1, r0
 8003c3a:	f47f af70 	bne.w	8003b1e <HAL_GPIO_Init+0xf2>
          assert_param(IS_GPIO_PULL(GPIO_Init->Pull));
 8003c3e:	f8db 1008 	ldr.w	r1, [fp, #8]
 8003c42:	2902      	cmp	r1, #2
 8003c44:	d904      	bls.n	8003c50 <HAL_GPIO_Init+0x224>
 8003c46:	f240 1107 	movw	r1, #263	; 0x107
 8003c4a:	4825      	ldr	r0, [pc, #148]	; (8003ce0 <HAL_GPIO_Init+0x2b4>)
 8003c4c:	f7fe f96b 	bl	8001f26 <assert_failed>
          if (GPIO_Init->Pull == GPIO_NOPULL)
 8003c50:	f8db 1008 	ldr.w	r1, [fp, #8]
 8003c54:	b3c9      	cbz	r1, 8003cca <HAL_GPIO_Init+0x29e>
          else if (GPIO_Init->Pull == GPIO_PULLUP)
 8003c56:	2901      	cmp	r1, #1
            GPIOx->BSRR = ioposition;
 8003c58:	bf0c      	ite	eq
 8003c5a:	f8c4 9010 	streq.w	r9, [r4, #16]
            GPIOx->BRR = ioposition;
 8003c5e:	f8c4 9014 	strne.w	r9, [r4, #20]
            config = GPIO_CR_MODE_INPUT + GPIO_CR_CNF_INPUT_PU_PD;
 8003c62:	2508      	movs	r5, #8
 8003c64:	e75b      	b.n	8003b1e <HAL_GPIO_Init+0xf2>
      switch (GPIO_Init->Mode)
 8003c66:	4825      	ldr	r0, [pc, #148]	; (8003cfc <HAL_GPIO_Init+0x2d0>)
 8003c68:	4281      	cmp	r1, r0
 8003c6a:	d0e8      	beq.n	8003c3e <HAL_GPIO_Init+0x212>
 8003c6c:	f500 3080 	add.w	r0, r0, #65536	; 0x10000
 8003c70:	4281      	cmp	r1, r0
 8003c72:	d0e4      	beq.n	8003c3e <HAL_GPIO_Init+0x212>
 8003c74:	f5a0 1080 	sub.w	r0, r0, #1048576	; 0x100000
 8003c78:	e7de      	b.n	8003c38 <HAL_GPIO_Init+0x20c>
          assert_param(IS_GPIO_SPEED(GPIO_Init->Speed));
 8003c7a:	f8db 200c 	ldr.w	r2, [fp, #12]
 8003c7e:	3a01      	subs	r2, #1
 8003c80:	2a02      	cmp	r2, #2
 8003c82:	d903      	bls.n	8003c8c <HAL_GPIO_Init+0x260>
 8003c84:	21e5      	movs	r1, #229	; 0xe5
 8003c86:	4816      	ldr	r0, [pc, #88]	; (8003ce0 <HAL_GPIO_Init+0x2b4>)
 8003c88:	f7fe f94d 	bl	8001f26 <assert_failed>
          config = GPIO_Init->Speed + GPIO_CR_CNF_GP_OUTPUT_PP;
 8003c8c:	f8db 500c 	ldr.w	r5, [fp, #12]
          break;
 8003c90:	e745      	b.n	8003b1e <HAL_GPIO_Init+0xf2>
          assert_param(IS_GPIO_SPEED(GPIO_Init->Speed));
 8003c92:	f8db 200c 	ldr.w	r2, [fp, #12]
 8003c96:	3a01      	subs	r2, #1
 8003c98:	2a02      	cmp	r2, #2
 8003c9a:	d903      	bls.n	8003ca4 <HAL_GPIO_Init+0x278>
 8003c9c:	21f3      	movs	r1, #243	; 0xf3
 8003c9e:	4810      	ldr	r0, [pc, #64]	; (8003ce0 <HAL_GPIO_Init+0x2b4>)
 8003ca0:	f7fe f941 	bl	8001f26 <assert_failed>
          config = GPIO_Init->Speed + GPIO_CR_CNF_AF_OUTPUT_PP;
 8003ca4:	f8db 500c 	ldr.w	r5, [fp, #12]
 8003ca8:	3508      	adds	r5, #8
          break;
 8003caa:	e738      	b.n	8003b1e <HAL_GPIO_Init+0xf2>
          assert_param(IS_GPIO_SPEED(GPIO_Init->Speed));
 8003cac:	f8db 200c 	ldr.w	r2, [fp, #12]
 8003cb0:	3a01      	subs	r2, #1
 8003cb2:	2a02      	cmp	r2, #2
 8003cb4:	d903      	bls.n	8003cbe <HAL_GPIO_Init+0x292>
 8003cb6:	21fa      	movs	r1, #250	; 0xfa
 8003cb8:	4809      	ldr	r0, [pc, #36]	; (8003ce0 <HAL_GPIO_Init+0x2b4>)
 8003cba:	f7fe f934 	bl	8001f26 <assert_failed>
          config = GPIO_Init->Speed + GPIO_CR_CNF_AF_OUTPUT_OD;
 8003cbe:	f8db 500c 	ldr.w	r5, [fp, #12]
 8003cc2:	350c      	adds	r5, #12
          break;
 8003cc4:	e72b      	b.n	8003b1e <HAL_GPIO_Init+0xf2>
          config = GPIO_CR_MODE_INPUT + GPIO_CR_CNF_ANALOG;
 8003cc6:	2500      	movs	r5, #0
 8003cc8:	e729      	b.n	8003b1e <HAL_GPIO_Init+0xf2>
            config = GPIO_CR_MODE_INPUT + GPIO_CR_CNF_INPUT_FLOATING;
 8003cca:	2504      	movs	r5, #4
 8003ccc:	e727      	b.n	8003b1e <HAL_GPIO_Init+0xf2>
        SET_BIT(temp, (GPIO_GET_INDEX(GPIOx)) << (4U * (position & 0x03U)));
 8003cce:	2200      	movs	r2, #0
 8003cd0:	e770      	b.n	8003bb4 <HAL_GPIO_Init+0x188>
 8003cd2:	2201      	movs	r2, #1
 8003cd4:	e76e      	b.n	8003bb4 <HAL_GPIO_Init+0x188>
 8003cd6:	2202      	movs	r2, #2
 8003cd8:	e76c      	b.n	8003bb4 <HAL_GPIO_Init+0x188>
 8003cda:	bf00      	nop
 8003cdc:	40010800 	.word	0x40010800
 8003ce0:	08006730 	.word	0x08006730
 8003ce4:	10110000 	.word	0x10110000
 8003ce8:	10220000 	.word	0x10220000
 8003cec:	40010400 	.word	0x40010400
 8003cf0:	40010c00 	.word	0x40010c00
 8003cf4:	40011000 	.word	0x40011000
 8003cf8:	10210000 	.word	0x10210000
 8003cfc:	10310000 	.word	0x10310000
 8003d00:	40021000 	.word	0x40021000

08003d04 <HAL_GPIO_ReadPin>:
  * @param  GPIO_Pin: specifies the port bit to read.
  *         This parameter can be GPIO_PIN_x where x can be (0..15).
  * @retval The input port pin value.
  */
GPIO_PinState HAL_GPIO_ReadPin(GPIO_TypeDef *GPIOx, uint16_t GPIO_Pin)
{
 8003d04:	b538      	push	{r3, r4, r5, lr}
 8003d06:	4605      	mov	r5, r0
  GPIO_PinState bitstatus;

  /* Check the parameters */
  assert_param(IS_GPIO_PIN(GPIO_Pin));
 8003d08:	460c      	mov	r4, r1
 8003d0a:	b921      	cbnz	r1, 8003d16 <HAL_GPIO_ReadPin+0x12>
 8003d0c:	f240 11c3 	movw	r1, #451	; 0x1c3
 8003d10:	4804      	ldr	r0, [pc, #16]	; (8003d24 <HAL_GPIO_ReadPin+0x20>)
 8003d12:	f7fe f908 	bl	8001f26 <assert_failed>

  if ((GPIOx->IDR & GPIO_Pin) != (uint32_t)GPIO_PIN_RESET)
 8003d16:	68ab      	ldr	r3, [r5, #8]
 8003d18:	421c      	tst	r4, r3
  else
  {
    bitstatus = GPIO_PIN_RESET;
  }
  return bitstatus;
}
 8003d1a:	bf14      	ite	ne
 8003d1c:	2001      	movne	r0, #1
 8003d1e:	2000      	moveq	r0, #0
 8003d20:	bd38      	pop	{r3, r4, r5, pc}
 8003d22:	bf00      	nop
 8003d24:	08006730 	.word	0x08006730

08003d28 <HAL_GPIO_WritePin>:
  *            @arg GPIO_PIN_RESET: to clear the port pin
  *            @arg GPIO_PIN_SET: to set the port pin
  * @retval None
  */
void HAL_GPIO_WritePin(GPIO_TypeDef *GPIOx, uint16_t GPIO_Pin, GPIO_PinState PinState)
{
 8003d28:	b570      	push	{r4, r5, r6, lr}
 8003d2a:	4605      	mov	r5, r0
 8003d2c:	4616      	mov	r6, r2
  /* Check the parameters */
  assert_param(IS_GPIO_PIN(GPIO_Pin));
 8003d2e:	460c      	mov	r4, r1
 8003d30:	b921      	cbnz	r1, 8003d3c <HAL_GPIO_WritePin+0x14>
 8003d32:	f240 11e3 	movw	r1, #483	; 0x1e3
 8003d36:	4808      	ldr	r0, [pc, #32]	; (8003d58 <HAL_GPIO_WritePin+0x30>)
 8003d38:	f7fe f8f5 	bl	8001f26 <assert_failed>
  assert_param(IS_GPIO_PIN_ACTION(PinState));
 8003d3c:	2e01      	cmp	r6, #1
 8003d3e:	d906      	bls.n	8003d4e <HAL_GPIO_WritePin+0x26>
 8003d40:	f44f 71f2 	mov.w	r1, #484	; 0x1e4
 8003d44:	4804      	ldr	r0, [pc, #16]	; (8003d58 <HAL_GPIO_WritePin+0x30>)
 8003d46:	f7fe f8ee 	bl	8001f26 <assert_failed>
  {
    GPIOx->BSRR = GPIO_Pin;
  }
  else
  {
    GPIOx->BSRR = (uint32_t)GPIO_Pin << 16U;
 8003d4a:	612c      	str	r4, [r5, #16]
 8003d4c:	bd70      	pop	{r4, r5, r6, pc}
  if (PinState != GPIO_PIN_RESET)
 8003d4e:	2e00      	cmp	r6, #0
 8003d50:	d1fb      	bne.n	8003d4a <HAL_GPIO_WritePin+0x22>
    GPIOx->BSRR = (uint32_t)GPIO_Pin << 16U;
 8003d52:	0424      	lsls	r4, r4, #16
 8003d54:	e7f9      	b.n	8003d4a <HAL_GPIO_WritePin+0x22>
 8003d56:	bf00      	nop
 8003d58:	08006730 	.word	0x08006730

08003d5c <HAL_GPIO_TogglePin>:
  * @param  GPIOx: where x can be (A..G depending on device used) to select the GPIO peripheral
  * @param  GPIO_Pin: Specifies the pins to be toggled.
  * @retval None
  */
void HAL_GPIO_TogglePin(GPIO_TypeDef *GPIOx, uint16_t GPIO_Pin)
{
 8003d5c:	b538      	push	{r3, r4, r5, lr}
 8003d5e:	4605      	mov	r5, r0
  /* Check the parameters */
  assert_param(IS_GPIO_PIN(GPIO_Pin));
 8003d60:	460c      	mov	r4, r1
 8003d62:	b921      	cbnz	r1, 8003d6e <HAL_GPIO_TogglePin+0x12>
 8003d64:	f240 11f9 	movw	r1, #505	; 0x1f9
 8003d68:	4803      	ldr	r0, [pc, #12]	; (8003d78 <HAL_GPIO_TogglePin+0x1c>)
 8003d6a:	f7fe f8dc 	bl	8001f26 <assert_failed>

  GPIOx->ODR ^= GPIO_Pin;
 8003d6e:	68eb      	ldr	r3, [r5, #12]
 8003d70:	405c      	eors	r4, r3
 8003d72:	60ec      	str	r4, [r5, #12]
 8003d74:	bd38      	pop	{r3, r4, r5, pc}
 8003d76:	bf00      	nop
 8003d78:	08006730 	.word	0x08006730

08003d7c <HAL_IWDG_Init>:
  * @param  hiwdg  pointer to a IWDG_HandleTypeDef structure that contains
  *                the configuration information for the specified IWDG module.
  * @retval HAL status
  */
HAL_StatusTypeDef HAL_IWDG_Init(IWDG_HandleTypeDef *hiwdg)
{
 8003d7c:	b538      	push	{r3, r4, r5, lr}
  uint32_t tickstart;

  /* Check the IWDG handle allocation */
  if (hiwdg == NULL)
 8003d7e:	4604      	mov	r4, r0
 8003d80:	2800      	cmp	r0, #0
 8003d82:	d032      	beq.n	8003dea <HAL_IWDG_Init+0x6e>
  {
    return HAL_ERROR;
  }

  /* Check the parameters */
  assert_param(IS_IWDG_ALL_INSTANCE(hiwdg->Instance));
 8003d84:	6802      	ldr	r2, [r0, #0]
 8003d86:	4b1a      	ldr	r3, [pc, #104]	; (8003df0 <HAL_IWDG_Init+0x74>)
 8003d88:	429a      	cmp	r2, r3
 8003d8a:	d003      	beq.n	8003d94 <HAL_IWDG_Init+0x18>
 8003d8c:	21ad      	movs	r1, #173	; 0xad
 8003d8e:	4819      	ldr	r0, [pc, #100]	; (8003df4 <HAL_IWDG_Init+0x78>)
 8003d90:	f7fe f8c9 	bl	8001f26 <assert_failed>
  assert_param(IS_IWDG_PRESCALER(hiwdg->Init.Prescaler));
 8003d94:	6863      	ldr	r3, [r4, #4]
 8003d96:	2b06      	cmp	r3, #6
 8003d98:	d903      	bls.n	8003da2 <HAL_IWDG_Init+0x26>
 8003d9a:	21ae      	movs	r1, #174	; 0xae
 8003d9c:	4815      	ldr	r0, [pc, #84]	; (8003df4 <HAL_IWDG_Init+0x78>)
 8003d9e:	f7fe f8c2 	bl	8001f26 <assert_failed>
  assert_param(IS_IWDG_RELOAD(hiwdg->Init.Reload));
 8003da2:	68a3      	ldr	r3, [r4, #8]
 8003da4:	f5b3 5f80 	cmp.w	r3, #4096	; 0x1000
 8003da8:	d303      	bcc.n	8003db2 <HAL_IWDG_Init+0x36>
 8003daa:	21af      	movs	r1, #175	; 0xaf
 8003dac:	4811      	ldr	r0, [pc, #68]	; (8003df4 <HAL_IWDG_Init+0x78>)
 8003dae:	f7fe f8ba 	bl	8001f26 <assert_failed>

  /* Enable IWDG. LSI is turned on automaticaly */
  __HAL_IWDG_START(hiwdg);
 8003db2:	f64c 42cc 	movw	r2, #52428	; 0xcccc
 8003db6:	6823      	ldr	r3, [r4, #0]
 8003db8:	601a      	str	r2, [r3, #0]

  /* Enable write access to IWDG_PR and IWDG_RLR registers by writing 0x5555 in KR */
  IWDG_ENABLE_WRITE_ACCESS(hiwdg);
 8003dba:	f245 5255 	movw	r2, #21845	; 0x5555
 8003dbe:	601a      	str	r2, [r3, #0]

  /* Write to IWDG registers the Prescaler & Reload values to work with */
  hiwdg->Instance->PR = hiwdg->Init.Prescaler;
 8003dc0:	6862      	ldr	r2, [r4, #4]
 8003dc2:	605a      	str	r2, [r3, #4]
  hiwdg->Instance->RLR = hiwdg->Init.Reload;
 8003dc4:	68a2      	ldr	r2, [r4, #8]
 8003dc6:	609a      	str	r2, [r3, #8]

  /* Check pending flag, if previous update not done, return timeout */
  tickstart = HAL_GetTick();
 8003dc8:	f7fe fe3c 	bl	8002a44 <HAL_GetTick>
 8003dcc:	4605      	mov	r5, r0

  /* Wait for register to be updated */
  while (hiwdg->Instance->SR != RESET)
 8003dce:	6823      	ldr	r3, [r4, #0]
 8003dd0:	68d8      	ldr	r0, [r3, #12]
 8003dd2:	b918      	cbnz	r0, 8003ddc <HAL_IWDG_Init+0x60>
      return HAL_TIMEOUT;
    }
  }

  /* Reload IWDG counter with value defined in the reload register */
  __HAL_IWDG_RELOAD_COUNTER(hiwdg);
 8003dd4:	f64a 22aa 	movw	r2, #43690	; 0xaaaa
 8003dd8:	601a      	str	r2, [r3, #0]

  /* Return function status */
  return HAL_OK;
 8003dda:	bd38      	pop	{r3, r4, r5, pc}
    if ((HAL_GetTick() - tickstart) > HAL_IWDG_DEFAULT_TIMEOUT)
 8003ddc:	f7fe fe32 	bl	8002a44 <HAL_GetTick>
 8003de0:	1b40      	subs	r0, r0, r5
 8003de2:	2830      	cmp	r0, #48	; 0x30
 8003de4:	d9f3      	bls.n	8003dce <HAL_IWDG_Init+0x52>
      return HAL_TIMEOUT;
 8003de6:	2003      	movs	r0, #3
}
 8003de8:	bd38      	pop	{r3, r4, r5, pc}
    return HAL_ERROR;
 8003dea:	2001      	movs	r0, #1
 8003dec:	bd38      	pop	{r3, r4, r5, pc}
 8003dee:	bf00      	nop
 8003df0:	40003000 	.word	0x40003000
 8003df4:	08006769 	.word	0x08006769

08003df8 <HAL_PWR_PVDCallback>:
/**
  * @brief  PWR PVD interrupt callback
  * @retval None
  */
__weak void HAL_PWR_PVDCallback(void)
{
 8003df8:	4770      	bx	lr
	...

08003dfc <HAL_PWR_PVD_IRQHandler>:
{
 8003dfc:	b510      	push	{r4, lr}
  if(__HAL_PWR_PVD_EXTI_GET_FLAG() != RESET)
 8003dfe:	4c05      	ldr	r4, [pc, #20]	; (8003e14 <HAL_PWR_PVD_IRQHandler+0x18>)
 8003e00:	6963      	ldr	r3, [r4, #20]
 8003e02:	03db      	lsls	r3, r3, #15
 8003e04:	d504      	bpl.n	8003e10 <HAL_PWR_PVD_IRQHandler+0x14>
    HAL_PWR_PVDCallback();
 8003e06:	f7ff fff7 	bl	8003df8 <HAL_PWR_PVDCallback>
    __HAL_PWR_PVD_EXTI_CLEAR_FLAG();
 8003e0a:	f44f 3380 	mov.w	r3, #65536	; 0x10000
 8003e0e:	6163      	str	r3, [r4, #20]
 8003e10:	bd10      	pop	{r4, pc}
 8003e12:	bf00      	nop
 8003e14:	40010400 	.word	0x40010400

08003e18 <HAL_RCC_OscConfig>:
  *         supported by this macro. User should request a transition to HSE Off
  *         first and then HSE On or HSE Bypass.
  * @retval HAL status
  */
HAL_StatusTypeDef HAL_RCC_OscConfig(RCC_OscInitTypeDef  *RCC_OscInitStruct)
{
 8003e18:	e92d 41f3 	stmdb	sp!, {r0, r1, r4, r5, r6, r7, r8, lr}
   uint32_t tickstart = 0U;
  
  /* Check the parameters */
  assert_param(RCC_OscInitStruct != NULL);
 8003e1c:	4604      	mov	r4, r0
 8003e1e:	b920      	cbnz	r0, 8003e2a <HAL_RCC_OscConfig+0x12>
 8003e20:	f44f 71b8 	mov.w	r1, #368	; 0x170
 8003e24:	48a5      	ldr	r0, [pc, #660]	; (80040bc <HAL_RCC_OscConfig+0x2a4>)
 8003e26:	f7fe f87e 	bl	8001f26 <assert_failed>
  assert_param(IS_RCC_OSCILLATORTYPE(RCC_OscInitStruct->OscillatorType));
 8003e2a:	6823      	ldr	r3, [r4, #0]
 8003e2c:	b133      	cbz	r3, 8003e3c <HAL_RCC_OscConfig+0x24>
 8003e2e:	071a      	lsls	r2, r3, #28
 8003e30:	d104      	bne.n	8003e3c <HAL_RCC_OscConfig+0x24>
 8003e32:	f240 1171 	movw	r1, #369	; 0x171
 8003e36:	48a1      	ldr	r0, [pc, #644]	; (80040bc <HAL_RCC_OscConfig+0x2a4>)
 8003e38:	f7fe f875 	bl	8001f26 <assert_failed>
  
  /*------------------------------- HSE Configuration ------------------------*/
  if(((RCC_OscInitStruct->OscillatorType) & RCC_OSCILLATORTYPE_HSE) == RCC_OSCILLATORTYPE_HSE)
 8003e3c:	6823      	ldr	r3, [r4, #0]
 8003e3e:	07db      	lsls	r3, r3, #31
 8003e40:	d418      	bmi.n	8003e74 <HAL_RCC_OscConfig+0x5c>
        }
      }
    }
  }
  /*----------------------------- HSI Configuration --------------------------*/ 
  if(((RCC_OscInitStruct->OscillatorType) & RCC_OSCILLATORTYPE_HSI) == RCC_OSCILLATORTYPE_HSI)
 8003e42:	6823      	ldr	r3, [r4, #0]
 8003e44:	079f      	lsls	r7, r3, #30
 8003e46:	d472      	bmi.n	8003f2e <HAL_RCC_OscConfig+0x116>
        }
      }
    }
  }
  /*------------------------------ LSI Configuration -------------------------*/ 
  if(((RCC_OscInitStruct->OscillatorType) & RCC_OSCILLATORTYPE_LSI) == RCC_OSCILLATORTYPE_LSI)
 8003e48:	6823      	ldr	r3, [r4, #0]
 8003e4a:	0719      	lsls	r1, r3, #28
 8003e4c:	f100 80b9 	bmi.w	8003fc2 <HAL_RCC_OscConfig+0x1aa>
        }
      }
    }
  }
  /*------------------------------ LSE Configuration -------------------------*/ 
  if(((RCC_OscInitStruct->OscillatorType) & RCC_OSCILLATORTYPE_LSE) == RCC_OSCILLATORTYPE_LSE)
 8003e50:	6823      	ldr	r3, [r4, #0]
 8003e52:	075a      	lsls	r2, r3, #29
 8003e54:	f100 80eb 	bmi.w	800402e <HAL_RCC_OscConfig+0x216>
  }

#endif /* RCC_CR_PLL2ON */
  /*-------------------------------- PLL Configuration -----------------------*/
  /* Check the parameters */
  assert_param(IS_RCC_PLL(RCC_OscInitStruct->PLL.PLLState));
 8003e58:	69e3      	ldr	r3, [r4, #28]
 8003e5a:	2b02      	cmp	r3, #2
 8003e5c:	d904      	bls.n	8003e68 <HAL_RCC_OscConfig+0x50>
 8003e5e:	f240 21b9 	movw	r1, #697	; 0x2b9
 8003e62:	4896      	ldr	r0, [pc, #600]	; (80040bc <HAL_RCC_OscConfig+0x2a4>)
 8003e64:	f7fe f85f 	bl	8001f26 <assert_failed>
  if ((RCC_OscInitStruct->PLL.PLLState) != RCC_PLL_NONE)
 8003e68:	69e2      	ldr	r2, [r4, #28]
 8003e6a:	2a00      	cmp	r2, #0
 8003e6c:	f040 815e 	bne.w	800412c <HAL_RCC_OscConfig+0x314>
    {
      return HAL_ERROR;
    }
  }
  
  return HAL_OK;
 8003e70:	2000      	movs	r0, #0
 8003e72:	e020      	b.n	8003eb6 <HAL_RCC_OscConfig+0x9e>
    assert_param(IS_RCC_HSE(RCC_OscInitStruct->HSEState));
 8003e74:	6863      	ldr	r3, [r4, #4]
 8003e76:	f433 3280 	bics.w	r2, r3, #65536	; 0x10000
 8003e7a:	d007      	beq.n	8003e8c <HAL_RCC_OscConfig+0x74>
 8003e7c:	f5b3 2fa0 	cmp.w	r3, #327680	; 0x50000
 8003e80:	d004      	beq.n	8003e8c <HAL_RCC_OscConfig+0x74>
 8003e82:	f240 1177 	movw	r1, #375	; 0x177
 8003e86:	488d      	ldr	r0, [pc, #564]	; (80040bc <HAL_RCC_OscConfig+0x2a4>)
 8003e88:	f7fe f84d 	bl	8001f26 <assert_failed>
    if((__HAL_RCC_GET_SYSCLK_SOURCE() == RCC_SYSCLKSOURCE_STATUS_HSE) 
 8003e8c:	4d8c      	ldr	r5, [pc, #560]	; (80040c0 <HAL_RCC_OscConfig+0x2a8>)
 8003e8e:	686b      	ldr	r3, [r5, #4]
 8003e90:	f003 030c 	and.w	r3, r3, #12
 8003e94:	2b04      	cmp	r3, #4
 8003e96:	d007      	beq.n	8003ea8 <HAL_RCC_OscConfig+0x90>
       || ((__HAL_RCC_GET_SYSCLK_SOURCE() == RCC_SYSCLKSOURCE_STATUS_PLLCLK) && (__HAL_RCC_GET_PLL_OSCSOURCE() == RCC_PLLSOURCE_HSE)))
 8003e98:	686b      	ldr	r3, [r5, #4]
 8003e9a:	f003 030c 	and.w	r3, r3, #12
 8003e9e:	2b08      	cmp	r3, #8
 8003ea0:	d10c      	bne.n	8003ebc <HAL_RCC_OscConfig+0xa4>
 8003ea2:	686b      	ldr	r3, [r5, #4]
 8003ea4:	03de      	lsls	r6, r3, #15
 8003ea6:	d509      	bpl.n	8003ebc <HAL_RCC_OscConfig+0xa4>
      if((__HAL_RCC_GET_FLAG(RCC_FLAG_HSERDY) != RESET) && (RCC_OscInitStruct->HSEState == RCC_HSE_OFF))
 8003ea8:	682b      	ldr	r3, [r5, #0]
 8003eaa:	039d      	lsls	r5, r3, #14
 8003eac:	d5c9      	bpl.n	8003e42 <HAL_RCC_OscConfig+0x2a>
 8003eae:	6863      	ldr	r3, [r4, #4]
 8003eb0:	2b00      	cmp	r3, #0
 8003eb2:	d1c6      	bne.n	8003e42 <HAL_RCC_OscConfig+0x2a>
        return HAL_ERROR;
 8003eb4:	2001      	movs	r0, #1
}
 8003eb6:	b002      	add	sp, #8
 8003eb8:	e8bd 81f0 	ldmia.w	sp!, {r4, r5, r6, r7, r8, pc}
      __HAL_RCC_HSE_CONFIG(RCC_OscInitStruct->HSEState);
 8003ebc:	6863      	ldr	r3, [r4, #4]
 8003ebe:	f5b3 3f80 	cmp.w	r3, #65536	; 0x10000
 8003ec2:	d110      	bne.n	8003ee6 <HAL_RCC_OscConfig+0xce>
 8003ec4:	682b      	ldr	r3, [r5, #0]
 8003ec6:	f443 3380 	orr.w	r3, r3, #65536	; 0x10000
 8003eca:	602b      	str	r3, [r5, #0]
        tickstart = HAL_GetTick();
 8003ecc:	f7fe fdba 	bl	8002a44 <HAL_GetTick>
 8003ed0:	4606      	mov	r6, r0
        while(__HAL_RCC_GET_FLAG(RCC_FLAG_HSERDY) == RESET)
 8003ed2:	682b      	ldr	r3, [r5, #0]
 8003ed4:	0398      	lsls	r0, r3, #14
 8003ed6:	d4b4      	bmi.n	8003e42 <HAL_RCC_OscConfig+0x2a>
          if((HAL_GetTick() - tickstart ) > HSE_TIMEOUT_VALUE)
 8003ed8:	f7fe fdb4 	bl	8002a44 <HAL_GetTick>
 8003edc:	1b80      	subs	r0, r0, r6
 8003ede:	2864      	cmp	r0, #100	; 0x64
 8003ee0:	d9f7      	bls.n	8003ed2 <HAL_RCC_OscConfig+0xba>
            return HAL_TIMEOUT;
 8003ee2:	2003      	movs	r0, #3
 8003ee4:	e7e7      	b.n	8003eb6 <HAL_RCC_OscConfig+0x9e>
      __HAL_RCC_HSE_CONFIG(RCC_OscInitStruct->HSEState);
 8003ee6:	b99b      	cbnz	r3, 8003f10 <HAL_RCC_OscConfig+0xf8>
 8003ee8:	682b      	ldr	r3, [r5, #0]
 8003eea:	f423 3380 	bic.w	r3, r3, #65536	; 0x10000
 8003eee:	602b      	str	r3, [r5, #0]
 8003ef0:	682b      	ldr	r3, [r5, #0]
 8003ef2:	f423 2380 	bic.w	r3, r3, #262144	; 0x40000
 8003ef6:	602b      	str	r3, [r5, #0]
        tickstart = HAL_GetTick();
 8003ef8:	f7fe fda4 	bl	8002a44 <HAL_GetTick>
 8003efc:	4606      	mov	r6, r0
        while(__HAL_RCC_GET_FLAG(RCC_FLAG_HSERDY) != RESET)
 8003efe:	682b      	ldr	r3, [r5, #0]
 8003f00:	0399      	lsls	r1, r3, #14
 8003f02:	d59e      	bpl.n	8003e42 <HAL_RCC_OscConfig+0x2a>
           if((HAL_GetTick() - tickstart ) > HSE_TIMEOUT_VALUE)
 8003f04:	f7fe fd9e 	bl	8002a44 <HAL_GetTick>
 8003f08:	1b80      	subs	r0, r0, r6
 8003f0a:	2864      	cmp	r0, #100	; 0x64
 8003f0c:	d9f7      	bls.n	8003efe <HAL_RCC_OscConfig+0xe6>
 8003f0e:	e7e8      	b.n	8003ee2 <HAL_RCC_OscConfig+0xca>
      __HAL_RCC_HSE_CONFIG(RCC_OscInitStruct->HSEState);
 8003f10:	f5b3 2fa0 	cmp.w	r3, #327680	; 0x50000
 8003f14:	682b      	ldr	r3, [r5, #0]
 8003f16:	d103      	bne.n	8003f20 <HAL_RCC_OscConfig+0x108>
 8003f18:	f443 2380 	orr.w	r3, r3, #262144	; 0x40000
 8003f1c:	602b      	str	r3, [r5, #0]
 8003f1e:	e7d1      	b.n	8003ec4 <HAL_RCC_OscConfig+0xac>
 8003f20:	f423 3380 	bic.w	r3, r3, #65536	; 0x10000
 8003f24:	602b      	str	r3, [r5, #0]
 8003f26:	682b      	ldr	r3, [r5, #0]
 8003f28:	f423 2380 	bic.w	r3, r3, #262144	; 0x40000
 8003f2c:	e7cd      	b.n	8003eca <HAL_RCC_OscConfig+0xb2>
    assert_param(IS_RCC_HSI(RCC_OscInitStruct->HSIState));
 8003f2e:	6923      	ldr	r3, [r4, #16]
 8003f30:	2b01      	cmp	r3, #1
 8003f32:	d904      	bls.n	8003f3e <HAL_RCC_OscConfig+0x126>
 8003f34:	f240 11ab 	movw	r1, #427	; 0x1ab
 8003f38:	4860      	ldr	r0, [pc, #384]	; (80040bc <HAL_RCC_OscConfig+0x2a4>)
 8003f3a:	f7fd fff4 	bl	8001f26 <assert_failed>
    assert_param(IS_RCC_CALIBRATION_VALUE(RCC_OscInitStruct->HSICalibrationValue));
 8003f3e:	6963      	ldr	r3, [r4, #20]
 8003f40:	2b1f      	cmp	r3, #31
 8003f42:	d904      	bls.n	8003f4e <HAL_RCC_OscConfig+0x136>
 8003f44:	f44f 71d6 	mov.w	r1, #428	; 0x1ac
 8003f48:	485c      	ldr	r0, [pc, #368]	; (80040bc <HAL_RCC_OscConfig+0x2a4>)
 8003f4a:	f7fd ffec 	bl	8001f26 <assert_failed>
    if((__HAL_RCC_GET_SYSCLK_SOURCE() == RCC_SYSCLKSOURCE_STATUS_HSI) 
 8003f4e:	4d5c      	ldr	r5, [pc, #368]	; (80040c0 <HAL_RCC_OscConfig+0x2a8>)
 8003f50:	686b      	ldr	r3, [r5, #4]
 8003f52:	f013 0f0c 	tst.w	r3, #12
 8003f56:	d007      	beq.n	8003f68 <HAL_RCC_OscConfig+0x150>
       || ((__HAL_RCC_GET_SYSCLK_SOURCE() == RCC_SYSCLKSOURCE_STATUS_PLLCLK) && (__HAL_RCC_GET_PLL_OSCSOURCE() == RCC_PLLSOURCE_HSI_DIV2)))
 8003f58:	686b      	ldr	r3, [r5, #4]
 8003f5a:	f003 030c 	and.w	r3, r3, #12
 8003f5e:	2b08      	cmp	r3, #8
 8003f60:	d110      	bne.n	8003f84 <HAL_RCC_OscConfig+0x16c>
 8003f62:	686b      	ldr	r3, [r5, #4]
 8003f64:	03da      	lsls	r2, r3, #15
 8003f66:	d40d      	bmi.n	8003f84 <HAL_RCC_OscConfig+0x16c>
      if((__HAL_RCC_GET_FLAG(RCC_FLAG_HSIRDY) != RESET) && (RCC_OscInitStruct->HSIState != RCC_HSI_ON))
 8003f68:	682b      	ldr	r3, [r5, #0]
 8003f6a:	079b      	lsls	r3, r3, #30
 8003f6c:	d502      	bpl.n	8003f74 <HAL_RCC_OscConfig+0x15c>
 8003f6e:	6923      	ldr	r3, [r4, #16]
 8003f70:	2b01      	cmp	r3, #1
 8003f72:	d19f      	bne.n	8003eb4 <HAL_RCC_OscConfig+0x9c>
        __HAL_RCC_HSI_CALIBRATIONVALUE_ADJUST(RCC_OscInitStruct->HSICalibrationValue);
 8003f74:	682b      	ldr	r3, [r5, #0]
 8003f76:	6962      	ldr	r2, [r4, #20]
 8003f78:	f023 03f8 	bic.w	r3, r3, #248	; 0xf8
 8003f7c:	ea43 03c2 	orr.w	r3, r3, r2, lsl #3
 8003f80:	602b      	str	r3, [r5, #0]
 8003f82:	e761      	b.n	8003e48 <HAL_RCC_OscConfig+0x30>
      if(RCC_OscInitStruct->HSIState != RCC_HSI_OFF)
 8003f84:	6922      	ldr	r2, [r4, #16]
 8003f86:	4b4f      	ldr	r3, [pc, #316]	; (80040c4 <HAL_RCC_OscConfig+0x2ac>)
 8003f88:	b16a      	cbz	r2, 8003fa6 <HAL_RCC_OscConfig+0x18e>
        __HAL_RCC_HSI_ENABLE();
 8003f8a:	2201      	movs	r2, #1
 8003f8c:	601a      	str	r2, [r3, #0]
        tickstart = HAL_GetTick();
 8003f8e:	f7fe fd59 	bl	8002a44 <HAL_GetTick>
 8003f92:	4606      	mov	r6, r0
        while(__HAL_RCC_GET_FLAG(RCC_FLAG_HSIRDY) == RESET)
 8003f94:	682b      	ldr	r3, [r5, #0]
 8003f96:	079f      	lsls	r7, r3, #30
 8003f98:	d4ec      	bmi.n	8003f74 <HAL_RCC_OscConfig+0x15c>
          if((HAL_GetTick() - tickstart ) > HSI_TIMEOUT_VALUE)
 8003f9a:	f7fe fd53 	bl	8002a44 <HAL_GetTick>
 8003f9e:	1b80      	subs	r0, r0, r6
 8003fa0:	2802      	cmp	r0, #2
 8003fa2:	d9f7      	bls.n	8003f94 <HAL_RCC_OscConfig+0x17c>
 8003fa4:	e79d      	b.n	8003ee2 <HAL_RCC_OscConfig+0xca>
        __HAL_RCC_HSI_DISABLE();
 8003fa6:	601a      	str	r2, [r3, #0]
        tickstart = HAL_GetTick();
 8003fa8:	f7fe fd4c 	bl	8002a44 <HAL_GetTick>
 8003fac:	4606      	mov	r6, r0
        while(__HAL_RCC_GET_FLAG(RCC_FLAG_HSIRDY) != RESET)
 8003fae:	682b      	ldr	r3, [r5, #0]
 8003fb0:	0798      	lsls	r0, r3, #30
 8003fb2:	f57f af49 	bpl.w	8003e48 <HAL_RCC_OscConfig+0x30>
          if((HAL_GetTick() - tickstart ) > HSI_TIMEOUT_VALUE)
 8003fb6:	f7fe fd45 	bl	8002a44 <HAL_GetTick>
 8003fba:	1b80      	subs	r0, r0, r6
 8003fbc:	2802      	cmp	r0, #2
 8003fbe:	d9f6      	bls.n	8003fae <HAL_RCC_OscConfig+0x196>
 8003fc0:	e78f      	b.n	8003ee2 <HAL_RCC_OscConfig+0xca>
    assert_param(IS_RCC_LSI(RCC_OscInitStruct->LSIState));
 8003fc2:	69a3      	ldr	r3, [r4, #24]
 8003fc4:	2b01      	cmp	r3, #1
 8003fc6:	d904      	bls.n	8003fd2 <HAL_RCC_OscConfig+0x1ba>
 8003fc8:	f44f 71f6 	mov.w	r1, #492	; 0x1ec
 8003fcc:	483b      	ldr	r0, [pc, #236]	; (80040bc <HAL_RCC_OscConfig+0x2a4>)
 8003fce:	f7fd ffaa 	bl	8001f26 <assert_failed>
    if(RCC_OscInitStruct->LSIState != RCC_LSI_OFF)
 8003fd2:	69a2      	ldr	r2, [r4, #24]
 8003fd4:	4d3a      	ldr	r5, [pc, #232]	; (80040c0 <HAL_RCC_OscConfig+0x2a8>)
 8003fd6:	4b3c      	ldr	r3, [pc, #240]	; (80040c8 <HAL_RCC_OscConfig+0x2b0>)
 8003fd8:	b1da      	cbz	r2, 8004012 <HAL_RCC_OscConfig+0x1fa>
      __HAL_RCC_LSI_ENABLE();
 8003fda:	2201      	movs	r2, #1
 8003fdc:	601a      	str	r2, [r3, #0]
      tickstart = HAL_GetTick();
 8003fde:	f7fe fd31 	bl	8002a44 <HAL_GetTick>
 8003fe2:	4606      	mov	r6, r0
      while(__HAL_RCC_GET_FLAG(RCC_FLAG_LSIRDY) == RESET)
 8003fe4:	6a6b      	ldr	r3, [r5, #36]	; 0x24
 8003fe6:	079b      	lsls	r3, r3, #30
 8003fe8:	d50d      	bpl.n	8004006 <HAL_RCC_OscConfig+0x1ee>
  * @param  mdelay: specifies the delay time length, in milliseconds.
  * @retval None
  */
static void RCC_Delay(uint32_t mdelay)
{
  __IO uint32_t Delay = mdelay * (SystemCoreClock / 8U / 1000U);
 8003fea:	f44f 52fa 	mov.w	r2, #8000	; 0x1f40
 8003fee:	4b37      	ldr	r3, [pc, #220]	; (80040cc <HAL_RCC_OscConfig+0x2b4>)
 8003ff0:	681b      	ldr	r3, [r3, #0]
 8003ff2:	fbb3 f3f2 	udiv	r3, r3, r2
 8003ff6:	9301      	str	r3, [sp, #4]
  \brief   No Operation
  \details No Operation does nothing. This instruction can be used for code alignment purposes.
 */
__attribute__((always_inline)) __STATIC_INLINE void __NOP(void)
{
  __ASM volatile ("nop");
 8003ff8:	bf00      	nop
  do 
  {
    __NOP();
  } 
  while (Delay --);
 8003ffa:	9b01      	ldr	r3, [sp, #4]
 8003ffc:	1e5a      	subs	r2, r3, #1
 8003ffe:	9201      	str	r2, [sp, #4]
 8004000:	2b00      	cmp	r3, #0
 8004002:	d1f9      	bne.n	8003ff8 <HAL_RCC_OscConfig+0x1e0>
 8004004:	e724      	b.n	8003e50 <HAL_RCC_OscConfig+0x38>
        if((HAL_GetTick() - tickstart ) > LSI_TIMEOUT_VALUE)
 8004006:	f7fe fd1d 	bl	8002a44 <HAL_GetTick>
 800400a:	1b80      	subs	r0, r0, r6
 800400c:	2802      	cmp	r0, #2
 800400e:	d9e9      	bls.n	8003fe4 <HAL_RCC_OscConfig+0x1cc>
 8004010:	e767      	b.n	8003ee2 <HAL_RCC_OscConfig+0xca>
      __HAL_RCC_LSI_DISABLE();
 8004012:	601a      	str	r2, [r3, #0]
      tickstart = HAL_GetTick();
 8004014:	f7fe fd16 	bl	8002a44 <HAL_GetTick>
 8004018:	4606      	mov	r6, r0
      while(__HAL_RCC_GET_FLAG(RCC_FLAG_LSIRDY) != RESET)
 800401a:	6a6b      	ldr	r3, [r5, #36]	; 0x24
 800401c:	079f      	lsls	r7, r3, #30
 800401e:	f57f af17 	bpl.w	8003e50 <HAL_RCC_OscConfig+0x38>
        if((HAL_GetTick() - tickstart ) > LSI_TIMEOUT_VALUE)
 8004022:	f7fe fd0f 	bl	8002a44 <HAL_GetTick>
 8004026:	1b80      	subs	r0, r0, r6
 8004028:	2802      	cmp	r0, #2
 800402a:	d9f6      	bls.n	800401a <HAL_RCC_OscConfig+0x202>
 800402c:	e759      	b.n	8003ee2 <HAL_RCC_OscConfig+0xca>
    assert_param(IS_RCC_LSE(RCC_OscInitStruct->LSEState));
 800402e:	68e3      	ldr	r3, [r4, #12]
 8004030:	2b01      	cmp	r3, #1
 8004032:	d906      	bls.n	8004042 <HAL_RCC_OscConfig+0x22a>
 8004034:	2b05      	cmp	r3, #5
 8004036:	d004      	beq.n	8004042 <HAL_RCC_OscConfig+0x22a>
 8004038:	f240 211b 	movw	r1, #539	; 0x21b
 800403c:	481f      	ldr	r0, [pc, #124]	; (80040bc <HAL_RCC_OscConfig+0x2a4>)
 800403e:	f7fd ff72 	bl	8001f26 <assert_failed>
    if(__HAL_RCC_PWR_IS_CLK_DISABLED())
 8004042:	4d1f      	ldr	r5, [pc, #124]	; (80040c0 <HAL_RCC_OscConfig+0x2a8>)
 8004044:	69eb      	ldr	r3, [r5, #28]
 8004046:	00d8      	lsls	r0, r3, #3
 8004048:	d424      	bmi.n	8004094 <HAL_RCC_OscConfig+0x27c>
      pwrclkchanged = SET;
 800404a:	2701      	movs	r7, #1
      __HAL_RCC_PWR_CLK_ENABLE();
 800404c:	69eb      	ldr	r3, [r5, #28]
 800404e:	f043 5380 	orr.w	r3, r3, #268435456	; 0x10000000
 8004052:	61eb      	str	r3, [r5, #28]
 8004054:	69eb      	ldr	r3, [r5, #28]
 8004056:	f003 5380 	and.w	r3, r3, #268435456	; 0x10000000
 800405a:	9300      	str	r3, [sp, #0]
 800405c:	9b00      	ldr	r3, [sp, #0]
    if(HAL_IS_BIT_CLR(PWR->CR, PWR_CR_DBP))
 800405e:	4e1c      	ldr	r6, [pc, #112]	; (80040d0 <HAL_RCC_OscConfig+0x2b8>)
 8004060:	6833      	ldr	r3, [r6, #0]
 8004062:	05d9      	lsls	r1, r3, #23
 8004064:	d518      	bpl.n	8004098 <HAL_RCC_OscConfig+0x280>
    __HAL_RCC_LSE_CONFIG(RCC_OscInitStruct->LSEState);
 8004066:	68e3      	ldr	r3, [r4, #12]
 8004068:	2b01      	cmp	r3, #1
 800406a:	d133      	bne.n	80040d4 <HAL_RCC_OscConfig+0x2bc>
 800406c:	6a2b      	ldr	r3, [r5, #32]
 800406e:	f043 0301 	orr.w	r3, r3, #1
 8004072:	622b      	str	r3, [r5, #32]
      tickstart = HAL_GetTick();
 8004074:	f7fe fce6 	bl	8002a44 <HAL_GetTick>
        if((HAL_GetTick() - tickstart ) > RCC_LSE_TIMEOUT_VALUE)
 8004078:	f241 3688 	movw	r6, #5000	; 0x1388
      tickstart = HAL_GetTick();
 800407c:	4680      	mov	r8, r0
      while(__HAL_RCC_GET_FLAG(RCC_FLAG_LSERDY) == RESET)
 800407e:	6a2b      	ldr	r3, [r5, #32]
 8004080:	079b      	lsls	r3, r3, #30
 8004082:	d54c      	bpl.n	800411e <HAL_RCC_OscConfig+0x306>
    if(pwrclkchanged == SET)
 8004084:	2f00      	cmp	r7, #0
 8004086:	f43f aee7 	beq.w	8003e58 <HAL_RCC_OscConfig+0x40>
      __HAL_RCC_PWR_CLK_DISABLE();
 800408a:	69eb      	ldr	r3, [r5, #28]
 800408c:	f023 5380 	bic.w	r3, r3, #268435456	; 0x10000000
 8004090:	61eb      	str	r3, [r5, #28]
 8004092:	e6e1      	b.n	8003e58 <HAL_RCC_OscConfig+0x40>
    FlagStatus       pwrclkchanged = RESET;
 8004094:	2700      	movs	r7, #0
 8004096:	e7e2      	b.n	800405e <HAL_RCC_OscConfig+0x246>
      SET_BIT(PWR->CR, PWR_CR_DBP);
 8004098:	6833      	ldr	r3, [r6, #0]
 800409a:	f443 7380 	orr.w	r3, r3, #256	; 0x100
 800409e:	6033      	str	r3, [r6, #0]
      tickstart = HAL_GetTick();
 80040a0:	f7fe fcd0 	bl	8002a44 <HAL_GetTick>
 80040a4:	4680      	mov	r8, r0
      while(HAL_IS_BIT_CLR(PWR->CR, PWR_CR_DBP))
 80040a6:	6833      	ldr	r3, [r6, #0]
 80040a8:	05da      	lsls	r2, r3, #23
 80040aa:	d4dc      	bmi.n	8004066 <HAL_RCC_OscConfig+0x24e>
        if((HAL_GetTick() - tickstart) > RCC_DBP_TIMEOUT_VALUE)
 80040ac:	f7fe fcca 	bl	8002a44 <HAL_GetTick>
 80040b0:	eba0 0008 	sub.w	r0, r0, r8
 80040b4:	2864      	cmp	r0, #100	; 0x64
 80040b6:	d9f6      	bls.n	80040a6 <HAL_RCC_OscConfig+0x28e>
 80040b8:	e713      	b.n	8003ee2 <HAL_RCC_OscConfig+0xca>
 80040ba:	bf00      	nop
 80040bc:	080067a2 	.word	0x080067a2
 80040c0:	40021000 	.word	0x40021000
 80040c4:	42420000 	.word	0x42420000
 80040c8:	42420480 	.word	0x42420480
 80040cc:	20000338 	.word	0x20000338
 80040d0:	40007000 	.word	0x40007000
    __HAL_RCC_LSE_CONFIG(RCC_OscInitStruct->LSEState);
 80040d4:	b9ab      	cbnz	r3, 8004102 <HAL_RCC_OscConfig+0x2ea>
 80040d6:	6a2b      	ldr	r3, [r5, #32]
        if((HAL_GetTick() - tickstart ) > RCC_LSE_TIMEOUT_VALUE)
 80040d8:	f241 3888 	movw	r8, #5000	; 0x1388
    __HAL_RCC_LSE_CONFIG(RCC_OscInitStruct->LSEState);
 80040dc:	f023 0301 	bic.w	r3, r3, #1
 80040e0:	622b      	str	r3, [r5, #32]
 80040e2:	6a2b      	ldr	r3, [r5, #32]
 80040e4:	f023 0304 	bic.w	r3, r3, #4
 80040e8:	622b      	str	r3, [r5, #32]
      tickstart = HAL_GetTick();
 80040ea:	f7fe fcab 	bl	8002a44 <HAL_GetTick>
 80040ee:	4606      	mov	r6, r0
      while(__HAL_RCC_GET_FLAG(RCC_FLAG_LSERDY) != RESET)
 80040f0:	6a2b      	ldr	r3, [r5, #32]
 80040f2:	0798      	lsls	r0, r3, #30
 80040f4:	d5c6      	bpl.n	8004084 <HAL_RCC_OscConfig+0x26c>
        if((HAL_GetTick() - tickstart ) > RCC_LSE_TIMEOUT_VALUE)
 80040f6:	f7fe fca5 	bl	8002a44 <HAL_GetTick>
 80040fa:	1b80      	subs	r0, r0, r6
 80040fc:	4540      	cmp	r0, r8
 80040fe:	d9f7      	bls.n	80040f0 <HAL_RCC_OscConfig+0x2d8>
 8004100:	e6ef      	b.n	8003ee2 <HAL_RCC_OscConfig+0xca>
    __HAL_RCC_LSE_CONFIG(RCC_OscInitStruct->LSEState);
 8004102:	2b05      	cmp	r3, #5
 8004104:	6a2b      	ldr	r3, [r5, #32]
 8004106:	d103      	bne.n	8004110 <HAL_RCC_OscConfig+0x2f8>
 8004108:	f043 0304 	orr.w	r3, r3, #4
 800410c:	622b      	str	r3, [r5, #32]
 800410e:	e7ad      	b.n	800406c <HAL_RCC_OscConfig+0x254>
 8004110:	f023 0301 	bic.w	r3, r3, #1
 8004114:	622b      	str	r3, [r5, #32]
 8004116:	6a2b      	ldr	r3, [r5, #32]
 8004118:	f023 0304 	bic.w	r3, r3, #4
 800411c:	e7a9      	b.n	8004072 <HAL_RCC_OscConfig+0x25a>
        if((HAL_GetTick() - tickstart ) > RCC_LSE_TIMEOUT_VALUE)
 800411e:	f7fe fc91 	bl	8002a44 <HAL_GetTick>
 8004122:	eba0 0008 	sub.w	r0, r0, r8
 8004126:	42b0      	cmp	r0, r6
 8004128:	d9a9      	bls.n	800407e <HAL_RCC_OscConfig+0x266>
 800412a:	e6da      	b.n	8003ee2 <HAL_RCC_OscConfig+0xca>
    if(__HAL_RCC_GET_SYSCLK_SOURCE() != RCC_SYSCLKSOURCE_STATUS_PLLCLK)
 800412c:	4d38      	ldr	r5, [pc, #224]	; (8004210 <HAL_RCC_OscConfig+0x3f8>)
 800412e:	686b      	ldr	r3, [r5, #4]
 8004130:	f003 030c 	and.w	r3, r3, #12
 8004134:	2b08      	cmp	r3, #8
 8004136:	f43f aebd 	beq.w	8003eb4 <HAL_RCC_OscConfig+0x9c>
      if((RCC_OscInitStruct->PLL.PLLState) == RCC_PLL_ON)
 800413a:	2a02      	cmp	r2, #2
 800413c:	4e35      	ldr	r6, [pc, #212]	; (8004214 <HAL_RCC_OscConfig+0x3fc>)
 800413e:	d157      	bne.n	80041f0 <HAL_RCC_OscConfig+0x3d8>
        assert_param(IS_RCC_PLLSOURCE(RCC_OscInitStruct->PLL.PLLSource));
 8004140:	6a23      	ldr	r3, [r4, #32]
 8004142:	f433 3380 	bics.w	r3, r3, #65536	; 0x10000
 8004146:	d004      	beq.n	8004152 <HAL_RCC_OscConfig+0x33a>
 8004148:	f240 21c2 	movw	r1, #706	; 0x2c2
 800414c:	4832      	ldr	r0, [pc, #200]	; (8004218 <HAL_RCC_OscConfig+0x400>)
 800414e:	f7fd feea 	bl	8001f26 <assert_failed>
        assert_param(IS_RCC_PLL_MUL(RCC_OscInitStruct->PLL.PLLMUL));
 8004152:	6a63      	ldr	r3, [r4, #36]	; 0x24
 8004154:	f433 2240 	bics.w	r2, r3, #786432	; 0xc0000
 8004158:	f423 2180 	bic.w	r1, r3, #262144	; 0x40000
 800415c:	d010      	beq.n	8004180 <HAL_RCC_OscConfig+0x368>
 800415e:	f5b2 1f80 	cmp.w	r2, #1048576	; 0x100000
 8004162:	d00d      	beq.n	8004180 <HAL_RCC_OscConfig+0x368>
 8004164:	f5b2 1f00 	cmp.w	r2, #2097152	; 0x200000
 8004168:	d00a      	beq.n	8004180 <HAL_RCC_OscConfig+0x368>
 800416a:	f5b1 1f40 	cmp.w	r1, #3145728	; 0x300000
 800416e:	d007      	beq.n	8004180 <HAL_RCC_OscConfig+0x368>
 8004170:	f5b3 1f60 	cmp.w	r3, #3670016	; 0x380000
 8004174:	d004      	beq.n	8004180 <HAL_RCC_OscConfig+0x368>
 8004176:	f240 21c3 	movw	r1, #707	; 0x2c3
 800417a:	4827      	ldr	r0, [pc, #156]	; (8004218 <HAL_RCC_OscConfig+0x400>)
 800417c:	f7fd fed3 	bl	8001f26 <assert_failed>
        __HAL_RCC_PLL_DISABLE();
 8004180:	2300      	movs	r3, #0
 8004182:	6033      	str	r3, [r6, #0]
        tickstart = HAL_GetTick();
 8004184:	f7fe fc5e 	bl	8002a44 <HAL_GetTick>
 8004188:	4607      	mov	r7, r0
        while(__HAL_RCC_GET_FLAG(RCC_FLAG_PLLRDY)  != RESET)
 800418a:	682b      	ldr	r3, [r5, #0]
 800418c:	0199      	lsls	r1, r3, #6
 800418e:	d429      	bmi.n	80041e4 <HAL_RCC_OscConfig+0x3cc>
        if(RCC_OscInitStruct->PLL.PLLSource == RCC_PLLSOURCE_HSE)
 8004190:	6a23      	ldr	r3, [r4, #32]
 8004192:	f5b3 3f80 	cmp.w	r3, #65536	; 0x10000
 8004196:	d10e      	bne.n	80041b6 <HAL_RCC_OscConfig+0x39e>
          assert_param(IS_RCC_HSE_PREDIV(RCC_OscInitStruct->HSEPredivValue));
 8004198:	68a3      	ldr	r3, [r4, #8]
 800419a:	f433 3300 	bics.w	r3, r3, #131072	; 0x20000
 800419e:	d004      	beq.n	80041aa <HAL_RCC_OscConfig+0x392>
 80041a0:	f240 21d9 	movw	r1, #729	; 0x2d9
 80041a4:	481c      	ldr	r0, [pc, #112]	; (8004218 <HAL_RCC_OscConfig+0x400>)
 80041a6:	f7fd febe 	bl	8001f26 <assert_failed>
          __HAL_RCC_HSE_PREDIV_CONFIG(RCC_OscInitStruct->HSEPredivValue);
 80041aa:	686b      	ldr	r3, [r5, #4]
 80041ac:	68a2      	ldr	r2, [r4, #8]
 80041ae:	f423 3300 	bic.w	r3, r3, #131072	; 0x20000
 80041b2:	4313      	orrs	r3, r2
 80041b4:	606b      	str	r3, [r5, #4]
        __HAL_RCC_PLL_CONFIG(RCC_OscInitStruct->PLL.PLLSource,
 80041b6:	6a23      	ldr	r3, [r4, #32]
 80041b8:	6a61      	ldr	r1, [r4, #36]	; 0x24
 80041ba:	686a      	ldr	r2, [r5, #4]
 80041bc:	430b      	orrs	r3, r1
 80041be:	f422 1274 	bic.w	r2, r2, #3997696	; 0x3d0000
 80041c2:	4313      	orrs	r3, r2
 80041c4:	606b      	str	r3, [r5, #4]
        __HAL_RCC_PLL_ENABLE();
 80041c6:	2301      	movs	r3, #1
 80041c8:	6033      	str	r3, [r6, #0]
        tickstart = HAL_GetTick();
 80041ca:	f7fe fc3b 	bl	8002a44 <HAL_GetTick>
 80041ce:	4604      	mov	r4, r0
        while(__HAL_RCC_GET_FLAG(RCC_FLAG_PLLRDY)  == RESET)
 80041d0:	682b      	ldr	r3, [r5, #0]
 80041d2:	019a      	lsls	r2, r3, #6
 80041d4:	f53f ae4c 	bmi.w	8003e70 <HAL_RCC_OscConfig+0x58>
          if((HAL_GetTick() - tickstart ) > PLL_TIMEOUT_VALUE)
 80041d8:	f7fe fc34 	bl	8002a44 <HAL_GetTick>
 80041dc:	1b00      	subs	r0, r0, r4
 80041de:	2802      	cmp	r0, #2
 80041e0:	d9f6      	bls.n	80041d0 <HAL_RCC_OscConfig+0x3b8>
 80041e2:	e67e      	b.n	8003ee2 <HAL_RCC_OscConfig+0xca>
          if((HAL_GetTick() - tickstart ) > PLL_TIMEOUT_VALUE)
 80041e4:	f7fe fc2e 	bl	8002a44 <HAL_GetTick>
 80041e8:	1bc0      	subs	r0, r0, r7
 80041ea:	2802      	cmp	r0, #2
 80041ec:	d9cd      	bls.n	800418a <HAL_RCC_OscConfig+0x372>
 80041ee:	e678      	b.n	8003ee2 <HAL_RCC_OscConfig+0xca>
        __HAL_RCC_PLL_DISABLE();
 80041f0:	2300      	movs	r3, #0
 80041f2:	6033      	str	r3, [r6, #0]
        tickstart = HAL_GetTick();
 80041f4:	f7fe fc26 	bl	8002a44 <HAL_GetTick>
 80041f8:	4604      	mov	r4, r0
        while(__HAL_RCC_GET_FLAG(RCC_FLAG_PLLRDY)  != RESET)
 80041fa:	682b      	ldr	r3, [r5, #0]
 80041fc:	019b      	lsls	r3, r3, #6
 80041fe:	f57f ae37 	bpl.w	8003e70 <HAL_RCC_OscConfig+0x58>
          if((HAL_GetTick() - tickstart ) > PLL_TIMEOUT_VALUE)
 8004202:	f7fe fc1f 	bl	8002a44 <HAL_GetTick>
 8004206:	1b00      	subs	r0, r0, r4
 8004208:	2802      	cmp	r0, #2
 800420a:	d9f6      	bls.n	80041fa <HAL_RCC_OscConfig+0x3e2>
 800420c:	e669      	b.n	8003ee2 <HAL_RCC_OscConfig+0xca>
 800420e:	bf00      	nop
 8004210:	40021000 	.word	0x40021000
 8004214:	42420060 	.word	0x42420060
 8004218:	080067a2 	.word	0x080067a2

0800421c <HAL_RCC_GetSysClockFreq>:
{
 800421c:	b530      	push	{r4, r5, lr}
  const uint8_t aPLLMULFactorTable[16] = {2, 3, 4, 5, 6, 7, 8, 9, 10, 11, 12, 13, 14, 15, 16, 16};
 800421e:	4b19      	ldr	r3, [pc, #100]	; (8004284 <HAL_RCC_GetSysClockFreq+0x68>)
{
 8004220:	b087      	sub	sp, #28
  const uint8_t aPLLMULFactorTable[16] = {2, 3, 4, 5, 6, 7, 8, 9, 10, 11, 12, 13, 14, 15, 16, 16};
 8004222:	ac02      	add	r4, sp, #8
 8004224:	f103 0510 	add.w	r5, r3, #16
 8004228:	4622      	mov	r2, r4
 800422a:	6818      	ldr	r0, [r3, #0]
 800422c:	6859      	ldr	r1, [r3, #4]
 800422e:	3308      	adds	r3, #8
 8004230:	c203      	stmia	r2!, {r0, r1}
 8004232:	42ab      	cmp	r3, r5
 8004234:	4614      	mov	r4, r2
 8004236:	d1f7      	bne.n	8004228 <HAL_RCC_GetSysClockFreq+0xc>
  const uint8_t aPredivFactorTable[2] = {1, 2};
 8004238:	2301      	movs	r3, #1
 800423a:	f88d 3004 	strb.w	r3, [sp, #4]
 800423e:	2302      	movs	r3, #2
  tmpreg = RCC->CFGR;
 8004240:	4911      	ldr	r1, [pc, #68]	; (8004288 <HAL_RCC_GetSysClockFreq+0x6c>)
  const uint8_t aPredivFactorTable[2] = {1, 2};
 8004242:	f88d 3005 	strb.w	r3, [sp, #5]
  tmpreg = RCC->CFGR;
 8004246:	684b      	ldr	r3, [r1, #4]
  switch (tmpreg & RCC_CFGR_SWS)
 8004248:	f003 020c 	and.w	r2, r3, #12
 800424c:	2a08      	cmp	r2, #8
 800424e:	d117      	bne.n	8004280 <HAL_RCC_GetSysClockFreq+0x64>
      pllmul = aPLLMULFactorTable[(uint32_t)(tmpreg & RCC_CFGR_PLLMULL) >> RCC_CFGR_PLLMULL_Pos];
 8004250:	f3c3 4283 	ubfx	r2, r3, #18, #4
 8004254:	a806      	add	r0, sp, #24
 8004256:	4402      	add	r2, r0
      if ((tmpreg & RCC_CFGR_PLLSRC) != RCC_PLLSOURCE_HSI_DIV2)
 8004258:	03db      	lsls	r3, r3, #15
      pllmul = aPLLMULFactorTable[(uint32_t)(tmpreg & RCC_CFGR_PLLMULL) >> RCC_CFGR_PLLMULL_Pos];
 800425a:	f812 2c10 	ldrb.w	r2, [r2, #-16]
      if ((tmpreg & RCC_CFGR_PLLSRC) != RCC_PLLSOURCE_HSI_DIV2)
 800425e:	d50c      	bpl.n	800427a <HAL_RCC_GetSysClockFreq+0x5e>
        prediv = aPredivFactorTable[(uint32_t)(RCC->CFGR & RCC_CFGR_PLLXTPRE) >> RCC_CFGR_PLLXTPRE_Pos];
 8004260:	684b      	ldr	r3, [r1, #4]
        pllclk = (uint32_t)((HSE_VALUE  * pllmul) / prediv);
 8004262:	480a      	ldr	r0, [pc, #40]	; (800428c <HAL_RCC_GetSysClockFreq+0x70>)
        prediv = aPredivFactorTable[(uint32_t)(RCC->CFGR & RCC_CFGR_PLLXTPRE) >> RCC_CFGR_PLLXTPRE_Pos];
 8004264:	f3c3 4340 	ubfx	r3, r3, #17, #1
        pllclk = (uint32_t)((HSE_VALUE  * pllmul) / prediv);
 8004268:	4350      	muls	r0, r2
        prediv = aPredivFactorTable[(uint32_t)(RCC->CFGR & RCC_CFGR_PLLXTPRE) >> RCC_CFGR_PLLXTPRE_Pos];
 800426a:	aa06      	add	r2, sp, #24
 800426c:	4413      	add	r3, r2
 800426e:	f813 3c14 	ldrb.w	r3, [r3, #-20]
        pllclk = (uint32_t)((HSE_VALUE  * pllmul) / prediv);
 8004272:	fbb0 f0f3 	udiv	r0, r0, r3
}
 8004276:	b007      	add	sp, #28
 8004278:	bd30      	pop	{r4, r5, pc}
        pllclk = (uint32_t)((HSI_VALUE >> 1) * pllmul);
 800427a:	4805      	ldr	r0, [pc, #20]	; (8004290 <HAL_RCC_GetSysClockFreq+0x74>)
 800427c:	4350      	muls	r0, r2
 800427e:	e7fa      	b.n	8004276 <HAL_RCC_GetSysClockFreq+0x5a>
      sysclockfreq = HSE_VALUE;
 8004280:	4802      	ldr	r0, [pc, #8]	; (800428c <HAL_RCC_GetSysClockFreq+0x70>)
  return sysclockfreq;
 8004282:	e7f8      	b.n	8004276 <HAL_RCC_GetSysClockFreq+0x5a>
 8004284:	08006470 	.word	0x08006470
 8004288:	40021000 	.word	0x40021000
 800428c:	007a1200 	.word	0x007a1200
 8004290:	003d0900 	.word	0x003d0900

08004294 <HAL_RCC_ClockConfig>:
{
 8004294:	e92d 41f0 	stmdb	sp!, {r4, r5, r6, r7, r8, lr}
 8004298:	460e      	mov	r6, r1
  assert_param(RCC_ClkInitStruct != NULL);
 800429a:	4604      	mov	r4, r0
 800429c:	b920      	cbnz	r0, 80042a8 <HAL_RCC_ClockConfig+0x14>
 800429e:	f240 312e 	movw	r1, #814	; 0x32e
 80042a2:	487f      	ldr	r0, [pc, #508]	; (80044a0 <HAL_RCC_ClockConfig+0x20c>)
 80042a4:	f7fd fe3f 	bl	8001f26 <assert_failed>
  assert_param(IS_RCC_CLOCKTYPE(RCC_ClkInitStruct->ClockType));
 80042a8:	6823      	ldr	r3, [r4, #0]
 80042aa:	071d      	lsls	r5, r3, #28
 80042ac:	d104      	bne.n	80042b8 <HAL_RCC_ClockConfig+0x24>
 80042ae:	f240 312f 	movw	r1, #815	; 0x32f
 80042b2:	487b      	ldr	r0, [pc, #492]	; (80044a0 <HAL_RCC_ClockConfig+0x20c>)
 80042b4:	f7fd fe37 	bl	8001f26 <assert_failed>
  assert_param(IS_FLASH_LATENCY(FLatency));
 80042b8:	2e02      	cmp	r6, #2
 80042ba:	d904      	bls.n	80042c6 <HAL_RCC_ClockConfig+0x32>
 80042bc:	f44f 714c 	mov.w	r1, #816	; 0x330
 80042c0:	4877      	ldr	r0, [pc, #476]	; (80044a0 <HAL_RCC_ClockConfig+0x20c>)
 80042c2:	f7fd fe30 	bl	8001f26 <assert_failed>
  if(FLatency > (FLASH->ACR & FLASH_ACR_LATENCY))
 80042c6:	4a77      	ldr	r2, [pc, #476]	; (80044a4 <HAL_RCC_ClockConfig+0x210>)
 80042c8:	6813      	ldr	r3, [r2, #0]
 80042ca:	f003 0307 	and.w	r3, r3, #7
 80042ce:	429e      	cmp	r6, r3
 80042d0:	d83d      	bhi.n	800434e <HAL_RCC_ClockConfig+0xba>
  if(((RCC_ClkInitStruct->ClockType) & RCC_CLOCKTYPE_HCLK) == RCC_CLOCKTYPE_HCLK)
 80042d2:	6823      	ldr	r3, [r4, #0]
 80042d4:	0798      	lsls	r0, r3, #30
 80042d6:	d447      	bmi.n	8004368 <HAL_RCC_ClockConfig+0xd4>
  if(((RCC_ClkInitStruct->ClockType) & RCC_CLOCKTYPE_SYSCLK) == RCC_CLOCKTYPE_SYSCLK)
 80042d8:	6823      	ldr	r3, [r4, #0]
 80042da:	07da      	lsls	r2, r3, #31
 80042dc:	d470      	bmi.n	80043c0 <HAL_RCC_ClockConfig+0x12c>
  if(FLatency < (FLASH->ACR & FLASH_ACR_LATENCY))
 80042de:	4a71      	ldr	r2, [pc, #452]	; (80044a4 <HAL_RCC_ClockConfig+0x210>)
 80042e0:	6813      	ldr	r3, [r2, #0]
 80042e2:	f003 0307 	and.w	r3, r3, #7
 80042e6:	429e      	cmp	r6, r3
 80042e8:	f0c0 80b5 	bcc.w	8004456 <HAL_RCC_ClockConfig+0x1c2>
  if(((RCC_ClkInitStruct->ClockType) & RCC_CLOCKTYPE_PCLK1) == RCC_CLOCKTYPE_PCLK1)
 80042ec:	6823      	ldr	r3, [r4, #0]
 80042ee:	4d6e      	ldr	r5, [pc, #440]	; (80044a8 <HAL_RCC_ClockConfig+0x214>)
 80042f0:	f013 0f04 	tst.w	r3, #4
 80042f4:	f040 80bb 	bne.w	800446e <HAL_RCC_ClockConfig+0x1da>
  if(((RCC_ClkInitStruct->ClockType) & RCC_CLOCKTYPE_PCLK2) == RCC_CLOCKTYPE_PCLK2)
 80042f8:	6823      	ldr	r3, [r4, #0]
 80042fa:	071b      	lsls	r3, r3, #28
 80042fc:	d517      	bpl.n	800432e <HAL_RCC_ClockConfig+0x9a>
    assert_param(IS_RCC_PCLK(RCC_ClkInitStruct->APB2CLKDivider));
 80042fe:	6923      	ldr	r3, [r4, #16]
 8004300:	f433 6280 	bics.w	r2, r3, #1024	; 0x400
 8004304:	d00c      	beq.n	8004320 <HAL_RCC_ClockConfig+0x8c>
 8004306:	f423 7200 	bic.w	r2, r3, #512	; 0x200
 800430a:	f5b2 6fa0 	cmp.w	r2, #1280	; 0x500
 800430e:	d007      	beq.n	8004320 <HAL_RCC_ClockConfig+0x8c>
 8004310:	f5b3 6fc0 	cmp.w	r3, #1536	; 0x600
 8004314:	d004      	beq.n	8004320 <HAL_RCC_ClockConfig+0x8c>
 8004316:	f44f 716e 	mov.w	r1, #952	; 0x3b8
 800431a:	4861      	ldr	r0, [pc, #388]	; (80044a0 <HAL_RCC_ClockConfig+0x20c>)
 800431c:	f7fd fe03 	bl	8001f26 <assert_failed>
    MODIFY_REG(RCC->CFGR, RCC_CFGR_PPRE2, ((RCC_ClkInitStruct->APB2CLKDivider) << 3));
 8004320:	686b      	ldr	r3, [r5, #4]
 8004322:	6922      	ldr	r2, [r4, #16]
 8004324:	f423 5360 	bic.w	r3, r3, #14336	; 0x3800
 8004328:	ea43 03c2 	orr.w	r3, r3, r2, lsl #3
 800432c:	606b      	str	r3, [r5, #4]
  SystemCoreClock = HAL_RCC_GetSysClockFreq() >> AHBPrescTable[(RCC->CFGR & RCC_CFGR_HPRE)>> RCC_CFGR_HPRE_Pos];
 800432e:	f7ff ff75 	bl	800421c <HAL_RCC_GetSysClockFreq>
 8004332:	686b      	ldr	r3, [r5, #4]
 8004334:	4a5d      	ldr	r2, [pc, #372]	; (80044ac <HAL_RCC_ClockConfig+0x218>)
 8004336:	f3c3 1303 	ubfx	r3, r3, #4, #4
 800433a:	5cd3      	ldrb	r3, [r2, r3]
 800433c:	40d8      	lsrs	r0, r3
 800433e:	4b5c      	ldr	r3, [pc, #368]	; (80044b0 <HAL_RCC_ClockConfig+0x21c>)
 8004340:	6018      	str	r0, [r3, #0]
  HAL_InitTick (TICK_INT_PRIORITY);
 8004342:	2000      	movs	r0, #0
 8004344:	f7fe fb3c 	bl	80029c0 <HAL_InitTick>
  return HAL_OK;
 8004348:	2000      	movs	r0, #0
}
 800434a:	e8bd 81f0 	ldmia.w	sp!, {r4, r5, r6, r7, r8, pc}
    __HAL_FLASH_SET_LATENCY(FLatency);
 800434e:	6813      	ldr	r3, [r2, #0]
 8004350:	f023 0307 	bic.w	r3, r3, #7
 8004354:	4333      	orrs	r3, r6
 8004356:	6013      	str	r3, [r2, #0]
    if((FLASH->ACR & FLASH_ACR_LATENCY) != FLatency)
 8004358:	6813      	ldr	r3, [r2, #0]
 800435a:	f003 0307 	and.w	r3, r3, #7
 800435e:	429e      	cmp	r6, r3
 8004360:	d0b7      	beq.n	80042d2 <HAL_RCC_ClockConfig+0x3e>
      return HAL_ERROR;
 8004362:	2001      	movs	r0, #1
 8004364:	e8bd 81f0 	ldmia.w	sp!, {r4, r5, r6, r7, r8, pc}
 8004368:	4d4f      	ldr	r5, [pc, #316]	; (80044a8 <HAL_RCC_ClockConfig+0x214>)
    if(((RCC_ClkInitStruct->ClockType) & RCC_CLOCKTYPE_PCLK1) == RCC_CLOCKTYPE_PCLK1)
 800436a:	f013 0f04 	tst.w	r3, #4
      MODIFY_REG(RCC->CFGR, RCC_CFGR_PPRE1, RCC_HCLK_DIV16);
 800436e:	bf1e      	ittt	ne
 8004370:	686a      	ldrne	r2, [r5, #4]
 8004372:	f442 62e0 	orrne.w	r2, r2, #1792	; 0x700
 8004376:	606a      	strne	r2, [r5, #4]
    if(((RCC_ClkInitStruct->ClockType) & RCC_CLOCKTYPE_PCLK2) == RCC_CLOCKTYPE_PCLK2)
 8004378:	0719      	lsls	r1, r3, #28
      MODIFY_REG(RCC->CFGR, RCC_CFGR_PPRE2, (RCC_HCLK_DIV16 << 3));
 800437a:	bf42      	ittt	mi
 800437c:	686b      	ldrmi	r3, [r5, #4]
 800437e:	f443 5360 	orrmi.w	r3, r3, #14336	; 0x3800
 8004382:	606b      	strmi	r3, [r5, #4]
    assert_param(IS_RCC_HCLK(RCC_ClkInitStruct->AHBCLKDivider));
 8004384:	68a3      	ldr	r3, [r4, #8]
 8004386:	f033 0280 	bics.w	r2, r3, #128	; 0x80
 800438a:	d012      	beq.n	80043b2 <HAL_RCC_ClockConfig+0x11e>
 800438c:	f023 0220 	bic.w	r2, r3, #32
 8004390:	2a90      	cmp	r2, #144	; 0x90
 8004392:	d00e      	beq.n	80043b2 <HAL_RCC_ClockConfig+0x11e>
 8004394:	f023 0240 	bic.w	r2, r3, #64	; 0x40
 8004398:	2aa0      	cmp	r2, #160	; 0xa0
 800439a:	d00a      	beq.n	80043b2 <HAL_RCC_ClockConfig+0x11e>
 800439c:	f023 0210 	bic.w	r2, r3, #16
 80043a0:	2ac0      	cmp	r2, #192	; 0xc0
 80043a2:	d006      	beq.n	80043b2 <HAL_RCC_ClockConfig+0x11e>
 80043a4:	2bf0      	cmp	r3, #240	; 0xf0
 80043a6:	d004      	beq.n	80043b2 <HAL_RCC_ClockConfig+0x11e>
 80043a8:	f240 3156 	movw	r1, #854	; 0x356
 80043ac:	483c      	ldr	r0, [pc, #240]	; (80044a0 <HAL_RCC_ClockConfig+0x20c>)
 80043ae:	f7fd fdba 	bl	8001f26 <assert_failed>
    MODIFY_REG(RCC->CFGR, RCC_CFGR_HPRE, RCC_ClkInitStruct->AHBCLKDivider);
 80043b2:	686b      	ldr	r3, [r5, #4]
 80043b4:	68a2      	ldr	r2, [r4, #8]
 80043b6:	f023 03f0 	bic.w	r3, r3, #240	; 0xf0
 80043ba:	4313      	orrs	r3, r2
 80043bc:	606b      	str	r3, [r5, #4]
 80043be:	e78b      	b.n	80042d8 <HAL_RCC_ClockConfig+0x44>
    assert_param(IS_RCC_SYSCLKSOURCE(RCC_ClkInitStruct->SYSCLKSource));
 80043c0:	6863      	ldr	r3, [r4, #4]
 80043c2:	2b02      	cmp	r3, #2
 80043c4:	d904      	bls.n	80043d0 <HAL_RCC_ClockConfig+0x13c>
 80043c6:	f240 315d 	movw	r1, #861	; 0x35d
 80043ca:	4835      	ldr	r0, [pc, #212]	; (80044a0 <HAL_RCC_ClockConfig+0x20c>)
 80043cc:	f7fd fdab 	bl	8001f26 <assert_failed>
    if(RCC_ClkInitStruct->SYSCLKSource == RCC_SYSCLKSOURCE_HSE)
 80043d0:	6862      	ldr	r2, [r4, #4]
 80043d2:	4d35      	ldr	r5, [pc, #212]	; (80044a8 <HAL_RCC_ClockConfig+0x214>)
 80043d4:	2a01      	cmp	r2, #1
      if(__HAL_RCC_GET_FLAG(RCC_FLAG_HSERDY) == RESET)
 80043d6:	682b      	ldr	r3, [r5, #0]
    if(RCC_ClkInitStruct->SYSCLKSource == RCC_SYSCLKSOURCE_HSE)
 80043d8:	d11d      	bne.n	8004416 <HAL_RCC_ClockConfig+0x182>
      if(__HAL_RCC_GET_FLAG(RCC_FLAG_HSERDY) == RESET)
 80043da:	f413 3f00 	tst.w	r3, #131072	; 0x20000
      if(__HAL_RCC_GET_FLAG(RCC_FLAG_HSIRDY) == RESET)
 80043de:	d0c0      	beq.n	8004362 <HAL_RCC_ClockConfig+0xce>
    __HAL_RCC_SYSCLK_CONFIG(RCC_ClkInitStruct->SYSCLKSource);
 80043e0:	686b      	ldr	r3, [r5, #4]
        if((HAL_GetTick() - tickstart ) > CLOCKSWITCH_TIMEOUT_VALUE)
 80043e2:	f241 3888 	movw	r8, #5000	; 0x1388
    __HAL_RCC_SYSCLK_CONFIG(RCC_ClkInitStruct->SYSCLKSource);
 80043e6:	f023 0303 	bic.w	r3, r3, #3
 80043ea:	4313      	orrs	r3, r2
 80043ec:	606b      	str	r3, [r5, #4]
    tickstart = HAL_GetTick();
 80043ee:	f7fe fb29 	bl	8002a44 <HAL_GetTick>
    if(RCC_ClkInitStruct->SYSCLKSource == RCC_SYSCLKSOURCE_HSE)
 80043f2:	6863      	ldr	r3, [r4, #4]
    tickstart = HAL_GetTick();
 80043f4:	4607      	mov	r7, r0
    if(RCC_ClkInitStruct->SYSCLKSource == RCC_SYSCLKSOURCE_HSE)
 80043f6:	2b01      	cmp	r3, #1
 80043f8:	d115      	bne.n	8004426 <HAL_RCC_ClockConfig+0x192>
      while (__HAL_RCC_GET_SYSCLK_SOURCE() != RCC_SYSCLKSOURCE_STATUS_HSE)
 80043fa:	686b      	ldr	r3, [r5, #4]
 80043fc:	f003 030c 	and.w	r3, r3, #12
 8004400:	2b04      	cmp	r3, #4
 8004402:	f43f af6c 	beq.w	80042de <HAL_RCC_ClockConfig+0x4a>
        if((HAL_GetTick() - tickstart ) > CLOCKSWITCH_TIMEOUT_VALUE)
 8004406:	f7fe fb1d 	bl	8002a44 <HAL_GetTick>
 800440a:	1bc0      	subs	r0, r0, r7
 800440c:	4540      	cmp	r0, r8
 800440e:	d9f4      	bls.n	80043fa <HAL_RCC_ClockConfig+0x166>
          return HAL_TIMEOUT;
 8004410:	2003      	movs	r0, #3
 8004412:	e8bd 81f0 	ldmia.w	sp!, {r4, r5, r6, r7, r8, pc}
    else if(RCC_ClkInitStruct->SYSCLKSource == RCC_SYSCLKSOURCE_PLLCLK)
 8004416:	2a02      	cmp	r2, #2
 8004418:	d102      	bne.n	8004420 <HAL_RCC_ClockConfig+0x18c>
      if(__HAL_RCC_GET_FLAG(RCC_FLAG_PLLRDY) == RESET)
 800441a:	f013 7f00 	tst.w	r3, #33554432	; 0x2000000
 800441e:	e7de      	b.n	80043de <HAL_RCC_ClockConfig+0x14a>
      if(__HAL_RCC_GET_FLAG(RCC_FLAG_HSIRDY) == RESET)
 8004420:	f013 0f02 	tst.w	r3, #2
 8004424:	e7db      	b.n	80043de <HAL_RCC_ClockConfig+0x14a>
    else if(RCC_ClkInitStruct->SYSCLKSource == RCC_SYSCLKSOURCE_PLLCLK)
 8004426:	2b02      	cmp	r3, #2
 8004428:	d110      	bne.n	800444c <HAL_RCC_ClockConfig+0x1b8>
      while (__HAL_RCC_GET_SYSCLK_SOURCE() != RCC_SYSCLKSOURCE_STATUS_PLLCLK)
 800442a:	686b      	ldr	r3, [r5, #4]
 800442c:	f003 030c 	and.w	r3, r3, #12
 8004430:	2b08      	cmp	r3, #8
 8004432:	f43f af54 	beq.w	80042de <HAL_RCC_ClockConfig+0x4a>
        if((HAL_GetTick() - tickstart ) > CLOCKSWITCH_TIMEOUT_VALUE)
 8004436:	f7fe fb05 	bl	8002a44 <HAL_GetTick>
 800443a:	1bc0      	subs	r0, r0, r7
 800443c:	4540      	cmp	r0, r8
 800443e:	d9f4      	bls.n	800442a <HAL_RCC_ClockConfig+0x196>
 8004440:	e7e6      	b.n	8004410 <HAL_RCC_ClockConfig+0x17c>
        if((HAL_GetTick() - tickstart ) > CLOCKSWITCH_TIMEOUT_VALUE)
 8004442:	f7fe faff 	bl	8002a44 <HAL_GetTick>
 8004446:	1bc0      	subs	r0, r0, r7
 8004448:	4540      	cmp	r0, r8
 800444a:	d8e1      	bhi.n	8004410 <HAL_RCC_ClockConfig+0x17c>
      while (__HAL_RCC_GET_SYSCLK_SOURCE() != RCC_SYSCLKSOURCE_STATUS_HSI)
 800444c:	686b      	ldr	r3, [r5, #4]
 800444e:	f013 0f0c 	tst.w	r3, #12
 8004452:	d1f6      	bne.n	8004442 <HAL_RCC_ClockConfig+0x1ae>
 8004454:	e743      	b.n	80042de <HAL_RCC_ClockConfig+0x4a>
    __HAL_FLASH_SET_LATENCY(FLatency);
 8004456:	6813      	ldr	r3, [r2, #0]
 8004458:	f023 0307 	bic.w	r3, r3, #7
 800445c:	4333      	orrs	r3, r6
 800445e:	6013      	str	r3, [r2, #0]
    if((FLASH->ACR & FLASH_ACR_LATENCY) != FLatency)
 8004460:	6813      	ldr	r3, [r2, #0]
 8004462:	f003 0307 	and.w	r3, r3, #7
 8004466:	429e      	cmp	r6, r3
 8004468:	f47f af7b 	bne.w	8004362 <HAL_RCC_ClockConfig+0xce>
 800446c:	e73e      	b.n	80042ec <HAL_RCC_ClockConfig+0x58>
    assert_param(IS_RCC_PCLK(RCC_ClkInitStruct->APB1CLKDivider));
 800446e:	68e3      	ldr	r3, [r4, #12]
 8004470:	f433 6280 	bics.w	r2, r3, #1024	; 0x400
 8004474:	d00c      	beq.n	8004490 <HAL_RCC_ClockConfig+0x1fc>
 8004476:	f423 7200 	bic.w	r2, r3, #512	; 0x200
 800447a:	f5b2 6fa0 	cmp.w	r2, #1280	; 0x500
 800447e:	d007      	beq.n	8004490 <HAL_RCC_ClockConfig+0x1fc>
 8004480:	f5b3 6fc0 	cmp.w	r3, #1536	; 0x600
 8004484:	d004      	beq.n	8004490 <HAL_RCC_ClockConfig+0x1fc>
 8004486:	f240 31b1 	movw	r1, #945	; 0x3b1
 800448a:	4805      	ldr	r0, [pc, #20]	; (80044a0 <HAL_RCC_ClockConfig+0x20c>)
 800448c:	f7fd fd4b 	bl	8001f26 <assert_failed>
    MODIFY_REG(RCC->CFGR, RCC_CFGR_PPRE1, RCC_ClkInitStruct->APB1CLKDivider);
 8004490:	686b      	ldr	r3, [r5, #4]
 8004492:	68e2      	ldr	r2, [r4, #12]
 8004494:	f423 63e0 	bic.w	r3, r3, #1792	; 0x700
 8004498:	4313      	orrs	r3, r2
 800449a:	606b      	str	r3, [r5, #4]
 800449c:	e72c      	b.n	80042f8 <HAL_RCC_ClockConfig+0x64>
 800449e:	bf00      	nop
 80044a0:	080067a2 	.word	0x080067a2
 80044a4:	40022000 	.word	0x40022000
 80044a8:	40021000 	.word	0x40021000
 80044ac:	080065be 	.word	0x080065be
 80044b0:	20000338 	.word	0x20000338

080044b4 <HAL_RCC_GetPCLK1Freq>:
  return (HAL_RCC_GetHCLKFreq() >> APBPrescTable[(RCC->CFGR & RCC_CFGR_PPRE1) >> RCC_CFGR_PPRE1_Pos]);
 80044b4:	4b04      	ldr	r3, [pc, #16]	; (80044c8 <HAL_RCC_GetPCLK1Freq+0x14>)
 80044b6:	4a05      	ldr	r2, [pc, #20]	; (80044cc <HAL_RCC_GetPCLK1Freq+0x18>)
 80044b8:	685b      	ldr	r3, [r3, #4]
 80044ba:	f3c3 2302 	ubfx	r3, r3, #8, #3
 80044be:	5cd3      	ldrb	r3, [r2, r3]
 80044c0:	4a03      	ldr	r2, [pc, #12]	; (80044d0 <HAL_RCC_GetPCLK1Freq+0x1c>)
 80044c2:	6810      	ldr	r0, [r2, #0]
}    
 80044c4:	40d8      	lsrs	r0, r3
 80044c6:	4770      	bx	lr
 80044c8:	40021000 	.word	0x40021000
 80044cc:	080065ce 	.word	0x080065ce
 80044d0:	20000338 	.word	0x20000338

080044d4 <HAL_RCC_GetPCLK2Freq>:
  return (HAL_RCC_GetHCLKFreq()>> APBPrescTable[(RCC->CFGR & RCC_CFGR_PPRE2) >> RCC_CFGR_PPRE2_Pos]);
 80044d4:	4b04      	ldr	r3, [pc, #16]	; (80044e8 <HAL_RCC_GetPCLK2Freq+0x14>)
 80044d6:	4a05      	ldr	r2, [pc, #20]	; (80044ec <HAL_RCC_GetPCLK2Freq+0x18>)
 80044d8:	685b      	ldr	r3, [r3, #4]
 80044da:	f3c3 23c2 	ubfx	r3, r3, #11, #3
 80044de:	5cd3      	ldrb	r3, [r2, r3]
 80044e0:	4a03      	ldr	r2, [pc, #12]	; (80044f0 <HAL_RCC_GetPCLK2Freq+0x1c>)
 80044e2:	6810      	ldr	r0, [r2, #0]
} 
 80044e4:	40d8      	lsrs	r0, r3
 80044e6:	4770      	bx	lr
 80044e8:	40021000 	.word	0x40021000
 80044ec:	080065ce 	.word	0x080065ce
 80044f0:	20000338 	.word	0x20000338

080044f4 <HAL_RCCEx_PeriphCLKConfig>:
#if defined(STM32F105xC) || defined(STM32F107xC)
  uint32_t  pllactive = 0U;
#endif /* STM32F105xC || STM32F107xC */

  /* Check the parameters */
  assert_param(IS_RCC_PERIPHCLOCK(PeriphClkInit->PeriphClockSelection));
 80044f4:	6803      	ldr	r3, [r0, #0]
{
 80044f6:	e92d 41f3 	stmdb	sp!, {r0, r1, r4, r5, r6, r7, r8, lr}
  assert_param(IS_RCC_PERIPHCLOCK(PeriphClkInit->PeriphClockSelection));
 80044fa:	f013 0f13 	tst.w	r3, #19
{
 80044fe:	4605      	mov	r5, r0
  assert_param(IS_RCC_PERIPHCLOCK(PeriphClkInit->PeriphClockSelection));
 8004500:	d103      	bne.n	800450a <HAL_RCCEx_PeriphCLKConfig+0x16>
 8004502:	217c      	movs	r1, #124	; 0x7c
 8004504:	4845      	ldr	r0, [pc, #276]	; (800461c <HAL_RCCEx_PeriphCLKConfig+0x128>)
 8004506:	f7fd fd0e 	bl	8001f26 <assert_failed>
  
  /*------------------------------- RTC/LCD Configuration ------------------------*/ 
  if ((((PeriphClkInit->PeriphClockSelection) & RCC_PERIPHCLK_RTC) == RCC_PERIPHCLK_RTC))
 800450a:	682b      	ldr	r3, [r5, #0]
 800450c:	07d9      	lsls	r1, r3, #31
 800450e:	d528      	bpl.n	8004562 <HAL_RCCEx_PeriphCLKConfig+0x6e>
  {
    /* check for RTC Parameters used to output RTCCLK */
    assert_param(IS_RCC_RTCCLKSOURCE(PeriphClkInit->RTCClockSelection));
 8004510:	686b      	ldr	r3, [r5, #4]
 8004512:	f433 7340 	bics.w	r3, r3, #768	; 0x300
 8004516:	d003      	beq.n	8004520 <HAL_RCCEx_PeriphCLKConfig+0x2c>
 8004518:	2182      	movs	r1, #130	; 0x82
 800451a:	4840      	ldr	r0, [pc, #256]	; (800461c <HAL_RCCEx_PeriphCLKConfig+0x128>)
 800451c:	f7fd fd03 	bl	8001f26 <assert_failed>
    FlagStatus       pwrclkchanged = RESET;

    /* As soon as function is called to change RTC clock source, activation of the 
       power domain is done. */
    /* Requires to enable write access to Backup Domain of necessary */
    if(__HAL_RCC_PWR_IS_CLK_DISABLED())
 8004520:	4c3f      	ldr	r4, [pc, #252]	; (8004620 <HAL_RCCEx_PeriphCLKConfig+0x12c>)
 8004522:	69e3      	ldr	r3, [r4, #28]
 8004524:	00da      	lsls	r2, r3, #3
 8004526:	d444      	bmi.n	80045b2 <HAL_RCCEx_PeriphCLKConfig+0xbe>
    {
    __HAL_RCC_PWR_CLK_ENABLE();
      pwrclkchanged = SET;
 8004528:	2701      	movs	r7, #1
    __HAL_RCC_PWR_CLK_ENABLE();
 800452a:	69e3      	ldr	r3, [r4, #28]
 800452c:	f043 5380 	orr.w	r3, r3, #268435456	; 0x10000000
 8004530:	61e3      	str	r3, [r4, #28]
 8004532:	69e3      	ldr	r3, [r4, #28]
 8004534:	f003 5380 	and.w	r3, r3, #268435456	; 0x10000000
 8004538:	9301      	str	r3, [sp, #4]
 800453a:	9b01      	ldr	r3, [sp, #4]
    }
    
    if(HAL_IS_BIT_CLR(PWR->CR, PWR_CR_DBP))
 800453c:	4e39      	ldr	r6, [pc, #228]	; (8004624 <HAL_RCCEx_PeriphCLKConfig+0x130>)
 800453e:	6833      	ldr	r3, [r6, #0]
 8004540:	05db      	lsls	r3, r3, #23
 8004542:	d538      	bpl.n	80045b6 <HAL_RCCEx_PeriphCLKConfig+0xc2>
        }
      }
    }
      
    /* Reset the Backup domain only if the RTC Clock source selection is modified from reset value */ 
    temp_reg = (RCC->BDCR & RCC_BDCR_RTCSEL);
 8004544:	6a23      	ldr	r3, [r4, #32]
    if((temp_reg != 0x00000000U) && (temp_reg != (PeriphClkInit->RTCClockSelection & RCC_BDCR_RTCSEL)))
 8004546:	f413 7340 	ands.w	r3, r3, #768	; 0x300
 800454a:	d148      	bne.n	80045de <HAL_RCCEx_PeriphCLKConfig+0xea>
            return HAL_TIMEOUT;
          }      
        }  
      }
    }
    __HAL_RCC_RTC_CONFIG(PeriphClkInit->RTCClockSelection); 
 800454c:	6a23      	ldr	r3, [r4, #32]
 800454e:	686a      	ldr	r2, [r5, #4]
 8004550:	f423 7340 	bic.w	r3, r3, #768	; 0x300
 8004554:	4313      	orrs	r3, r2
 8004556:	6223      	str	r3, [r4, #32]

    /* Require to disable power clock if necessary */
    if(pwrclkchanged == SET)
 8004558:	b11f      	cbz	r7, 8004562 <HAL_RCCEx_PeriphCLKConfig+0x6e>
    {
      __HAL_RCC_PWR_CLK_DISABLE();
 800455a:	69e3      	ldr	r3, [r4, #28]
 800455c:	f023 5380 	bic.w	r3, r3, #268435456	; 0x10000000
 8004560:	61e3      	str	r3, [r4, #28]
    }
  }

  /*------------------------------ ADC clock Configuration ------------------*/ 
  if(((PeriphClkInit->PeriphClockSelection) & RCC_PERIPHCLK_ADC) == RCC_PERIPHCLK_ADC)
 8004562:	682b      	ldr	r3, [r5, #0]
 8004564:	079b      	lsls	r3, r3, #30
 8004566:	d50e      	bpl.n	8004586 <HAL_RCCEx_PeriphCLKConfig+0x92>
  {
    /* Check the parameters */
    assert_param(IS_RCC_ADCPLLCLK_DIV(PeriphClkInit->AdcClockSelection));
 8004568:	68ab      	ldr	r3, [r5, #8]
 800456a:	f433 4340 	bics.w	r3, r3, #49152	; 0xc000
 800456e:	d003      	beq.n	8004578 <HAL_RCCEx_PeriphCLKConfig+0x84>
 8004570:	21c9      	movs	r1, #201	; 0xc9
 8004572:	482a      	ldr	r0, [pc, #168]	; (800461c <HAL_RCCEx_PeriphCLKConfig+0x128>)
 8004574:	f7fd fcd7 	bl	8001f26 <assert_failed>
    
    /* Configure the ADC clock source */
    __HAL_RCC_ADC_CONFIG(PeriphClkInit->AdcClockSelection);
 8004578:	4a29      	ldr	r2, [pc, #164]	; (8004620 <HAL_RCCEx_PeriphCLKConfig+0x12c>)
 800457a:	68a9      	ldr	r1, [r5, #8]
 800457c:	6853      	ldr	r3, [r2, #4]
 800457e:	f423 4340 	bic.w	r3, r3, #49152	; 0xc000
 8004582:	430b      	orrs	r3, r1
 8004584:	6053      	str	r3, [r2, #4]

#if defined(STM32F102x6) || defined(STM32F102xB) || defined(STM32F103x6)\
 || defined(STM32F103xB) || defined(STM32F103xE) || defined(STM32F103xG)\
 || defined(STM32F105xC) || defined(STM32F107xC)
  /*------------------------------ USB clock Configuration ------------------*/ 
  if(((PeriphClkInit->PeriphClockSelection) & RCC_PERIPHCLK_USB) == RCC_PERIPHCLK_USB)
 8004586:	6828      	ldr	r0, [r5, #0]
 8004588:	f010 0010 	ands.w	r0, r0, #16
 800458c:	d024      	beq.n	80045d8 <HAL_RCCEx_PeriphCLKConfig+0xe4>
  {
    /* Check the parameters */
    assert_param(IS_RCC_USBPLLCLK_DIV(PeriphClkInit->UsbClockSelection));
 800458e:	68eb      	ldr	r3, [r5, #12]
 8004590:	f433 0380 	bics.w	r3, r3, #4194304	; 0x400000
 8004594:	d004      	beq.n	80045a0 <HAL_RCCEx_PeriphCLKConfig+0xac>
 8004596:	f240 1125 	movw	r1, #293	; 0x125
 800459a:	4820      	ldr	r0, [pc, #128]	; (800461c <HAL_RCCEx_PeriphCLKConfig+0x128>)
 800459c:	f7fd fcc3 	bl	8001f26 <assert_failed>
    
    /* Configure the USB clock source */
    __HAL_RCC_USB_CONFIG(PeriphClkInit->UsbClockSelection);
 80045a0:	4a1f      	ldr	r2, [pc, #124]	; (8004620 <HAL_RCCEx_PeriphCLKConfig+0x12c>)
 80045a2:	68e9      	ldr	r1, [r5, #12]
 80045a4:	6853      	ldr	r3, [r2, #4]
  }
#endif /* STM32F102x6 || STM32F102xB || STM32F103x6 || STM32F103xB || STM32F103xE || STM32F103xG || STM32F105xC || STM32F107xC */

  return HAL_OK;
 80045a6:	2000      	movs	r0, #0
    __HAL_RCC_USB_CONFIG(PeriphClkInit->UsbClockSelection);
 80045a8:	f423 0380 	bic.w	r3, r3, #4194304	; 0x400000
 80045ac:	430b      	orrs	r3, r1
 80045ae:	6053      	str	r3, [r2, #4]
 80045b0:	e012      	b.n	80045d8 <HAL_RCCEx_PeriphCLKConfig+0xe4>
    FlagStatus       pwrclkchanged = RESET;
 80045b2:	2700      	movs	r7, #0
 80045b4:	e7c2      	b.n	800453c <HAL_RCCEx_PeriphCLKConfig+0x48>
      SET_BIT(PWR->CR, PWR_CR_DBP);
 80045b6:	6833      	ldr	r3, [r6, #0]
 80045b8:	f443 7380 	orr.w	r3, r3, #256	; 0x100
 80045bc:	6033      	str	r3, [r6, #0]
      tickstart = HAL_GetTick();
 80045be:	f7fe fa41 	bl	8002a44 <HAL_GetTick>
 80045c2:	4680      	mov	r8, r0
      while(HAL_IS_BIT_CLR(PWR->CR, PWR_CR_DBP))
 80045c4:	6833      	ldr	r3, [r6, #0]
 80045c6:	05d8      	lsls	r0, r3, #23
 80045c8:	d4bc      	bmi.n	8004544 <HAL_RCCEx_PeriphCLKConfig+0x50>
        if((HAL_GetTick() - tickstart) > RCC_DBP_TIMEOUT_VALUE)
 80045ca:	f7fe fa3b 	bl	8002a44 <HAL_GetTick>
 80045ce:	eba0 0008 	sub.w	r0, r0, r8
 80045d2:	2864      	cmp	r0, #100	; 0x64
 80045d4:	d9f6      	bls.n	80045c4 <HAL_RCCEx_PeriphCLKConfig+0xd0>
          return HAL_TIMEOUT;
 80045d6:	2003      	movs	r0, #3
}
 80045d8:	b002      	add	sp, #8
 80045da:	e8bd 81f0 	ldmia.w	sp!, {r4, r5, r6, r7, r8, pc}
    if((temp_reg != 0x00000000U) && (temp_reg != (PeriphClkInit->RTCClockSelection & RCC_BDCR_RTCSEL)))
 80045de:	686a      	ldr	r2, [r5, #4]
 80045e0:	f402 7240 	and.w	r2, r2, #768	; 0x300
 80045e4:	4293      	cmp	r3, r2
 80045e6:	d0b1      	beq.n	800454c <HAL_RCCEx_PeriphCLKConfig+0x58>
      __HAL_RCC_BACKUPRESET_FORCE();
 80045e8:	2001      	movs	r0, #1
 80045ea:	4a0f      	ldr	r2, [pc, #60]	; (8004628 <HAL_RCCEx_PeriphCLKConfig+0x134>)
      temp_reg = (RCC->BDCR & ~(RCC_BDCR_RTCSEL));
 80045ec:	6a23      	ldr	r3, [r4, #32]
      __HAL_RCC_BACKUPRESET_FORCE();
 80045ee:	6010      	str	r0, [r2, #0]
      __HAL_RCC_BACKUPRESET_RELEASE();
 80045f0:	2000      	movs	r0, #0
      temp_reg = (RCC->BDCR & ~(RCC_BDCR_RTCSEL));
 80045f2:	f423 7140 	bic.w	r1, r3, #768	; 0x300
      __HAL_RCC_BACKUPRESET_RELEASE();
 80045f6:	6010      	str	r0, [r2, #0]
      RCC->BDCR = temp_reg;
 80045f8:	6221      	str	r1, [r4, #32]
      if (HAL_IS_BIT_SET(temp_reg, RCC_BDCR_LSEON))
 80045fa:	07d9      	lsls	r1, r3, #31
 80045fc:	d5a6      	bpl.n	800454c <HAL_RCCEx_PeriphCLKConfig+0x58>
        tickstart = HAL_GetTick();
 80045fe:	f7fe fa21 	bl	8002a44 <HAL_GetTick>
          if((HAL_GetTick() - tickstart) > RCC_LSE_TIMEOUT_VALUE)
 8004602:	f241 3888 	movw	r8, #5000	; 0x1388
        tickstart = HAL_GetTick();
 8004606:	4606      	mov	r6, r0
        while(__HAL_RCC_GET_FLAG(RCC_FLAG_LSERDY) == RESET)
 8004608:	6a23      	ldr	r3, [r4, #32]
 800460a:	079a      	lsls	r2, r3, #30
 800460c:	d49e      	bmi.n	800454c <HAL_RCCEx_PeriphCLKConfig+0x58>
          if((HAL_GetTick() - tickstart) > RCC_LSE_TIMEOUT_VALUE)
 800460e:	f7fe fa19 	bl	8002a44 <HAL_GetTick>
 8004612:	1b80      	subs	r0, r0, r6
 8004614:	4540      	cmp	r0, r8
 8004616:	d9f7      	bls.n	8004608 <HAL_RCCEx_PeriphCLKConfig+0x114>
 8004618:	e7dd      	b.n	80045d6 <HAL_RCCEx_PeriphCLKConfig+0xe2>
 800461a:	bf00      	nop
 800461c:	080067da 	.word	0x080067da
 8004620:	40021000 	.word	0x40021000
 8004624:	40007000 	.word	0x40007000
 8004628:	42420440 	.word	0x42420440

0800462c <TIM_OC1_SetConfig>:
  uint32_t tmpccmrx = 0U;
  uint32_t tmpccer = 0U;
  uint32_t tmpcr2 = 0U;

   /* Disable the Channel 1: Reset the CC1E Bit */
  TIMx->CCER &= ~TIM_CCER_CC1E;
 800462c:	6a03      	ldr	r3, [r0, #32]
{
 800462e:	e92d 41f0 	stmdb	sp!, {r4, r5, r6, r7, r8, lr}
  TIMx->CCER &= ~TIM_CCER_CC1E;
 8004632:	f023 0301 	bic.w	r3, r3, #1
 8004636:	6203      	str	r3, [r0, #32]

  /* Get the TIMx CCER register value */
  tmpccer = TIMx->CCER;
 8004638:	6a04      	ldr	r4, [r0, #32]
  /* Get the TIMx CR2 register value */
  tmpcr2 =  TIMx->CR2;
 800463a:	f8d0 8004 	ldr.w	r8, [r0, #4]

  /* Get the TIMx CCMR1 register value */
  tmpccmrx = TIMx->CCMR1;
 800463e:	6986      	ldr	r6, [r0, #24]

  /* Reset the Output Compare Mode Bits */
  tmpccmrx &= ~TIM_CCMR1_OC1M;
  tmpccmrx &= ~TIM_CCMR1_CC1S;
  /* Select the Output Compare Mode */
  tmpccmrx |= OC_Config->OCMode;
 8004640:	680b      	ldr	r3, [r1, #0]
  tmpccmrx &= ~TIM_CCMR1_CC1S;
 8004642:	f026 0673 	bic.w	r6, r6, #115	; 0x73
  tmpccmrx |= OC_Config->OCMode;
 8004646:	431e      	orrs	r6, r3

  /* Reset the Output Polarity level */
  tmpccer &= ~TIM_CCER_CC1P;
  /* Set the Output Compare Polarity */
  tmpccer |= OC_Config->OCPolarity;
 8004648:	688b      	ldr	r3, [r1, #8]
  tmpccer &= ~TIM_CCER_CC1P;
 800464a:	f024 0402 	bic.w	r4, r4, #2
  tmpccer |= OC_Config->OCPolarity;
 800464e:	431c      	orrs	r4, r3

  if(IS_TIM_CCXN_INSTANCE(TIMx, TIM_CHANNEL_1))
 8004650:	4b1a      	ldr	r3, [pc, #104]	; (80046bc <TIM_OC1_SetConfig+0x90>)
{
 8004652:	4605      	mov	r5, r0
  if(IS_TIM_CCXN_INSTANCE(TIMx, TIM_CHANNEL_1))
 8004654:	4298      	cmp	r0, r3
{
 8004656:	460f      	mov	r7, r1
  if(IS_TIM_CCXN_INSTANCE(TIMx, TIM_CHANNEL_1))
 8004658:	d127      	bne.n	80046aa <TIM_OC1_SetConfig+0x7e>
  {
    /* Check parameters */
    assert_param(IS_TIM_OCN_POLARITY(OC_Config->OCNPolarity));
 800465a:	68cb      	ldr	r3, [r1, #12]
 800465c:	f033 0308 	bics.w	r3, r3, #8
 8004660:	d004      	beq.n	800466c <TIM_OC1_SetConfig+0x40>
 8004662:	f241 213f 	movw	r1, #4671	; 0x123f
 8004666:	4816      	ldr	r0, [pc, #88]	; (80046c0 <TIM_OC1_SetConfig+0x94>)
 8004668:	f7fd fc5d 	bl	8001f26 <assert_failed>

    /* Reset the Output N Polarity level */
    tmpccer &= ~TIM_CCER_CC1NP;
    /* Set the Output N Polarity */
    tmpccer |= OC_Config->OCNPolarity;
 800466c:	68fb      	ldr	r3, [r7, #12]
    tmpccer &= ~TIM_CCER_CC1NP;
 800466e:	f024 0408 	bic.w	r4, r4, #8
    tmpccer |= OC_Config->OCNPolarity;
 8004672:	431c      	orrs	r4, r3
  }

  if(IS_TIM_BREAK_INSTANCE(TIMx))
  {
    /* Check parameters */
    assert_param(IS_TIM_OCNIDLE_STATE(OC_Config->OCNIdleState));
 8004674:	69bb      	ldr	r3, [r7, #24]
    tmpccer &= ~TIM_CCER_CC1NE;
 8004676:	f024 0404 	bic.w	r4, r4, #4
    assert_param(IS_TIM_OCNIDLE_STATE(OC_Config->OCNIdleState));
 800467a:	f433 7300 	bics.w	r3, r3, #512	; 0x200
 800467e:	d004      	beq.n	800468a <TIM_OC1_SetConfig+0x5e>
 8004680:	f241 214c 	movw	r1, #4684	; 0x124c
 8004684:	480e      	ldr	r0, [pc, #56]	; (80046c0 <TIM_OC1_SetConfig+0x94>)
 8004686:	f7fd fc4e 	bl	8001f26 <assert_failed>
    assert_param(IS_TIM_OCIDLE_STATE(OC_Config->OCIdleState));
 800468a:	697b      	ldr	r3, [r7, #20]
 800468c:	f433 7380 	bics.w	r3, r3, #256	; 0x100
 8004690:	d004      	beq.n	800469c <TIM_OC1_SetConfig+0x70>
 8004692:	f241 214d 	movw	r1, #4685	; 0x124d
 8004696:	480a      	ldr	r0, [pc, #40]	; (80046c0 <TIM_OC1_SetConfig+0x94>)
 8004698:	f7fd fc45 	bl	8001f26 <assert_failed>
    tmpcr2 &= ~TIM_CR2_OIS1;
    tmpcr2 &= ~TIM_CR2_OIS1N;
    /* Set the Output Idle state */
    tmpcr2 |= OC_Config->OCIdleState;
    /* Set the Output N Idle state */
    tmpcr2 |= OC_Config->OCNIdleState;
 800469c:	697b      	ldr	r3, [r7, #20]
 800469e:	69ba      	ldr	r2, [r7, #24]
    tmpcr2 &= ~TIM_CR2_OIS1N;
 80046a0:	f428 7840 	bic.w	r8, r8, #768	; 0x300
    tmpcr2 |= OC_Config->OCNIdleState;
 80046a4:	4313      	orrs	r3, r2
 80046a6:	ea43 0808 	orr.w	r8, r3, r8

  /* Write to TIMx CCMR1 */
  TIMx->CCMR1 = tmpccmrx;

  /* Set the Capture Compare Register value */
  TIMx->CCR1 = OC_Config->Pulse;
 80046aa:	687b      	ldr	r3, [r7, #4]
  TIMx->CR2 = tmpcr2;
 80046ac:	f8c5 8004 	str.w	r8, [r5, #4]
  TIMx->CCMR1 = tmpccmrx;
 80046b0:	61ae      	str	r6, [r5, #24]
  TIMx->CCR1 = OC_Config->Pulse;
 80046b2:	636b      	str	r3, [r5, #52]	; 0x34

  /* Write to TIMx CCER */
  TIMx->CCER = tmpccer;
 80046b4:	622c      	str	r4, [r5, #32]
 80046b6:	e8bd 81f0 	ldmia.w	sp!, {r4, r5, r6, r7, r8, pc}
 80046ba:	bf00      	nop
 80046bc:	40012c00 	.word	0x40012c00
 80046c0:	08006815 	.word	0x08006815

080046c4 <TIM_OC3_SetConfig>:
  uint32_t tmpccmrx = 0U;
  uint32_t tmpccer = 0U;
  uint32_t tmpcr2 = 0U;

  /* Disable the Channel 3: Reset the CC2E Bit */
  TIMx->CCER &= ~TIM_CCER_CC3E;
 80046c4:	6a03      	ldr	r3, [r0, #32]
{
 80046c6:	e92d 41f0 	stmdb	sp!, {r4, r5, r6, r7, r8, lr}
  TIMx->CCER &= ~TIM_CCER_CC3E;
 80046ca:	f423 7380 	bic.w	r3, r3, #256	; 0x100
 80046ce:	6203      	str	r3, [r0, #32]

  /* Get the TIMx CCER register value */
  tmpccer = TIMx->CCER;
 80046d0:	6a04      	ldr	r4, [r0, #32]
  /* Get the TIMx CR2 register value */
  tmpcr2 =  TIMx->CR2;
 80046d2:	f8d0 8004 	ldr.w	r8, [r0, #4]

  /* Get the TIMx CCMR2 register value */
  tmpccmrx = TIMx->CCMR2;
 80046d6:	69c6      	ldr	r6, [r0, #28]

  /* Reset the Output Compare mode and Capture/Compare selection Bits */
  tmpccmrx &= ~TIM_CCMR2_OC3M;
  tmpccmrx &= ~TIM_CCMR2_CC3S;
  /* Select the Output Compare Mode */
  tmpccmrx |= OC_Config->OCMode;
 80046d8:	680b      	ldr	r3, [r1, #0]
  tmpccmrx &= ~TIM_CCMR2_CC3S;
 80046da:	f026 0673 	bic.w	r6, r6, #115	; 0x73
  tmpccmrx |= OC_Config->OCMode;
 80046de:	431e      	orrs	r6, r3

  /* Reset the Output Polarity level */
  tmpccer &= ~TIM_CCER_CC3P;
  /* Set the Output Compare Polarity */
  tmpccer |= (OC_Config->OCPolarity << 8U);
 80046e0:	688b      	ldr	r3, [r1, #8]
  tmpccer &= ~TIM_CCER_CC3P;
 80046e2:	f424 7400 	bic.w	r4, r4, #512	; 0x200
  tmpccer |= (OC_Config->OCPolarity << 8U);
 80046e6:	ea44 2403 	orr.w	r4, r4, r3, lsl #8

  if(IS_TIM_CCXN_INSTANCE(TIMx, TIM_CHANNEL_3))
 80046ea:	4b1b      	ldr	r3, [pc, #108]	; (8004758 <TIM_OC3_SetConfig+0x94>)
{
 80046ec:	4605      	mov	r5, r0
  if(IS_TIM_CCXN_INSTANCE(TIMx, TIM_CHANNEL_3))
 80046ee:	4298      	cmp	r0, r3
{
 80046f0:	460f      	mov	r7, r1
  if(IS_TIM_CCXN_INSTANCE(TIMx, TIM_CHANNEL_3))
 80046f2:	d128      	bne.n	8004746 <TIM_OC3_SetConfig+0x82>
  {
    assert_param(IS_TIM_OCN_POLARITY(OC_Config->OCNPolarity));
 80046f4:	68cb      	ldr	r3, [r1, #12]
 80046f6:	f033 0308 	bics.w	r3, r3, #8
 80046fa:	d004      	beq.n	8004706 <TIM_OC3_SetConfig+0x42>
 80046fc:	f241 21d4 	movw	r1, #4820	; 0x12d4
 8004700:	4816      	ldr	r0, [pc, #88]	; (800475c <TIM_OC3_SetConfig+0x98>)
 8004702:	f7fd fc10 	bl	8001f26 <assert_failed>

    /* Reset the Output N Polarity level */
    tmpccer &= ~TIM_CCER_CC3NP;
    /* Set the Output N Polarity */
    tmpccer |= (OC_Config->OCNPolarity << 8U);
 8004706:	68fb      	ldr	r3, [r7, #12]
    tmpccer &= ~TIM_CCER_CC3NP;
 8004708:	f424 6400 	bic.w	r4, r4, #2048	; 0x800
    tmpccer |= (OC_Config->OCNPolarity << 8U);
 800470c:	ea44 2403 	orr.w	r4, r4, r3, lsl #8
  }

  if(IS_TIM_BREAK_INSTANCE(TIMx))
  {
    /* Check parameters */
    assert_param(IS_TIM_OCNIDLE_STATE(OC_Config->OCNIdleState));
 8004710:	69bb      	ldr	r3, [r7, #24]
    tmpccer &= ~TIM_CCER_CC3NE;
 8004712:	f424 6480 	bic.w	r4, r4, #1024	; 0x400
    assert_param(IS_TIM_OCNIDLE_STATE(OC_Config->OCNIdleState));
 8004716:	f433 7300 	bics.w	r3, r3, #512	; 0x200
 800471a:	d004      	beq.n	8004726 <TIM_OC3_SetConfig+0x62>
 800471c:	f241 21e1 	movw	r1, #4833	; 0x12e1
 8004720:	480e      	ldr	r0, [pc, #56]	; (800475c <TIM_OC3_SetConfig+0x98>)
 8004722:	f7fd fc00 	bl	8001f26 <assert_failed>
    assert_param(IS_TIM_OCIDLE_STATE(OC_Config->OCIdleState));
 8004726:	697b      	ldr	r3, [r7, #20]
 8004728:	f433 7380 	bics.w	r3, r3, #256	; 0x100
 800472c:	d004      	beq.n	8004738 <TIM_OC3_SetConfig+0x74>
 800472e:	f241 21e2 	movw	r1, #4834	; 0x12e2
 8004732:	480a      	ldr	r0, [pc, #40]	; (800475c <TIM_OC3_SetConfig+0x98>)
 8004734:	f7fd fbf7 	bl	8001f26 <assert_failed>

    /* Reset the Output Compare and Output Compare N IDLE State */
    tmpcr2 &= ~TIM_CR2_OIS3;
    tmpcr2 &= ~TIM_CR2_OIS3N;
    /* Set the Output Idle state */
    tmpcr2 |= (OC_Config->OCIdleState << 4U);
 8004738:	697b      	ldr	r3, [r7, #20]
    /* Set the Output N Idle state */
    tmpcr2 |= (OC_Config->OCNIdleState << 4U);
 800473a:	69ba      	ldr	r2, [r7, #24]
    tmpcr2 &= ~TIM_CR2_OIS3N;
 800473c:	f428 5840 	bic.w	r8, r8, #12288	; 0x3000
    tmpcr2 |= (OC_Config->OCNIdleState << 4U);
 8004740:	4313      	orrs	r3, r2
 8004742:	ea48 1803 	orr.w	r8, r8, r3, lsl #4

  /* Write to TIMx CCMR2 */
  TIMx->CCMR2 = tmpccmrx;

  /* Set the Capture Compare Register value */
  TIMx->CCR3 = OC_Config->Pulse;
 8004746:	687b      	ldr	r3, [r7, #4]
  TIMx->CR2 = tmpcr2;
 8004748:	f8c5 8004 	str.w	r8, [r5, #4]
  TIMx->CCMR2 = tmpccmrx;
 800474c:	61ee      	str	r6, [r5, #28]
  TIMx->CCR3 = OC_Config->Pulse;
 800474e:	63eb      	str	r3, [r5, #60]	; 0x3c

  /* Write to TIMx CCER */
  TIMx->CCER = tmpccer;
 8004750:	622c      	str	r4, [r5, #32]
 8004752:	e8bd 81f0 	ldmia.w	sp!, {r4, r5, r6, r7, r8, pc}
 8004756:	bf00      	nop
 8004758:	40012c00 	.word	0x40012c00
 800475c:	08006815 	.word	0x08006815

08004760 <TIM_OC4_SetConfig>:
  uint32_t tmpccmrx = 0U;
  uint32_t tmpccer = 0U;
  uint32_t tmpcr2 = 0U;

  /* Disable the Channel 4: Reset the CC4E Bit */
  TIMx->CCER &= ~TIM_CCER_CC4E;
 8004760:	6a03      	ldr	r3, [r0, #32]
{
 8004762:	e92d 41f0 	stmdb	sp!, {r4, r5, r6, r7, r8, lr}
  TIMx->CCER &= ~TIM_CCER_CC4E;
 8004766:	f423 5380 	bic.w	r3, r3, #4096	; 0x1000
 800476a:	6203      	str	r3, [r0, #32]

  /* Get the TIMx CCER register value */
  tmpccer = TIMx->CCER;
 800476c:	6a05      	ldr	r5, [r0, #32]
  /* Get the TIMx CR2 register value */
  tmpcr2 =  TIMx->CR2;
 800476e:	f8d0 8004 	ldr.w	r8, [r0, #4]

  /* Get the TIMx CCMR2 register value */
  tmpccmrx = TIMx->CCMR2;
 8004772:	69c7      	ldr	r7, [r0, #28]
  /* Reset the Output Compare mode and Capture/Compare selection Bits */
  tmpccmrx &= ~TIM_CCMR2_OC4M;
  tmpccmrx &= ~TIM_CCMR2_CC4S;

  /* Select the Output Compare Mode */
  tmpccmrx |= (OC_Config->OCMode << 8U);
 8004774:	680b      	ldr	r3, [r1, #0]
  tmpccmrx &= ~TIM_CCMR2_CC4S;
 8004776:	f427 47e6 	bic.w	r7, r7, #29440	; 0x7300
  tmpccmrx |= (OC_Config->OCMode << 8U);
 800477a:	ea47 2703 	orr.w	r7, r7, r3, lsl #8

  /* Reset the Output Polarity level */
  tmpccer &= ~TIM_CCER_CC4P;
  /* Set the Output Compare Polarity */
  tmpccer |= (OC_Config->OCPolarity << 12U);
 800477e:	688b      	ldr	r3, [r1, #8]
  tmpccer &= ~TIM_CCER_CC4P;
 8004780:	f425 5500 	bic.w	r5, r5, #8192	; 0x2000
  tmpccer |= (OC_Config->OCPolarity << 12U);
 8004784:	ea45 3503 	orr.w	r5, r5, r3, lsl #12

  if(IS_TIM_BREAK_INSTANCE(TIMx))
 8004788:	4b0d      	ldr	r3, [pc, #52]	; (80047c0 <TIM_OC4_SetConfig+0x60>)
{
 800478a:	4604      	mov	r4, r0
  if(IS_TIM_BREAK_INSTANCE(TIMx))
 800478c:	4298      	cmp	r0, r3
{
 800478e:	460e      	mov	r6, r1
  if(IS_TIM_BREAK_INSTANCE(TIMx))
 8004790:	d10d      	bne.n	80047ae <TIM_OC4_SetConfig+0x4e>
  {
    assert_param(IS_TIM_OCIDLE_STATE(OC_Config->OCIdleState));
 8004792:	694b      	ldr	r3, [r1, #20]
 8004794:	f433 7380 	bics.w	r3, r3, #256	; 0x100
 8004798:	d004      	beq.n	80047a4 <TIM_OC4_SetConfig+0x44>
 800479a:	f241 311f 	movw	r1, #4895	; 0x131f
 800479e:	4809      	ldr	r0, [pc, #36]	; (80047c4 <TIM_OC4_SetConfig+0x64>)
 80047a0:	f7fd fbc1 	bl	8001f26 <assert_failed>

   /* Reset the Output Compare IDLE State */
    tmpcr2 &= ~TIM_CR2_OIS4;
    /* Set the Output Idle state */
    tmpcr2 |= (OC_Config->OCIdleState << 6);
 80047a4:	6973      	ldr	r3, [r6, #20]
    tmpcr2 &= ~TIM_CR2_OIS4;
 80047a6:	f428 4880 	bic.w	r8, r8, #16384	; 0x4000
    tmpcr2 |= (OC_Config->OCIdleState << 6);
 80047aa:	ea48 1883 	orr.w	r8, r8, r3, lsl #6

  /* Write to TIMx CCMR2 */
  TIMx->CCMR2 = tmpccmrx;

  /* Set the Capture Compare Register value */
  TIMx->CCR4 = OC_Config->Pulse;
 80047ae:	6873      	ldr	r3, [r6, #4]
  TIMx->CR2 = tmpcr2;
 80047b0:	f8c4 8004 	str.w	r8, [r4, #4]
  TIMx->CCMR2 = tmpccmrx;
 80047b4:	61e7      	str	r7, [r4, #28]
  TIMx->CCR4 = OC_Config->Pulse;
 80047b6:	6423      	str	r3, [r4, #64]	; 0x40

  /* Write to TIMx CCER */
  TIMx->CCER = tmpccer;
 80047b8:	6225      	str	r5, [r4, #32]
 80047ba:	e8bd 81f0 	ldmia.w	sp!, {r4, r5, r6, r7, r8, pc}
 80047be:	bf00      	nop
 80047c0:	40012c00 	.word	0x40012c00
 80047c4:	08006815 	.word	0x08006815

080047c8 <HAL_TIM_Base_Start>:
  assert_param(IS_TIM_INSTANCE(htim->Instance));
 80047c8:	6803      	ldr	r3, [r0, #0]
 80047ca:	4a11      	ldr	r2, [pc, #68]	; (8004810 <HAL_TIM_Base_Start+0x48>)
{
 80047cc:	b510      	push	{r4, lr}
  assert_param(IS_TIM_INSTANCE(htim->Instance));
 80047ce:	4293      	cmp	r3, r2
{
 80047d0:	4604      	mov	r4, r0
  assert_param(IS_TIM_INSTANCE(htim->Instance));
 80047d2:	d00f      	beq.n	80047f4 <HAL_TIM_Base_Start+0x2c>
 80047d4:	f1b3 4f80 	cmp.w	r3, #1073741824	; 0x40000000
 80047d8:	d00c      	beq.n	80047f4 <HAL_TIM_Base_Start+0x2c>
 80047da:	f5a2 3294 	sub.w	r2, r2, #75776	; 0x12800
 80047de:	4293      	cmp	r3, r2
 80047e0:	d008      	beq.n	80047f4 <HAL_TIM_Base_Start+0x2c>
 80047e2:	f502 6280 	add.w	r2, r2, #1024	; 0x400
 80047e6:	4293      	cmp	r3, r2
 80047e8:	d004      	beq.n	80047f4 <HAL_TIM_Base_Start+0x2c>
 80047ea:	f240 1133 	movw	r1, #307	; 0x133
 80047ee:	4809      	ldr	r0, [pc, #36]	; (8004814 <HAL_TIM_Base_Start+0x4c>)
 80047f0:	f7fd fb99 	bl	8001f26 <assert_failed>
  htim->State= HAL_TIM_STATE_BUSY;
 80047f4:	2302      	movs	r3, #2
  __HAL_TIM_ENABLE(htim);
 80047f6:	6822      	ldr	r2, [r4, #0]
  htim->State= HAL_TIM_STATE_BUSY;
 80047f8:	f884 303d 	strb.w	r3, [r4, #61]	; 0x3d
  __HAL_TIM_ENABLE(htim);
 80047fc:	6813      	ldr	r3, [r2, #0]
}
 80047fe:	2000      	movs	r0, #0
  __HAL_TIM_ENABLE(htim);
 8004800:	f043 0301 	orr.w	r3, r3, #1
 8004804:	6013      	str	r3, [r2, #0]
  htim->State= HAL_TIM_STATE_READY;
 8004806:	2301      	movs	r3, #1
 8004808:	f884 303d 	strb.w	r3, [r4, #61]	; 0x3d
}
 800480c:	bd10      	pop	{r4, pc}
 800480e:	bf00      	nop
 8004810:	40012c00 	.word	0x40012c00
 8004814:	08006815 	.word	0x08006815

08004818 <HAL_TIM_Base_Start_IT>:
  assert_param(IS_TIM_INSTANCE(htim->Instance));
 8004818:	6803      	ldr	r3, [r0, #0]
 800481a:	4a10      	ldr	r2, [pc, #64]	; (800485c <HAL_TIM_Base_Start_IT+0x44>)
{
 800481c:	b510      	push	{r4, lr}
  assert_param(IS_TIM_INSTANCE(htim->Instance));
 800481e:	4293      	cmp	r3, r2
{
 8004820:	4604      	mov	r4, r0
  assert_param(IS_TIM_INSTANCE(htim->Instance));
 8004822:	d00f      	beq.n	8004844 <HAL_TIM_Base_Start_IT+0x2c>
 8004824:	f1b3 4f80 	cmp.w	r3, #1073741824	; 0x40000000
 8004828:	d00c      	beq.n	8004844 <HAL_TIM_Base_Start_IT+0x2c>
 800482a:	f5a2 3294 	sub.w	r2, r2, #75776	; 0x12800
 800482e:	4293      	cmp	r3, r2
 8004830:	d008      	beq.n	8004844 <HAL_TIM_Base_Start_IT+0x2c>
 8004832:	f502 6280 	add.w	r2, r2, #1024	; 0x400
 8004836:	4293      	cmp	r3, r2
 8004838:	d004      	beq.n	8004844 <HAL_TIM_Base_Start_IT+0x2c>
 800483a:	f240 1161 	movw	r1, #353	; 0x161
 800483e:	4808      	ldr	r0, [pc, #32]	; (8004860 <HAL_TIM_Base_Start_IT+0x48>)
 8004840:	f7fd fb71 	bl	8001f26 <assert_failed>
   __HAL_TIM_ENABLE_IT(htim, TIM_IT_UPDATE);
 8004844:	6823      	ldr	r3, [r4, #0]
}
 8004846:	2000      	movs	r0, #0
   __HAL_TIM_ENABLE_IT(htim, TIM_IT_UPDATE);
 8004848:	68da      	ldr	r2, [r3, #12]
 800484a:	f042 0201 	orr.w	r2, r2, #1
 800484e:	60da      	str	r2, [r3, #12]
  __HAL_TIM_ENABLE(htim);
 8004850:	681a      	ldr	r2, [r3, #0]
 8004852:	f042 0201 	orr.w	r2, r2, #1
 8004856:	601a      	str	r2, [r3, #0]
}
 8004858:	bd10      	pop	{r4, pc}
 800485a:	bf00      	nop
 800485c:	40012c00 	.word	0x40012c00
 8004860:	08006815 	.word	0x08006815

08004864 <HAL_TIM_OC_MspInit>:
 8004864:	4770      	bx	lr

08004866 <HAL_TIM_PWM_MspInit>:
 8004866:	4770      	bx	lr

08004868 <HAL_TIM_ConfigClockSource>:
  __HAL_LOCK(htim);
 8004868:	f890 303c 	ldrb.w	r3, [r0, #60]	; 0x3c
{
 800486c:	b570      	push	{r4, r5, r6, lr}
  __HAL_LOCK(htim);
 800486e:	2b01      	cmp	r3, #1
{
 8004870:	4605      	mov	r5, r0
 8004872:	460c      	mov	r4, r1
 8004874:	f04f 0002 	mov.w	r0, #2
  __HAL_LOCK(htim);
 8004878:	d02e      	beq.n	80048d8 <HAL_TIM_ConfigClockSource+0x70>
 800487a:	2301      	movs	r3, #1
 800487c:	f885 303c 	strb.w	r3, [r5, #60]	; 0x3c
  assert_param(IS_TIM_CLOCKSOURCE(sClockSourceConfig->ClockSource));
 8004880:	680b      	ldr	r3, [r1, #0]
  htim->State = HAL_TIM_STATE_BUSY;
 8004882:	f885 003d 	strb.w	r0, [r5, #61]	; 0x3d
  assert_param(IS_TIM_CLOCKSOURCE(sClockSourceConfig->ClockSource));
 8004886:	f5b3 5f80 	cmp.w	r3, #4096	; 0x1000
 800488a:	d00c      	beq.n	80048a6 <HAL_TIM_ConfigClockSource+0x3e>
 800488c:	f5b3 5f00 	cmp.w	r3, #8192	; 0x2000
 8004890:	d009      	beq.n	80048a6 <HAL_TIM_ConfigClockSource+0x3e>
 8004892:	f033 0330 	bics.w	r3, r3, #48	; 0x30
 8004896:	d006      	beq.n	80048a6 <HAL_TIM_ConfigClockSource+0x3e>
 8004898:	2b40      	cmp	r3, #64	; 0x40
 800489a:	d004      	beq.n	80048a6 <HAL_TIM_ConfigClockSource+0x3e>
 800489c:	f640 7171 	movw	r1, #3953	; 0xf71
 80048a0:	48b5      	ldr	r0, [pc, #724]	; (8004b78 <HAL_TIM_ConfigClockSource+0x310>)
 80048a2:	f7fd fb40 	bl	8001f26 <assert_failed>
  tmpsmcr = htim->Instance->SMCR;
 80048a6:	682b      	ldr	r3, [r5, #0]
 80048a8:	689a      	ldr	r2, [r3, #8]
  tmpsmcr &= ~(TIM_SMCR_ETF | TIM_SMCR_ETPS | TIM_SMCR_ECE | TIM_SMCR_ETP);
 80048aa:	f422 427f 	bic.w	r2, r2, #65280	; 0xff00
 80048ae:	f022 0277 	bic.w	r2, r2, #119	; 0x77
  htim->Instance->SMCR = tmpsmcr;
 80048b2:	609a      	str	r2, [r3, #8]
  switch (sClockSourceConfig->ClockSource)
 80048b4:	6822      	ldr	r2, [r4, #0]
 80048b6:	2a40      	cmp	r2, #64	; 0x40
 80048b8:	f000 8162 	beq.w	8004b80 <HAL_TIM_ConfigClockSource+0x318>
 80048bc:	d82c      	bhi.n	8004918 <HAL_TIM_ConfigClockSource+0xb0>
 80048be:	2a10      	cmp	r2, #16
 80048c0:	f000 81b9 	beq.w	8004c36 <HAL_TIM_ConfigClockSource+0x3ce>
 80048c4:	d809      	bhi.n	80048da <HAL_TIM_ConfigClockSource+0x72>
 80048c6:	2a00      	cmp	r2, #0
 80048c8:	f000 819b 	beq.w	8004c02 <HAL_TIM_ConfigClockSource+0x39a>
  htim->State = HAL_TIM_STATE_READY;
 80048cc:	2301      	movs	r3, #1
  __HAL_UNLOCK(htim);
 80048ce:	2000      	movs	r0, #0
  htim->State = HAL_TIM_STATE_READY;
 80048d0:	f885 303d 	strb.w	r3, [r5, #61]	; 0x3d
  __HAL_UNLOCK(htim);
 80048d4:	f885 003c 	strb.w	r0, [r5, #60]	; 0x3c
}
 80048d8:	bd70      	pop	{r4, r5, r6, pc}
  switch (sClockSourceConfig->ClockSource)
 80048da:	2a20      	cmp	r2, #32
 80048dc:	f000 81c5 	beq.w	8004c6a <HAL_TIM_ConfigClockSource+0x402>
 80048e0:	2a30      	cmp	r2, #48	; 0x30
 80048e2:	d1f3      	bne.n	80048cc <HAL_TIM_ConfigClockSource+0x64>
      assert_param(IS_TIM_CLOCKSOURCE_ITRX_INSTANCE(htim->Instance));
 80048e4:	4aa5      	ldr	r2, [pc, #660]	; (8004b7c <HAL_TIM_ConfigClockSource+0x314>)
 80048e6:	4293      	cmp	r3, r2
 80048e8:	d00f      	beq.n	800490a <HAL_TIM_ConfigClockSource+0xa2>
 80048ea:	f1b3 4f80 	cmp.w	r3, #1073741824	; 0x40000000
 80048ee:	d00c      	beq.n	800490a <HAL_TIM_ConfigClockSource+0xa2>
 80048f0:	f5a2 3294 	sub.w	r2, r2, #75776	; 0x12800
 80048f4:	4293      	cmp	r3, r2
 80048f6:	d008      	beq.n	800490a <HAL_TIM_ConfigClockSource+0xa2>
 80048f8:	f502 6280 	add.w	r2, r2, #1024	; 0x400
 80048fc:	4293      	cmp	r3, r2
 80048fe:	d004      	beq.n	800490a <HAL_TIM_ConfigClockSource+0xa2>
 8004900:	f640 71f9 	movw	r1, #4089	; 0xff9
 8004904:	489c      	ldr	r0, [pc, #624]	; (8004b78 <HAL_TIM_ConfigClockSource+0x310>)
 8004906:	f7fd fb0e 	bl	8001f26 <assert_failed>
      TIM_ITRx_SetConfig(htim->Instance, TIM_CLOCKSOURCE_ITR3);
 800490a:	682a      	ldr	r2, [r5, #0]
static void TIM_ITRx_SetConfig(TIM_TypeDef *TIMx, uint16_t InputTriggerSource)
{
  uint32_t tmpsmcr = 0U;

   /* Get the TIMx SMCR register value */
   tmpsmcr = TIMx->SMCR;
 800490c:	6893      	ldr	r3, [r2, #8]
   /* Reset the TS Bits */
   tmpsmcr &= ~TIM_SMCR_TS;
 800490e:	f023 0370 	bic.w	r3, r3, #112	; 0x70
   /* Set the Input Trigger source and the slave mode*/
   tmpsmcr |= InputTriggerSource | TIM_SLAVEMODE_EXTERNAL1;
 8004912:	f043 0337 	orr.w	r3, r3, #55	; 0x37
 8004916:	e0a9      	b.n	8004a6c <HAL_TIM_ConfigClockSource+0x204>
  switch (sClockSourceConfig->ClockSource)
 8004918:	2a70      	cmp	r2, #112	; 0x70
 800491a:	f000 80a9 	beq.w	8004a70 <HAL_TIM_ConfigClockSource+0x208>
 800491e:	d846      	bhi.n	80049ae <HAL_TIM_ConfigClockSource+0x146>
 8004920:	2a50      	cmp	r2, #80	; 0x50
 8004922:	f000 80e7 	beq.w	8004af4 <HAL_TIM_ConfigClockSource+0x28c>
 8004926:	2a60      	cmp	r2, #96	; 0x60
 8004928:	d1d0      	bne.n	80048cc <HAL_TIM_ConfigClockSource+0x64>
      assert_param(IS_TIM_CLOCKSOURCE_TIX_INSTANCE(htim->Instance));
 800492a:	4a94      	ldr	r2, [pc, #592]	; (8004b7c <HAL_TIM_ConfigClockSource+0x314>)
 800492c:	4293      	cmp	r3, r2
 800492e:	d00f      	beq.n	8004950 <HAL_TIM_ConfigClockSource+0xe8>
 8004930:	f1b3 4f80 	cmp.w	r3, #1073741824	; 0x40000000
 8004934:	d00c      	beq.n	8004950 <HAL_TIM_ConfigClockSource+0xe8>
 8004936:	f5a2 3294 	sub.w	r2, r2, #75776	; 0x12800
 800493a:	4293      	cmp	r3, r2
 800493c:	d008      	beq.n	8004950 <HAL_TIM_ConfigClockSource+0xe8>
 800493e:	f502 6280 	add.w	r2, r2, #1024	; 0x400
 8004942:	4293      	cmp	r3, r2
 8004944:	d004      	beq.n	8004950 <HAL_TIM_ConfigClockSource+0xe8>
 8004946:	f640 71c3 	movw	r1, #4035	; 0xfc3
 800494a:	488b      	ldr	r0, [pc, #556]	; (8004b78 <HAL_TIM_ConfigClockSource+0x310>)
 800494c:	f7fd faeb 	bl	8001f26 <assert_failed>
      assert_param(IS_TIM_CLOCKPOLARITY(sClockSourceConfig->ClockPolarity));
 8004950:	6863      	ldr	r3, [r4, #4]
 8004952:	f5b3 4f00 	cmp.w	r3, #32768	; 0x8000
 8004956:	d009      	beq.n	800496c <HAL_TIM_ConfigClockSource+0x104>
 8004958:	f033 0202 	bics.w	r2, r3, #2
 800495c:	d006      	beq.n	800496c <HAL_TIM_ConfigClockSource+0x104>
 800495e:	2b0a      	cmp	r3, #10
 8004960:	d004      	beq.n	800496c <HAL_TIM_ConfigClockSource+0x104>
 8004962:	f640 71c6 	movw	r1, #4038	; 0xfc6
 8004966:	4884      	ldr	r0, [pc, #528]	; (8004b78 <HAL_TIM_ConfigClockSource+0x310>)
 8004968:	f7fd fadd 	bl	8001f26 <assert_failed>
      assert_param(IS_TIM_CLOCKFILTER(sClockSourceConfig->ClockFilter));
 800496c:	68e3      	ldr	r3, [r4, #12]
 800496e:	2b0f      	cmp	r3, #15
 8004970:	d904      	bls.n	800497c <HAL_TIM_ConfigClockSource+0x114>
 8004972:	f640 71c7 	movw	r1, #4039	; 0xfc7
 8004976:	4880      	ldr	r0, [pc, #512]	; (8004b78 <HAL_TIM_ConfigClockSource+0x310>)
 8004978:	f7fd fad5 	bl	8001f26 <assert_failed>
      TIM_TI2_ConfigInputStage(htim->Instance,
 800497c:	682b      	ldr	r3, [r5, #0]
 800497e:	6866      	ldr	r6, [r4, #4]
  TIMx->CCER &= ~TIM_CCER_CC2E;
 8004980:	6a18      	ldr	r0, [r3, #32]
      TIM_TI2_ConfigInputStage(htim->Instance,
 8004982:	68e4      	ldr	r4, [r4, #12]
  TIMx->CCER &= ~TIM_CCER_CC2E;
 8004984:	f020 0010 	bic.w	r0, r0, #16
 8004988:	6218      	str	r0, [r3, #32]
  tmpccmr1 = TIMx->CCMR1;
 800498a:	6999      	ldr	r1, [r3, #24]
  tmpccer = TIMx->CCER;
 800498c:	6a1a      	ldr	r2, [r3, #32]
  tmpccmr1 &= ~TIM_CCMR1_IC2F;
 800498e:	f421 4170 	bic.w	r1, r1, #61440	; 0xf000
  tmpccer &= ~(TIM_CCER_CC2P | TIM_CCER_CC2NP);
 8004992:	f022 02a0 	bic.w	r2, r2, #160	; 0xa0
  tmpccer |= (TIM_ICPolarity << 4U);
 8004996:	ea42 1206 	orr.w	r2, r2, r6, lsl #4
  tmpccmr1 |= (TIM_ICFilter << 12U);
 800499a:	ea41 3104 	orr.w	r1, r1, r4, lsl #12
  TIMx->CCMR1 = tmpccmr1 ;
 800499e:	6199      	str	r1, [r3, #24]
  TIMx->CCER = tmpccer;
 80049a0:	621a      	str	r2, [r3, #32]
   tmpsmcr = TIMx->SMCR;
 80049a2:	689a      	ldr	r2, [r3, #8]
   tmpsmcr &= ~TIM_SMCR_TS;
 80049a4:	f022 0270 	bic.w	r2, r2, #112	; 0x70
   tmpsmcr |= InputTriggerSource | TIM_SLAVEMODE_EXTERNAL1;
 80049a8:	f042 0267 	orr.w	r2, r2, #103	; 0x67
 80049ac:	e0e2      	b.n	8004b74 <HAL_TIM_ConfigClockSource+0x30c>
  switch (sClockSourceConfig->ClockSource)
 80049ae:	f5b2 5f80 	cmp.w	r2, #4096	; 0x1000
 80049b2:	d044      	beq.n	8004a3e <HAL_TIM_ConfigClockSource+0x1d6>
 80049b4:	f5b2 5f00 	cmp.w	r2, #8192	; 0x2000
 80049b8:	d188      	bne.n	80048cc <HAL_TIM_ConfigClockSource+0x64>
      assert_param(IS_TIM_CLOCKSOURCE_ETRMODE2_INSTANCE(htim->Instance));
 80049ba:	4a70      	ldr	r2, [pc, #448]	; (8004b7c <HAL_TIM_ConfigClockSource+0x314>)
 80049bc:	4293      	cmp	r3, r2
 80049be:	d00f      	beq.n	80049e0 <HAL_TIM_ConfigClockSource+0x178>
 80049c0:	f1b3 4f80 	cmp.w	r3, #1073741824	; 0x40000000
 80049c4:	d00c      	beq.n	80049e0 <HAL_TIM_ConfigClockSource+0x178>
 80049c6:	f5a2 3294 	sub.w	r2, r2, #75776	; 0x12800
 80049ca:	4293      	cmp	r3, r2
 80049cc:	d008      	beq.n	80049e0 <HAL_TIM_ConfigClockSource+0x178>
 80049ce:	f502 6280 	add.w	r2, r2, #1024	; 0x400
 80049d2:	4293      	cmp	r3, r2
 80049d4:	d004      	beq.n	80049e0 <HAL_TIM_ConfigClockSource+0x178>
 80049d6:	f44f 617a 	mov.w	r1, #4000	; 0xfa0
 80049da:	4867      	ldr	r0, [pc, #412]	; (8004b78 <HAL_TIM_ConfigClockSource+0x310>)
 80049dc:	f7fd faa3 	bl	8001f26 <assert_failed>
      assert_param(IS_TIM_CLOCKPRESCALER(sClockSourceConfig->ClockPrescaler));
 80049e0:	68a3      	ldr	r3, [r4, #8]
 80049e2:	f433 5340 	bics.w	r3, r3, #12288	; 0x3000
 80049e6:	d004      	beq.n	80049f2 <HAL_TIM_ConfigClockSource+0x18a>
 80049e8:	f640 71a3 	movw	r1, #4003	; 0xfa3
 80049ec:	4862      	ldr	r0, [pc, #392]	; (8004b78 <HAL_TIM_ConfigClockSource+0x310>)
 80049ee:	f7fd fa9a 	bl	8001f26 <assert_failed>
      assert_param(IS_TIM_CLOCKPOLARITY(sClockSourceConfig->ClockPolarity));
 80049f2:	6863      	ldr	r3, [r4, #4]
 80049f4:	f5b3 4f00 	cmp.w	r3, #32768	; 0x8000
 80049f8:	d009      	beq.n	8004a0e <HAL_TIM_ConfigClockSource+0x1a6>
 80049fa:	f033 0202 	bics.w	r2, r3, #2
 80049fe:	d006      	beq.n	8004a0e <HAL_TIM_ConfigClockSource+0x1a6>
 8004a00:	2b0a      	cmp	r3, #10
 8004a02:	d004      	beq.n	8004a0e <HAL_TIM_ConfigClockSource+0x1a6>
 8004a04:	f640 71a4 	movw	r1, #4004	; 0xfa4
 8004a08:	485b      	ldr	r0, [pc, #364]	; (8004b78 <HAL_TIM_ConfigClockSource+0x310>)
 8004a0a:	f7fd fa8c 	bl	8001f26 <assert_failed>
      assert_param(IS_TIM_CLOCKFILTER(sClockSourceConfig->ClockFilter));
 8004a0e:	68e3      	ldr	r3, [r4, #12]
 8004a10:	2b0f      	cmp	r3, #15
 8004a12:	d904      	bls.n	8004a1e <HAL_TIM_ConfigClockSource+0x1b6>
 8004a14:	f640 71a5 	movw	r1, #4005	; 0xfa5
 8004a18:	4857      	ldr	r0, [pc, #348]	; (8004b78 <HAL_TIM_ConfigClockSource+0x310>)
 8004a1a:	f7fd fa84 	bl	8001f26 <assert_failed>
      TIM_ETR_SetConfig(htim->Instance,
 8004a1e:	682a      	ldr	r2, [r5, #0]

  /* Reset the ETR Bits */
  tmpsmcr &= ~(TIM_SMCR_ETF | TIM_SMCR_ETPS | TIM_SMCR_ECE | TIM_SMCR_ETP);

  /* Set the Prescaler, the Filter value and the Polarity */
  tmpsmcr |= (uint32_t)(TIM_ExtTRGPrescaler | (TIM_ExtTRGPolarity | (ExtTRGFilter << 8U)));
 8004a20:	6860      	ldr	r0, [r4, #4]
 8004a22:	68a3      	ldr	r3, [r4, #8]
  tmpsmcr = TIMx->SMCR;
 8004a24:	6891      	ldr	r1, [r2, #8]
  tmpsmcr |= (uint32_t)(TIM_ExtTRGPrescaler | (TIM_ExtTRGPolarity | (ExtTRGFilter << 8U)));
 8004a26:	4303      	orrs	r3, r0
 8004a28:	68e0      	ldr	r0, [r4, #12]
  tmpsmcr &= ~(TIM_SMCR_ETF | TIM_SMCR_ETPS | TIM_SMCR_ECE | TIM_SMCR_ETP);
 8004a2a:	f421 417f 	bic.w	r1, r1, #65280	; 0xff00
  tmpsmcr |= (uint32_t)(TIM_ExtTRGPrescaler | (TIM_ExtTRGPolarity | (ExtTRGFilter << 8U)));
 8004a2e:	ea43 2300 	orr.w	r3, r3, r0, lsl #8
 8004a32:	430b      	orrs	r3, r1

  /* Write to TIMx SMCR */
  TIMx->SMCR = tmpsmcr;
 8004a34:	6093      	str	r3, [r2, #8]
      htim->Instance->SMCR |= TIM_SMCR_ECE;
 8004a36:	6893      	ldr	r3, [r2, #8]
 8004a38:	f443 4380 	orr.w	r3, r3, #16384	; 0x4000
 8004a3c:	e016      	b.n	8004a6c <HAL_TIM_ConfigClockSource+0x204>
      assert_param(IS_TIM_INSTANCE(htim->Instance));
 8004a3e:	4a4f      	ldr	r2, [pc, #316]	; (8004b7c <HAL_TIM_ConfigClockSource+0x314>)
 8004a40:	4293      	cmp	r3, r2
 8004a42:	d00f      	beq.n	8004a64 <HAL_TIM_ConfigClockSource+0x1fc>
 8004a44:	f1b3 4f80 	cmp.w	r3, #1073741824	; 0x40000000
 8004a48:	d00c      	beq.n	8004a64 <HAL_TIM_ConfigClockSource+0x1fc>
 8004a4a:	f5a2 3294 	sub.w	r2, r2, #75776	; 0x12800
 8004a4e:	4293      	cmp	r3, r2
 8004a50:	d008      	beq.n	8004a64 <HAL_TIM_ConfigClockSource+0x1fc>
 8004a52:	f502 6280 	add.w	r2, r2, #1024	; 0x400
 8004a56:	4293      	cmp	r3, r2
 8004a58:	d004      	beq.n	8004a64 <HAL_TIM_ConfigClockSource+0x1fc>
 8004a5a:	f640 717d 	movw	r1, #3965	; 0xf7d
 8004a5e:	4846      	ldr	r0, [pc, #280]	; (8004b78 <HAL_TIM_ConfigClockSource+0x310>)
 8004a60:	f7fd fa61 	bl	8001f26 <assert_failed>
      htim->Instance->SMCR &= ~TIM_SMCR_SMS;
 8004a64:	682a      	ldr	r2, [r5, #0]
 8004a66:	6893      	ldr	r3, [r2, #8]
 8004a68:	f023 0307 	bic.w	r3, r3, #7
   TIMx->SMCR = tmpsmcr;
 8004a6c:	6093      	str	r3, [r2, #8]
 8004a6e:	e72d      	b.n	80048cc <HAL_TIM_ConfigClockSource+0x64>
      assert_param(IS_TIM_CLOCKSOURCE_ETRMODE1_INSTANCE(htim->Instance));
 8004a70:	4a42      	ldr	r2, [pc, #264]	; (8004b7c <HAL_TIM_ConfigClockSource+0x314>)
 8004a72:	4293      	cmp	r3, r2
 8004a74:	d00f      	beq.n	8004a96 <HAL_TIM_ConfigClockSource+0x22e>
 8004a76:	f1b3 4f80 	cmp.w	r3, #1073741824	; 0x40000000
 8004a7a:	d00c      	beq.n	8004a96 <HAL_TIM_ConfigClockSource+0x22e>
 8004a7c:	f5a2 3294 	sub.w	r2, r2, #75776	; 0x12800
 8004a80:	4293      	cmp	r3, r2
 8004a82:	d008      	beq.n	8004a96 <HAL_TIM_ConfigClockSource+0x22e>
 8004a84:	f502 6280 	add.w	r2, r2, #1024	; 0x400
 8004a88:	4293      	cmp	r3, r2
 8004a8a:	d004      	beq.n	8004a96 <HAL_TIM_ConfigClockSource+0x22e>
 8004a8c:	f640 7186 	movw	r1, #3974	; 0xf86
 8004a90:	4839      	ldr	r0, [pc, #228]	; (8004b78 <HAL_TIM_ConfigClockSource+0x310>)
 8004a92:	f7fd fa48 	bl	8001f26 <assert_failed>
      assert_param(IS_TIM_CLOCKPRESCALER(sClockSourceConfig->ClockPrescaler));
 8004a96:	68a3      	ldr	r3, [r4, #8]
 8004a98:	f433 5340 	bics.w	r3, r3, #12288	; 0x3000
 8004a9c:	d004      	beq.n	8004aa8 <HAL_TIM_ConfigClockSource+0x240>
 8004a9e:	f640 7189 	movw	r1, #3977	; 0xf89
 8004aa2:	4835      	ldr	r0, [pc, #212]	; (8004b78 <HAL_TIM_ConfigClockSource+0x310>)
 8004aa4:	f7fd fa3f 	bl	8001f26 <assert_failed>
      assert_param(IS_TIM_CLOCKPOLARITY(sClockSourceConfig->ClockPolarity));
 8004aa8:	6863      	ldr	r3, [r4, #4]
 8004aaa:	f5b3 4f00 	cmp.w	r3, #32768	; 0x8000
 8004aae:	d009      	beq.n	8004ac4 <HAL_TIM_ConfigClockSource+0x25c>
 8004ab0:	f033 0202 	bics.w	r2, r3, #2
 8004ab4:	d006      	beq.n	8004ac4 <HAL_TIM_ConfigClockSource+0x25c>
 8004ab6:	2b0a      	cmp	r3, #10
 8004ab8:	d004      	beq.n	8004ac4 <HAL_TIM_ConfigClockSource+0x25c>
 8004aba:	f640 718a 	movw	r1, #3978	; 0xf8a
 8004abe:	482e      	ldr	r0, [pc, #184]	; (8004b78 <HAL_TIM_ConfigClockSource+0x310>)
 8004ac0:	f7fd fa31 	bl	8001f26 <assert_failed>
      assert_param(IS_TIM_CLOCKFILTER(sClockSourceConfig->ClockFilter));
 8004ac4:	68e3      	ldr	r3, [r4, #12]
 8004ac6:	2b0f      	cmp	r3, #15
 8004ac8:	d904      	bls.n	8004ad4 <HAL_TIM_ConfigClockSource+0x26c>
 8004aca:	f640 718b 	movw	r1, #3979	; 0xf8b
 8004ace:	482a      	ldr	r0, [pc, #168]	; (8004b78 <HAL_TIM_ConfigClockSource+0x310>)
 8004ad0:	f7fd fa29 	bl	8001f26 <assert_failed>
      TIM_ETR_SetConfig(htim->Instance,
 8004ad4:	682a      	ldr	r2, [r5, #0]
  tmpsmcr |= (uint32_t)(TIM_ExtTRGPrescaler | (TIM_ExtTRGPolarity | (ExtTRGFilter << 8U)));
 8004ad6:	6860      	ldr	r0, [r4, #4]
 8004ad8:	68a3      	ldr	r3, [r4, #8]
  tmpsmcr = TIMx->SMCR;
 8004ada:	6891      	ldr	r1, [r2, #8]
  tmpsmcr |= (uint32_t)(TIM_ExtTRGPrescaler | (TIM_ExtTRGPolarity | (ExtTRGFilter << 8U)));
 8004adc:	4303      	orrs	r3, r0
 8004ade:	68e0      	ldr	r0, [r4, #12]
  tmpsmcr &= ~(TIM_SMCR_ETF | TIM_SMCR_ETPS | TIM_SMCR_ECE | TIM_SMCR_ETP);
 8004ae0:	f421 417f 	bic.w	r1, r1, #65280	; 0xff00
  tmpsmcr |= (uint32_t)(TIM_ExtTRGPrescaler | (TIM_ExtTRGPolarity | (ExtTRGFilter << 8U)));
 8004ae4:	ea43 2300 	orr.w	r3, r3, r0, lsl #8
 8004ae8:	430b      	orrs	r3, r1
  TIMx->SMCR = tmpsmcr;
 8004aea:	6093      	str	r3, [r2, #8]
      tmpsmcr = htim->Instance->SMCR;
 8004aec:	6893      	ldr	r3, [r2, #8]
      tmpsmcr |= (TIM_SLAVEMODE_EXTERNAL1 | TIM_CLOCKSOURCE_ETRMODE1);
 8004aee:	f043 0377 	orr.w	r3, r3, #119	; 0x77
 8004af2:	e7bb      	b.n	8004a6c <HAL_TIM_ConfigClockSource+0x204>
      assert_param(IS_TIM_CLOCKSOURCE_TIX_INSTANCE(htim->Instance));
 8004af4:	4a21      	ldr	r2, [pc, #132]	; (8004b7c <HAL_TIM_ConfigClockSource+0x314>)
 8004af6:	4293      	cmp	r3, r2
 8004af8:	d00f      	beq.n	8004b1a <HAL_TIM_ConfigClockSource+0x2b2>
 8004afa:	f1b3 4f80 	cmp.w	r3, #1073741824	; 0x40000000
 8004afe:	d00c      	beq.n	8004b1a <HAL_TIM_ConfigClockSource+0x2b2>
 8004b00:	f5a2 3294 	sub.w	r2, r2, #75776	; 0x12800
 8004b04:	4293      	cmp	r3, r2
 8004b06:	d008      	beq.n	8004b1a <HAL_TIM_ConfigClockSource+0x2b2>
 8004b08:	f502 6280 	add.w	r2, r2, #1024	; 0x400
 8004b0c:	4293      	cmp	r3, r2
 8004b0e:	d004      	beq.n	8004b1a <HAL_TIM_ConfigClockSource+0x2b2>
 8004b10:	f640 71b4 	movw	r1, #4020	; 0xfb4
 8004b14:	4818      	ldr	r0, [pc, #96]	; (8004b78 <HAL_TIM_ConfigClockSource+0x310>)
 8004b16:	f7fd fa06 	bl	8001f26 <assert_failed>
      assert_param(IS_TIM_CLOCKPOLARITY(sClockSourceConfig->ClockPolarity));
 8004b1a:	6863      	ldr	r3, [r4, #4]
 8004b1c:	f5b3 4f00 	cmp.w	r3, #32768	; 0x8000
 8004b20:	d009      	beq.n	8004b36 <HAL_TIM_ConfigClockSource+0x2ce>
 8004b22:	f033 0202 	bics.w	r2, r3, #2
 8004b26:	d006      	beq.n	8004b36 <HAL_TIM_ConfigClockSource+0x2ce>
 8004b28:	2b0a      	cmp	r3, #10
 8004b2a:	d004      	beq.n	8004b36 <HAL_TIM_ConfigClockSource+0x2ce>
 8004b2c:	f640 71b7 	movw	r1, #4023	; 0xfb7
 8004b30:	4811      	ldr	r0, [pc, #68]	; (8004b78 <HAL_TIM_ConfigClockSource+0x310>)
 8004b32:	f7fd f9f8 	bl	8001f26 <assert_failed>
      assert_param(IS_TIM_CLOCKFILTER(sClockSourceConfig->ClockFilter));
 8004b36:	68e3      	ldr	r3, [r4, #12]
 8004b38:	2b0f      	cmp	r3, #15
 8004b3a:	d904      	bls.n	8004b46 <HAL_TIM_ConfigClockSource+0x2de>
 8004b3c:	f640 71b8 	movw	r1, #4024	; 0xfb8
 8004b40:	480d      	ldr	r0, [pc, #52]	; (8004b78 <HAL_TIM_ConfigClockSource+0x310>)
 8004b42:	f7fd f9f0 	bl	8001f26 <assert_failed>
      TIM_TI1_ConfigInputStage(htim->Instance,
 8004b46:	682b      	ldr	r3, [r5, #0]
 8004b48:	6861      	ldr	r1, [r4, #4]
  tmpccer = TIMx->CCER;
 8004b4a:	6a18      	ldr	r0, [r3, #32]
      TIM_TI1_ConfigInputStage(htim->Instance,
 8004b4c:	68e6      	ldr	r6, [r4, #12]
  TIMx->CCER &= ~TIM_CCER_CC1E;
 8004b4e:	6a1c      	ldr	r4, [r3, #32]
  tmpccer &= ~(TIM_CCER_CC1P | TIM_CCER_CC1NP);
 8004b50:	f020 000a 	bic.w	r0, r0, #10
  TIMx->CCER &= ~TIM_CCER_CC1E;
 8004b54:	f024 0401 	bic.w	r4, r4, #1
 8004b58:	621c      	str	r4, [r3, #32]
  tmpccmr1 = TIMx->CCMR1;
 8004b5a:	699a      	ldr	r2, [r3, #24]
  tmpccer |= TIM_ICPolarity;
 8004b5c:	4301      	orrs	r1, r0
  tmpccmr1 &= ~TIM_CCMR1_IC1F;
 8004b5e:	f022 02f0 	bic.w	r2, r2, #240	; 0xf0
  tmpccmr1 |= (TIM_ICFilter << 4U);
 8004b62:	ea42 1206 	orr.w	r2, r2, r6, lsl #4
  TIMx->CCMR1 = tmpccmr1;
 8004b66:	619a      	str	r2, [r3, #24]
  TIMx->CCER = tmpccer;
 8004b68:	6219      	str	r1, [r3, #32]
   tmpsmcr = TIMx->SMCR;
 8004b6a:	689a      	ldr	r2, [r3, #8]
   tmpsmcr &= ~TIM_SMCR_TS;
 8004b6c:	f022 0270 	bic.w	r2, r2, #112	; 0x70
   tmpsmcr |= InputTriggerSource | TIM_SLAVEMODE_EXTERNAL1;
 8004b70:	f042 0257 	orr.w	r2, r2, #87	; 0x57
   TIMx->SMCR = tmpsmcr;
 8004b74:	609a      	str	r2, [r3, #8]
 8004b76:	e6a9      	b.n	80048cc <HAL_TIM_ConfigClockSource+0x64>
 8004b78:	08006815 	.word	0x08006815
 8004b7c:	40012c00 	.word	0x40012c00
      assert_param(IS_TIM_CLOCKSOURCE_TIX_INSTANCE(htim->Instance));
 8004b80:	4a47      	ldr	r2, [pc, #284]	; (8004ca0 <HAL_TIM_ConfigClockSource+0x438>)
 8004b82:	4293      	cmp	r3, r2
 8004b84:	d00f      	beq.n	8004ba6 <HAL_TIM_ConfigClockSource+0x33e>
 8004b86:	f1b3 4f80 	cmp.w	r3, #1073741824	; 0x40000000
 8004b8a:	d00c      	beq.n	8004ba6 <HAL_TIM_ConfigClockSource+0x33e>
 8004b8c:	f5a2 3294 	sub.w	r2, r2, #75776	; 0x12800
 8004b90:	4293      	cmp	r3, r2
 8004b92:	d008      	beq.n	8004ba6 <HAL_TIM_ConfigClockSource+0x33e>
 8004b94:	f502 6280 	add.w	r2, r2, #1024	; 0x400
 8004b98:	4293      	cmp	r3, r2
 8004b9a:	d004      	beq.n	8004ba6 <HAL_TIM_ConfigClockSource+0x33e>
 8004b9c:	f640 71d2 	movw	r1, #4050	; 0xfd2
 8004ba0:	4840      	ldr	r0, [pc, #256]	; (8004ca4 <HAL_TIM_ConfigClockSource+0x43c>)
 8004ba2:	f7fd f9c0 	bl	8001f26 <assert_failed>
      assert_param(IS_TIM_CLOCKPOLARITY(sClockSourceConfig->ClockPolarity));
 8004ba6:	6863      	ldr	r3, [r4, #4]
 8004ba8:	f5b3 4f00 	cmp.w	r3, #32768	; 0x8000
 8004bac:	d009      	beq.n	8004bc2 <HAL_TIM_ConfigClockSource+0x35a>
 8004bae:	f033 0202 	bics.w	r2, r3, #2
 8004bb2:	d006      	beq.n	8004bc2 <HAL_TIM_ConfigClockSource+0x35a>
 8004bb4:	2b0a      	cmp	r3, #10
 8004bb6:	d004      	beq.n	8004bc2 <HAL_TIM_ConfigClockSource+0x35a>
 8004bb8:	f640 71d5 	movw	r1, #4053	; 0xfd5
 8004bbc:	4839      	ldr	r0, [pc, #228]	; (8004ca4 <HAL_TIM_ConfigClockSource+0x43c>)
 8004bbe:	f7fd f9b2 	bl	8001f26 <assert_failed>
      assert_param(IS_TIM_CLOCKFILTER(sClockSourceConfig->ClockFilter));
 8004bc2:	68e3      	ldr	r3, [r4, #12]
 8004bc4:	2b0f      	cmp	r3, #15
 8004bc6:	d904      	bls.n	8004bd2 <HAL_TIM_ConfigClockSource+0x36a>
 8004bc8:	f640 71d6 	movw	r1, #4054	; 0xfd6
 8004bcc:	4835      	ldr	r0, [pc, #212]	; (8004ca4 <HAL_TIM_ConfigClockSource+0x43c>)
 8004bce:	f7fd f9aa 	bl	8001f26 <assert_failed>
      TIM_TI1_ConfigInputStage(htim->Instance,
 8004bd2:	682b      	ldr	r3, [r5, #0]
 8004bd4:	6861      	ldr	r1, [r4, #4]
  tmpccer = TIMx->CCER;
 8004bd6:	6a18      	ldr	r0, [r3, #32]
      TIM_TI1_ConfigInputStage(htim->Instance,
 8004bd8:	68e6      	ldr	r6, [r4, #12]
  TIMx->CCER &= ~TIM_CCER_CC1E;
 8004bda:	6a1c      	ldr	r4, [r3, #32]
  tmpccer &= ~(TIM_CCER_CC1P | TIM_CCER_CC1NP);
 8004bdc:	f020 000a 	bic.w	r0, r0, #10
  TIMx->CCER &= ~TIM_CCER_CC1E;
 8004be0:	f024 0401 	bic.w	r4, r4, #1
 8004be4:	621c      	str	r4, [r3, #32]
  tmpccmr1 = TIMx->CCMR1;
 8004be6:	699a      	ldr	r2, [r3, #24]
  tmpccer |= TIM_ICPolarity;
 8004be8:	4301      	orrs	r1, r0
  tmpccmr1 &= ~TIM_CCMR1_IC1F;
 8004bea:	f022 02f0 	bic.w	r2, r2, #240	; 0xf0
  tmpccmr1 |= (TIM_ICFilter << 4U);
 8004bee:	ea42 1206 	orr.w	r2, r2, r6, lsl #4
  TIMx->CCMR1 = tmpccmr1;
 8004bf2:	619a      	str	r2, [r3, #24]
  TIMx->CCER = tmpccer;
 8004bf4:	6219      	str	r1, [r3, #32]
   tmpsmcr = TIMx->SMCR;
 8004bf6:	689a      	ldr	r2, [r3, #8]
   tmpsmcr &= ~TIM_SMCR_TS;
 8004bf8:	f022 0270 	bic.w	r2, r2, #112	; 0x70
   tmpsmcr |= InputTriggerSource | TIM_SLAVEMODE_EXTERNAL1;
 8004bfc:	f042 0247 	orr.w	r2, r2, #71	; 0x47
 8004c00:	e7b8      	b.n	8004b74 <HAL_TIM_ConfigClockSource+0x30c>
      assert_param(IS_TIM_CLOCKSOURCE_ITRX_INSTANCE(htim->Instance));
 8004c02:	4a27      	ldr	r2, [pc, #156]	; (8004ca0 <HAL_TIM_ConfigClockSource+0x438>)
 8004c04:	4293      	cmp	r3, r2
 8004c06:	d00f      	beq.n	8004c28 <HAL_TIM_ConfigClockSource+0x3c0>
 8004c08:	f1b3 4f80 	cmp.w	r3, #1073741824	; 0x40000000
 8004c0c:	d00c      	beq.n	8004c28 <HAL_TIM_ConfigClockSource+0x3c0>
 8004c0e:	f5a2 3294 	sub.w	r2, r2, #75776	; 0x12800
 8004c12:	4293      	cmp	r3, r2
 8004c14:	d008      	beq.n	8004c28 <HAL_TIM_ConfigClockSource+0x3c0>
 8004c16:	f502 6280 	add.w	r2, r2, #1024	; 0x400
 8004c1a:	4293      	cmp	r3, r2
 8004c1c:	d004      	beq.n	8004c28 <HAL_TIM_ConfigClockSource+0x3c0>
 8004c1e:	f640 71e1 	movw	r1, #4065	; 0xfe1
 8004c22:	4820      	ldr	r0, [pc, #128]	; (8004ca4 <HAL_TIM_ConfigClockSource+0x43c>)
 8004c24:	f7fd f97f 	bl	8001f26 <assert_failed>
      TIM_ITRx_SetConfig(htim->Instance, TIM_CLOCKSOURCE_ITR0);
 8004c28:	682a      	ldr	r2, [r5, #0]
   tmpsmcr = TIMx->SMCR;
 8004c2a:	6893      	ldr	r3, [r2, #8]
   tmpsmcr &= ~TIM_SMCR_TS;
 8004c2c:	f023 0370 	bic.w	r3, r3, #112	; 0x70
   tmpsmcr |= InputTriggerSource | TIM_SLAVEMODE_EXTERNAL1;
 8004c30:	f043 0307 	orr.w	r3, r3, #7
 8004c34:	e71a      	b.n	8004a6c <HAL_TIM_ConfigClockSource+0x204>
      assert_param(IS_TIM_CLOCKSOURCE_ITRX_INSTANCE(htim->Instance));
 8004c36:	4a1a      	ldr	r2, [pc, #104]	; (8004ca0 <HAL_TIM_ConfigClockSource+0x438>)
 8004c38:	4293      	cmp	r3, r2
 8004c3a:	d00f      	beq.n	8004c5c <HAL_TIM_ConfigClockSource+0x3f4>
 8004c3c:	f1b3 4f80 	cmp.w	r3, #1073741824	; 0x40000000
 8004c40:	d00c      	beq.n	8004c5c <HAL_TIM_ConfigClockSource+0x3f4>
 8004c42:	f5a2 3294 	sub.w	r2, r2, #75776	; 0x12800
 8004c46:	4293      	cmp	r3, r2
 8004c48:	d008      	beq.n	8004c5c <HAL_TIM_ConfigClockSource+0x3f4>
 8004c4a:	f502 6280 	add.w	r2, r2, #1024	; 0x400
 8004c4e:	4293      	cmp	r3, r2
 8004c50:	d004      	beq.n	8004c5c <HAL_TIM_ConfigClockSource+0x3f4>
 8004c52:	f640 71e9 	movw	r1, #4073	; 0xfe9
 8004c56:	4813      	ldr	r0, [pc, #76]	; (8004ca4 <HAL_TIM_ConfigClockSource+0x43c>)
 8004c58:	f7fd f965 	bl	8001f26 <assert_failed>
      TIM_ITRx_SetConfig(htim->Instance, TIM_CLOCKSOURCE_ITR1);
 8004c5c:	682a      	ldr	r2, [r5, #0]
   tmpsmcr = TIMx->SMCR;
 8004c5e:	6893      	ldr	r3, [r2, #8]
   tmpsmcr &= ~TIM_SMCR_TS;
 8004c60:	f023 0370 	bic.w	r3, r3, #112	; 0x70
   tmpsmcr |= InputTriggerSource | TIM_SLAVEMODE_EXTERNAL1;
 8004c64:	f043 0317 	orr.w	r3, r3, #23
 8004c68:	e700      	b.n	8004a6c <HAL_TIM_ConfigClockSource+0x204>
      assert_param(IS_TIM_CLOCKSOURCE_ITRX_INSTANCE(htim->Instance));
 8004c6a:	4a0d      	ldr	r2, [pc, #52]	; (8004ca0 <HAL_TIM_ConfigClockSource+0x438>)
 8004c6c:	4293      	cmp	r3, r2
 8004c6e:	d00f      	beq.n	8004c90 <HAL_TIM_ConfigClockSource+0x428>
 8004c70:	f1b3 4f80 	cmp.w	r3, #1073741824	; 0x40000000
 8004c74:	d00c      	beq.n	8004c90 <HAL_TIM_ConfigClockSource+0x428>
 8004c76:	f5a2 3294 	sub.w	r2, r2, #75776	; 0x12800
 8004c7a:	4293      	cmp	r3, r2
 8004c7c:	d008      	beq.n	8004c90 <HAL_TIM_ConfigClockSource+0x428>
 8004c7e:	f502 6280 	add.w	r2, r2, #1024	; 0x400
 8004c82:	4293      	cmp	r3, r2
 8004c84:	d004      	beq.n	8004c90 <HAL_TIM_ConfigClockSource+0x428>
 8004c86:	f640 71f1 	movw	r1, #4081	; 0xff1
 8004c8a:	4806      	ldr	r0, [pc, #24]	; (8004ca4 <HAL_TIM_ConfigClockSource+0x43c>)
 8004c8c:	f7fd f94b 	bl	8001f26 <assert_failed>
      TIM_ITRx_SetConfig(htim->Instance, TIM_CLOCKSOURCE_ITR2);
 8004c90:	682a      	ldr	r2, [r5, #0]
   tmpsmcr = TIMx->SMCR;
 8004c92:	6893      	ldr	r3, [r2, #8]
   tmpsmcr &= ~TIM_SMCR_TS;
 8004c94:	f023 0370 	bic.w	r3, r3, #112	; 0x70
   tmpsmcr |= InputTriggerSource | TIM_SLAVEMODE_EXTERNAL1;
 8004c98:	f043 0327 	orr.w	r3, r3, #39	; 0x27
 8004c9c:	e6e6      	b.n	8004a6c <HAL_TIM_ConfigClockSource+0x204>
 8004c9e:	bf00      	nop
 8004ca0:	40012c00 	.word	0x40012c00
 8004ca4:	08006815 	.word	0x08006815

08004ca8 <HAL_TIM_PeriodElapsedCallback>:
 8004ca8:	4770      	bx	lr

08004caa <HAL_TIM_OC_DelayElapsedCallback>:
 8004caa:	4770      	bx	lr

08004cac <HAL_TIM_IC_CaptureCallback>:
 8004cac:	4770      	bx	lr

08004cae <HAL_TIM_PWM_PulseFinishedCallback>:
 8004cae:	4770      	bx	lr

08004cb0 <HAL_TIM_TriggerCallback>:
 8004cb0:	4770      	bx	lr

08004cb2 <HAL_TIM_IRQHandler>:
  if(__HAL_TIM_GET_FLAG(htim, TIM_FLAG_CC1) != RESET)
 8004cb2:	6803      	ldr	r3, [r0, #0]
{
 8004cb4:	b510      	push	{r4, lr}
  if(__HAL_TIM_GET_FLAG(htim, TIM_FLAG_CC1) != RESET)
 8004cb6:	691a      	ldr	r2, [r3, #16]
{
 8004cb8:	4604      	mov	r4, r0
  if(__HAL_TIM_GET_FLAG(htim, TIM_FLAG_CC1) != RESET)
 8004cba:	0791      	lsls	r1, r2, #30
 8004cbc:	d50e      	bpl.n	8004cdc <HAL_TIM_IRQHandler+0x2a>
    if(__HAL_TIM_GET_IT_SOURCE(htim, TIM_IT_CC1) !=RESET)
 8004cbe:	68da      	ldr	r2, [r3, #12]
 8004cc0:	0792      	lsls	r2, r2, #30
 8004cc2:	d50b      	bpl.n	8004cdc <HAL_TIM_IRQHandler+0x2a>
        __HAL_TIM_CLEAR_IT(htim, TIM_IT_CC1);
 8004cc4:	f06f 0202 	mvn.w	r2, #2
 8004cc8:	611a      	str	r2, [r3, #16]
        htim->Channel = HAL_TIM_ACTIVE_CHANNEL_1;
 8004cca:	2201      	movs	r2, #1
        if((htim->Instance->CCMR1 & TIM_CCMR1_CC1S) != 0x00U)
 8004ccc:	699b      	ldr	r3, [r3, #24]
        htim->Channel = HAL_TIM_ACTIVE_CHANNEL_1;
 8004cce:	7702      	strb	r2, [r0, #28]
        if((htim->Instance->CCMR1 & TIM_CCMR1_CC1S) != 0x00U)
 8004cd0:	079b      	lsls	r3, r3, #30
 8004cd2:	d077      	beq.n	8004dc4 <HAL_TIM_IRQHandler+0x112>
          HAL_TIM_IC_CaptureCallback(htim);
 8004cd4:	f7ff ffea 	bl	8004cac <HAL_TIM_IC_CaptureCallback>
        htim->Channel = HAL_TIM_ACTIVE_CHANNEL_CLEARED;
 8004cd8:	2300      	movs	r3, #0
 8004cda:	7723      	strb	r3, [r4, #28]
  if(__HAL_TIM_GET_FLAG(htim, TIM_FLAG_CC2) != RESET)
 8004cdc:	6823      	ldr	r3, [r4, #0]
 8004cde:	691a      	ldr	r2, [r3, #16]
 8004ce0:	0750      	lsls	r0, r2, #29
 8004ce2:	d510      	bpl.n	8004d06 <HAL_TIM_IRQHandler+0x54>
    if(__HAL_TIM_GET_IT_SOURCE(htim, TIM_IT_CC2) !=RESET)
 8004ce4:	68da      	ldr	r2, [r3, #12]
 8004ce6:	0751      	lsls	r1, r2, #29
 8004ce8:	d50d      	bpl.n	8004d06 <HAL_TIM_IRQHandler+0x54>
      __HAL_TIM_CLEAR_IT(htim, TIM_IT_CC2);
 8004cea:	f06f 0204 	mvn.w	r2, #4
 8004cee:	611a      	str	r2, [r3, #16]
      htim->Channel = HAL_TIM_ACTIVE_CHANNEL_2;
 8004cf0:	2202      	movs	r2, #2
      if((htim->Instance->CCMR1 & TIM_CCMR1_CC2S) != 0x00U)
 8004cf2:	699b      	ldr	r3, [r3, #24]
      htim->Channel = HAL_TIM_ACTIVE_CHANNEL_2;
 8004cf4:	7722      	strb	r2, [r4, #28]
      if((htim->Instance->CCMR1 & TIM_CCMR1_CC2S) != 0x00U)
 8004cf6:	f413 7f40 	tst.w	r3, #768	; 0x300
        HAL_TIM_IC_CaptureCallback(htim);
 8004cfa:	4620      	mov	r0, r4
      if((htim->Instance->CCMR1 & TIM_CCMR1_CC2S) != 0x00U)
 8004cfc:	d068      	beq.n	8004dd0 <HAL_TIM_IRQHandler+0x11e>
        HAL_TIM_IC_CaptureCallback(htim);
 8004cfe:	f7ff ffd5 	bl	8004cac <HAL_TIM_IC_CaptureCallback>
      htim->Channel = HAL_TIM_ACTIVE_CHANNEL_CLEARED;
 8004d02:	2300      	movs	r3, #0
 8004d04:	7723      	strb	r3, [r4, #28]
  if(__HAL_TIM_GET_FLAG(htim, TIM_FLAG_CC3) != RESET)
 8004d06:	6823      	ldr	r3, [r4, #0]
 8004d08:	691a      	ldr	r2, [r3, #16]
 8004d0a:	0712      	lsls	r2, r2, #28
 8004d0c:	d50f      	bpl.n	8004d2e <HAL_TIM_IRQHandler+0x7c>
    if(__HAL_TIM_GET_IT_SOURCE(htim, TIM_IT_CC3) !=RESET)
 8004d0e:	68da      	ldr	r2, [r3, #12]
 8004d10:	0710      	lsls	r0, r2, #28
 8004d12:	d50c      	bpl.n	8004d2e <HAL_TIM_IRQHandler+0x7c>
      __HAL_TIM_CLEAR_IT(htim, TIM_IT_CC3);
 8004d14:	f06f 0208 	mvn.w	r2, #8
 8004d18:	611a      	str	r2, [r3, #16]
      htim->Channel = HAL_TIM_ACTIVE_CHANNEL_3;
 8004d1a:	2204      	movs	r2, #4
      if((htim->Instance->CCMR2 & TIM_CCMR2_CC3S) != 0x00U)
 8004d1c:	69db      	ldr	r3, [r3, #28]
      htim->Channel = HAL_TIM_ACTIVE_CHANNEL_3;
 8004d1e:	7722      	strb	r2, [r4, #28]
      if((htim->Instance->CCMR2 & TIM_CCMR2_CC3S) != 0x00U)
 8004d20:	0799      	lsls	r1, r3, #30
        HAL_TIM_IC_CaptureCallback(htim);
 8004d22:	4620      	mov	r0, r4
      if((htim->Instance->CCMR2 & TIM_CCMR2_CC3S) != 0x00U)
 8004d24:	d05a      	beq.n	8004ddc <HAL_TIM_IRQHandler+0x12a>
        HAL_TIM_IC_CaptureCallback(htim);
 8004d26:	f7ff ffc1 	bl	8004cac <HAL_TIM_IC_CaptureCallback>
      htim->Channel = HAL_TIM_ACTIVE_CHANNEL_CLEARED;
 8004d2a:	2300      	movs	r3, #0
 8004d2c:	7723      	strb	r3, [r4, #28]
  if(__HAL_TIM_GET_FLAG(htim, TIM_FLAG_CC4) != RESET)
 8004d2e:	6823      	ldr	r3, [r4, #0]
 8004d30:	691a      	ldr	r2, [r3, #16]
 8004d32:	06d2      	lsls	r2, r2, #27
 8004d34:	d510      	bpl.n	8004d58 <HAL_TIM_IRQHandler+0xa6>
    if(__HAL_TIM_GET_IT_SOURCE(htim, TIM_IT_CC4) !=RESET)
 8004d36:	68da      	ldr	r2, [r3, #12]
 8004d38:	06d0      	lsls	r0, r2, #27
 8004d3a:	d50d      	bpl.n	8004d58 <HAL_TIM_IRQHandler+0xa6>
      __HAL_TIM_CLEAR_IT(htim, TIM_IT_CC4);
 8004d3c:	f06f 0210 	mvn.w	r2, #16
 8004d40:	611a      	str	r2, [r3, #16]
      htim->Channel = HAL_TIM_ACTIVE_CHANNEL_4;
 8004d42:	2208      	movs	r2, #8
      if((htim->Instance->CCMR2 & TIM_CCMR2_CC4S) != 0x00U)
 8004d44:	69db      	ldr	r3, [r3, #28]
      htim->Channel = HAL_TIM_ACTIVE_CHANNEL_4;
 8004d46:	7722      	strb	r2, [r4, #28]
      if((htim->Instance->CCMR2 & TIM_CCMR2_CC4S) != 0x00U)
 8004d48:	f413 7f40 	tst.w	r3, #768	; 0x300
        HAL_TIM_IC_CaptureCallback(htim);
 8004d4c:	4620      	mov	r0, r4
      if((htim->Instance->CCMR2 & TIM_CCMR2_CC4S) != 0x00U)
 8004d4e:	d04b      	beq.n	8004de8 <HAL_TIM_IRQHandler+0x136>
        HAL_TIM_IC_CaptureCallback(htim);
 8004d50:	f7ff ffac 	bl	8004cac <HAL_TIM_IC_CaptureCallback>
      htim->Channel = HAL_TIM_ACTIVE_CHANNEL_CLEARED;
 8004d54:	2300      	movs	r3, #0
 8004d56:	7723      	strb	r3, [r4, #28]
  if(__HAL_TIM_GET_FLAG(htim, TIM_FLAG_UPDATE) != RESET)
 8004d58:	6823      	ldr	r3, [r4, #0]
 8004d5a:	691a      	ldr	r2, [r3, #16]
 8004d5c:	07d1      	lsls	r1, r2, #31
 8004d5e:	d508      	bpl.n	8004d72 <HAL_TIM_IRQHandler+0xc0>
    if(__HAL_TIM_GET_IT_SOURCE(htim, TIM_IT_UPDATE) !=RESET)
 8004d60:	68da      	ldr	r2, [r3, #12]
 8004d62:	07d2      	lsls	r2, r2, #31
 8004d64:	d505      	bpl.n	8004d72 <HAL_TIM_IRQHandler+0xc0>
      __HAL_TIM_CLEAR_IT(htim, TIM_IT_UPDATE);
 8004d66:	f06f 0201 	mvn.w	r2, #1
      HAL_TIM_PeriodElapsedCallback(htim);
 8004d6a:	4620      	mov	r0, r4
      __HAL_TIM_CLEAR_IT(htim, TIM_IT_UPDATE);
 8004d6c:	611a      	str	r2, [r3, #16]
      HAL_TIM_PeriodElapsedCallback(htim);
 8004d6e:	f7ff ff9b 	bl	8004ca8 <HAL_TIM_PeriodElapsedCallback>
  if(__HAL_TIM_GET_FLAG(htim, TIM_FLAG_BREAK) != RESET)
 8004d72:	6823      	ldr	r3, [r4, #0]
 8004d74:	691a      	ldr	r2, [r3, #16]
 8004d76:	0610      	lsls	r0, r2, #24
 8004d78:	d508      	bpl.n	8004d8c <HAL_TIM_IRQHandler+0xda>
    if(__HAL_TIM_GET_IT_SOURCE(htim, TIM_IT_BREAK) !=RESET)
 8004d7a:	68da      	ldr	r2, [r3, #12]
 8004d7c:	0611      	lsls	r1, r2, #24
 8004d7e:	d505      	bpl.n	8004d8c <HAL_TIM_IRQHandler+0xda>
      __HAL_TIM_CLEAR_IT(htim, TIM_IT_BREAK);
 8004d80:	f06f 0280 	mvn.w	r2, #128	; 0x80
      HAL_TIMEx_BreakCallback(htim);
 8004d84:	4620      	mov	r0, r4
      __HAL_TIM_CLEAR_IT(htim, TIM_IT_BREAK);
 8004d86:	611a      	str	r2, [r3, #16]
      HAL_TIMEx_BreakCallback(htim);
 8004d88:	f000 fc15 	bl	80055b6 <HAL_TIMEx_BreakCallback>
  if(__HAL_TIM_GET_FLAG(htim, TIM_FLAG_TRIGGER) != RESET)
 8004d8c:	6823      	ldr	r3, [r4, #0]
 8004d8e:	691a      	ldr	r2, [r3, #16]
 8004d90:	0652      	lsls	r2, r2, #25
 8004d92:	d508      	bpl.n	8004da6 <HAL_TIM_IRQHandler+0xf4>
    if(__HAL_TIM_GET_IT_SOURCE(htim, TIM_IT_TRIGGER) !=RESET)
 8004d94:	68da      	ldr	r2, [r3, #12]
 8004d96:	0650      	lsls	r0, r2, #25
 8004d98:	d505      	bpl.n	8004da6 <HAL_TIM_IRQHandler+0xf4>
      __HAL_TIM_CLEAR_IT(htim, TIM_IT_TRIGGER);
 8004d9a:	f06f 0240 	mvn.w	r2, #64	; 0x40
      HAL_TIM_TriggerCallback(htim);
 8004d9e:	4620      	mov	r0, r4
      __HAL_TIM_CLEAR_IT(htim, TIM_IT_TRIGGER);
 8004da0:	611a      	str	r2, [r3, #16]
      HAL_TIM_TriggerCallback(htim);
 8004da2:	f7ff ff85 	bl	8004cb0 <HAL_TIM_TriggerCallback>
  if(__HAL_TIM_GET_FLAG(htim, TIM_FLAG_COM) != RESET)
 8004da6:	6823      	ldr	r3, [r4, #0]
 8004da8:	691a      	ldr	r2, [r3, #16]
 8004daa:	0691      	lsls	r1, r2, #26
 8004dac:	d522      	bpl.n	8004df4 <HAL_TIM_IRQHandler+0x142>
    if(__HAL_TIM_GET_IT_SOURCE(htim, TIM_IT_COM) !=RESET)
 8004dae:	68da      	ldr	r2, [r3, #12]
 8004db0:	0692      	lsls	r2, r2, #26
 8004db2:	d51f      	bpl.n	8004df4 <HAL_TIM_IRQHandler+0x142>
      __HAL_TIM_CLEAR_IT(htim, TIM_FLAG_COM);
 8004db4:	f06f 0220 	mvn.w	r2, #32
      HAL_TIMEx_CommutationCallback(htim);
 8004db8:	4620      	mov	r0, r4
}
 8004dba:	e8bd 4010 	ldmia.w	sp!, {r4, lr}
      __HAL_TIM_CLEAR_IT(htim, TIM_FLAG_COM);
 8004dbe:	611a      	str	r2, [r3, #16]
      HAL_TIMEx_CommutationCallback(htim);
 8004dc0:	f000 bbf8 	b.w	80055b4 <HAL_TIMEx_CommutationCallback>
          HAL_TIM_OC_DelayElapsedCallback(htim);
 8004dc4:	f7ff ff71 	bl	8004caa <HAL_TIM_OC_DelayElapsedCallback>
          HAL_TIM_PWM_PulseFinishedCallback(htim);
 8004dc8:	4620      	mov	r0, r4
 8004dca:	f7ff ff70 	bl	8004cae <HAL_TIM_PWM_PulseFinishedCallback>
 8004dce:	e783      	b.n	8004cd8 <HAL_TIM_IRQHandler+0x26>
        HAL_TIM_OC_DelayElapsedCallback(htim);
 8004dd0:	f7ff ff6b 	bl	8004caa <HAL_TIM_OC_DelayElapsedCallback>
        HAL_TIM_PWM_PulseFinishedCallback(htim);
 8004dd4:	4620      	mov	r0, r4
 8004dd6:	f7ff ff6a 	bl	8004cae <HAL_TIM_PWM_PulseFinishedCallback>
 8004dda:	e792      	b.n	8004d02 <HAL_TIM_IRQHandler+0x50>
        HAL_TIM_OC_DelayElapsedCallback(htim);
 8004ddc:	f7ff ff65 	bl	8004caa <HAL_TIM_OC_DelayElapsedCallback>
        HAL_TIM_PWM_PulseFinishedCallback(htim);
 8004de0:	4620      	mov	r0, r4
 8004de2:	f7ff ff64 	bl	8004cae <HAL_TIM_PWM_PulseFinishedCallback>
 8004de6:	e7a0      	b.n	8004d2a <HAL_TIM_IRQHandler+0x78>
        HAL_TIM_OC_DelayElapsedCallback(htim);
 8004de8:	f7ff ff5f 	bl	8004caa <HAL_TIM_OC_DelayElapsedCallback>
        HAL_TIM_PWM_PulseFinishedCallback(htim);
 8004dec:	4620      	mov	r0, r4
 8004dee:	f7ff ff5e 	bl	8004cae <HAL_TIM_PWM_PulseFinishedCallback>
 8004df2:	e7af      	b.n	8004d54 <HAL_TIM_IRQHandler+0xa2>
 8004df4:	bd10      	pop	{r4, pc}
	...

08004df8 <TIM_Base_SetConfig>:
  if (IS_TIM_COUNTER_MODE_SELECT_INSTANCE(TIMx))
 8004df8:	4a1a      	ldr	r2, [pc, #104]	; (8004e64 <TIM_Base_SetConfig+0x6c>)
  tmpcr1 = TIMx->CR1;
 8004dfa:	6803      	ldr	r3, [r0, #0]
  if (IS_TIM_COUNTER_MODE_SELECT_INSTANCE(TIMx))
 8004dfc:	4290      	cmp	r0, r2
 8004dfe:	d00a      	beq.n	8004e16 <TIM_Base_SetConfig+0x1e>
 8004e00:	f1b0 4f80 	cmp.w	r0, #1073741824	; 0x40000000
 8004e04:	d007      	beq.n	8004e16 <TIM_Base_SetConfig+0x1e>
 8004e06:	f5a2 3294 	sub.w	r2, r2, #75776	; 0x12800
 8004e0a:	4290      	cmp	r0, r2
 8004e0c:	d003      	beq.n	8004e16 <TIM_Base_SetConfig+0x1e>
 8004e0e:	f502 6280 	add.w	r2, r2, #1024	; 0x400
 8004e12:	4290      	cmp	r0, r2
 8004e14:	d115      	bne.n	8004e42 <TIM_Base_SetConfig+0x4a>
    tmpcr1 |= Structure->CounterMode;
 8004e16:	684a      	ldr	r2, [r1, #4]
    tmpcr1 &= ~(TIM_CR1_DIR | TIM_CR1_CMS);
 8004e18:	f023 0370 	bic.w	r3, r3, #112	; 0x70
    tmpcr1 |= Structure->CounterMode;
 8004e1c:	4313      	orrs	r3, r2
  if(IS_TIM_CLOCK_DIVISION_INSTANCE(TIMx))
 8004e1e:	4a11      	ldr	r2, [pc, #68]	; (8004e64 <TIM_Base_SetConfig+0x6c>)
 8004e20:	4290      	cmp	r0, r2
 8004e22:	d00a      	beq.n	8004e3a <TIM_Base_SetConfig+0x42>
 8004e24:	f1b0 4f80 	cmp.w	r0, #1073741824	; 0x40000000
 8004e28:	d007      	beq.n	8004e3a <TIM_Base_SetConfig+0x42>
 8004e2a:	f5a2 3294 	sub.w	r2, r2, #75776	; 0x12800
 8004e2e:	4290      	cmp	r0, r2
 8004e30:	d003      	beq.n	8004e3a <TIM_Base_SetConfig+0x42>
 8004e32:	f502 6280 	add.w	r2, r2, #1024	; 0x400
 8004e36:	4290      	cmp	r0, r2
 8004e38:	d103      	bne.n	8004e42 <TIM_Base_SetConfig+0x4a>
    tmpcr1 |= (uint32_t)Structure->ClockDivision;
 8004e3a:	68ca      	ldr	r2, [r1, #12]
    tmpcr1 &= ~TIM_CR1_CKD;
 8004e3c:	f423 7340 	bic.w	r3, r3, #768	; 0x300
    tmpcr1 |= (uint32_t)Structure->ClockDivision;
 8004e40:	4313      	orrs	r3, r2
  tmpcr1 |= (uint32_t)Structure->AutoReloadPreload;
 8004e42:	694a      	ldr	r2, [r1, #20]
  tmpcr1 &= ~TIM_CR1_ARPE;
 8004e44:	f023 0380 	bic.w	r3, r3, #128	; 0x80
  tmpcr1 |= (uint32_t)Structure->AutoReloadPreload;
 8004e48:	4313      	orrs	r3, r2
  TIMx->CR1 = tmpcr1;
 8004e4a:	6003      	str	r3, [r0, #0]
  TIMx->ARR = (uint32_t)Structure->Period ;
 8004e4c:	688b      	ldr	r3, [r1, #8]
 8004e4e:	62c3      	str	r3, [r0, #44]	; 0x2c
  TIMx->PSC = (uint32_t)Structure->Prescaler;
 8004e50:	680b      	ldr	r3, [r1, #0]
 8004e52:	6283      	str	r3, [r0, #40]	; 0x28
  if (IS_TIM_REPETITION_COUNTER_INSTANCE(TIMx))
 8004e54:	4b03      	ldr	r3, [pc, #12]	; (8004e64 <TIM_Base_SetConfig+0x6c>)
 8004e56:	4298      	cmp	r0, r3
    TIMx->RCR = Structure->RepetitionCounter;
 8004e58:	bf04      	itt	eq
 8004e5a:	690b      	ldreq	r3, [r1, #16]
 8004e5c:	6303      	streq	r3, [r0, #48]	; 0x30
  TIMx->EGR = TIM_EGR_UG;
 8004e5e:	2301      	movs	r3, #1
 8004e60:	6143      	str	r3, [r0, #20]
 8004e62:	4770      	bx	lr
 8004e64:	40012c00 	.word	0x40012c00

08004e68 <HAL_TIM_Base_Init>:
{
 8004e68:	b510      	push	{r4, lr}
  if(htim == NULL)
 8004e6a:	4604      	mov	r4, r0
 8004e6c:	2800      	cmp	r0, #0
 8004e6e:	d049      	beq.n	8004f04 <HAL_TIM_Base_Init+0x9c>
  assert_param(IS_TIM_INSTANCE(htim->Instance));
 8004e70:	6803      	ldr	r3, [r0, #0]
 8004e72:	4a25      	ldr	r2, [pc, #148]	; (8004f08 <HAL_TIM_Base_Init+0xa0>)
 8004e74:	4293      	cmp	r3, r2
 8004e76:	d00e      	beq.n	8004e96 <HAL_TIM_Base_Init+0x2e>
 8004e78:	f1b3 4f80 	cmp.w	r3, #1073741824	; 0x40000000
 8004e7c:	d00b      	beq.n	8004e96 <HAL_TIM_Base_Init+0x2e>
 8004e7e:	f5a2 3294 	sub.w	r2, r2, #75776	; 0x12800
 8004e82:	4293      	cmp	r3, r2
 8004e84:	d007      	beq.n	8004e96 <HAL_TIM_Base_Init+0x2e>
 8004e86:	f502 6280 	add.w	r2, r2, #1024	; 0x400
 8004e8a:	4293      	cmp	r3, r2
 8004e8c:	d003      	beq.n	8004e96 <HAL_TIM_Base_Init+0x2e>
 8004e8e:	21d9      	movs	r1, #217	; 0xd9
 8004e90:	481e      	ldr	r0, [pc, #120]	; (8004f0c <HAL_TIM_Base_Init+0xa4>)
 8004e92:	f7fd f848 	bl	8001f26 <assert_failed>
  assert_param(IS_TIM_COUNTER_MODE(htim->Init.CounterMode));
 8004e96:	68a3      	ldr	r3, [r4, #8]
 8004e98:	f033 0210 	bics.w	r2, r3, #16
 8004e9c:	d009      	beq.n	8004eb2 <HAL_TIM_Base_Init+0x4a>
 8004e9e:	f023 0240 	bic.w	r2, r3, #64	; 0x40
 8004ea2:	2a20      	cmp	r2, #32
 8004ea4:	d005      	beq.n	8004eb2 <HAL_TIM_Base_Init+0x4a>
 8004ea6:	2b40      	cmp	r3, #64	; 0x40
 8004ea8:	d003      	beq.n	8004eb2 <HAL_TIM_Base_Init+0x4a>
 8004eaa:	21da      	movs	r1, #218	; 0xda
 8004eac:	4817      	ldr	r0, [pc, #92]	; (8004f0c <HAL_TIM_Base_Init+0xa4>)
 8004eae:	f7fd f83a 	bl	8001f26 <assert_failed>
  assert_param(IS_TIM_CLOCKDIVISION_DIV(htim->Init.ClockDivision));
 8004eb2:	6923      	ldr	r3, [r4, #16]
 8004eb4:	f433 7280 	bics.w	r2, r3, #256	; 0x100
 8004eb8:	d006      	beq.n	8004ec8 <HAL_TIM_Base_Init+0x60>
 8004eba:	f5b3 7f00 	cmp.w	r3, #512	; 0x200
 8004ebe:	d003      	beq.n	8004ec8 <HAL_TIM_Base_Init+0x60>
 8004ec0:	21db      	movs	r1, #219	; 0xdb
 8004ec2:	4812      	ldr	r0, [pc, #72]	; (8004f0c <HAL_TIM_Base_Init+0xa4>)
 8004ec4:	f7fd f82f 	bl	8001f26 <assert_failed>
  assert_param(IS_TIM_AUTORELOAD_PRELOAD(htim->Init.AutoReloadPreload));
 8004ec8:	69a3      	ldr	r3, [r4, #24]
 8004eca:	f033 0380 	bics.w	r3, r3, #128	; 0x80
 8004ece:	d003      	beq.n	8004ed8 <HAL_TIM_Base_Init+0x70>
 8004ed0:	21dc      	movs	r1, #220	; 0xdc
 8004ed2:	480e      	ldr	r0, [pc, #56]	; (8004f0c <HAL_TIM_Base_Init+0xa4>)
 8004ed4:	f7fd f827 	bl	8001f26 <assert_failed>
  if(htim->State == HAL_TIM_STATE_RESET)
 8004ed8:	f894 303d 	ldrb.w	r3, [r4, #61]	; 0x3d
 8004edc:	f003 02ff 	and.w	r2, r3, #255	; 0xff
 8004ee0:	b923      	cbnz	r3, 8004eec <HAL_TIM_Base_Init+0x84>
    htim->Lock = HAL_UNLOCKED;
 8004ee2:	f884 203c 	strb.w	r2, [r4, #60]	; 0x3c
    HAL_TIM_Base_MspInit(htim);
 8004ee6:	4620      	mov	r0, r4
 8004ee8:	f7fd fb56 	bl	8002598 <HAL_TIM_Base_MspInit>
  htim->State= HAL_TIM_STATE_BUSY;
 8004eec:	2302      	movs	r3, #2
  TIM_Base_SetConfig(htim->Instance, &htim->Init);
 8004eee:	6820      	ldr	r0, [r4, #0]
  htim->State= HAL_TIM_STATE_BUSY;
 8004ef0:	f884 303d 	strb.w	r3, [r4, #61]	; 0x3d
  TIM_Base_SetConfig(htim->Instance, &htim->Init);
 8004ef4:	1d21      	adds	r1, r4, #4
 8004ef6:	f7ff ff7f 	bl	8004df8 <TIM_Base_SetConfig>
  htim->State= HAL_TIM_STATE_READY;
 8004efa:	2301      	movs	r3, #1
  return HAL_OK;
 8004efc:	2000      	movs	r0, #0
  htim->State= HAL_TIM_STATE_READY;
 8004efe:	f884 303d 	strb.w	r3, [r4, #61]	; 0x3d
  return HAL_OK;
 8004f02:	bd10      	pop	{r4, pc}
    return HAL_ERROR;
 8004f04:	2001      	movs	r0, #1
}
 8004f06:	bd10      	pop	{r4, pc}
 8004f08:	40012c00 	.word	0x40012c00
 8004f0c:	08006815 	.word	0x08006815

08004f10 <HAL_TIM_OC_Init>:
{
 8004f10:	b510      	push	{r4, lr}
  if(htim == NULL)
 8004f12:	4604      	mov	r4, r0
 8004f14:	2800      	cmp	r0, #0
 8004f16:	d04d      	beq.n	8004fb4 <HAL_TIM_OC_Init+0xa4>
  assert_param(IS_TIM_INSTANCE(htim->Instance));
 8004f18:	6803      	ldr	r3, [r0, #0]
 8004f1a:	4a27      	ldr	r2, [pc, #156]	; (8004fb8 <HAL_TIM_OC_Init+0xa8>)
 8004f1c:	4293      	cmp	r3, r2
 8004f1e:	d00f      	beq.n	8004f40 <HAL_TIM_OC_Init+0x30>
 8004f20:	f1b3 4f80 	cmp.w	r3, #1073741824	; 0x40000000
 8004f24:	d00c      	beq.n	8004f40 <HAL_TIM_OC_Init+0x30>
 8004f26:	f5a2 3294 	sub.w	r2, r2, #75776	; 0x12800
 8004f2a:	4293      	cmp	r3, r2
 8004f2c:	d008      	beq.n	8004f40 <HAL_TIM_OC_Init+0x30>
 8004f2e:	f502 6280 	add.w	r2, r2, #1024	; 0x400
 8004f32:	4293      	cmp	r3, r2
 8004f34:	d004      	beq.n	8004f40 <HAL_TIM_OC_Init+0x30>
 8004f36:	f240 11f1 	movw	r1, #497	; 0x1f1
 8004f3a:	4820      	ldr	r0, [pc, #128]	; (8004fbc <HAL_TIM_OC_Init+0xac>)
 8004f3c:	f7fc fff3 	bl	8001f26 <assert_failed>
  assert_param(IS_TIM_COUNTER_MODE(htim->Init.CounterMode));
 8004f40:	68a3      	ldr	r3, [r4, #8]
 8004f42:	f033 0210 	bics.w	r2, r3, #16
 8004f46:	d00a      	beq.n	8004f5e <HAL_TIM_OC_Init+0x4e>
 8004f48:	f023 0240 	bic.w	r2, r3, #64	; 0x40
 8004f4c:	2a20      	cmp	r2, #32
 8004f4e:	d006      	beq.n	8004f5e <HAL_TIM_OC_Init+0x4e>
 8004f50:	2b40      	cmp	r3, #64	; 0x40
 8004f52:	d004      	beq.n	8004f5e <HAL_TIM_OC_Init+0x4e>
 8004f54:	f44f 71f9 	mov.w	r1, #498	; 0x1f2
 8004f58:	4818      	ldr	r0, [pc, #96]	; (8004fbc <HAL_TIM_OC_Init+0xac>)
 8004f5a:	f7fc ffe4 	bl	8001f26 <assert_failed>
  assert_param(IS_TIM_CLOCKDIVISION_DIV(htim->Init.ClockDivision));
 8004f5e:	6923      	ldr	r3, [r4, #16]
 8004f60:	f433 7280 	bics.w	r2, r3, #256	; 0x100
 8004f64:	d007      	beq.n	8004f76 <HAL_TIM_OC_Init+0x66>
 8004f66:	f5b3 7f00 	cmp.w	r3, #512	; 0x200
 8004f6a:	d004      	beq.n	8004f76 <HAL_TIM_OC_Init+0x66>
 8004f6c:	f240 11f3 	movw	r1, #499	; 0x1f3
 8004f70:	4812      	ldr	r0, [pc, #72]	; (8004fbc <HAL_TIM_OC_Init+0xac>)
 8004f72:	f7fc ffd8 	bl	8001f26 <assert_failed>
  assert_param(IS_TIM_AUTORELOAD_PRELOAD(htim->Init.AutoReloadPreload));
 8004f76:	69a3      	ldr	r3, [r4, #24]
 8004f78:	f033 0380 	bics.w	r3, r3, #128	; 0x80
 8004f7c:	d004      	beq.n	8004f88 <HAL_TIM_OC_Init+0x78>
 8004f7e:	f44f 71fa 	mov.w	r1, #500	; 0x1f4
 8004f82:	480e      	ldr	r0, [pc, #56]	; (8004fbc <HAL_TIM_OC_Init+0xac>)
 8004f84:	f7fc ffcf 	bl	8001f26 <assert_failed>
  if(htim->State == HAL_TIM_STATE_RESET)
 8004f88:	f894 303d 	ldrb.w	r3, [r4, #61]	; 0x3d
 8004f8c:	f003 02ff 	and.w	r2, r3, #255	; 0xff
 8004f90:	b923      	cbnz	r3, 8004f9c <HAL_TIM_OC_Init+0x8c>
    htim->Lock = HAL_UNLOCKED;
 8004f92:	f884 203c 	strb.w	r2, [r4, #60]	; 0x3c
    HAL_TIM_OC_MspInit(htim);
 8004f96:	4620      	mov	r0, r4
 8004f98:	f7ff fc64 	bl	8004864 <HAL_TIM_OC_MspInit>
  htim->State= HAL_TIM_STATE_BUSY;
 8004f9c:	2302      	movs	r3, #2
  TIM_Base_SetConfig(htim->Instance,  &htim->Init);
 8004f9e:	6820      	ldr	r0, [r4, #0]
  htim->State= HAL_TIM_STATE_BUSY;
 8004fa0:	f884 303d 	strb.w	r3, [r4, #61]	; 0x3d
  TIM_Base_SetConfig(htim->Instance,  &htim->Init);
 8004fa4:	1d21      	adds	r1, r4, #4
 8004fa6:	f7ff ff27 	bl	8004df8 <TIM_Base_SetConfig>
  htim->State= HAL_TIM_STATE_READY;
 8004faa:	2301      	movs	r3, #1
  return HAL_OK;
 8004fac:	2000      	movs	r0, #0
  htim->State= HAL_TIM_STATE_READY;
 8004fae:	f884 303d 	strb.w	r3, [r4, #61]	; 0x3d
  return HAL_OK;
 8004fb2:	bd10      	pop	{r4, pc}
    return HAL_ERROR;
 8004fb4:	2001      	movs	r0, #1
}
 8004fb6:	bd10      	pop	{r4, pc}
 8004fb8:	40012c00 	.word	0x40012c00
 8004fbc:	08006815 	.word	0x08006815

08004fc0 <HAL_TIM_PWM_Init>:
{
 8004fc0:	b510      	push	{r4, lr}
  if(htim == NULL)
 8004fc2:	4604      	mov	r4, r0
 8004fc4:	2800      	cmp	r0, #0
 8004fc6:	d04d      	beq.n	8005064 <HAL_TIM_PWM_Init+0xa4>
  assert_param(IS_TIM_INSTANCE(htim->Instance));
 8004fc8:	6803      	ldr	r3, [r0, #0]
 8004fca:	4a27      	ldr	r2, [pc, #156]	; (8005068 <HAL_TIM_PWM_Init+0xa8>)
 8004fcc:	4293      	cmp	r3, r2
 8004fce:	d00f      	beq.n	8004ff0 <HAL_TIM_PWM_Init+0x30>
 8004fd0:	f1b3 4f80 	cmp.w	r3, #1073741824	; 0x40000000
 8004fd4:	d00c      	beq.n	8004ff0 <HAL_TIM_PWM_Init+0x30>
 8004fd6:	f5a2 3294 	sub.w	r2, r2, #75776	; 0x12800
 8004fda:	4293      	cmp	r3, r2
 8004fdc:	d008      	beq.n	8004ff0 <HAL_TIM_PWM_Init+0x30>
 8004fde:	f502 6280 	add.w	r2, r2, #1024	; 0x400
 8004fe2:	4293      	cmp	r3, r2
 8004fe4:	d004      	beq.n	8004ff0 <HAL_TIM_PWM_Init+0x30>
 8004fe6:	f240 31ee 	movw	r1, #1006	; 0x3ee
 8004fea:	4820      	ldr	r0, [pc, #128]	; (800506c <HAL_TIM_PWM_Init+0xac>)
 8004fec:	f7fc ff9b 	bl	8001f26 <assert_failed>
  assert_param(IS_TIM_COUNTER_MODE(htim->Init.CounterMode));
 8004ff0:	68a3      	ldr	r3, [r4, #8]
 8004ff2:	f033 0210 	bics.w	r2, r3, #16
 8004ff6:	d00a      	beq.n	800500e <HAL_TIM_PWM_Init+0x4e>
 8004ff8:	f023 0240 	bic.w	r2, r3, #64	; 0x40
 8004ffc:	2a20      	cmp	r2, #32
 8004ffe:	d006      	beq.n	800500e <HAL_TIM_PWM_Init+0x4e>
 8005000:	2b40      	cmp	r3, #64	; 0x40
 8005002:	d004      	beq.n	800500e <HAL_TIM_PWM_Init+0x4e>
 8005004:	f240 31ef 	movw	r1, #1007	; 0x3ef
 8005008:	4818      	ldr	r0, [pc, #96]	; (800506c <HAL_TIM_PWM_Init+0xac>)
 800500a:	f7fc ff8c 	bl	8001f26 <assert_failed>
  assert_param(IS_TIM_CLOCKDIVISION_DIV(htim->Init.ClockDivision));
 800500e:	6923      	ldr	r3, [r4, #16]
 8005010:	f433 7280 	bics.w	r2, r3, #256	; 0x100
 8005014:	d007      	beq.n	8005026 <HAL_TIM_PWM_Init+0x66>
 8005016:	f5b3 7f00 	cmp.w	r3, #512	; 0x200
 800501a:	d004      	beq.n	8005026 <HAL_TIM_PWM_Init+0x66>
 800501c:	f44f 717c 	mov.w	r1, #1008	; 0x3f0
 8005020:	4812      	ldr	r0, [pc, #72]	; (800506c <HAL_TIM_PWM_Init+0xac>)
 8005022:	f7fc ff80 	bl	8001f26 <assert_failed>
  assert_param(IS_TIM_AUTORELOAD_PRELOAD(htim->Init.AutoReloadPreload));
 8005026:	69a3      	ldr	r3, [r4, #24]
 8005028:	f033 0380 	bics.w	r3, r3, #128	; 0x80
 800502c:	d004      	beq.n	8005038 <HAL_TIM_PWM_Init+0x78>
 800502e:	f240 31f1 	movw	r1, #1009	; 0x3f1
 8005032:	480e      	ldr	r0, [pc, #56]	; (800506c <HAL_TIM_PWM_Init+0xac>)
 8005034:	f7fc ff77 	bl	8001f26 <assert_failed>
  if(htim->State == HAL_TIM_STATE_RESET)
 8005038:	f894 303d 	ldrb.w	r3, [r4, #61]	; 0x3d
 800503c:	f003 02ff 	and.w	r2, r3, #255	; 0xff
 8005040:	b923      	cbnz	r3, 800504c <HAL_TIM_PWM_Init+0x8c>
    htim->Lock = HAL_UNLOCKED;
 8005042:	f884 203c 	strb.w	r2, [r4, #60]	; 0x3c
    HAL_TIM_PWM_MspInit(htim);
 8005046:	4620      	mov	r0, r4
 8005048:	f7ff fc0d 	bl	8004866 <HAL_TIM_PWM_MspInit>
  htim->State= HAL_TIM_STATE_BUSY;
 800504c:	2302      	movs	r3, #2
  TIM_Base_SetConfig(htim->Instance, &htim->Init);
 800504e:	6820      	ldr	r0, [r4, #0]
  htim->State= HAL_TIM_STATE_BUSY;
 8005050:	f884 303d 	strb.w	r3, [r4, #61]	; 0x3d
  TIM_Base_SetConfig(htim->Instance, &htim->Init);
 8005054:	1d21      	adds	r1, r4, #4
 8005056:	f7ff fecf 	bl	8004df8 <TIM_Base_SetConfig>
  htim->State= HAL_TIM_STATE_READY;
 800505a:	2301      	movs	r3, #1
  return HAL_OK;
 800505c:	2000      	movs	r0, #0
  htim->State= HAL_TIM_STATE_READY;
 800505e:	f884 303d 	strb.w	r3, [r4, #61]	; 0x3d
  return HAL_OK;
 8005062:	bd10      	pop	{r4, pc}
    return HAL_ERROR;
 8005064:	2001      	movs	r0, #1
}
 8005066:	bd10      	pop	{r4, pc}
 8005068:	40012c00 	.word	0x40012c00
 800506c:	08006815 	.word	0x08006815

08005070 <TIM_OC2_SetConfig>:
  TIMx->CCER &= ~TIM_CCER_CC2E;
 8005070:	6a03      	ldr	r3, [r0, #32]
{
 8005072:	e92d 41f0 	stmdb	sp!, {r4, r5, r6, r7, r8, lr}
  TIMx->CCER &= ~TIM_CCER_CC2E;
 8005076:	f023 0310 	bic.w	r3, r3, #16
 800507a:	6203      	str	r3, [r0, #32]
  tmpccer = TIMx->CCER;
 800507c:	6a04      	ldr	r4, [r0, #32]
  tmpcr2 =  TIMx->CR2;
 800507e:	f8d0 8004 	ldr.w	r8, [r0, #4]
  tmpccmrx = TIMx->CCMR1;
 8005082:	6986      	ldr	r6, [r0, #24]
  tmpccmrx |= (OC_Config->OCMode << 8U);
 8005084:	680b      	ldr	r3, [r1, #0]
  tmpccmrx &= ~TIM_CCMR1_CC2S;
 8005086:	f426 46e6 	bic.w	r6, r6, #29440	; 0x7300
  tmpccmrx |= (OC_Config->OCMode << 8U);
 800508a:	ea46 2603 	orr.w	r6, r6, r3, lsl #8
  tmpccer |= (OC_Config->OCPolarity << 4U);
 800508e:	688b      	ldr	r3, [r1, #8]
  tmpccer &= ~TIM_CCER_CC2P;
 8005090:	f024 0420 	bic.w	r4, r4, #32
  tmpccer |= (OC_Config->OCPolarity << 4U);
 8005094:	ea44 1403 	orr.w	r4, r4, r3, lsl #4
  if(IS_TIM_CCXN_INSTANCE(TIMx, TIM_CHANNEL_2))
 8005098:	4b1a      	ldr	r3, [pc, #104]	; (8005104 <TIM_OC2_SetConfig+0x94>)
{
 800509a:	4605      	mov	r5, r0
  if(IS_TIM_CCXN_INSTANCE(TIMx, TIM_CHANNEL_2))
 800509c:	4298      	cmp	r0, r3
{
 800509e:	460f      	mov	r7, r1
  if(IS_TIM_CCXN_INSTANCE(TIMx, TIM_CHANNEL_2))
 80050a0:	d128      	bne.n	80050f4 <TIM_OC2_SetConfig+0x84>
    assert_param(IS_TIM_OCN_POLARITY(OC_Config->OCNPolarity));
 80050a2:	68cb      	ldr	r3, [r1, #12]
 80050a4:	f033 0308 	bics.w	r3, r3, #8
 80050a8:	d004      	beq.n	80050b4 <TIM_OC2_SetConfig+0x44>
 80050aa:	f241 2189 	movw	r1, #4745	; 0x1289
 80050ae:	4816      	ldr	r0, [pc, #88]	; (8005108 <TIM_OC2_SetConfig+0x98>)
 80050b0:	f7fc ff39 	bl	8001f26 <assert_failed>
    tmpccer |= (OC_Config->OCNPolarity << 4U);
 80050b4:	68fb      	ldr	r3, [r7, #12]
    tmpccer &= ~TIM_CCER_CC2NP;
 80050b6:	f024 0480 	bic.w	r4, r4, #128	; 0x80
    tmpccer |= (OC_Config->OCNPolarity << 4U);
 80050ba:	ea44 1403 	orr.w	r4, r4, r3, lsl #4
    assert_param(IS_TIM_OCNIDLE_STATE(OC_Config->OCNIdleState));
 80050be:	69bb      	ldr	r3, [r7, #24]
    tmpccer &= ~TIM_CCER_CC2NE;
 80050c0:	f024 0440 	bic.w	r4, r4, #64	; 0x40
    assert_param(IS_TIM_OCNIDLE_STATE(OC_Config->OCNIdleState));
 80050c4:	f433 7300 	bics.w	r3, r3, #512	; 0x200
 80050c8:	d004      	beq.n	80050d4 <TIM_OC2_SetConfig+0x64>
 80050ca:	f241 2197 	movw	r1, #4759	; 0x1297
 80050ce:	480e      	ldr	r0, [pc, #56]	; (8005108 <TIM_OC2_SetConfig+0x98>)
 80050d0:	f7fc ff29 	bl	8001f26 <assert_failed>
    assert_param(IS_TIM_OCIDLE_STATE(OC_Config->OCIdleState));
 80050d4:	697b      	ldr	r3, [r7, #20]
 80050d6:	f433 7380 	bics.w	r3, r3, #256	; 0x100
 80050da:	d004      	beq.n	80050e6 <TIM_OC2_SetConfig+0x76>
 80050dc:	f241 2198 	movw	r1, #4760	; 0x1298
 80050e0:	4809      	ldr	r0, [pc, #36]	; (8005108 <TIM_OC2_SetConfig+0x98>)
 80050e2:	f7fc ff20 	bl	8001f26 <assert_failed>
    tmpcr2 |= (OC_Config->OCIdleState << 2);
 80050e6:	697b      	ldr	r3, [r7, #20]
    tmpcr2 |= (OC_Config->OCNIdleState << 2);
 80050e8:	69ba      	ldr	r2, [r7, #24]
    tmpcr2 &= ~TIM_CR2_OIS2N;
 80050ea:	f428 6840 	bic.w	r8, r8, #3072	; 0xc00
    tmpcr2 |= (OC_Config->OCNIdleState << 2);
 80050ee:	4313      	orrs	r3, r2
 80050f0:	ea48 0883 	orr.w	r8, r8, r3, lsl #2
  TIMx->CCR2 = OC_Config->Pulse;
 80050f4:	687b      	ldr	r3, [r7, #4]
  TIMx->CR2 = tmpcr2;
 80050f6:	f8c5 8004 	str.w	r8, [r5, #4]
  TIMx->CCMR1 = tmpccmrx;
 80050fa:	61ae      	str	r6, [r5, #24]
  TIMx->CCR2 = OC_Config->Pulse;
 80050fc:	63ab      	str	r3, [r5, #56]	; 0x38
  TIMx->CCER = tmpccer;
 80050fe:	622c      	str	r4, [r5, #32]
 8005100:	e8bd 81f0 	ldmia.w	sp!, {r4, r5, r6, r7, r8, pc}
 8005104:	40012c00 	.word	0x40012c00
 8005108:	08006815 	.word	0x08006815

0800510c <HAL_TIM_OC_ConfigChannel>:
  assert_param(IS_TIM_CHANNELS(Channel));
 800510c:	2a18      	cmp	r2, #24
{
 800510e:	b570      	push	{r4, r5, r6, lr}
 8005110:	4604      	mov	r4, r0
 8005112:	460d      	mov	r5, r1
 8005114:	4616      	mov	r6, r2
  assert_param(IS_TIM_CHANNELS(Channel));
 8005116:	d803      	bhi.n	8005120 <HAL_TIM_OC_ConfigChannel+0x14>
 8005118:	4b4e      	ldr	r3, [pc, #312]	; (8005254 <HAL_TIM_OC_ConfigChannel+0x148>)
 800511a:	40d3      	lsrs	r3, r2
 800511c:	07db      	lsls	r3, r3, #31
 800511e:	d404      	bmi.n	800512a <HAL_TIM_OC_ConfigChannel+0x1e>
 8005120:	f44f 6139 	mov.w	r1, #2960	; 0xb90
 8005124:	484c      	ldr	r0, [pc, #304]	; (8005258 <HAL_TIM_OC_ConfigChannel+0x14c>)
 8005126:	f7fc fefe 	bl	8001f26 <assert_failed>
  assert_param(IS_TIM_OC_MODE(sConfig->OCMode));
 800512a:	682b      	ldr	r3, [r5, #0]
 800512c:	f023 0210 	bic.w	r2, r3, #16
 8005130:	f033 0330 	bics.w	r3, r3, #48	; 0x30
 8005134:	d006      	beq.n	8005144 <HAL_TIM_OC_ConfigChannel+0x38>
 8005136:	2a40      	cmp	r2, #64	; 0x40
 8005138:	d004      	beq.n	8005144 <HAL_TIM_OC_ConfigChannel+0x38>
 800513a:	f640 3191 	movw	r1, #2961	; 0xb91
 800513e:	4846      	ldr	r0, [pc, #280]	; (8005258 <HAL_TIM_OC_ConfigChannel+0x14c>)
 8005140:	f7fc fef1 	bl	8001f26 <assert_failed>
  assert_param(IS_TIM_OC_POLARITY(sConfig->OCPolarity));
 8005144:	68ab      	ldr	r3, [r5, #8]
 8005146:	f033 0302 	bics.w	r3, r3, #2
 800514a:	d004      	beq.n	8005156 <HAL_TIM_OC_ConfigChannel+0x4a>
 800514c:	f640 3192 	movw	r1, #2962	; 0xb92
 8005150:	4841      	ldr	r0, [pc, #260]	; (8005258 <HAL_TIM_OC_ConfigChannel+0x14c>)
 8005152:	f7fc fee8 	bl	8001f26 <assert_failed>
  __HAL_LOCK(htim);
 8005156:	f894 303c 	ldrb.w	r3, [r4, #60]	; 0x3c
 800515a:	2002      	movs	r0, #2
 800515c:	2b01      	cmp	r3, #1
 800515e:	d02d      	beq.n	80051bc <HAL_TIM_OC_ConfigChannel+0xb0>
 8005160:	2301      	movs	r3, #1
  htim->State = HAL_TIM_STATE_BUSY;
 8005162:	f884 003d 	strb.w	r0, [r4, #61]	; 0x3d
  __HAL_LOCK(htim);
 8005166:	f884 303c 	strb.w	r3, [r4, #60]	; 0x3c
  switch (Channel)
 800516a:	2e0c      	cmp	r6, #12
 800516c:	d820      	bhi.n	80051b0 <HAL_TIM_OC_ConfigChannel+0xa4>
 800516e:	e8df f006 	tbb	[pc, r6]
 8005172:	1f07      	.short	0x1f07
 8005174:	1f261f1f 	.word	0x1f261f1f
 8005178:	1f3f1f1f 	.word	0x1f3f1f1f
 800517c:	1f1f      	.short	0x1f1f
 800517e:	58          	.byte	0x58
 800517f:	00          	.byte	0x00
      assert_param(IS_TIM_CC1_INSTANCE(htim->Instance));
 8005180:	6823      	ldr	r3, [r4, #0]
 8005182:	4a36      	ldr	r2, [pc, #216]	; (800525c <HAL_TIM_OC_ConfigChannel+0x150>)
 8005184:	4293      	cmp	r3, r2
 8005186:	d00f      	beq.n	80051a8 <HAL_TIM_OC_ConfigChannel+0x9c>
 8005188:	f1b3 4f80 	cmp.w	r3, #1073741824	; 0x40000000
 800518c:	d00c      	beq.n	80051a8 <HAL_TIM_OC_ConfigChannel+0x9c>
 800518e:	f5a2 3294 	sub.w	r2, r2, #75776	; 0x12800
 8005192:	4293      	cmp	r3, r2
 8005194:	d008      	beq.n	80051a8 <HAL_TIM_OC_ConfigChannel+0x9c>
 8005196:	f502 6280 	add.w	r2, r2, #1024	; 0x400
 800519a:	4293      	cmp	r3, r2
 800519c:	d004      	beq.n	80051a8 <HAL_TIM_OC_ConfigChannel+0x9c>
 800519e:	f640 319d 	movw	r1, #2973	; 0xb9d
 80051a2:	482d      	ldr	r0, [pc, #180]	; (8005258 <HAL_TIM_OC_ConfigChannel+0x14c>)
 80051a4:	f7fc febf 	bl	8001f26 <assert_failed>
      TIM_OC1_SetConfig(htim->Instance, sConfig);
 80051a8:	4629      	mov	r1, r5
 80051aa:	6820      	ldr	r0, [r4, #0]
 80051ac:	f7ff fa3e 	bl	800462c <TIM_OC1_SetConfig>
  htim->State = HAL_TIM_STATE_READY;
 80051b0:	2301      	movs	r3, #1
  __HAL_UNLOCK(htim);
 80051b2:	2000      	movs	r0, #0
  htim->State = HAL_TIM_STATE_READY;
 80051b4:	f884 303d 	strb.w	r3, [r4, #61]	; 0x3d
  __HAL_UNLOCK(htim);
 80051b8:	f884 003c 	strb.w	r0, [r4, #60]	; 0x3c
}
 80051bc:	bd70      	pop	{r4, r5, r6, pc}
      assert_param(IS_TIM_CC2_INSTANCE(htim->Instance));
 80051be:	6823      	ldr	r3, [r4, #0]
 80051c0:	4a26      	ldr	r2, [pc, #152]	; (800525c <HAL_TIM_OC_ConfigChannel+0x150>)
 80051c2:	4293      	cmp	r3, r2
 80051c4:	d00f      	beq.n	80051e6 <HAL_TIM_OC_ConfigChannel+0xda>
 80051c6:	f1b3 4f80 	cmp.w	r3, #1073741824	; 0x40000000
 80051ca:	d00c      	beq.n	80051e6 <HAL_TIM_OC_ConfigChannel+0xda>
 80051cc:	f5a2 3294 	sub.w	r2, r2, #75776	; 0x12800
 80051d0:	4293      	cmp	r3, r2
 80051d2:	d008      	beq.n	80051e6 <HAL_TIM_OC_ConfigChannel+0xda>
 80051d4:	f502 6280 	add.w	r2, r2, #1024	; 0x400
 80051d8:	4293      	cmp	r3, r2
 80051da:	d004      	beq.n	80051e6 <HAL_TIM_OC_ConfigChannel+0xda>
 80051dc:	f640 31a5 	movw	r1, #2981	; 0xba5
 80051e0:	481d      	ldr	r0, [pc, #116]	; (8005258 <HAL_TIM_OC_ConfigChannel+0x14c>)
 80051e2:	f7fc fea0 	bl	8001f26 <assert_failed>
      TIM_OC2_SetConfig(htim->Instance, sConfig);
 80051e6:	4629      	mov	r1, r5
 80051e8:	6820      	ldr	r0, [r4, #0]
 80051ea:	f7ff ff41 	bl	8005070 <TIM_OC2_SetConfig>
    break;
 80051ee:	e7df      	b.n	80051b0 <HAL_TIM_OC_ConfigChannel+0xa4>
       assert_param(IS_TIM_CC3_INSTANCE(htim->Instance));
 80051f0:	6823      	ldr	r3, [r4, #0]
 80051f2:	4a1a      	ldr	r2, [pc, #104]	; (800525c <HAL_TIM_OC_ConfigChannel+0x150>)
 80051f4:	4293      	cmp	r3, r2
 80051f6:	d00f      	beq.n	8005218 <HAL_TIM_OC_ConfigChannel+0x10c>
 80051f8:	f1b3 4f80 	cmp.w	r3, #1073741824	; 0x40000000
 80051fc:	d00c      	beq.n	8005218 <HAL_TIM_OC_ConfigChannel+0x10c>
 80051fe:	f5a2 3294 	sub.w	r2, r2, #75776	; 0x12800
 8005202:	4293      	cmp	r3, r2
 8005204:	d008      	beq.n	8005218 <HAL_TIM_OC_ConfigChannel+0x10c>
 8005206:	f502 6280 	add.w	r2, r2, #1024	; 0x400
 800520a:	4293      	cmp	r3, r2
 800520c:	d004      	beq.n	8005218 <HAL_TIM_OC_ConfigChannel+0x10c>
 800520e:	f640 31ad 	movw	r1, #2989	; 0xbad
 8005212:	4811      	ldr	r0, [pc, #68]	; (8005258 <HAL_TIM_OC_ConfigChannel+0x14c>)
 8005214:	f7fc fe87 	bl	8001f26 <assert_failed>
      TIM_OC3_SetConfig(htim->Instance, sConfig);
 8005218:	4629      	mov	r1, r5
 800521a:	6820      	ldr	r0, [r4, #0]
 800521c:	f7ff fa52 	bl	80046c4 <TIM_OC3_SetConfig>
    break;
 8005220:	e7c6      	b.n	80051b0 <HAL_TIM_OC_ConfigChannel+0xa4>
      assert_param(IS_TIM_CC4_INSTANCE(htim->Instance));
 8005222:	6823      	ldr	r3, [r4, #0]
 8005224:	4a0d      	ldr	r2, [pc, #52]	; (800525c <HAL_TIM_OC_ConfigChannel+0x150>)
 8005226:	4293      	cmp	r3, r2
 8005228:	d00f      	beq.n	800524a <HAL_TIM_OC_ConfigChannel+0x13e>
 800522a:	f1b3 4f80 	cmp.w	r3, #1073741824	; 0x40000000
 800522e:	d00c      	beq.n	800524a <HAL_TIM_OC_ConfigChannel+0x13e>
 8005230:	f5a2 3294 	sub.w	r2, r2, #75776	; 0x12800
 8005234:	4293      	cmp	r3, r2
 8005236:	d008      	beq.n	800524a <HAL_TIM_OC_ConfigChannel+0x13e>
 8005238:	f502 6280 	add.w	r2, r2, #1024	; 0x400
 800523c:	4293      	cmp	r3, r2
 800523e:	d004      	beq.n	800524a <HAL_TIM_OC_ConfigChannel+0x13e>
 8005240:	f640 31b5 	movw	r1, #2997	; 0xbb5
 8005244:	4804      	ldr	r0, [pc, #16]	; (8005258 <HAL_TIM_OC_ConfigChannel+0x14c>)
 8005246:	f7fc fe6e 	bl	8001f26 <assert_failed>
       TIM_OC4_SetConfig(htim->Instance, sConfig);
 800524a:	4629      	mov	r1, r5
 800524c:	6820      	ldr	r0, [r4, #0]
 800524e:	f7ff fa87 	bl	8004760 <TIM_OC4_SetConfig>
    break;
 8005252:	e7ad      	b.n	80051b0 <HAL_TIM_OC_ConfigChannel+0xa4>
 8005254:	01001111 	.word	0x01001111
 8005258:	08006815 	.word	0x08006815
 800525c:	40012c00 	.word	0x40012c00

08005260 <HAL_TIM_PWM_ConfigChannel>:
  __HAL_LOCK(htim);
 8005260:	f890 303c 	ldrb.w	r3, [r0, #60]	; 0x3c
{
 8005264:	b570      	push	{r4, r5, r6, lr}
  __HAL_LOCK(htim);
 8005266:	2b01      	cmp	r3, #1
{
 8005268:	4604      	mov	r4, r0
 800526a:	460d      	mov	r5, r1
 800526c:	4616      	mov	r6, r2
  __HAL_LOCK(htim);
 800526e:	f000 80d6 	beq.w	800541e <HAL_TIM_PWM_ConfigChannel+0x1be>
 8005272:	2301      	movs	r3, #1
  assert_param(IS_TIM_CHANNELS(Channel));
 8005274:	2a18      	cmp	r2, #24
  __HAL_LOCK(htim);
 8005276:	f880 303c 	strb.w	r3, [r0, #60]	; 0x3c
  assert_param(IS_TIM_CHANNELS(Channel));
 800527a:	d803      	bhi.n	8005284 <HAL_TIM_PWM_ConfigChannel+0x24>
 800527c:	4b69      	ldr	r3, [pc, #420]	; (8005424 <HAL_TIM_PWM_ConfigChannel+0x1c4>)
 800527e:	40d3      	lsrs	r3, r2
 8005280:	07db      	lsls	r3, r3, #31
 8005282:	d404      	bmi.n	800528e <HAL_TIM_PWM_ConfigChannel+0x2e>
 8005284:	f640 4137 	movw	r1, #3127	; 0xc37
 8005288:	4867      	ldr	r0, [pc, #412]	; (8005428 <HAL_TIM_PWM_ConfigChannel+0x1c8>)
 800528a:	f7fc fe4c 	bl	8001f26 <assert_failed>
  assert_param(IS_TIM_PWM_MODE(sConfig->OCMode));
 800528e:	682b      	ldr	r3, [r5, #0]
 8005290:	f023 0310 	bic.w	r3, r3, #16
 8005294:	2b60      	cmp	r3, #96	; 0x60
 8005296:	d004      	beq.n	80052a2 <HAL_TIM_PWM_ConfigChannel+0x42>
 8005298:	f640 4138 	movw	r1, #3128	; 0xc38
 800529c:	4862      	ldr	r0, [pc, #392]	; (8005428 <HAL_TIM_PWM_ConfigChannel+0x1c8>)
 800529e:	f7fc fe42 	bl	8001f26 <assert_failed>
  assert_param(IS_TIM_OC_POLARITY(sConfig->OCPolarity));
 80052a2:	68ab      	ldr	r3, [r5, #8]
 80052a4:	f033 0302 	bics.w	r3, r3, #2
 80052a8:	d004      	beq.n	80052b4 <HAL_TIM_PWM_ConfigChannel+0x54>
 80052aa:	f640 4139 	movw	r1, #3129	; 0xc39
 80052ae:	485e      	ldr	r0, [pc, #376]	; (8005428 <HAL_TIM_PWM_ConfigChannel+0x1c8>)
 80052b0:	f7fc fe39 	bl	8001f26 <assert_failed>
  assert_param(IS_TIM_FAST_STATE(sConfig->OCFastMode));
 80052b4:	692b      	ldr	r3, [r5, #16]
 80052b6:	f033 0304 	bics.w	r3, r3, #4
 80052ba:	d004      	beq.n	80052c6 <HAL_TIM_PWM_ConfigChannel+0x66>
 80052bc:	f640 413a 	movw	r1, #3130	; 0xc3a
 80052c0:	4859      	ldr	r0, [pc, #356]	; (8005428 <HAL_TIM_PWM_ConfigChannel+0x1c8>)
 80052c2:	f7fc fe30 	bl	8001f26 <assert_failed>
  htim->State = HAL_TIM_STATE_BUSY;
 80052c6:	2302      	movs	r3, #2
 80052c8:	f884 303d 	strb.w	r3, [r4, #61]	; 0x3d
  switch (Channel)
 80052cc:	2e0c      	cmp	r6, #12
 80052ce:	d82d      	bhi.n	800532c <HAL_TIM_PWM_ConfigChannel+0xcc>
 80052d0:	e8df f006 	tbb	[pc, r6]
 80052d4:	2c2c2c07 	.word	0x2c2c2c07
 80052d8:	2c2c2c33 	.word	0x2c2c2c33
 80052dc:	2c2c2c59 	.word	0x2c2c2c59
 80052e0:	7f          	.byte	0x7f
 80052e1:	00          	.byte	0x00
      assert_param(IS_TIM_CC1_INSTANCE(htim->Instance));
 80052e2:	6823      	ldr	r3, [r4, #0]
 80052e4:	4a51      	ldr	r2, [pc, #324]	; (800542c <HAL_TIM_PWM_ConfigChannel+0x1cc>)
 80052e6:	4293      	cmp	r3, r2
 80052e8:	d00f      	beq.n	800530a <HAL_TIM_PWM_ConfigChannel+0xaa>
 80052ea:	f1b3 4f80 	cmp.w	r3, #1073741824	; 0x40000000
 80052ee:	d00c      	beq.n	800530a <HAL_TIM_PWM_ConfigChannel+0xaa>
 80052f0:	f5a2 3294 	sub.w	r2, r2, #75776	; 0x12800
 80052f4:	4293      	cmp	r3, r2
 80052f6:	d008      	beq.n	800530a <HAL_TIM_PWM_ConfigChannel+0xaa>
 80052f8:	f502 6280 	add.w	r2, r2, #1024	; 0x400
 80052fc:	4293      	cmp	r3, r2
 80052fe:	d004      	beq.n	800530a <HAL_TIM_PWM_ConfigChannel+0xaa>
 8005300:	f640 4142 	movw	r1, #3138	; 0xc42
 8005304:	4848      	ldr	r0, [pc, #288]	; (8005428 <HAL_TIM_PWM_ConfigChannel+0x1c8>)
 8005306:	f7fc fe0e 	bl	8001f26 <assert_failed>
      TIM_OC1_SetConfig(htim->Instance, sConfig);
 800530a:	4629      	mov	r1, r5
 800530c:	6820      	ldr	r0, [r4, #0]
 800530e:	f7ff f98d 	bl	800462c <TIM_OC1_SetConfig>
      htim->Instance->CCMR1 |= TIM_CCMR1_OC1PE;
 8005312:	6823      	ldr	r3, [r4, #0]
      htim->Instance->CCMR1 |= sConfig->OCFastMode;
 8005314:	6929      	ldr	r1, [r5, #16]
      htim->Instance->CCMR1 |= TIM_CCMR1_OC1PE;
 8005316:	699a      	ldr	r2, [r3, #24]
 8005318:	f042 0208 	orr.w	r2, r2, #8
 800531c:	619a      	str	r2, [r3, #24]
      htim->Instance->CCMR1 &= ~TIM_CCMR1_OC1FE;
 800531e:	699a      	ldr	r2, [r3, #24]
 8005320:	f022 0204 	bic.w	r2, r2, #4
 8005324:	619a      	str	r2, [r3, #24]
      htim->Instance->CCMR1 |= sConfig->OCFastMode;
 8005326:	699a      	ldr	r2, [r3, #24]
 8005328:	430a      	orrs	r2, r1
      htim->Instance->CCMR1 |= sConfig->OCFastMode << 8;
 800532a:	619a      	str	r2, [r3, #24]
  htim->State = HAL_TIM_STATE_READY;
 800532c:	2301      	movs	r3, #1
  __HAL_UNLOCK(htim);
 800532e:	2000      	movs	r0, #0
  htim->State = HAL_TIM_STATE_READY;
 8005330:	f884 303d 	strb.w	r3, [r4, #61]	; 0x3d
  __HAL_UNLOCK(htim);
 8005334:	f884 003c 	strb.w	r0, [r4, #60]	; 0x3c
  return HAL_OK;
 8005338:	bd70      	pop	{r4, r5, r6, pc}
      assert_param(IS_TIM_CC2_INSTANCE(htim->Instance));
 800533a:	6823      	ldr	r3, [r4, #0]
 800533c:	4a3b      	ldr	r2, [pc, #236]	; (800542c <HAL_TIM_PWM_ConfigChannel+0x1cc>)
 800533e:	4293      	cmp	r3, r2
 8005340:	d00f      	beq.n	8005362 <HAL_TIM_PWM_ConfigChannel+0x102>
 8005342:	f1b3 4f80 	cmp.w	r3, #1073741824	; 0x40000000
 8005346:	d00c      	beq.n	8005362 <HAL_TIM_PWM_ConfigChannel+0x102>
 8005348:	f5a2 3294 	sub.w	r2, r2, #75776	; 0x12800
 800534c:	4293      	cmp	r3, r2
 800534e:	d008      	beq.n	8005362 <HAL_TIM_PWM_ConfigChannel+0x102>
 8005350:	f502 6280 	add.w	r2, r2, #1024	; 0x400
 8005354:	4293      	cmp	r3, r2
 8005356:	d004      	beq.n	8005362 <HAL_TIM_PWM_ConfigChannel+0x102>
 8005358:	f640 4151 	movw	r1, #3153	; 0xc51
 800535c:	4832      	ldr	r0, [pc, #200]	; (8005428 <HAL_TIM_PWM_ConfigChannel+0x1c8>)
 800535e:	f7fc fde2 	bl	8001f26 <assert_failed>
      TIM_OC2_SetConfig(htim->Instance, sConfig);
 8005362:	4629      	mov	r1, r5
 8005364:	6820      	ldr	r0, [r4, #0]
 8005366:	f7ff fe83 	bl	8005070 <TIM_OC2_SetConfig>
      htim->Instance->CCMR1 |= TIM_CCMR1_OC2PE;
 800536a:	6823      	ldr	r3, [r4, #0]
      htim->Instance->CCMR1 |= sConfig->OCFastMode << 8;
 800536c:	6929      	ldr	r1, [r5, #16]
      htim->Instance->CCMR1 |= TIM_CCMR1_OC2PE;
 800536e:	699a      	ldr	r2, [r3, #24]
 8005370:	f442 6200 	orr.w	r2, r2, #2048	; 0x800
 8005374:	619a      	str	r2, [r3, #24]
      htim->Instance->CCMR1 &= ~TIM_CCMR1_OC2FE;
 8005376:	699a      	ldr	r2, [r3, #24]
 8005378:	f422 6280 	bic.w	r2, r2, #1024	; 0x400
 800537c:	619a      	str	r2, [r3, #24]
      htim->Instance->CCMR1 |= sConfig->OCFastMode << 8;
 800537e:	699a      	ldr	r2, [r3, #24]
 8005380:	ea42 2201 	orr.w	r2, r2, r1, lsl #8
 8005384:	e7d1      	b.n	800532a <HAL_TIM_PWM_ConfigChannel+0xca>
      assert_param(IS_TIM_CC3_INSTANCE(htim->Instance));
 8005386:	6823      	ldr	r3, [r4, #0]
 8005388:	4a28      	ldr	r2, [pc, #160]	; (800542c <HAL_TIM_PWM_ConfigChannel+0x1cc>)
 800538a:	4293      	cmp	r3, r2
 800538c:	d00f      	beq.n	80053ae <HAL_TIM_PWM_ConfigChannel+0x14e>
 800538e:	f1b3 4f80 	cmp.w	r3, #1073741824	; 0x40000000
 8005392:	d00c      	beq.n	80053ae <HAL_TIM_PWM_ConfigChannel+0x14e>
 8005394:	f5a2 3294 	sub.w	r2, r2, #75776	; 0x12800
 8005398:	4293      	cmp	r3, r2
 800539a:	d008      	beq.n	80053ae <HAL_TIM_PWM_ConfigChannel+0x14e>
 800539c:	f502 6280 	add.w	r2, r2, #1024	; 0x400
 80053a0:	4293      	cmp	r3, r2
 80053a2:	d004      	beq.n	80053ae <HAL_TIM_PWM_ConfigChannel+0x14e>
 80053a4:	f44f 6146 	mov.w	r1, #3168	; 0xc60
 80053a8:	481f      	ldr	r0, [pc, #124]	; (8005428 <HAL_TIM_PWM_ConfigChannel+0x1c8>)
 80053aa:	f7fc fdbc 	bl	8001f26 <assert_failed>
      TIM_OC3_SetConfig(htim->Instance, sConfig);
 80053ae:	4629      	mov	r1, r5
 80053b0:	6820      	ldr	r0, [r4, #0]
 80053b2:	f7ff f987 	bl	80046c4 <TIM_OC3_SetConfig>
      htim->Instance->CCMR2 |= TIM_CCMR2_OC3PE;
 80053b6:	6823      	ldr	r3, [r4, #0]
      htim->Instance->CCMR2 |= sConfig->OCFastMode;
 80053b8:	6929      	ldr	r1, [r5, #16]
      htim->Instance->CCMR2 |= TIM_CCMR2_OC3PE;
 80053ba:	69da      	ldr	r2, [r3, #28]
 80053bc:	f042 0208 	orr.w	r2, r2, #8
 80053c0:	61da      	str	r2, [r3, #28]
      htim->Instance->CCMR2 &= ~TIM_CCMR2_OC3FE;
 80053c2:	69da      	ldr	r2, [r3, #28]
 80053c4:	f022 0204 	bic.w	r2, r2, #4
 80053c8:	61da      	str	r2, [r3, #28]
      htim->Instance->CCMR2 |= sConfig->OCFastMode;
 80053ca:	69da      	ldr	r2, [r3, #28]
 80053cc:	430a      	orrs	r2, r1
      htim->Instance->CCMR2 |= sConfig->OCFastMode << 8;
 80053ce:	61da      	str	r2, [r3, #28]
    break;
 80053d0:	e7ac      	b.n	800532c <HAL_TIM_PWM_ConfigChannel+0xcc>
      assert_param(IS_TIM_CC4_INSTANCE(htim->Instance));
 80053d2:	6823      	ldr	r3, [r4, #0]
 80053d4:	4a15      	ldr	r2, [pc, #84]	; (800542c <HAL_TIM_PWM_ConfigChannel+0x1cc>)
 80053d6:	4293      	cmp	r3, r2
 80053d8:	d00f      	beq.n	80053fa <HAL_TIM_PWM_ConfigChannel+0x19a>
 80053da:	f1b3 4f80 	cmp.w	r3, #1073741824	; 0x40000000
 80053de:	d00c      	beq.n	80053fa <HAL_TIM_PWM_ConfigChannel+0x19a>
 80053e0:	f5a2 3294 	sub.w	r2, r2, #75776	; 0x12800
 80053e4:	4293      	cmp	r3, r2
 80053e6:	d008      	beq.n	80053fa <HAL_TIM_PWM_ConfigChannel+0x19a>
 80053e8:	f502 6280 	add.w	r2, r2, #1024	; 0x400
 80053ec:	4293      	cmp	r3, r2
 80053ee:	d004      	beq.n	80053fa <HAL_TIM_PWM_ConfigChannel+0x19a>
 80053f0:	f640 416f 	movw	r1, #3183	; 0xc6f
 80053f4:	480c      	ldr	r0, [pc, #48]	; (8005428 <HAL_TIM_PWM_ConfigChannel+0x1c8>)
 80053f6:	f7fc fd96 	bl	8001f26 <assert_failed>
      TIM_OC4_SetConfig(htim->Instance, sConfig);
 80053fa:	4629      	mov	r1, r5
 80053fc:	6820      	ldr	r0, [r4, #0]
 80053fe:	f7ff f9af 	bl	8004760 <TIM_OC4_SetConfig>
      htim->Instance->CCMR2 |= TIM_CCMR2_OC4PE;
 8005402:	6823      	ldr	r3, [r4, #0]
      htim->Instance->CCMR2 |= sConfig->OCFastMode << 8;
 8005404:	6929      	ldr	r1, [r5, #16]
      htim->Instance->CCMR2 |= TIM_CCMR2_OC4PE;
 8005406:	69da      	ldr	r2, [r3, #28]
 8005408:	f442 6200 	orr.w	r2, r2, #2048	; 0x800
 800540c:	61da      	str	r2, [r3, #28]
      htim->Instance->CCMR2 &= ~TIM_CCMR2_OC4FE;
 800540e:	69da      	ldr	r2, [r3, #28]
 8005410:	f422 6280 	bic.w	r2, r2, #1024	; 0x400
 8005414:	61da      	str	r2, [r3, #28]
      htim->Instance->CCMR2 |= sConfig->OCFastMode << 8;
 8005416:	69da      	ldr	r2, [r3, #28]
 8005418:	ea42 2201 	orr.w	r2, r2, r1, lsl #8
 800541c:	e7d7      	b.n	80053ce <HAL_TIM_PWM_ConfigChannel+0x16e>
  __HAL_LOCK(htim);
 800541e:	2002      	movs	r0, #2
}
 8005420:	bd70      	pop	{r4, r5, r6, pc}
 8005422:	bf00      	nop
 8005424:	01001111 	.word	0x01001111
 8005428:	08006815 	.word	0x08006815
 800542c:	40012c00 	.word	0x40012c00

08005430 <HAL_TIMEx_ConfigBreakDeadTime>:
  *         contains the BDTR Register configuration  information for the TIM peripheral.
  * @retval HAL status
  */
HAL_StatusTypeDef HAL_TIMEx_ConfigBreakDeadTime(TIM_HandleTypeDef *htim,
                                                TIM_BreakDeadTimeConfigTypeDef *sBreakDeadTimeConfig)
{
 8005430:	b538      	push	{r3, r4, r5, lr}
  uint32_t tmpbdtr = 0U;

  /* Check the parameters */
  assert_param(IS_TIM_BREAK_INSTANCE(htim->Instance));
 8005432:	6802      	ldr	r2, [r0, #0]
 8005434:	4b36      	ldr	r3, [pc, #216]	; (8005510 <HAL_TIMEx_ConfigBreakDeadTime+0xe0>)
{
 8005436:	4604      	mov	r4, r0
  assert_param(IS_TIM_BREAK_INSTANCE(htim->Instance));
 8005438:	429a      	cmp	r2, r3
{
 800543a:	460d      	mov	r5, r1
  assert_param(IS_TIM_BREAK_INSTANCE(htim->Instance));
 800543c:	d004      	beq.n	8005448 <HAL_TIMEx_ConfigBreakDeadTime+0x18>
 800543e:	f44f 61c1 	mov.w	r1, #1544	; 0x608
 8005442:	4834      	ldr	r0, [pc, #208]	; (8005514 <HAL_TIMEx_ConfigBreakDeadTime+0xe4>)
 8005444:	f7fc fd6f 	bl	8001f26 <assert_failed>
  assert_param(IS_TIM_OSSR_STATE(sBreakDeadTimeConfig->OffStateRunMode));
 8005448:	682b      	ldr	r3, [r5, #0]
 800544a:	f433 6300 	bics.w	r3, r3, #2048	; 0x800
 800544e:	d004      	beq.n	800545a <HAL_TIMEx_ConfigBreakDeadTime+0x2a>
 8005450:	f240 6109 	movw	r1, #1545	; 0x609
 8005454:	482f      	ldr	r0, [pc, #188]	; (8005514 <HAL_TIMEx_ConfigBreakDeadTime+0xe4>)
 8005456:	f7fc fd66 	bl	8001f26 <assert_failed>
  assert_param(IS_TIM_OSSI_STATE(sBreakDeadTimeConfig->OffStateIDLEMode));
 800545a:	686b      	ldr	r3, [r5, #4]
 800545c:	f433 6380 	bics.w	r3, r3, #1024	; 0x400
 8005460:	d004      	beq.n	800546c <HAL_TIMEx_ConfigBreakDeadTime+0x3c>
 8005462:	f240 610a 	movw	r1, #1546	; 0x60a
 8005466:	482b      	ldr	r0, [pc, #172]	; (8005514 <HAL_TIMEx_ConfigBreakDeadTime+0xe4>)
 8005468:	f7fc fd5d 	bl	8001f26 <assert_failed>
  assert_param(IS_TIM_LOCK_LEVEL(sBreakDeadTimeConfig->LockLevel));
 800546c:	68ab      	ldr	r3, [r5, #8]
 800546e:	f433 7340 	bics.w	r3, r3, #768	; 0x300
 8005472:	d004      	beq.n	800547e <HAL_TIMEx_ConfigBreakDeadTime+0x4e>
 8005474:	f240 610b 	movw	r1, #1547	; 0x60b
 8005478:	4826      	ldr	r0, [pc, #152]	; (8005514 <HAL_TIMEx_ConfigBreakDeadTime+0xe4>)
 800547a:	f7fc fd54 	bl	8001f26 <assert_failed>
  assert_param(IS_TIM_DEADTIME(sBreakDeadTimeConfig->DeadTime));
 800547e:	68eb      	ldr	r3, [r5, #12]
 8005480:	2bff      	cmp	r3, #255	; 0xff
 8005482:	d904      	bls.n	800548e <HAL_TIMEx_ConfigBreakDeadTime+0x5e>
 8005484:	f240 610c 	movw	r1, #1548	; 0x60c
 8005488:	4822      	ldr	r0, [pc, #136]	; (8005514 <HAL_TIMEx_ConfigBreakDeadTime+0xe4>)
 800548a:	f7fc fd4c 	bl	8001f26 <assert_failed>
  assert_param(IS_TIM_BREAK_STATE(sBreakDeadTimeConfig->BreakState));
 800548e:	692b      	ldr	r3, [r5, #16]
 8005490:	f433 5380 	bics.w	r3, r3, #4096	; 0x1000
 8005494:	d004      	beq.n	80054a0 <HAL_TIMEx_ConfigBreakDeadTime+0x70>
 8005496:	f240 610d 	movw	r1, #1549	; 0x60d
 800549a:	481e      	ldr	r0, [pc, #120]	; (8005514 <HAL_TIMEx_ConfigBreakDeadTime+0xe4>)
 800549c:	f7fc fd43 	bl	8001f26 <assert_failed>
  assert_param(IS_TIM_BREAK_POLARITY(sBreakDeadTimeConfig->BreakPolarity));
 80054a0:	696b      	ldr	r3, [r5, #20]
 80054a2:	f433 5300 	bics.w	r3, r3, #8192	; 0x2000
 80054a6:	d004      	beq.n	80054b2 <HAL_TIMEx_ConfigBreakDeadTime+0x82>
 80054a8:	f240 610e 	movw	r1, #1550	; 0x60e
 80054ac:	4819      	ldr	r0, [pc, #100]	; (8005514 <HAL_TIMEx_ConfigBreakDeadTime+0xe4>)
 80054ae:	f7fc fd3a 	bl	8001f26 <assert_failed>
  assert_param(IS_TIM_AUTOMATIC_OUTPUT_STATE(sBreakDeadTimeConfig->AutomaticOutput));
 80054b2:	69ab      	ldr	r3, [r5, #24]
 80054b4:	f433 4380 	bics.w	r3, r3, #16384	; 0x4000
 80054b8:	d004      	beq.n	80054c4 <HAL_TIMEx_ConfigBreakDeadTime+0x94>
 80054ba:	f240 610f 	movw	r1, #1551	; 0x60f
 80054be:	4815      	ldr	r0, [pc, #84]	; (8005514 <HAL_TIMEx_ConfigBreakDeadTime+0xe4>)
 80054c0:	f7fc fd31 	bl	8001f26 <assert_failed>

  /* Process Locked */
  __HAL_LOCK(htim);
 80054c4:	f894 303c 	ldrb.w	r3, [r4, #60]	; 0x3c
 80054c8:	2b01      	cmp	r3, #1
 80054ca:	d01e      	beq.n	800550a <HAL_TIMEx_ConfigBreakDeadTime+0xda>
  MODIFY_REG(tmpbdtr, TIM_BDTR_MOE, sBreakDeadTimeConfig->AutomaticOutput);

  /* Set TIMx_BDTR */
  htim->Instance->BDTR = tmpbdtr;

  __HAL_UNLOCK(htim);
 80054cc:	2000      	movs	r0, #0
  MODIFY_REG(tmpbdtr, TIM_BDTR_LOCK, sBreakDeadTimeConfig->LockLevel);
 80054ce:	68eb      	ldr	r3, [r5, #12]
 80054d0:	68aa      	ldr	r2, [r5, #8]
 80054d2:	f423 7340 	bic.w	r3, r3, #768	; 0x300
 80054d6:	4313      	orrs	r3, r2
  MODIFY_REG(tmpbdtr, TIM_BDTR_OSSI, sBreakDeadTimeConfig->OffStateIDLEMode);
 80054d8:	686a      	ldr	r2, [r5, #4]
 80054da:	f423 6380 	bic.w	r3, r3, #1024	; 0x400
 80054de:	4313      	orrs	r3, r2
  MODIFY_REG(tmpbdtr, TIM_BDTR_OSSR, sBreakDeadTimeConfig->OffStateRunMode);
 80054e0:	682a      	ldr	r2, [r5, #0]
 80054e2:	f423 6300 	bic.w	r3, r3, #2048	; 0x800
 80054e6:	4313      	orrs	r3, r2
  MODIFY_REG(tmpbdtr, TIM_BDTR_BKE, sBreakDeadTimeConfig->BreakState);
 80054e8:	692a      	ldr	r2, [r5, #16]
 80054ea:	f423 5380 	bic.w	r3, r3, #4096	; 0x1000
 80054ee:	4313      	orrs	r3, r2
  MODIFY_REG(tmpbdtr, TIM_BDTR_BKP, sBreakDeadTimeConfig->BreakPolarity);
 80054f0:	696a      	ldr	r2, [r5, #20]
 80054f2:	f423 5300 	bic.w	r3, r3, #8192	; 0x2000
 80054f6:	4313      	orrs	r3, r2
  MODIFY_REG(tmpbdtr, TIM_BDTR_AOE, sBreakDeadTimeConfig->AutomaticOutput);
 80054f8:	69aa      	ldr	r2, [r5, #24]
  MODIFY_REG(tmpbdtr, TIM_BDTR_MOE, sBreakDeadTimeConfig->AutomaticOutput);
 80054fa:	f423 4340 	bic.w	r3, r3, #49152	; 0xc000
 80054fe:	4313      	orrs	r3, r2
  htim->Instance->BDTR = tmpbdtr;
 8005500:	6822      	ldr	r2, [r4, #0]
 8005502:	6453      	str	r3, [r2, #68]	; 0x44
  __HAL_UNLOCK(htim);
 8005504:	f884 003c 	strb.w	r0, [r4, #60]	; 0x3c

  return HAL_OK;
 8005508:	bd38      	pop	{r3, r4, r5, pc}
  __HAL_LOCK(htim);
 800550a:	2002      	movs	r0, #2
}
 800550c:	bd38      	pop	{r3, r4, r5, pc}
 800550e:	bf00      	nop
 8005510:	40012c00 	.word	0x40012c00
 8005514:	0800684d 	.word	0x0800684d

08005518 <HAL_TIMEx_MasterConfigSynchronization>:
  *         contains the selected trigger output (TRGO) and the Master/Slave
  *         mode.
  * @retval HAL status
  */
HAL_StatusTypeDef HAL_TIMEx_MasterConfigSynchronization(TIM_HandleTypeDef *htim, TIM_MasterConfigTypeDef * sMasterConfig)
{
 8005518:	b538      	push	{r3, r4, r5, lr}
  /* Check the parameters */
  assert_param(IS_TIM_MASTER_INSTANCE(htim->Instance));
 800551a:	4a24      	ldr	r2, [pc, #144]	; (80055ac <HAL_TIMEx_MasterConfigSynchronization+0x94>)
 800551c:	6803      	ldr	r3, [r0, #0]
{
 800551e:	4604      	mov	r4, r0
  assert_param(IS_TIM_MASTER_INSTANCE(htim->Instance));
 8005520:	4293      	cmp	r3, r2
{
 8005522:	460d      	mov	r5, r1
  assert_param(IS_TIM_MASTER_INSTANCE(htim->Instance));
 8005524:	d00f      	beq.n	8005546 <HAL_TIMEx_MasterConfigSynchronization+0x2e>
 8005526:	f1b3 4f80 	cmp.w	r3, #1073741824	; 0x40000000
 800552a:	d00c      	beq.n	8005546 <HAL_TIMEx_MasterConfigSynchronization+0x2e>
 800552c:	f5a2 3294 	sub.w	r2, r2, #75776	; 0x12800
 8005530:	4293      	cmp	r3, r2
 8005532:	d008      	beq.n	8005546 <HAL_TIMEx_MasterConfigSynchronization+0x2e>
 8005534:	f502 6280 	add.w	r2, r2, #1024	; 0x400
 8005538:	4293      	cmp	r3, r2
 800553a:	d004      	beq.n	8005546 <HAL_TIMEx_MasterConfigSynchronization+0x2e>
 800553c:	f44f 61c7 	mov.w	r1, #1592	; 0x638
 8005540:	481b      	ldr	r0, [pc, #108]	; (80055b0 <HAL_TIMEx_MasterConfigSynchronization+0x98>)
 8005542:	f7fc fcf0 	bl	8001f26 <assert_failed>
  assert_param(IS_TIM_TRGO_SOURCE(sMasterConfig->MasterOutputTrigger));
 8005546:	682b      	ldr	r3, [r5, #0]
 8005548:	f033 0330 	bics.w	r3, r3, #48	; 0x30
 800554c:	d006      	beq.n	800555c <HAL_TIMEx_MasterConfigSynchronization+0x44>
 800554e:	2b40      	cmp	r3, #64	; 0x40
 8005550:	d004      	beq.n	800555c <HAL_TIMEx_MasterConfigSynchronization+0x44>
 8005552:	f240 6139 	movw	r1, #1593	; 0x639
 8005556:	4816      	ldr	r0, [pc, #88]	; (80055b0 <HAL_TIMEx_MasterConfigSynchronization+0x98>)
 8005558:	f7fc fce5 	bl	8001f26 <assert_failed>
  assert_param(IS_TIM_MSM_STATE(sMasterConfig->MasterSlaveMode));
 800555c:	686b      	ldr	r3, [r5, #4]
 800555e:	f033 0380 	bics.w	r3, r3, #128	; 0x80
 8005562:	d004      	beq.n	800556e <HAL_TIMEx_MasterConfigSynchronization+0x56>
 8005564:	f240 613a 	movw	r1, #1594	; 0x63a
 8005568:	4811      	ldr	r0, [pc, #68]	; (80055b0 <HAL_TIMEx_MasterConfigSynchronization+0x98>)
 800556a:	f7fc fcdc 	bl	8001f26 <assert_failed>

  __HAL_LOCK(htim);
 800556e:	f894 303c 	ldrb.w	r3, [r4, #60]	; 0x3c
 8005572:	2002      	movs	r0, #2
 8005574:	2b01      	cmp	r3, #1
 8005576:	d018      	beq.n	80055aa <HAL_TIMEx_MasterConfigSynchronization+0x92>

  htim->State = HAL_TIM_STATE_BUSY;

  /* Reset the MMS Bits */
  htim->Instance->CR2 &= ~TIM_CR2_MMS;
 8005578:	6823      	ldr	r3, [r4, #0]
  htim->State = HAL_TIM_STATE_BUSY;
 800557a:	f884 003d 	strb.w	r0, [r4, #61]	; 0x3d
  htim->Instance->CR2 &= ~TIM_CR2_MMS;
 800557e:	685a      	ldr	r2, [r3, #4]
  /* Select the TRGO source */
  htim->Instance->CR2 |=  sMasterConfig->MasterOutputTrigger;
 8005580:	6829      	ldr	r1, [r5, #0]
  htim->Instance->CR2 &= ~TIM_CR2_MMS;
 8005582:	f022 0270 	bic.w	r2, r2, #112	; 0x70
 8005586:	605a      	str	r2, [r3, #4]
  htim->Instance->CR2 |=  sMasterConfig->MasterOutputTrigger;
 8005588:	685a      	ldr	r2, [r3, #4]
  /* Set or Reset the MSM Bit */
  htim->Instance->SMCR |= sMasterConfig->MasterSlaveMode;

  htim->State = HAL_TIM_STATE_READY;

  __HAL_UNLOCK(htim);
 800558a:	2000      	movs	r0, #0
  htim->Instance->CR2 |=  sMasterConfig->MasterOutputTrigger;
 800558c:	430a      	orrs	r2, r1
 800558e:	605a      	str	r2, [r3, #4]
  htim->Instance->SMCR &= ~TIM_SMCR_MSM;
 8005590:	689a      	ldr	r2, [r3, #8]
  htim->Instance->SMCR |= sMasterConfig->MasterSlaveMode;
 8005592:	6869      	ldr	r1, [r5, #4]
  htim->Instance->SMCR &= ~TIM_SMCR_MSM;
 8005594:	f022 0280 	bic.w	r2, r2, #128	; 0x80
 8005598:	609a      	str	r2, [r3, #8]
  htim->Instance->SMCR |= sMasterConfig->MasterSlaveMode;
 800559a:	689a      	ldr	r2, [r3, #8]
 800559c:	430a      	orrs	r2, r1
 800559e:	609a      	str	r2, [r3, #8]
  htim->State = HAL_TIM_STATE_READY;
 80055a0:	2301      	movs	r3, #1
  __HAL_UNLOCK(htim);
 80055a2:	f884 003c 	strb.w	r0, [r4, #60]	; 0x3c
  htim->State = HAL_TIM_STATE_READY;
 80055a6:	f884 303d 	strb.w	r3, [r4, #61]	; 0x3d

  return HAL_OK;
}
 80055aa:	bd38      	pop	{r3, r4, r5, pc}
 80055ac:	40012c00 	.word	0x40012c00
 80055b0:	0800684d 	.word	0x0800684d

080055b4 <HAL_TIMEx_CommutationCallback>:
 80055b4:	4770      	bx	lr

080055b6 <HAL_TIMEx_BreakCallback>:
  * @brief  Hall Break detection callback in non blocking mode
  * @param  htim : TIM handle
  * @retval None
  */
__weak void HAL_TIMEx_BreakCallback(TIM_HandleTypeDef *htim)
{
 80055b6:	4770      	bx	lr

080055b8 <UART_EndRxTransfer>:
  * @retval None
  */
static void UART_EndRxTransfer(UART_HandleTypeDef *huart)
{
  /* Disable RXNE, PE and ERR (Frame error, noise error, overrun error) interrupts */
  CLEAR_BIT(huart->Instance->CR1, (USART_CR1_RXNEIE | USART_CR1_PEIE));
 80055b8:	6803      	ldr	r3, [r0, #0]
 80055ba:	68da      	ldr	r2, [r3, #12]
 80055bc:	f422 7290 	bic.w	r2, r2, #288	; 0x120
 80055c0:	60da      	str	r2, [r3, #12]
  CLEAR_BIT(huart->Instance->CR3, USART_CR3_EIE);
 80055c2:	695a      	ldr	r2, [r3, #20]
 80055c4:	f022 0201 	bic.w	r2, r2, #1
 80055c8:	615a      	str	r2, [r3, #20]

  /* At end of Rx process, restore huart->RxState to Ready */
  huart->RxState = HAL_UART_STATE_READY;
 80055ca:	2320      	movs	r3, #32
 80055cc:	f880 303a 	strb.w	r3, [r0, #58]	; 0x3a
 80055d0:	4770      	bx	lr
	...

080055d4 <UART_SetConfig>:
static void UART_SetConfig(UART_HandleTypeDef *huart)
{
  uint32_t tmpreg = 0x00U;

  /* Check the parameters */
  assert_param(IS_UART_BAUDRATE(huart->Init.BaudRate));
 80055d4:	6842      	ldr	r2, [r0, #4]
 80055d6:	4b65      	ldr	r3, [pc, #404]	; (800576c <UART_SetConfig+0x198>)
{
 80055d8:	e92d 47f0 	stmdb	sp!, {r4, r5, r6, r7, r8, r9, sl, lr}
  assert_param(IS_UART_BAUDRATE(huart->Init.BaudRate));
 80055dc:	429a      	cmp	r2, r3
{
 80055de:	4681      	mov	r9, r0
  assert_param(IS_UART_BAUDRATE(huart->Init.BaudRate));
 80055e0:	d904      	bls.n	80055ec <UART_SetConfig+0x18>
 80055e2:	f640 11a7 	movw	r1, #2471	; 0x9a7
 80055e6:	4862      	ldr	r0, [pc, #392]	; (8005770 <UART_SetConfig+0x19c>)
 80055e8:	f7fc fc9d 	bl	8001f26 <assert_failed>
  assert_param(IS_UART_STOPBITS(huart->Init.StopBits));
 80055ec:	f8d9 300c 	ldr.w	r3, [r9, #12]
 80055f0:	f433 5300 	bics.w	r3, r3, #8192	; 0x2000
 80055f4:	d004      	beq.n	8005600 <UART_SetConfig+0x2c>
 80055f6:	f640 11a8 	movw	r1, #2472	; 0x9a8
 80055fa:	485d      	ldr	r0, [pc, #372]	; (8005770 <UART_SetConfig+0x19c>)
 80055fc:	f7fc fc93 	bl	8001f26 <assert_failed>
  assert_param(IS_UART_PARITY(huart->Init.Parity));
 8005600:	f8d9 3010 	ldr.w	r3, [r9, #16]
 8005604:	f433 6280 	bics.w	r2, r3, #1024	; 0x400
 8005608:	d007      	beq.n	800561a <UART_SetConfig+0x46>
 800560a:	f5b3 6fc0 	cmp.w	r3, #1536	; 0x600
 800560e:	d004      	beq.n	800561a <UART_SetConfig+0x46>
 8005610:	f640 11a9 	movw	r1, #2473	; 0x9a9
 8005614:	4856      	ldr	r0, [pc, #344]	; (8005770 <UART_SetConfig+0x19c>)
 8005616:	f7fc fc86 	bl	8001f26 <assert_failed>
  assert_param(IS_UART_MODE(huart->Init.Mode));
 800561a:	f64f 72f3 	movw	r2, #65523	; 0xfff3
 800561e:	f8d9 3014 	ldr.w	r3, [r9, #20]
 8005622:	4213      	tst	r3, r2
 8005624:	d100      	bne.n	8005628 <UART_SetConfig+0x54>
 8005626:	b923      	cbnz	r3, 8005632 <UART_SetConfig+0x5e>
 8005628:	f640 11aa 	movw	r1, #2474	; 0x9aa
 800562c:	4850      	ldr	r0, [pc, #320]	; (8005770 <UART_SetConfig+0x19c>)
 800562e:	f7fc fc7a 	bl	8001f26 <assert_failed>

  /*------- UART-associated USART registers setting : CR2 Configuration ------*/
  /* Configure the UART Stop Bits: Set STOP[13:12] bits according 
   * to huart->Init.StopBits value */
  MODIFY_REG(huart->Instance->CR2, USART_CR2_STOP, huart->Init.StopBits);
 8005632:	f8d9 5000 	ldr.w	r5, [r9]
 8005636:	f8d9 200c 	ldr.w	r2, [r9, #12]
 800563a:	692b      	ldr	r3, [r5, #16]
  tmpreg |= (uint32_t)huart->Init.WordLength | huart->Init.Parity | huart->Init.Mode | huart->Init.OverSampling;
  MODIFY_REG(huart->Instance->CR1, 
             (uint32_t)(USART_CR1_M | USART_CR1_PCE | USART_CR1_PS | USART_CR1_TE | USART_CR1_RE | USART_CR1_OVER8), 
             tmpreg);
#else
  tmpreg |= (uint32_t)huart->Init.WordLength | huart->Init.Parity | huart->Init.Mode;
 800563c:	f8d9 1010 	ldr.w	r1, [r9, #16]
  MODIFY_REG(huart->Instance->CR2, USART_CR2_STOP, huart->Init.StopBits);
 8005640:	f423 5340 	bic.w	r3, r3, #12288	; 0x3000
 8005644:	4313      	orrs	r3, r2
 8005646:	612b      	str	r3, [r5, #16]
  tmpreg |= (uint32_t)huart->Init.WordLength | huart->Init.Parity | huart->Init.Mode;
 8005648:	f8d9 3008 	ldr.w	r3, [r9, #8]
  MODIFY_REG(huart->Instance->CR1, 
 800564c:	68ea      	ldr	r2, [r5, #12]
  tmpreg |= (uint32_t)huart->Init.WordLength | huart->Init.Parity | huart->Init.Mode;
 800564e:	430b      	orrs	r3, r1
 8005650:	f8d9 1014 	ldr.w	r1, [r9, #20]
  MODIFY_REG(huart->Instance->CR1, 
 8005654:	f422 52b0 	bic.w	r2, r2, #5632	; 0x1600
 8005658:	f022 020c 	bic.w	r2, r2, #12
  tmpreg |= (uint32_t)huart->Init.WordLength | huart->Init.Parity | huart->Init.Mode;
 800565c:	430b      	orrs	r3, r1
  MODIFY_REG(huart->Instance->CR1, 
 800565e:	4313      	orrs	r3, r2
 8005660:	60eb      	str	r3, [r5, #12]
             tmpreg);
#endif /* USART_CR1_OVER8 */

  /*------- UART-associated USART registers setting : CR3 Configuration ------*/
  /* Configure the UART HFC: Set CTSE and RTSE bits according to huart->Init.HwFlowCtl value */
  MODIFY_REG(huart->Instance->CR3, (USART_CR3_RTSE | USART_CR3_CTSE), huart->Init.HwFlowCtl);
 8005662:	696b      	ldr	r3, [r5, #20]
 8005664:	f8d9 2018 	ldr.w	r2, [r9, #24]
 8005668:	f423 7340 	bic.w	r3, r3, #768	; 0x300
 800566c:	4313      	orrs	r3, r2
 800566e:	616b      	str	r3, [r5, #20]
      huart->Instance->BRR = UART_BRR_SAMPLING16(HAL_RCC_GetPCLK1Freq(), huart->Init.BaudRate);
    }
  }
#else
  /*-------------------------- USART BRR Configuration ---------------------*/
  if(huart->Instance == USART1)
 8005670:	4b40      	ldr	r3, [pc, #256]	; (8005774 <UART_SetConfig+0x1a0>)
 8005672:	2419      	movs	r4, #25
 8005674:	429d      	cmp	r5, r3
 8005676:	d146      	bne.n	8005706 <UART_SetConfig+0x132>
  {
    huart->Instance->BRR = UART_BRR_SAMPLING16(HAL_RCC_GetPCLK2Freq(), huart->Init.BaudRate);
 8005678:	f7fe ff2c 	bl	80044d4 <HAL_RCC_GetPCLK2Freq>
 800567c:	fb04 f300 	mul.w	r3, r4, r0
 8005680:	f8d9 6004 	ldr.w	r6, [r9, #4]
 8005684:	f04f 0864 	mov.w	r8, #100	; 0x64
 8005688:	00b6      	lsls	r6, r6, #2
 800568a:	fbb3 f3f6 	udiv	r3, r3, r6
 800568e:	fbb3 f3f8 	udiv	r3, r3, r8
 8005692:	011e      	lsls	r6, r3, #4
 8005694:	f7fe ff1e 	bl	80044d4 <HAL_RCC_GetPCLK2Freq>
 8005698:	4360      	muls	r0, r4
 800569a:	f8d9 3004 	ldr.w	r3, [r9, #4]
 800569e:	009b      	lsls	r3, r3, #2
 80056a0:	fbb0 f7f3 	udiv	r7, r0, r3
 80056a4:	f7fe ff16 	bl	80044d4 <HAL_RCC_GetPCLK2Freq>
 80056a8:	4360      	muls	r0, r4
 80056aa:	f8d9 3004 	ldr.w	r3, [r9, #4]
 80056ae:	009b      	lsls	r3, r3, #2
 80056b0:	fbb0 f3f3 	udiv	r3, r0, r3
 80056b4:	fbb3 f3f8 	udiv	r3, r3, r8
 80056b8:	fb08 7313 	mls	r3, r8, r3, r7
 80056bc:	011b      	lsls	r3, r3, #4
 80056be:	3332      	adds	r3, #50	; 0x32
 80056c0:	fbb3 f3f8 	udiv	r3, r3, r8
 80056c4:	f003 07f0 	and.w	r7, r3, #240	; 0xf0
 80056c8:	f7fe ff04 	bl	80044d4 <HAL_RCC_GetPCLK2Freq>
 80056cc:	4360      	muls	r0, r4
 80056ce:	f8d9 2004 	ldr.w	r2, [r9, #4]
 80056d2:	0092      	lsls	r2, r2, #2
 80056d4:	fbb0 faf2 	udiv	sl, r0, r2
 80056d8:	f7fe fefc 	bl	80044d4 <HAL_RCC_GetPCLK2Freq>
  }
  else
  {
    huart->Instance->BRR = UART_BRR_SAMPLING16(HAL_RCC_GetPCLK1Freq(), huart->Init.BaudRate);
 80056dc:	4360      	muls	r0, r4
 80056de:	f8d9 3004 	ldr.w	r3, [r9, #4]
 80056e2:	009b      	lsls	r3, r3, #2
 80056e4:	fbb0 f3f3 	udiv	r3, r0, r3
 80056e8:	fbb3 f3f8 	udiv	r3, r3, r8
 80056ec:	fb08 a313 	mls	r3, r8, r3, sl
 80056f0:	011b      	lsls	r3, r3, #4
 80056f2:	3332      	adds	r3, #50	; 0x32
 80056f4:	fbb3 f3f8 	udiv	r3, r3, r8
 80056f8:	f003 030f 	and.w	r3, r3, #15
 80056fc:	433b      	orrs	r3, r7
 80056fe:	4433      	add	r3, r6
 8005700:	60ab      	str	r3, [r5, #8]
 8005702:	e8bd 87f0 	ldmia.w	sp!, {r4, r5, r6, r7, r8, r9, sl, pc}
 8005706:	f7fe fed5 	bl	80044b4 <HAL_RCC_GetPCLK1Freq>
 800570a:	fb04 f300 	mul.w	r3, r4, r0
 800570e:	f8d9 6004 	ldr.w	r6, [r9, #4]
 8005712:	f04f 0864 	mov.w	r8, #100	; 0x64
 8005716:	00b6      	lsls	r6, r6, #2
 8005718:	fbb3 f3f6 	udiv	r3, r3, r6
 800571c:	fbb3 f3f8 	udiv	r3, r3, r8
 8005720:	011e      	lsls	r6, r3, #4
 8005722:	f7fe fec7 	bl	80044b4 <HAL_RCC_GetPCLK1Freq>
 8005726:	4360      	muls	r0, r4
 8005728:	f8d9 3004 	ldr.w	r3, [r9, #4]
 800572c:	009b      	lsls	r3, r3, #2
 800572e:	fbb0 f7f3 	udiv	r7, r0, r3
 8005732:	f7fe febf 	bl	80044b4 <HAL_RCC_GetPCLK1Freq>
 8005736:	4360      	muls	r0, r4
 8005738:	f8d9 3004 	ldr.w	r3, [r9, #4]
 800573c:	009b      	lsls	r3, r3, #2
 800573e:	fbb0 f3f3 	udiv	r3, r0, r3
 8005742:	fbb3 f3f8 	udiv	r3, r3, r8
 8005746:	fb08 7313 	mls	r3, r8, r3, r7
 800574a:	011b      	lsls	r3, r3, #4
 800574c:	3332      	adds	r3, #50	; 0x32
 800574e:	fbb3 f3f8 	udiv	r3, r3, r8
 8005752:	f003 07f0 	and.w	r7, r3, #240	; 0xf0
 8005756:	f7fe fead 	bl	80044b4 <HAL_RCC_GetPCLK1Freq>
 800575a:	4360      	muls	r0, r4
 800575c:	f8d9 2004 	ldr.w	r2, [r9, #4]
 8005760:	0092      	lsls	r2, r2, #2
 8005762:	fbb0 faf2 	udiv	sl, r0, r2
 8005766:	f7fe fea5 	bl	80044b4 <HAL_RCC_GetPCLK1Freq>
 800576a:	e7b7      	b.n	80056dc <UART_SetConfig+0x108>
 800576c:	0044aa20 	.word	0x0044aa20
 8005770:	08006888 	.word	0x08006888
 8005774:	40013800 	.word	0x40013800

08005778 <HAL_UART_Init>:
{
 8005778:	b510      	push	{r4, lr}
  if(huart == NULL)
 800577a:	4604      	mov	r4, r0
 800577c:	2800      	cmp	r0, #0
 800577e:	d05b      	beq.n	8005838 <HAL_UART_Init+0xc0>
  if(huart->Init.HwFlowCtl != UART_HWCONTROL_NONE)
 8005780:	6981      	ldr	r1, [r0, #24]
 8005782:	6803      	ldr	r3, [r0, #0]
 8005784:	4a2d      	ldr	r2, [pc, #180]	; (800583c <HAL_UART_Init+0xc4>)
 8005786:	2900      	cmp	r1, #0
 8005788:	d04a      	beq.n	8005820 <HAL_UART_Init+0xa8>
    assert_param(IS_UART_HWFLOW_INSTANCE(huart->Instance));
 800578a:	4293      	cmp	r3, r2
 800578c:	d00c      	beq.n	80057a8 <HAL_UART_Init+0x30>
 800578e:	f5a2 4274 	sub.w	r2, r2, #62464	; 0xf400
 8005792:	4293      	cmp	r3, r2
 8005794:	d008      	beq.n	80057a8 <HAL_UART_Init+0x30>
 8005796:	f502 6280 	add.w	r2, r2, #1024	; 0x400
 800579a:	4293      	cmp	r3, r2
 800579c:	d004      	beq.n	80057a8 <HAL_UART_Init+0x30>
 800579e:	f240 110f 	movw	r1, #271	; 0x10f
 80057a2:	4827      	ldr	r0, [pc, #156]	; (8005840 <HAL_UART_Init+0xc8>)
 80057a4:	f7fc fbbf 	bl	8001f26 <assert_failed>
    assert_param(IS_UART_HARDWARE_FLOW_CONTROL(huart->Init.HwFlowCtl));
 80057a8:	69a3      	ldr	r3, [r4, #24]
 80057aa:	f433 7340 	bics.w	r3, r3, #768	; 0x300
 80057ae:	d004      	beq.n	80057ba <HAL_UART_Init+0x42>
 80057b0:	f44f 7188 	mov.w	r1, #272	; 0x110
    assert_param(IS_UART_INSTANCE(huart->Instance));
 80057b4:	4822      	ldr	r0, [pc, #136]	; (8005840 <HAL_UART_Init+0xc8>)
 80057b6:	f7fc fbb6 	bl	8001f26 <assert_failed>
  assert_param(IS_UART_WORD_LENGTH(huart->Init.WordLength));
 80057ba:	68a3      	ldr	r3, [r4, #8]
 80057bc:	f433 5380 	bics.w	r3, r3, #4096	; 0x1000
 80057c0:	d004      	beq.n	80057cc <HAL_UART_Init+0x54>
 80057c2:	f44f 718b 	mov.w	r1, #278	; 0x116
 80057c6:	481e      	ldr	r0, [pc, #120]	; (8005840 <HAL_UART_Init+0xc8>)
 80057c8:	f7fc fbad 	bl	8001f26 <assert_failed>
  if(huart->gState == HAL_UART_STATE_RESET)
 80057cc:	f894 3039 	ldrb.w	r3, [r4, #57]	; 0x39
 80057d0:	f003 02ff 	and.w	r2, r3, #255	; 0xff
 80057d4:	b923      	cbnz	r3, 80057e0 <HAL_UART_Init+0x68>
    huart->Lock = HAL_UNLOCKED;
 80057d6:	f884 2038 	strb.w	r2, [r4, #56]	; 0x38
    HAL_UART_MspInit(huart);
 80057da:	4620      	mov	r0, r4
 80057dc:	f7fd f88a 	bl	80028f4 <HAL_UART_MspInit>
  huart->gState = HAL_UART_STATE_BUSY;
 80057e0:	2324      	movs	r3, #36	; 0x24
  __HAL_UART_DISABLE(huart);
 80057e2:	6822      	ldr	r2, [r4, #0]
  huart->gState = HAL_UART_STATE_BUSY;
 80057e4:	f884 3039 	strb.w	r3, [r4, #57]	; 0x39
  __HAL_UART_DISABLE(huart);
 80057e8:	68d3      	ldr	r3, [r2, #12]
  UART_SetConfig(huart);
 80057ea:	4620      	mov	r0, r4
  __HAL_UART_DISABLE(huart);
 80057ec:	f423 5300 	bic.w	r3, r3, #8192	; 0x2000
 80057f0:	60d3      	str	r3, [r2, #12]
  UART_SetConfig(huart);
 80057f2:	f7ff feef 	bl	80055d4 <UART_SetConfig>
  CLEAR_BIT(huart->Instance->CR2, (USART_CR2_LINEN | USART_CR2_CLKEN));
 80057f6:	6823      	ldr	r3, [r4, #0]
  huart->ErrorCode = HAL_UART_ERROR_NONE;
 80057f8:	2000      	movs	r0, #0
  CLEAR_BIT(huart->Instance->CR2, (USART_CR2_LINEN | USART_CR2_CLKEN));
 80057fa:	691a      	ldr	r2, [r3, #16]
 80057fc:	f422 4290 	bic.w	r2, r2, #18432	; 0x4800
 8005800:	611a      	str	r2, [r3, #16]
  CLEAR_BIT(huart->Instance->CR3, (USART_CR3_SCEN | USART_CR3_HDSEL | USART_CR3_IREN));
 8005802:	695a      	ldr	r2, [r3, #20]
 8005804:	f022 022a 	bic.w	r2, r2, #42	; 0x2a
 8005808:	615a      	str	r2, [r3, #20]
  __HAL_UART_ENABLE(huart);
 800580a:	68da      	ldr	r2, [r3, #12]
 800580c:	f442 5200 	orr.w	r2, r2, #8192	; 0x2000
 8005810:	60da      	str	r2, [r3, #12]
  huart->gState= HAL_UART_STATE_READY;
 8005812:	2320      	movs	r3, #32
  huart->ErrorCode = HAL_UART_ERROR_NONE;
 8005814:	63e0      	str	r0, [r4, #60]	; 0x3c
  huart->gState= HAL_UART_STATE_READY;
 8005816:	f884 3039 	strb.w	r3, [r4, #57]	; 0x39
  huart->RxState= HAL_UART_STATE_READY;
 800581a:	f884 303a 	strb.w	r3, [r4, #58]	; 0x3a
  return HAL_OK;
 800581e:	bd10      	pop	{r4, pc}
    assert_param(IS_UART_INSTANCE(huart->Instance));
 8005820:	4293      	cmp	r3, r2
 8005822:	d0ca      	beq.n	80057ba <HAL_UART_Init+0x42>
 8005824:	4a07      	ldr	r2, [pc, #28]	; (8005844 <HAL_UART_Init+0xcc>)
 8005826:	4293      	cmp	r3, r2
 8005828:	d0c7      	beq.n	80057ba <HAL_UART_Init+0x42>
 800582a:	f502 6280 	add.w	r2, r2, #1024	; 0x400
 800582e:	4293      	cmp	r3, r2
 8005830:	d0c3      	beq.n	80057ba <HAL_UART_Init+0x42>
 8005832:	f44f 718a 	mov.w	r1, #276	; 0x114
 8005836:	e7bd      	b.n	80057b4 <HAL_UART_Init+0x3c>
    return HAL_ERROR;
 8005838:	2001      	movs	r0, #1
}
 800583a:	bd10      	pop	{r4, pc}
 800583c:	40013800 	.word	0x40013800
 8005840:	08006888 	.word	0x08006888
 8005844:	40004400 	.word	0x40004400

08005848 <HAL_UART_Transmit_DMA>:
{
 8005848:	b538      	push	{r3, r4, r5, lr}
 800584a:	4604      	mov	r4, r0
 800584c:	4613      	mov	r3, r2
  if(huart->gState == HAL_UART_STATE_READY)
 800584e:	f894 2039 	ldrb.w	r2, [r4, #57]	; 0x39
 8005852:	2a20      	cmp	r2, #32
 8005854:	d12a      	bne.n	80058ac <HAL_UART_Transmit_DMA+0x64>
    if((pData == NULL) || (Size == 0U))
 8005856:	b339      	cbz	r1, 80058a8 <HAL_UART_Transmit_DMA+0x60>
 8005858:	b333      	cbz	r3, 80058a8 <HAL_UART_Transmit_DMA+0x60>
    __HAL_LOCK(huart);
 800585a:	f894 2038 	ldrb.w	r2, [r4, #56]	; 0x38
 800585e:	2a01      	cmp	r2, #1
 8005860:	d024      	beq.n	80058ac <HAL_UART_Transmit_DMA+0x64>
 8005862:	2201      	movs	r2, #1
    huart->ErrorCode = HAL_UART_ERROR_NONE;
 8005864:	2500      	movs	r5, #0
    __HAL_LOCK(huart);
 8005866:	f884 2038 	strb.w	r2, [r4, #56]	; 0x38
    huart->gState = HAL_UART_STATE_BUSY_TX;
 800586a:	2221      	movs	r2, #33	; 0x21
    huart->TxXferCount = Size;
 800586c:	84e3      	strh	r3, [r4, #38]	; 0x26
    huart->hdmatx->XferCpltCallback = UART_DMATransmitCplt;
 800586e:	6b20      	ldr	r0, [r4, #48]	; 0x30
    huart->ErrorCode = HAL_UART_ERROR_NONE;
 8005870:	63e5      	str	r5, [r4, #60]	; 0x3c
    huart->gState = HAL_UART_STATE_BUSY_TX;
 8005872:	f884 2039 	strb.w	r2, [r4, #57]	; 0x39
    huart->hdmatx->XferCpltCallback = UART_DMATransmitCplt;
 8005876:	4a0e      	ldr	r2, [pc, #56]	; (80058b0 <HAL_UART_Transmit_DMA+0x68>)
    huart->TxXferSize = Size;
 8005878:	84a3      	strh	r3, [r4, #36]	; 0x24
    huart->pTxBuffPtr = pData;
 800587a:	6221      	str	r1, [r4, #32]
    huart->hdmatx->XferCpltCallback = UART_DMATransmitCplt;
 800587c:	6282      	str	r2, [r0, #40]	; 0x28
    huart->hdmatx->XferHalfCpltCallback = UART_DMATxHalfCplt;
 800587e:	4a0d      	ldr	r2, [pc, #52]	; (80058b4 <HAL_UART_Transmit_DMA+0x6c>)
    huart->hdmatx->XferAbortCallback = NULL;
 8005880:	6345      	str	r5, [r0, #52]	; 0x34
    huart->hdmatx->XferHalfCpltCallback = UART_DMATxHalfCplt;
 8005882:	62c2      	str	r2, [r0, #44]	; 0x2c
    huart->hdmatx->XferErrorCallback = UART_DMAError;
 8005884:	4a0c      	ldr	r2, [pc, #48]	; (80058b8 <HAL_UART_Transmit_DMA+0x70>)
 8005886:	6302      	str	r2, [r0, #48]	; 0x30
    HAL_DMA_Start_IT(huart->hdmatx, *(uint32_t*)tmp, (uint32_t)&huart->Instance->DR, Size);
 8005888:	6822      	ldr	r2, [r4, #0]
 800588a:	3204      	adds	r2, #4
 800588c:	f7fd fd78 	bl	8003380 <HAL_DMA_Start_IT>
    __HAL_UART_CLEAR_FLAG(huart, UART_FLAG_TC);
 8005890:	f06f 0240 	mvn.w	r2, #64	; 0x40
 8005894:	6823      	ldr	r3, [r4, #0]
    return HAL_OK;
 8005896:	4628      	mov	r0, r5
    __HAL_UART_CLEAR_FLAG(huart, UART_FLAG_TC);
 8005898:	601a      	str	r2, [r3, #0]
    SET_BIT(huart->Instance->CR3, USART_CR3_DMAT);
 800589a:	695a      	ldr	r2, [r3, #20]
    __HAL_UNLOCK(huart);
 800589c:	f884 5038 	strb.w	r5, [r4, #56]	; 0x38
    SET_BIT(huart->Instance->CR3, USART_CR3_DMAT);
 80058a0:	f042 0280 	orr.w	r2, r2, #128	; 0x80
 80058a4:	615a      	str	r2, [r3, #20]
    return HAL_OK;
 80058a6:	bd38      	pop	{r3, r4, r5, pc}
      return HAL_ERROR;
 80058a8:	2001      	movs	r0, #1
 80058aa:	bd38      	pop	{r3, r4, r5, pc}
    return HAL_BUSY;
 80058ac:	2002      	movs	r0, #2
}
 80058ae:	bd38      	pop	{r3, r4, r5, pc}
 80058b0:	080058bd 	.word	0x080058bd
 80058b4:	080058eb 	.word	0x080058eb
 80058b8:	08005975 	.word	0x08005975

080058bc <UART_DMATransmitCplt>:
{
 80058bc:	b508      	push	{r3, lr}
  if((hdma->Instance->CCR & DMA_CCR_CIRC) == 0U)
 80058be:	6803      	ldr	r3, [r0, #0]
  UART_HandleTypeDef* huart = ( UART_HandleTypeDef* )((DMA_HandleTypeDef* )hdma)->Parent;
 80058c0:	6a42      	ldr	r2, [r0, #36]	; 0x24
  if((hdma->Instance->CCR & DMA_CCR_CIRC) == 0U)
 80058c2:	681b      	ldr	r3, [r3, #0]
 80058c4:	f013 0320 	ands.w	r3, r3, #32
 80058c8:	d10a      	bne.n	80058e0 <UART_DMATransmitCplt+0x24>
    huart->TxXferCount = 0U;
 80058ca:	84d3      	strh	r3, [r2, #38]	; 0x26
    CLEAR_BIT(huart->Instance->CR3, USART_CR3_DMAT);
 80058cc:	6813      	ldr	r3, [r2, #0]
 80058ce:	695a      	ldr	r2, [r3, #20]
 80058d0:	f022 0280 	bic.w	r2, r2, #128	; 0x80
 80058d4:	615a      	str	r2, [r3, #20]
    SET_BIT(huart->Instance->CR1, USART_CR1_TCIE);
 80058d6:	68da      	ldr	r2, [r3, #12]
 80058d8:	f042 0240 	orr.w	r2, r2, #64	; 0x40
 80058dc:	60da      	str	r2, [r3, #12]
 80058de:	bd08      	pop	{r3, pc}
    HAL_UART_TxCpltCallback(huart);
 80058e0:	4610      	mov	r0, r2
 80058e2:	f7fb fbed 	bl	80010c0 <HAL_UART_TxCpltCallback>
 80058e6:	bd08      	pop	{r3, pc}

080058e8 <HAL_UART_TxHalfCpltCallback>:
 80058e8:	4770      	bx	lr

080058ea <UART_DMATxHalfCplt>:
{
 80058ea:	b508      	push	{r3, lr}
  HAL_UART_TxHalfCpltCallback(huart);
 80058ec:	6a40      	ldr	r0, [r0, #36]	; 0x24
 80058ee:	f7ff fffb 	bl	80058e8 <HAL_UART_TxHalfCpltCallback>
 80058f2:	bd08      	pop	{r3, pc}

080058f4 <HAL_UART_RxCpltCallback>:
 80058f4:	4770      	bx	lr

080058f6 <UART_Receive_IT>:
  if(huart->RxState == HAL_UART_STATE_BUSY_RX) 
 80058f6:	f890 303a 	ldrb.w	r3, [r0, #58]	; 0x3a
{
 80058fa:	b510      	push	{r4, lr}
  if(huart->RxState == HAL_UART_STATE_BUSY_RX) 
 80058fc:	2b22      	cmp	r3, #34	; 0x22
 80058fe:	d136      	bne.n	800596e <UART_Receive_IT+0x78>
    if(huart->Init.WordLength == UART_WORDLENGTH_9B)
 8005900:	6883      	ldr	r3, [r0, #8]
 8005902:	6901      	ldr	r1, [r0, #16]
 8005904:	f5b3 5f80 	cmp.w	r3, #4096	; 0x1000
 8005908:	6802      	ldr	r2, [r0, #0]
 800590a:	6a83      	ldr	r3, [r0, #40]	; 0x28
 800590c:	d123      	bne.n	8005956 <UART_Receive_IT+0x60>
        *tmp = (uint16_t)(huart->Instance->DR & (uint16_t)0x01FF);
 800590e:	6852      	ldr	r2, [r2, #4]
      if(huart->Init.Parity == UART_PARITY_NONE)
 8005910:	b9e9      	cbnz	r1, 800594e <UART_Receive_IT+0x58>
        *tmp = (uint16_t)(huart->Instance->DR & (uint16_t)0x01FF);
 8005912:	f3c2 0208 	ubfx	r2, r2, #0, #9
 8005916:	f823 2b02 	strh.w	r2, [r3], #2
        huart->pRxBuffPtr += 1U;
 800591a:	6283      	str	r3, [r0, #40]	; 0x28
    if(--huart->RxXferCount == 0U)
 800591c:	8dc4      	ldrh	r4, [r0, #46]	; 0x2e
 800591e:	3c01      	subs	r4, #1
 8005920:	b2a4      	uxth	r4, r4
 8005922:	85c4      	strh	r4, [r0, #46]	; 0x2e
 8005924:	b98c      	cbnz	r4, 800594a <UART_Receive_IT+0x54>
      __HAL_UART_DISABLE_IT(huart, UART_IT_RXNE);
 8005926:	6803      	ldr	r3, [r0, #0]
 8005928:	68da      	ldr	r2, [r3, #12]
 800592a:	f022 0220 	bic.w	r2, r2, #32
 800592e:	60da      	str	r2, [r3, #12]
      __HAL_UART_DISABLE_IT(huart, UART_IT_PE);
 8005930:	68da      	ldr	r2, [r3, #12]
 8005932:	f422 7280 	bic.w	r2, r2, #256	; 0x100
 8005936:	60da      	str	r2, [r3, #12]
        __HAL_UART_DISABLE_IT(huart, UART_IT_ERR);
 8005938:	695a      	ldr	r2, [r3, #20]
 800593a:	f022 0201 	bic.w	r2, r2, #1
 800593e:	615a      	str	r2, [r3, #20]
      huart->RxState = HAL_UART_STATE_READY;
 8005940:	2320      	movs	r3, #32
 8005942:	f880 303a 	strb.w	r3, [r0, #58]	; 0x3a
      HAL_UART_RxCpltCallback(huart);
 8005946:	f7ff ffd5 	bl	80058f4 <HAL_UART_RxCpltCallback>
    if(--huart->RxXferCount == 0U)
 800594a:	2000      	movs	r0, #0
}
 800594c:	bd10      	pop	{r4, pc}
        *tmp = (uint16_t)(huart->Instance->DR & (uint16_t)0x00FF);
 800594e:	b2d2      	uxtb	r2, r2
 8005950:	f823 2b01 	strh.w	r2, [r3], #1
 8005954:	e7e1      	b.n	800591a <UART_Receive_IT+0x24>
      if(huart->Init.Parity == UART_PARITY_NONE)
 8005956:	b921      	cbnz	r1, 8005962 <UART_Receive_IT+0x6c>
        *huart->pRxBuffPtr++ = (uint8_t)(huart->Instance->DR & (uint8_t)0x00FF);
 8005958:	1c59      	adds	r1, r3, #1
 800595a:	6852      	ldr	r2, [r2, #4]
 800595c:	6281      	str	r1, [r0, #40]	; 0x28
        *huart->pRxBuffPtr++ = (uint8_t)(huart->Instance->DR & (uint8_t)0x007F);
 800595e:	701a      	strb	r2, [r3, #0]
 8005960:	e7dc      	b.n	800591c <UART_Receive_IT+0x26>
 8005962:	6852      	ldr	r2, [r2, #4]
 8005964:	1c59      	adds	r1, r3, #1
 8005966:	6281      	str	r1, [r0, #40]	; 0x28
 8005968:	f002 027f 	and.w	r2, r2, #127	; 0x7f
 800596c:	e7f7      	b.n	800595e <UART_Receive_IT+0x68>
    return HAL_BUSY;
 800596e:	2002      	movs	r0, #2
 8005970:	bd10      	pop	{r4, pc}

08005972 <HAL_UART_ErrorCallback>:
 8005972:	4770      	bx	lr

08005974 <UART_DMAError>:
  UART_HandleTypeDef* huart = ( UART_HandleTypeDef* )((DMA_HandleTypeDef* )hdma)->Parent;
 8005974:	6a41      	ldr	r1, [r0, #36]	; 0x24
{
 8005976:	b508      	push	{r3, lr}
  dmarequest = HAL_IS_BIT_SET(huart->Instance->CR3, USART_CR3_DMAT);
 8005978:	680b      	ldr	r3, [r1, #0]
 800597a:	695a      	ldr	r2, [r3, #20]
  if((huart->gState == HAL_UART_STATE_BUSY_TX) && dmarequest)
 800597c:	f891 0039 	ldrb.w	r0, [r1, #57]	; 0x39
 8005980:	2821      	cmp	r0, #33	; 0x21
 8005982:	d10a      	bne.n	800599a <UART_DMAError+0x26>
 8005984:	0612      	lsls	r2, r2, #24
 8005986:	d508      	bpl.n	800599a <UART_DMAError+0x26>
    huart->TxXferCount = 0U;
 8005988:	2200      	movs	r2, #0
 800598a:	84ca      	strh	r2, [r1, #38]	; 0x26
  CLEAR_BIT(huart->Instance->CR1, (USART_CR1_TXEIE | USART_CR1_TCIE));
 800598c:	68da      	ldr	r2, [r3, #12]
 800598e:	f022 02c0 	bic.w	r2, r2, #192	; 0xc0
 8005992:	60da      	str	r2, [r3, #12]
  huart->gState = HAL_UART_STATE_READY;
 8005994:	2220      	movs	r2, #32
 8005996:	f881 2039 	strb.w	r2, [r1, #57]	; 0x39
  dmarequest = HAL_IS_BIT_SET(huart->Instance->CR3, USART_CR3_DMAR); 
 800599a:	695b      	ldr	r3, [r3, #20]
  if((huart->RxState == HAL_UART_STATE_BUSY_RX) && dmarequest)
 800599c:	f891 203a 	ldrb.w	r2, [r1, #58]	; 0x3a
 80059a0:	2a22      	cmp	r2, #34	; 0x22
 80059a2:	d106      	bne.n	80059b2 <UART_DMAError+0x3e>
 80059a4:	065b      	lsls	r3, r3, #25
 80059a6:	d504      	bpl.n	80059b2 <UART_DMAError+0x3e>
    huart->RxXferCount = 0U;
 80059a8:	2300      	movs	r3, #0
    UART_EndRxTransfer(huart);
 80059aa:	4608      	mov	r0, r1
    huart->RxXferCount = 0U;
 80059ac:	85cb      	strh	r3, [r1, #46]	; 0x2e
    UART_EndRxTransfer(huart);
 80059ae:	f7ff fe03 	bl	80055b8 <UART_EndRxTransfer>
  huart->ErrorCode |= HAL_UART_ERROR_DMA;
 80059b2:	6bcb      	ldr	r3, [r1, #60]	; 0x3c
  HAL_UART_ErrorCallback(huart);
 80059b4:	4608      	mov	r0, r1
  huart->ErrorCode |= HAL_UART_ERROR_DMA;
 80059b6:	f043 0310 	orr.w	r3, r3, #16
 80059ba:	63cb      	str	r3, [r1, #60]	; 0x3c
  HAL_UART_ErrorCallback(huart);
 80059bc:	f7ff ffd9 	bl	8005972 <HAL_UART_ErrorCallback>
 80059c0:	bd08      	pop	{r3, pc}
	...

080059c4 <HAL_UART_IRQHandler>:
   uint32_t isrflags   = READ_REG(huart->Instance->SR);
 80059c4:	6803      	ldr	r3, [r0, #0]
{
 80059c6:	b570      	push	{r4, r5, r6, lr}
   uint32_t isrflags   = READ_REG(huart->Instance->SR);
 80059c8:	681a      	ldr	r2, [r3, #0]
{
 80059ca:	4604      	mov	r4, r0
  if(errorflags == RESET)
 80059cc:	0716      	lsls	r6, r2, #28
   uint32_t cr1its     = READ_REG(huart->Instance->CR1);
 80059ce:	68d9      	ldr	r1, [r3, #12]
   uint32_t cr3its     = READ_REG(huart->Instance->CR3);
 80059d0:	695d      	ldr	r5, [r3, #20]
  if(errorflags == RESET)
 80059d2:	d107      	bne.n	80059e4 <HAL_UART_IRQHandler+0x20>
    if(((isrflags & USART_SR_RXNE) != RESET) && ((cr1its & USART_CR1_RXNEIE) != RESET))
 80059d4:	0696      	lsls	r6, r2, #26
 80059d6:	d55a      	bpl.n	8005a8e <HAL_UART_IRQHandler+0xca>
 80059d8:	068d      	lsls	r5, r1, #26
 80059da:	d558      	bpl.n	8005a8e <HAL_UART_IRQHandler+0xca>
}
 80059dc:	e8bd 4070 	ldmia.w	sp!, {r4, r5, r6, lr}
      UART_Receive_IT(huart);
 80059e0:	f7ff bf89 	b.w	80058f6 <UART_Receive_IT>
  if((errorflags != RESET) && (((cr3its & USART_CR3_EIE) != RESET) || ((cr1its & (USART_CR1_RXNEIE | USART_CR1_PEIE)) != RESET)))
 80059e4:	f015 0501 	ands.w	r5, r5, #1
 80059e8:	d102      	bne.n	80059f0 <HAL_UART_IRQHandler+0x2c>
 80059ea:	f411 7f90 	tst.w	r1, #288	; 0x120
 80059ee:	d04e      	beq.n	8005a8e <HAL_UART_IRQHandler+0xca>
    if(((isrflags & USART_SR_PE) != RESET) && ((cr1its & USART_CR1_PEIE) != RESET))
 80059f0:	07d3      	lsls	r3, r2, #31
 80059f2:	d505      	bpl.n	8005a00 <HAL_UART_IRQHandler+0x3c>
 80059f4:	05ce      	lsls	r6, r1, #23
      huart->ErrorCode |= HAL_UART_ERROR_PE;
 80059f6:	bf42      	ittt	mi
 80059f8:	6be3      	ldrmi	r3, [r4, #60]	; 0x3c
 80059fa:	f043 0301 	orrmi.w	r3, r3, #1
 80059fe:	63e3      	strmi	r3, [r4, #60]	; 0x3c
    if(((isrflags & USART_SR_NE) != RESET) && ((cr3its & USART_CR3_EIE) != RESET))
 8005a00:	0750      	lsls	r0, r2, #29
 8005a02:	d504      	bpl.n	8005a0e <HAL_UART_IRQHandler+0x4a>
 8005a04:	b11d      	cbz	r5, 8005a0e <HAL_UART_IRQHandler+0x4a>
      huart->ErrorCode |= HAL_UART_ERROR_NE;
 8005a06:	6be3      	ldr	r3, [r4, #60]	; 0x3c
 8005a08:	f043 0302 	orr.w	r3, r3, #2
 8005a0c:	63e3      	str	r3, [r4, #60]	; 0x3c
    if(((isrflags & USART_SR_FE) != RESET) && ((cr3its & USART_CR3_EIE) != RESET))
 8005a0e:	0793      	lsls	r3, r2, #30
 8005a10:	d504      	bpl.n	8005a1c <HAL_UART_IRQHandler+0x58>
 8005a12:	b11d      	cbz	r5, 8005a1c <HAL_UART_IRQHandler+0x58>
      huart->ErrorCode |= HAL_UART_ERROR_FE;
 8005a14:	6be3      	ldr	r3, [r4, #60]	; 0x3c
 8005a16:	f043 0304 	orr.w	r3, r3, #4
 8005a1a:	63e3      	str	r3, [r4, #60]	; 0x3c
    if(((isrflags & USART_SR_ORE) != RESET) && ((cr3its & USART_CR3_EIE) != RESET))
 8005a1c:	0716      	lsls	r6, r2, #28
 8005a1e:	d504      	bpl.n	8005a2a <HAL_UART_IRQHandler+0x66>
 8005a20:	b11d      	cbz	r5, 8005a2a <HAL_UART_IRQHandler+0x66>
      huart->ErrorCode |= HAL_UART_ERROR_ORE;
 8005a22:	6be3      	ldr	r3, [r4, #60]	; 0x3c
 8005a24:	f043 0308 	orr.w	r3, r3, #8
 8005a28:	63e3      	str	r3, [r4, #60]	; 0x3c
    if(huart->ErrorCode != HAL_UART_ERROR_NONE)
 8005a2a:	6be3      	ldr	r3, [r4, #60]	; 0x3c
 8005a2c:	2b00      	cmp	r3, #0
 8005a2e:	d066      	beq.n	8005afe <HAL_UART_IRQHandler+0x13a>
      if(((isrflags & USART_SR_RXNE) != RESET) && ((cr1its & USART_CR1_RXNEIE) != RESET))
 8005a30:	0695      	lsls	r5, r2, #26
 8005a32:	d504      	bpl.n	8005a3e <HAL_UART_IRQHandler+0x7a>
 8005a34:	0688      	lsls	r0, r1, #26
 8005a36:	d502      	bpl.n	8005a3e <HAL_UART_IRQHandler+0x7a>
        UART_Receive_IT(huart);
 8005a38:	4620      	mov	r0, r4
 8005a3a:	f7ff ff5c 	bl	80058f6 <UART_Receive_IT>
      dmarequest = HAL_IS_BIT_SET(huart->Instance->CR3, USART_CR3_DMAR);
 8005a3e:	6823      	ldr	r3, [r4, #0]
        UART_EndRxTransfer(huart);
 8005a40:	4620      	mov	r0, r4
      dmarequest = HAL_IS_BIT_SET(huart->Instance->CR3, USART_CR3_DMAR);
 8005a42:	695d      	ldr	r5, [r3, #20]
      if(((huart->ErrorCode & HAL_UART_ERROR_ORE) != RESET) || dmarequest)
 8005a44:	6be2      	ldr	r2, [r4, #60]	; 0x3c
 8005a46:	0711      	lsls	r1, r2, #28
 8005a48:	d402      	bmi.n	8005a50 <HAL_UART_IRQHandler+0x8c>
 8005a4a:	f015 0540 	ands.w	r5, r5, #64	; 0x40
 8005a4e:	d01a      	beq.n	8005a86 <HAL_UART_IRQHandler+0xc2>
        UART_EndRxTransfer(huart);
 8005a50:	f7ff fdb2 	bl	80055b8 <UART_EndRxTransfer>
        if(HAL_IS_BIT_SET(huart->Instance->CR3, USART_CR3_DMAR))
 8005a54:	6823      	ldr	r3, [r4, #0]
 8005a56:	695a      	ldr	r2, [r3, #20]
 8005a58:	0652      	lsls	r2, r2, #25
 8005a5a:	d510      	bpl.n	8005a7e <HAL_UART_IRQHandler+0xba>
          CLEAR_BIT(huart->Instance->CR3, USART_CR3_DMAR);
 8005a5c:	695a      	ldr	r2, [r3, #20]
          if(huart->hdmarx != NULL)
 8005a5e:	6b60      	ldr	r0, [r4, #52]	; 0x34
          CLEAR_BIT(huart->Instance->CR3, USART_CR3_DMAR);
 8005a60:	f022 0240 	bic.w	r2, r2, #64	; 0x40
 8005a64:	615a      	str	r2, [r3, #20]
          if(huart->hdmarx != NULL)
 8005a66:	b150      	cbz	r0, 8005a7e <HAL_UART_IRQHandler+0xba>
            huart->hdmarx->XferAbortCallback = UART_DMAAbortOnError;
 8005a68:	4b25      	ldr	r3, [pc, #148]	; (8005b00 <HAL_UART_IRQHandler+0x13c>)
 8005a6a:	6343      	str	r3, [r0, #52]	; 0x34
            if(HAL_DMA_Abort_IT(huart->hdmarx) != HAL_OK)
 8005a6c:	f7fd fcdc 	bl	8003428 <HAL_DMA_Abort_IT>
 8005a70:	2800      	cmp	r0, #0
 8005a72:	d044      	beq.n	8005afe <HAL_UART_IRQHandler+0x13a>
              huart->hdmarx->XferAbortCallback(huart->hdmarx);
 8005a74:	6b60      	ldr	r0, [r4, #52]	; 0x34
}
 8005a76:	e8bd 4070 	ldmia.w	sp!, {r4, r5, r6, lr}
              huart->hdmarx->XferAbortCallback(huart->hdmarx);
 8005a7a:	6b43      	ldr	r3, [r0, #52]	; 0x34
 8005a7c:	4718      	bx	r3
            HAL_UART_ErrorCallback(huart);
 8005a7e:	4620      	mov	r0, r4
 8005a80:	f7ff ff77 	bl	8005972 <HAL_UART_ErrorCallback>
 8005a84:	bd70      	pop	{r4, r5, r6, pc}
        HAL_UART_ErrorCallback(huart);
 8005a86:	f7ff ff74 	bl	8005972 <HAL_UART_ErrorCallback>
        huart->ErrorCode = HAL_UART_ERROR_NONE;
 8005a8a:	63e5      	str	r5, [r4, #60]	; 0x3c
 8005a8c:	bd70      	pop	{r4, r5, r6, pc}
  if(((isrflags & USART_SR_TXE) != RESET) && ((cr1its & USART_CR1_TXEIE) != RESET))
 8005a8e:	0616      	lsls	r6, r2, #24
 8005a90:	d527      	bpl.n	8005ae2 <HAL_UART_IRQHandler+0x11e>
 8005a92:	060d      	lsls	r5, r1, #24
 8005a94:	d525      	bpl.n	8005ae2 <HAL_UART_IRQHandler+0x11e>
  if(huart->gState == HAL_UART_STATE_BUSY_TX)
 8005a96:	f894 2039 	ldrb.w	r2, [r4, #57]	; 0x39
 8005a9a:	2a21      	cmp	r2, #33	; 0x21
 8005a9c:	d12f      	bne.n	8005afe <HAL_UART_IRQHandler+0x13a>
    if(huart->Init.WordLength == UART_WORDLENGTH_9B)
 8005a9e:	68a2      	ldr	r2, [r4, #8]
 8005aa0:	f5b2 5f80 	cmp.w	r2, #4096	; 0x1000
 8005aa4:	6a22      	ldr	r2, [r4, #32]
 8005aa6:	d117      	bne.n	8005ad8 <HAL_UART_IRQHandler+0x114>
      huart->Instance->DR = (uint16_t)(*tmp & (uint16_t)0x01FF);
 8005aa8:	8811      	ldrh	r1, [r2, #0]
 8005aaa:	f3c1 0108 	ubfx	r1, r1, #0, #9
 8005aae:	6059      	str	r1, [r3, #4]
      if(huart->Init.Parity == UART_PARITY_NONE)
 8005ab0:	6921      	ldr	r1, [r4, #16]
 8005ab2:	b979      	cbnz	r1, 8005ad4 <HAL_UART_IRQHandler+0x110>
        huart->pTxBuffPtr += 2U;
 8005ab4:	3202      	adds	r2, #2
        huart->pTxBuffPtr += 1U;
 8005ab6:	6222      	str	r2, [r4, #32]
    if(--huart->TxXferCount == 0U)
 8005ab8:	8ce2      	ldrh	r2, [r4, #38]	; 0x26
 8005aba:	3a01      	subs	r2, #1
 8005abc:	b292      	uxth	r2, r2
 8005abe:	84e2      	strh	r2, [r4, #38]	; 0x26
 8005ac0:	b9ea      	cbnz	r2, 8005afe <HAL_UART_IRQHandler+0x13a>
      __HAL_UART_DISABLE_IT(huart, UART_IT_TXE);
 8005ac2:	68da      	ldr	r2, [r3, #12]
 8005ac4:	f022 0280 	bic.w	r2, r2, #128	; 0x80
 8005ac8:	60da      	str	r2, [r3, #12]
      __HAL_UART_ENABLE_IT(huart, UART_IT_TC);
 8005aca:	68da      	ldr	r2, [r3, #12]
 8005acc:	f042 0240 	orr.w	r2, r2, #64	; 0x40
 8005ad0:	60da      	str	r2, [r3, #12]
 8005ad2:	bd70      	pop	{r4, r5, r6, pc}
        huart->pTxBuffPtr += 1U;
 8005ad4:	3201      	adds	r2, #1
 8005ad6:	e7ee      	b.n	8005ab6 <HAL_UART_IRQHandler+0xf2>
      huart->Instance->DR = (uint8_t)(*huart->pTxBuffPtr++ & (uint8_t)0x00FF);
 8005ad8:	1c51      	adds	r1, r2, #1
 8005ada:	6221      	str	r1, [r4, #32]
 8005adc:	7812      	ldrb	r2, [r2, #0]
 8005ade:	605a      	str	r2, [r3, #4]
 8005ae0:	e7ea      	b.n	8005ab8 <HAL_UART_IRQHandler+0xf4>
  if(((isrflags & USART_SR_TC) != RESET) && ((cr1its & USART_CR1_TCIE) != RESET))
 8005ae2:	0650      	lsls	r0, r2, #25
 8005ae4:	d50b      	bpl.n	8005afe <HAL_UART_IRQHandler+0x13a>
 8005ae6:	064a      	lsls	r2, r1, #25
 8005ae8:	d509      	bpl.n	8005afe <HAL_UART_IRQHandler+0x13a>
  __HAL_UART_DISABLE_IT(huart, UART_IT_TC);
 8005aea:	68da      	ldr	r2, [r3, #12]
  HAL_UART_TxCpltCallback(huart);
 8005aec:	4620      	mov	r0, r4
  __HAL_UART_DISABLE_IT(huart, UART_IT_TC);
 8005aee:	f022 0240 	bic.w	r2, r2, #64	; 0x40
 8005af2:	60da      	str	r2, [r3, #12]
  huart->gState = HAL_UART_STATE_READY;
 8005af4:	2320      	movs	r3, #32
 8005af6:	f884 3039 	strb.w	r3, [r4, #57]	; 0x39
  HAL_UART_TxCpltCallback(huart);
 8005afa:	f7fb fae1 	bl	80010c0 <HAL_UART_TxCpltCallback>
 8005afe:	bd70      	pop	{r4, r5, r6, pc}
 8005b00:	08005b05 	.word	0x08005b05

08005b04 <UART_DMAAbortOnError>:
{
 8005b04:	b508      	push	{r3, lr}
  huart->RxXferCount = 0x00U;
 8005b06:	2300      	movs	r3, #0
  UART_HandleTypeDef* huart = ( UART_HandleTypeDef* )((DMA_HandleTypeDef* )hdma)->Parent;
 8005b08:	6a40      	ldr	r0, [r0, #36]	; 0x24
  huart->RxXferCount = 0x00U;
 8005b0a:	85c3      	strh	r3, [r0, #46]	; 0x2e
  huart->TxXferCount = 0x00U;
 8005b0c:	84c3      	strh	r3, [r0, #38]	; 0x26
  HAL_UART_ErrorCallback(huart);
 8005b0e:	f7ff ff30 	bl	8005972 <HAL_UART_ErrorCallback>
 8005b12:	bd08      	pop	{r3, pc}

08005b14 <Reset_Handler>:
  .weak Reset_Handler
  .type Reset_Handler, %function
Reset_Handler:

/* Copy the data segment initializers from flash to SRAM */
  movs r1, #0
 8005b14:	2100      	movs	r1, #0
  b LoopCopyDataInit
 8005b16:	e003      	b.n	8005b20 <LoopCopyDataInit>

08005b18 <CopyDataInit>:

CopyDataInit:
  ldr r3, =_sidata
 8005b18:	4b0b      	ldr	r3, [pc, #44]	; (8005b48 <LoopFillZerobss+0x14>)
  ldr r3, [r3, r1]
 8005b1a:	585b      	ldr	r3, [r3, r1]
  str r3, [r0, r1]
 8005b1c:	5043      	str	r3, [r0, r1]
  adds r1, r1, #4
 8005b1e:	3104      	adds	r1, #4

08005b20 <LoopCopyDataInit>:

LoopCopyDataInit:
  ldr r0, =_sdata
 8005b20:	480a      	ldr	r0, [pc, #40]	; (8005b4c <LoopFillZerobss+0x18>)
  ldr r3, =_edata
 8005b22:	4b0b      	ldr	r3, [pc, #44]	; (8005b50 <LoopFillZerobss+0x1c>)
  adds r2, r0, r1
 8005b24:	1842      	adds	r2, r0, r1
  cmp r2, r3
 8005b26:	429a      	cmp	r2, r3
  bcc CopyDataInit
 8005b28:	d3f6      	bcc.n	8005b18 <CopyDataInit>
  ldr r2, =_sbss
 8005b2a:	4a0a      	ldr	r2, [pc, #40]	; (8005b54 <LoopFillZerobss+0x20>)
  b LoopFillZerobss
 8005b2c:	e002      	b.n	8005b34 <LoopFillZerobss>

08005b2e <FillZerobss>:
/* Zero fill the bss segment. */
FillZerobss:
  movs r3, #0
 8005b2e:	2300      	movs	r3, #0
  str r3, [r2], #4
 8005b30:	f842 3b04 	str.w	r3, [r2], #4

08005b34 <LoopFillZerobss>:

LoopFillZerobss:
  ldr r3, = _ebss
 8005b34:	4b08      	ldr	r3, [pc, #32]	; (8005b58 <LoopFillZerobss+0x24>)
  cmp r2, r3
 8005b36:	429a      	cmp	r2, r3
  bcc FillZerobss
 8005b38:	d3f9      	bcc.n	8005b2e <FillZerobss>

/* Call the clock system intitialization function.*/
    bl  SystemInit
 8005b3a:	f7fc fc9d 	bl	8002478 <SystemInit>
/* Call static constructors */
    bl __libc_init_array
 8005b3e:	f000 f80f 	bl	8005b60 <__libc_init_array>
/* Call the application's entry point.*/
  bl main
 8005b42:	f7fc f85d 	bl	8001c00 <main>
  bx lr
 8005b46:	4770      	bx	lr
  ldr r3, =_sidata
 8005b48:	080068fc 	.word	0x080068fc
  ldr r0, =_sdata
 8005b4c:	20000000 	.word	0x20000000
  ldr r3, =_edata
 8005b50:	200003a8 	.word	0x200003a8
  ldr r2, =_sbss
 8005b54:	200003a8 	.word	0x200003a8
  ldr r3, = _ebss
 8005b58:	20000824 	.word	0x20000824

08005b5c <CAN1_RX1_IRQHandler>:
 * @retval : None
*/
    .section .text.Default_Handler,"ax",%progbits
Default_Handler:
Infinite_Loop:
  b Infinite_Loop
 8005b5c:	e7fe      	b.n	8005b5c <CAN1_RX1_IRQHandler>
	...

08005b60 <__libc_init_array>:
 8005b60:	b570      	push	{r4, r5, r6, lr}
 8005b62:	2500      	movs	r5, #0
 8005b64:	4e0c      	ldr	r6, [pc, #48]	; (8005b98 <__libc_init_array+0x38>)
 8005b66:	4c0d      	ldr	r4, [pc, #52]	; (8005b9c <__libc_init_array+0x3c>)
 8005b68:	1ba4      	subs	r4, r4, r6
 8005b6a:	10a4      	asrs	r4, r4, #2
 8005b6c:	42a5      	cmp	r5, r4
 8005b6e:	d109      	bne.n	8005b84 <__libc_init_array+0x24>
 8005b70:	f000 fc72 	bl	8006458 <_init>
 8005b74:	2500      	movs	r5, #0
 8005b76:	4e0a      	ldr	r6, [pc, #40]	; (8005ba0 <__libc_init_array+0x40>)
 8005b78:	4c0a      	ldr	r4, [pc, #40]	; (8005ba4 <__libc_init_array+0x44>)
 8005b7a:	1ba4      	subs	r4, r4, r6
 8005b7c:	10a4      	asrs	r4, r4, #2
 8005b7e:	42a5      	cmp	r5, r4
 8005b80:	d105      	bne.n	8005b8e <__libc_init_array+0x2e>
 8005b82:	bd70      	pop	{r4, r5, r6, pc}
 8005b84:	f856 3025 	ldr.w	r3, [r6, r5, lsl #2]
 8005b88:	4798      	blx	r3
 8005b8a:	3501      	adds	r5, #1
 8005b8c:	e7ee      	b.n	8005b6c <__libc_init_array+0xc>
 8005b8e:	f856 3025 	ldr.w	r3, [r6, r5, lsl #2]
 8005b92:	4798      	blx	r3
 8005b94:	3501      	adds	r5, #1
 8005b96:	e7f2      	b.n	8005b7e <__libc_init_array+0x1e>
 8005b98:	080068f4 	.word	0x080068f4
 8005b9c:	080068f4 	.word	0x080068f4
 8005ba0:	080068f4 	.word	0x080068f4
 8005ba4:	080068f8 	.word	0x080068f8

08005ba8 <memset>:
 8005ba8:	4603      	mov	r3, r0
 8005baa:	4402      	add	r2, r0
 8005bac:	4293      	cmp	r3, r2
 8005bae:	d100      	bne.n	8005bb2 <memset+0xa>
 8005bb0:	4770      	bx	lr
 8005bb2:	f803 1b01 	strb.w	r1, [r3], #1
 8005bb6:	e7f9      	b.n	8005bac <memset+0x4>

08005bb8 <siprintf>:
 8005bb8:	b40e      	push	{r1, r2, r3}
 8005bba:	f44f 7102 	mov.w	r1, #520	; 0x208
 8005bbe:	b500      	push	{lr}
 8005bc0:	b09c      	sub	sp, #112	; 0x70
 8005bc2:	f8ad 1014 	strh.w	r1, [sp, #20]
 8005bc6:	f06f 4100 	mvn.w	r1, #2147483648	; 0x80000000
 8005bca:	9104      	str	r1, [sp, #16]
 8005bcc:	9107      	str	r1, [sp, #28]
 8005bce:	f64f 71ff 	movw	r1, #65535	; 0xffff
 8005bd2:	ab1d      	add	r3, sp, #116	; 0x74
 8005bd4:	9002      	str	r0, [sp, #8]
 8005bd6:	9006      	str	r0, [sp, #24]
 8005bd8:	4808      	ldr	r0, [pc, #32]	; (8005bfc <siprintf+0x44>)
 8005bda:	f853 2b04 	ldr.w	r2, [r3], #4
 8005bde:	f8ad 1016 	strh.w	r1, [sp, #22]
 8005be2:	6800      	ldr	r0, [r0, #0]
 8005be4:	a902      	add	r1, sp, #8
 8005be6:	9301      	str	r3, [sp, #4]
 8005be8:	f000 f87c 	bl	8005ce4 <_svfiprintf_r>
 8005bec:	2200      	movs	r2, #0
 8005bee:	9b02      	ldr	r3, [sp, #8]
 8005bf0:	701a      	strb	r2, [r3, #0]
 8005bf2:	b01c      	add	sp, #112	; 0x70
 8005bf4:	f85d eb04 	ldr.w	lr, [sp], #4
 8005bf8:	b003      	add	sp, #12
 8005bfa:	4770      	bx	lr
 8005bfc:	20000344 	.word	0x20000344

08005c00 <strcat>:
 8005c00:	4602      	mov	r2, r0
 8005c02:	b510      	push	{r4, lr}
 8005c04:	4613      	mov	r3, r2
 8005c06:	781c      	ldrb	r4, [r3, #0]
 8005c08:	3201      	adds	r2, #1
 8005c0a:	2c00      	cmp	r4, #0
 8005c0c:	d1fa      	bne.n	8005c04 <strcat+0x4>
 8005c0e:	3b01      	subs	r3, #1
 8005c10:	f811 2b01 	ldrb.w	r2, [r1], #1
 8005c14:	f803 2f01 	strb.w	r2, [r3, #1]!
 8005c18:	2a00      	cmp	r2, #0
 8005c1a:	d1f9      	bne.n	8005c10 <strcat+0x10>
 8005c1c:	bd10      	pop	{r4, pc}

08005c1e <strcpy>:
 8005c1e:	4603      	mov	r3, r0
 8005c20:	f811 2b01 	ldrb.w	r2, [r1], #1
 8005c24:	f803 2b01 	strb.w	r2, [r3], #1
 8005c28:	2a00      	cmp	r2, #0
 8005c2a:	d1f9      	bne.n	8005c20 <strcpy+0x2>
 8005c2c:	4770      	bx	lr

08005c2e <__ssputs_r>:
 8005c2e:	e92d 47f0 	stmdb	sp!, {r4, r5, r6, r7, r8, r9, sl, lr}
 8005c32:	688e      	ldr	r6, [r1, #8]
 8005c34:	4682      	mov	sl, r0
 8005c36:	429e      	cmp	r6, r3
 8005c38:	460c      	mov	r4, r1
 8005c3a:	4691      	mov	r9, r2
 8005c3c:	4698      	mov	r8, r3
 8005c3e:	d835      	bhi.n	8005cac <__ssputs_r+0x7e>
 8005c40:	898a      	ldrh	r2, [r1, #12]
 8005c42:	f412 6f90 	tst.w	r2, #1152	; 0x480
 8005c46:	d031      	beq.n	8005cac <__ssputs_r+0x7e>
 8005c48:	2302      	movs	r3, #2
 8005c4a:	6825      	ldr	r5, [r4, #0]
 8005c4c:	6909      	ldr	r1, [r1, #16]
 8005c4e:	1a6f      	subs	r7, r5, r1
 8005c50:	6965      	ldr	r5, [r4, #20]
 8005c52:	eb05 0545 	add.w	r5, r5, r5, lsl #1
 8005c56:	fb95 f5f3 	sdiv	r5, r5, r3
 8005c5a:	f108 0301 	add.w	r3, r8, #1
 8005c5e:	443b      	add	r3, r7
 8005c60:	429d      	cmp	r5, r3
 8005c62:	bf38      	it	cc
 8005c64:	461d      	movcc	r5, r3
 8005c66:	0553      	lsls	r3, r2, #21
 8005c68:	d531      	bpl.n	8005cce <__ssputs_r+0xa0>
 8005c6a:	4629      	mov	r1, r5
 8005c6c:	f000 fb46 	bl	80062fc <_malloc_r>
 8005c70:	4606      	mov	r6, r0
 8005c72:	b950      	cbnz	r0, 8005c8a <__ssputs_r+0x5c>
 8005c74:	230c      	movs	r3, #12
 8005c76:	f8ca 3000 	str.w	r3, [sl]
 8005c7a:	89a3      	ldrh	r3, [r4, #12]
 8005c7c:	f04f 30ff 	mov.w	r0, #4294967295
 8005c80:	f043 0340 	orr.w	r3, r3, #64	; 0x40
 8005c84:	81a3      	strh	r3, [r4, #12]
 8005c86:	e8bd 87f0 	ldmia.w	sp!, {r4, r5, r6, r7, r8, r9, sl, pc}
 8005c8a:	463a      	mov	r2, r7
 8005c8c:	6921      	ldr	r1, [r4, #16]
 8005c8e:	f000 fac3 	bl	8006218 <memcpy>
 8005c92:	89a3      	ldrh	r3, [r4, #12]
 8005c94:	f423 6390 	bic.w	r3, r3, #1152	; 0x480
 8005c98:	f043 0380 	orr.w	r3, r3, #128	; 0x80
 8005c9c:	81a3      	strh	r3, [r4, #12]
 8005c9e:	6126      	str	r6, [r4, #16]
 8005ca0:	443e      	add	r6, r7
 8005ca2:	6026      	str	r6, [r4, #0]
 8005ca4:	4646      	mov	r6, r8
 8005ca6:	6165      	str	r5, [r4, #20]
 8005ca8:	1bed      	subs	r5, r5, r7
 8005caa:	60a5      	str	r5, [r4, #8]
 8005cac:	4546      	cmp	r6, r8
 8005cae:	bf28      	it	cs
 8005cb0:	4646      	movcs	r6, r8
 8005cb2:	4649      	mov	r1, r9
 8005cb4:	4632      	mov	r2, r6
 8005cb6:	6820      	ldr	r0, [r4, #0]
 8005cb8:	f000 fab9 	bl	800622e <memmove>
 8005cbc:	68a3      	ldr	r3, [r4, #8]
 8005cbe:	2000      	movs	r0, #0
 8005cc0:	1b9b      	subs	r3, r3, r6
 8005cc2:	60a3      	str	r3, [r4, #8]
 8005cc4:	6823      	ldr	r3, [r4, #0]
 8005cc6:	441e      	add	r6, r3
 8005cc8:	6026      	str	r6, [r4, #0]
 8005cca:	e8bd 87f0 	ldmia.w	sp!, {r4, r5, r6, r7, r8, r9, sl, pc}
 8005cce:	462a      	mov	r2, r5
 8005cd0:	f000 fb72 	bl	80063b8 <_realloc_r>
 8005cd4:	4606      	mov	r6, r0
 8005cd6:	2800      	cmp	r0, #0
 8005cd8:	d1e1      	bne.n	8005c9e <__ssputs_r+0x70>
 8005cda:	6921      	ldr	r1, [r4, #16]
 8005cdc:	4650      	mov	r0, sl
 8005cde:	f000 fac1 	bl	8006264 <_free_r>
 8005ce2:	e7c7      	b.n	8005c74 <__ssputs_r+0x46>

08005ce4 <_svfiprintf_r>:
 8005ce4:	e92d 4ff0 	stmdb	sp!, {r4, r5, r6, r7, r8, r9, sl, fp, lr}
 8005ce8:	b09d      	sub	sp, #116	; 0x74
 8005cea:	9303      	str	r3, [sp, #12]
 8005cec:	898b      	ldrh	r3, [r1, #12]
 8005cee:	4680      	mov	r8, r0
 8005cf0:	061c      	lsls	r4, r3, #24
 8005cf2:	460d      	mov	r5, r1
 8005cf4:	4616      	mov	r6, r2
 8005cf6:	d50f      	bpl.n	8005d18 <_svfiprintf_r+0x34>
 8005cf8:	690b      	ldr	r3, [r1, #16]
 8005cfa:	b96b      	cbnz	r3, 8005d18 <_svfiprintf_r+0x34>
 8005cfc:	2140      	movs	r1, #64	; 0x40
 8005cfe:	f000 fafd 	bl	80062fc <_malloc_r>
 8005d02:	6028      	str	r0, [r5, #0]
 8005d04:	6128      	str	r0, [r5, #16]
 8005d06:	b928      	cbnz	r0, 8005d14 <_svfiprintf_r+0x30>
 8005d08:	230c      	movs	r3, #12
 8005d0a:	f8c8 3000 	str.w	r3, [r8]
 8005d0e:	f04f 30ff 	mov.w	r0, #4294967295
 8005d12:	e0c4      	b.n	8005e9e <_svfiprintf_r+0x1ba>
 8005d14:	2340      	movs	r3, #64	; 0x40
 8005d16:	616b      	str	r3, [r5, #20]
 8005d18:	2300      	movs	r3, #0
 8005d1a:	9309      	str	r3, [sp, #36]	; 0x24
 8005d1c:	2320      	movs	r3, #32
 8005d1e:	f88d 3029 	strb.w	r3, [sp, #41]	; 0x29
 8005d22:	2330      	movs	r3, #48	; 0x30
 8005d24:	f04f 0b01 	mov.w	fp, #1
 8005d28:	f88d 302a 	strb.w	r3, [sp, #42]	; 0x2a
 8005d2c:	4637      	mov	r7, r6
 8005d2e:	463c      	mov	r4, r7
 8005d30:	f814 3b01 	ldrb.w	r3, [r4], #1
 8005d34:	2b00      	cmp	r3, #0
 8005d36:	d13c      	bne.n	8005db2 <_svfiprintf_r+0xce>
 8005d38:	ebb7 0a06 	subs.w	sl, r7, r6
 8005d3c:	d00b      	beq.n	8005d56 <_svfiprintf_r+0x72>
 8005d3e:	4653      	mov	r3, sl
 8005d40:	4632      	mov	r2, r6
 8005d42:	4629      	mov	r1, r5
 8005d44:	4640      	mov	r0, r8
 8005d46:	f7ff ff72 	bl	8005c2e <__ssputs_r>
 8005d4a:	3001      	adds	r0, #1
 8005d4c:	f000 80a2 	beq.w	8005e94 <_svfiprintf_r+0x1b0>
 8005d50:	9b09      	ldr	r3, [sp, #36]	; 0x24
 8005d52:	4453      	add	r3, sl
 8005d54:	9309      	str	r3, [sp, #36]	; 0x24
 8005d56:	783b      	ldrb	r3, [r7, #0]
 8005d58:	2b00      	cmp	r3, #0
 8005d5a:	f000 809b 	beq.w	8005e94 <_svfiprintf_r+0x1b0>
 8005d5e:	2300      	movs	r3, #0
 8005d60:	f04f 32ff 	mov.w	r2, #4294967295
 8005d64:	9304      	str	r3, [sp, #16]
 8005d66:	9307      	str	r3, [sp, #28]
 8005d68:	9205      	str	r2, [sp, #20]
 8005d6a:	9306      	str	r3, [sp, #24]
 8005d6c:	f88d 3053 	strb.w	r3, [sp, #83]	; 0x53
 8005d70:	931a      	str	r3, [sp, #104]	; 0x68
 8005d72:	2205      	movs	r2, #5
 8005d74:	7821      	ldrb	r1, [r4, #0]
 8005d76:	4850      	ldr	r0, [pc, #320]	; (8005eb8 <_svfiprintf_r+0x1d4>)
 8005d78:	f000 fa40 	bl	80061fc <memchr>
 8005d7c:	1c67      	adds	r7, r4, #1
 8005d7e:	9b04      	ldr	r3, [sp, #16]
 8005d80:	b9d8      	cbnz	r0, 8005dba <_svfiprintf_r+0xd6>
 8005d82:	06d9      	lsls	r1, r3, #27
 8005d84:	bf44      	itt	mi
 8005d86:	2220      	movmi	r2, #32
 8005d88:	f88d 2053 	strbmi.w	r2, [sp, #83]	; 0x53
 8005d8c:	071a      	lsls	r2, r3, #28
 8005d8e:	bf44      	itt	mi
 8005d90:	222b      	movmi	r2, #43	; 0x2b
 8005d92:	f88d 2053 	strbmi.w	r2, [sp, #83]	; 0x53
 8005d96:	7822      	ldrb	r2, [r4, #0]
 8005d98:	2a2a      	cmp	r2, #42	; 0x2a
 8005d9a:	d016      	beq.n	8005dca <_svfiprintf_r+0xe6>
 8005d9c:	2100      	movs	r1, #0
 8005d9e:	200a      	movs	r0, #10
 8005da0:	9a07      	ldr	r2, [sp, #28]
 8005da2:	4627      	mov	r7, r4
 8005da4:	783b      	ldrb	r3, [r7, #0]
 8005da6:	3401      	adds	r4, #1
 8005da8:	3b30      	subs	r3, #48	; 0x30
 8005daa:	2b09      	cmp	r3, #9
 8005dac:	d950      	bls.n	8005e50 <_svfiprintf_r+0x16c>
 8005dae:	b1c9      	cbz	r1, 8005de4 <_svfiprintf_r+0x100>
 8005db0:	e011      	b.n	8005dd6 <_svfiprintf_r+0xf2>
 8005db2:	2b25      	cmp	r3, #37	; 0x25
 8005db4:	d0c0      	beq.n	8005d38 <_svfiprintf_r+0x54>
 8005db6:	4627      	mov	r7, r4
 8005db8:	e7b9      	b.n	8005d2e <_svfiprintf_r+0x4a>
 8005dba:	4a3f      	ldr	r2, [pc, #252]	; (8005eb8 <_svfiprintf_r+0x1d4>)
 8005dbc:	463c      	mov	r4, r7
 8005dbe:	1a80      	subs	r0, r0, r2
 8005dc0:	fa0b f000 	lsl.w	r0, fp, r0
 8005dc4:	4318      	orrs	r0, r3
 8005dc6:	9004      	str	r0, [sp, #16]
 8005dc8:	e7d3      	b.n	8005d72 <_svfiprintf_r+0x8e>
 8005dca:	9a03      	ldr	r2, [sp, #12]
 8005dcc:	1d11      	adds	r1, r2, #4
 8005dce:	6812      	ldr	r2, [r2, #0]
 8005dd0:	9103      	str	r1, [sp, #12]
 8005dd2:	2a00      	cmp	r2, #0
 8005dd4:	db01      	blt.n	8005dda <_svfiprintf_r+0xf6>
 8005dd6:	9207      	str	r2, [sp, #28]
 8005dd8:	e004      	b.n	8005de4 <_svfiprintf_r+0x100>
 8005dda:	4252      	negs	r2, r2
 8005ddc:	f043 0302 	orr.w	r3, r3, #2
 8005de0:	9207      	str	r2, [sp, #28]
 8005de2:	9304      	str	r3, [sp, #16]
 8005de4:	783b      	ldrb	r3, [r7, #0]
 8005de6:	2b2e      	cmp	r3, #46	; 0x2e
 8005de8:	d10d      	bne.n	8005e06 <_svfiprintf_r+0x122>
 8005dea:	787b      	ldrb	r3, [r7, #1]
 8005dec:	1c79      	adds	r1, r7, #1
 8005dee:	2b2a      	cmp	r3, #42	; 0x2a
 8005df0:	d132      	bne.n	8005e58 <_svfiprintf_r+0x174>
 8005df2:	9b03      	ldr	r3, [sp, #12]
 8005df4:	3702      	adds	r7, #2
 8005df6:	1d1a      	adds	r2, r3, #4
 8005df8:	681b      	ldr	r3, [r3, #0]
 8005dfa:	9203      	str	r2, [sp, #12]
 8005dfc:	2b00      	cmp	r3, #0
 8005dfe:	bfb8      	it	lt
 8005e00:	f04f 33ff 	movlt.w	r3, #4294967295
 8005e04:	9305      	str	r3, [sp, #20]
 8005e06:	4c2d      	ldr	r4, [pc, #180]	; (8005ebc <_svfiprintf_r+0x1d8>)
 8005e08:	2203      	movs	r2, #3
 8005e0a:	7839      	ldrb	r1, [r7, #0]
 8005e0c:	4620      	mov	r0, r4
 8005e0e:	f000 f9f5 	bl	80061fc <memchr>
 8005e12:	b138      	cbz	r0, 8005e24 <_svfiprintf_r+0x140>
 8005e14:	2340      	movs	r3, #64	; 0x40
 8005e16:	1b00      	subs	r0, r0, r4
 8005e18:	fa03 f000 	lsl.w	r0, r3, r0
 8005e1c:	9b04      	ldr	r3, [sp, #16]
 8005e1e:	3701      	adds	r7, #1
 8005e20:	4303      	orrs	r3, r0
 8005e22:	9304      	str	r3, [sp, #16]
 8005e24:	7839      	ldrb	r1, [r7, #0]
 8005e26:	2206      	movs	r2, #6
 8005e28:	4825      	ldr	r0, [pc, #148]	; (8005ec0 <_svfiprintf_r+0x1dc>)
 8005e2a:	1c7e      	adds	r6, r7, #1
 8005e2c:	f88d 1028 	strb.w	r1, [sp, #40]	; 0x28
 8005e30:	f000 f9e4 	bl	80061fc <memchr>
 8005e34:	2800      	cmp	r0, #0
 8005e36:	d035      	beq.n	8005ea4 <_svfiprintf_r+0x1c0>
 8005e38:	4b22      	ldr	r3, [pc, #136]	; (8005ec4 <_svfiprintf_r+0x1e0>)
 8005e3a:	b9fb      	cbnz	r3, 8005e7c <_svfiprintf_r+0x198>
 8005e3c:	9b03      	ldr	r3, [sp, #12]
 8005e3e:	3307      	adds	r3, #7
 8005e40:	f023 0307 	bic.w	r3, r3, #7
 8005e44:	3308      	adds	r3, #8
 8005e46:	9303      	str	r3, [sp, #12]
 8005e48:	9b09      	ldr	r3, [sp, #36]	; 0x24
 8005e4a:	444b      	add	r3, r9
 8005e4c:	9309      	str	r3, [sp, #36]	; 0x24
 8005e4e:	e76d      	b.n	8005d2c <_svfiprintf_r+0x48>
 8005e50:	fb00 3202 	mla	r2, r0, r2, r3
 8005e54:	2101      	movs	r1, #1
 8005e56:	e7a4      	b.n	8005da2 <_svfiprintf_r+0xbe>
 8005e58:	2300      	movs	r3, #0
 8005e5a:	240a      	movs	r4, #10
 8005e5c:	4618      	mov	r0, r3
 8005e5e:	9305      	str	r3, [sp, #20]
 8005e60:	460f      	mov	r7, r1
 8005e62:	783a      	ldrb	r2, [r7, #0]
 8005e64:	3101      	adds	r1, #1
 8005e66:	3a30      	subs	r2, #48	; 0x30
 8005e68:	2a09      	cmp	r2, #9
 8005e6a:	d903      	bls.n	8005e74 <_svfiprintf_r+0x190>
 8005e6c:	2b00      	cmp	r3, #0
 8005e6e:	d0ca      	beq.n	8005e06 <_svfiprintf_r+0x122>
 8005e70:	9005      	str	r0, [sp, #20]
 8005e72:	e7c8      	b.n	8005e06 <_svfiprintf_r+0x122>
 8005e74:	fb04 2000 	mla	r0, r4, r0, r2
 8005e78:	2301      	movs	r3, #1
 8005e7a:	e7f1      	b.n	8005e60 <_svfiprintf_r+0x17c>
 8005e7c:	ab03      	add	r3, sp, #12
 8005e7e:	9300      	str	r3, [sp, #0]
 8005e80:	462a      	mov	r2, r5
 8005e82:	4b11      	ldr	r3, [pc, #68]	; (8005ec8 <_svfiprintf_r+0x1e4>)
 8005e84:	a904      	add	r1, sp, #16
 8005e86:	4640      	mov	r0, r8
 8005e88:	f3af 8000 	nop.w
 8005e8c:	f1b0 3fff 	cmp.w	r0, #4294967295
 8005e90:	4681      	mov	r9, r0
 8005e92:	d1d9      	bne.n	8005e48 <_svfiprintf_r+0x164>
 8005e94:	89ab      	ldrh	r3, [r5, #12]
 8005e96:	065b      	lsls	r3, r3, #25
 8005e98:	f53f af39 	bmi.w	8005d0e <_svfiprintf_r+0x2a>
 8005e9c:	9809      	ldr	r0, [sp, #36]	; 0x24
 8005e9e:	b01d      	add	sp, #116	; 0x74
 8005ea0:	e8bd 8ff0 	ldmia.w	sp!, {r4, r5, r6, r7, r8, r9, sl, fp, pc}
 8005ea4:	ab03      	add	r3, sp, #12
 8005ea6:	9300      	str	r3, [sp, #0]
 8005ea8:	462a      	mov	r2, r5
 8005eaa:	4b07      	ldr	r3, [pc, #28]	; (8005ec8 <_svfiprintf_r+0x1e4>)
 8005eac:	a904      	add	r1, sp, #16
 8005eae:	4640      	mov	r0, r8
 8005eb0:	f000 f884 	bl	8005fbc <_printf_i>
 8005eb4:	e7ea      	b.n	8005e8c <_svfiprintf_r+0x1a8>
 8005eb6:	bf00      	nop
 8005eb8:	080068c1 	.word	0x080068c1
 8005ebc:	080068c7 	.word	0x080068c7
 8005ec0:	080068cb 	.word	0x080068cb
 8005ec4:	00000000 	.word	0x00000000
 8005ec8:	08005c2f 	.word	0x08005c2f

08005ecc <_printf_common>:
 8005ecc:	e92d 47f0 	stmdb	sp!, {r4, r5, r6, r7, r8, r9, sl, lr}
 8005ed0:	4691      	mov	r9, r2
 8005ed2:	461f      	mov	r7, r3
 8005ed4:	688a      	ldr	r2, [r1, #8]
 8005ed6:	690b      	ldr	r3, [r1, #16]
 8005ed8:	4606      	mov	r6, r0
 8005eda:	4293      	cmp	r3, r2
 8005edc:	bfb8      	it	lt
 8005ede:	4613      	movlt	r3, r2
 8005ee0:	f8c9 3000 	str.w	r3, [r9]
 8005ee4:	f891 2043 	ldrb.w	r2, [r1, #67]	; 0x43
 8005ee8:	460c      	mov	r4, r1
 8005eea:	f8dd 8020 	ldr.w	r8, [sp, #32]
 8005eee:	b112      	cbz	r2, 8005ef6 <_printf_common+0x2a>
 8005ef0:	3301      	adds	r3, #1
 8005ef2:	f8c9 3000 	str.w	r3, [r9]
 8005ef6:	6823      	ldr	r3, [r4, #0]
 8005ef8:	0699      	lsls	r1, r3, #26
 8005efa:	bf42      	ittt	mi
 8005efc:	f8d9 3000 	ldrmi.w	r3, [r9]
 8005f00:	3302      	addmi	r3, #2
 8005f02:	f8c9 3000 	strmi.w	r3, [r9]
 8005f06:	6825      	ldr	r5, [r4, #0]
 8005f08:	f015 0506 	ands.w	r5, r5, #6
 8005f0c:	d107      	bne.n	8005f1e <_printf_common+0x52>
 8005f0e:	f104 0a19 	add.w	sl, r4, #25
 8005f12:	68e3      	ldr	r3, [r4, #12]
 8005f14:	f8d9 2000 	ldr.w	r2, [r9]
 8005f18:	1a9b      	subs	r3, r3, r2
 8005f1a:	429d      	cmp	r5, r3
 8005f1c:	db2a      	blt.n	8005f74 <_printf_common+0xa8>
 8005f1e:	f894 3043 	ldrb.w	r3, [r4, #67]	; 0x43
 8005f22:	6822      	ldr	r2, [r4, #0]
 8005f24:	3300      	adds	r3, #0
 8005f26:	bf18      	it	ne
 8005f28:	2301      	movne	r3, #1
 8005f2a:	0692      	lsls	r2, r2, #26
 8005f2c:	d42f      	bmi.n	8005f8e <_printf_common+0xc2>
 8005f2e:	f104 0243 	add.w	r2, r4, #67	; 0x43
 8005f32:	4639      	mov	r1, r7
 8005f34:	4630      	mov	r0, r6
 8005f36:	47c0      	blx	r8
 8005f38:	3001      	adds	r0, #1
 8005f3a:	d022      	beq.n	8005f82 <_printf_common+0xb6>
 8005f3c:	6823      	ldr	r3, [r4, #0]
 8005f3e:	68e5      	ldr	r5, [r4, #12]
 8005f40:	f003 0306 	and.w	r3, r3, #6
 8005f44:	2b04      	cmp	r3, #4
 8005f46:	bf18      	it	ne
 8005f48:	2500      	movne	r5, #0
 8005f4a:	f8d9 2000 	ldr.w	r2, [r9]
 8005f4e:	f04f 0900 	mov.w	r9, #0
 8005f52:	bf08      	it	eq
 8005f54:	1aad      	subeq	r5, r5, r2
 8005f56:	68a3      	ldr	r3, [r4, #8]
 8005f58:	6922      	ldr	r2, [r4, #16]
 8005f5a:	bf08      	it	eq
 8005f5c:	ea25 75e5 	biceq.w	r5, r5, r5, asr #31
 8005f60:	4293      	cmp	r3, r2
 8005f62:	bfc4      	itt	gt
 8005f64:	1a9b      	subgt	r3, r3, r2
 8005f66:	18ed      	addgt	r5, r5, r3
 8005f68:	341a      	adds	r4, #26
 8005f6a:	454d      	cmp	r5, r9
 8005f6c:	d11b      	bne.n	8005fa6 <_printf_common+0xda>
 8005f6e:	2000      	movs	r0, #0
 8005f70:	e8bd 87f0 	ldmia.w	sp!, {r4, r5, r6, r7, r8, r9, sl, pc}
 8005f74:	2301      	movs	r3, #1
 8005f76:	4652      	mov	r2, sl
 8005f78:	4639      	mov	r1, r7
 8005f7a:	4630      	mov	r0, r6
 8005f7c:	47c0      	blx	r8
 8005f7e:	3001      	adds	r0, #1
 8005f80:	d103      	bne.n	8005f8a <_printf_common+0xbe>
 8005f82:	f04f 30ff 	mov.w	r0, #4294967295
 8005f86:	e8bd 87f0 	ldmia.w	sp!, {r4, r5, r6, r7, r8, r9, sl, pc}
 8005f8a:	3501      	adds	r5, #1
 8005f8c:	e7c1      	b.n	8005f12 <_printf_common+0x46>
 8005f8e:	2030      	movs	r0, #48	; 0x30
 8005f90:	18e1      	adds	r1, r4, r3
 8005f92:	f881 0043 	strb.w	r0, [r1, #67]	; 0x43
 8005f96:	1c5a      	adds	r2, r3, #1
 8005f98:	f894 1045 	ldrb.w	r1, [r4, #69]	; 0x45
 8005f9c:	4422      	add	r2, r4
 8005f9e:	3302      	adds	r3, #2
 8005fa0:	f882 1043 	strb.w	r1, [r2, #67]	; 0x43
 8005fa4:	e7c3      	b.n	8005f2e <_printf_common+0x62>
 8005fa6:	2301      	movs	r3, #1
 8005fa8:	4622      	mov	r2, r4
 8005faa:	4639      	mov	r1, r7
 8005fac:	4630      	mov	r0, r6
 8005fae:	47c0      	blx	r8
 8005fb0:	3001      	adds	r0, #1
 8005fb2:	d0e6      	beq.n	8005f82 <_printf_common+0xb6>
 8005fb4:	f109 0901 	add.w	r9, r9, #1
 8005fb8:	e7d7      	b.n	8005f6a <_printf_common+0x9e>
	...

08005fbc <_printf_i>:
 8005fbc:	e92d 43f0 	stmdb	sp!, {r4, r5, r6, r7, r8, r9, lr}
 8005fc0:	4617      	mov	r7, r2
 8005fc2:	7e0a      	ldrb	r2, [r1, #24]
 8005fc4:	b085      	sub	sp, #20
 8005fc6:	2a6e      	cmp	r2, #110	; 0x6e
 8005fc8:	4698      	mov	r8, r3
 8005fca:	4606      	mov	r6, r0
 8005fcc:	460c      	mov	r4, r1
 8005fce:	9b0c      	ldr	r3, [sp, #48]	; 0x30
 8005fd0:	f101 0e43 	add.w	lr, r1, #67	; 0x43
 8005fd4:	f000 80bc 	beq.w	8006150 <_printf_i+0x194>
 8005fd8:	d81a      	bhi.n	8006010 <_printf_i+0x54>
 8005fda:	2a63      	cmp	r2, #99	; 0x63
 8005fdc:	d02e      	beq.n	800603c <_printf_i+0x80>
 8005fde:	d80a      	bhi.n	8005ff6 <_printf_i+0x3a>
 8005fe0:	2a00      	cmp	r2, #0
 8005fe2:	f000 80c8 	beq.w	8006176 <_printf_i+0x1ba>
 8005fe6:	2a58      	cmp	r2, #88	; 0x58
 8005fe8:	f000 808a 	beq.w	8006100 <_printf_i+0x144>
 8005fec:	f104 0542 	add.w	r5, r4, #66	; 0x42
 8005ff0:	f884 2042 	strb.w	r2, [r4, #66]	; 0x42
 8005ff4:	e02a      	b.n	800604c <_printf_i+0x90>
 8005ff6:	2a64      	cmp	r2, #100	; 0x64
 8005ff8:	d001      	beq.n	8005ffe <_printf_i+0x42>
 8005ffa:	2a69      	cmp	r2, #105	; 0x69
 8005ffc:	d1f6      	bne.n	8005fec <_printf_i+0x30>
 8005ffe:	6821      	ldr	r1, [r4, #0]
 8006000:	681a      	ldr	r2, [r3, #0]
 8006002:	f011 0f80 	tst.w	r1, #128	; 0x80
 8006006:	d023      	beq.n	8006050 <_printf_i+0x94>
 8006008:	1d11      	adds	r1, r2, #4
 800600a:	6019      	str	r1, [r3, #0]
 800600c:	6813      	ldr	r3, [r2, #0]
 800600e:	e027      	b.n	8006060 <_printf_i+0xa4>
 8006010:	2a73      	cmp	r2, #115	; 0x73
 8006012:	f000 80b4 	beq.w	800617e <_printf_i+0x1c2>
 8006016:	d808      	bhi.n	800602a <_printf_i+0x6e>
 8006018:	2a6f      	cmp	r2, #111	; 0x6f
 800601a:	d02a      	beq.n	8006072 <_printf_i+0xb6>
 800601c:	2a70      	cmp	r2, #112	; 0x70
 800601e:	d1e5      	bne.n	8005fec <_printf_i+0x30>
 8006020:	680a      	ldr	r2, [r1, #0]
 8006022:	f042 0220 	orr.w	r2, r2, #32
 8006026:	600a      	str	r2, [r1, #0]
 8006028:	e003      	b.n	8006032 <_printf_i+0x76>
 800602a:	2a75      	cmp	r2, #117	; 0x75
 800602c:	d021      	beq.n	8006072 <_printf_i+0xb6>
 800602e:	2a78      	cmp	r2, #120	; 0x78
 8006030:	d1dc      	bne.n	8005fec <_printf_i+0x30>
 8006032:	2278      	movs	r2, #120	; 0x78
 8006034:	496f      	ldr	r1, [pc, #444]	; (80061f4 <_printf_i+0x238>)
 8006036:	f884 2045 	strb.w	r2, [r4, #69]	; 0x45
 800603a:	e064      	b.n	8006106 <_printf_i+0x14a>
 800603c:	681a      	ldr	r2, [r3, #0]
 800603e:	f101 0542 	add.w	r5, r1, #66	; 0x42
 8006042:	1d11      	adds	r1, r2, #4
 8006044:	6019      	str	r1, [r3, #0]
 8006046:	6813      	ldr	r3, [r2, #0]
 8006048:	f884 3042 	strb.w	r3, [r4, #66]	; 0x42
 800604c:	2301      	movs	r3, #1
 800604e:	e0a3      	b.n	8006198 <_printf_i+0x1dc>
 8006050:	f011 0f40 	tst.w	r1, #64	; 0x40
 8006054:	f102 0104 	add.w	r1, r2, #4
 8006058:	6019      	str	r1, [r3, #0]
 800605a:	d0d7      	beq.n	800600c <_printf_i+0x50>
 800605c:	f9b2 3000 	ldrsh.w	r3, [r2]
 8006060:	2b00      	cmp	r3, #0
 8006062:	da03      	bge.n	800606c <_printf_i+0xb0>
 8006064:	222d      	movs	r2, #45	; 0x2d
 8006066:	425b      	negs	r3, r3
 8006068:	f884 2043 	strb.w	r2, [r4, #67]	; 0x43
 800606c:	4962      	ldr	r1, [pc, #392]	; (80061f8 <_printf_i+0x23c>)
 800606e:	220a      	movs	r2, #10
 8006070:	e017      	b.n	80060a2 <_printf_i+0xe6>
 8006072:	6820      	ldr	r0, [r4, #0]
 8006074:	6819      	ldr	r1, [r3, #0]
 8006076:	f010 0f80 	tst.w	r0, #128	; 0x80
 800607a:	d003      	beq.n	8006084 <_printf_i+0xc8>
 800607c:	1d08      	adds	r0, r1, #4
 800607e:	6018      	str	r0, [r3, #0]
 8006080:	680b      	ldr	r3, [r1, #0]
 8006082:	e006      	b.n	8006092 <_printf_i+0xd6>
 8006084:	f010 0f40 	tst.w	r0, #64	; 0x40
 8006088:	f101 0004 	add.w	r0, r1, #4
 800608c:	6018      	str	r0, [r3, #0]
 800608e:	d0f7      	beq.n	8006080 <_printf_i+0xc4>
 8006090:	880b      	ldrh	r3, [r1, #0]
 8006092:	2a6f      	cmp	r2, #111	; 0x6f
 8006094:	bf14      	ite	ne
 8006096:	220a      	movne	r2, #10
 8006098:	2208      	moveq	r2, #8
 800609a:	4957      	ldr	r1, [pc, #348]	; (80061f8 <_printf_i+0x23c>)
 800609c:	2000      	movs	r0, #0
 800609e:	f884 0043 	strb.w	r0, [r4, #67]	; 0x43
 80060a2:	6865      	ldr	r5, [r4, #4]
 80060a4:	2d00      	cmp	r5, #0
 80060a6:	60a5      	str	r5, [r4, #8]
 80060a8:	f2c0 809c 	blt.w	80061e4 <_printf_i+0x228>
 80060ac:	6820      	ldr	r0, [r4, #0]
 80060ae:	f020 0004 	bic.w	r0, r0, #4
 80060b2:	6020      	str	r0, [r4, #0]
 80060b4:	2b00      	cmp	r3, #0
 80060b6:	d13f      	bne.n	8006138 <_printf_i+0x17c>
 80060b8:	2d00      	cmp	r5, #0
 80060ba:	f040 8095 	bne.w	80061e8 <_printf_i+0x22c>
 80060be:	4675      	mov	r5, lr
 80060c0:	2a08      	cmp	r2, #8
 80060c2:	d10b      	bne.n	80060dc <_printf_i+0x120>
 80060c4:	6823      	ldr	r3, [r4, #0]
 80060c6:	07da      	lsls	r2, r3, #31
 80060c8:	d508      	bpl.n	80060dc <_printf_i+0x120>
 80060ca:	6923      	ldr	r3, [r4, #16]
 80060cc:	6862      	ldr	r2, [r4, #4]
 80060ce:	429a      	cmp	r2, r3
 80060d0:	bfde      	ittt	le
 80060d2:	2330      	movle	r3, #48	; 0x30
 80060d4:	f805 3c01 	strble.w	r3, [r5, #-1]
 80060d8:	f105 35ff 	addle.w	r5, r5, #4294967295
 80060dc:	ebae 0305 	sub.w	r3, lr, r5
 80060e0:	6123      	str	r3, [r4, #16]
 80060e2:	f8cd 8000 	str.w	r8, [sp]
 80060e6:	463b      	mov	r3, r7
 80060e8:	aa03      	add	r2, sp, #12
 80060ea:	4621      	mov	r1, r4
 80060ec:	4630      	mov	r0, r6
 80060ee:	f7ff feed 	bl	8005ecc <_printf_common>
 80060f2:	3001      	adds	r0, #1
 80060f4:	d155      	bne.n	80061a2 <_printf_i+0x1e6>
 80060f6:	f04f 30ff 	mov.w	r0, #4294967295
 80060fa:	b005      	add	sp, #20
 80060fc:	e8bd 83f0 	ldmia.w	sp!, {r4, r5, r6, r7, r8, r9, pc}
 8006100:	f881 2045 	strb.w	r2, [r1, #69]	; 0x45
 8006104:	493c      	ldr	r1, [pc, #240]	; (80061f8 <_printf_i+0x23c>)
 8006106:	6822      	ldr	r2, [r4, #0]
 8006108:	6818      	ldr	r0, [r3, #0]
 800610a:	f012 0f80 	tst.w	r2, #128	; 0x80
 800610e:	f100 0504 	add.w	r5, r0, #4
 8006112:	601d      	str	r5, [r3, #0]
 8006114:	d001      	beq.n	800611a <_printf_i+0x15e>
 8006116:	6803      	ldr	r3, [r0, #0]
 8006118:	e002      	b.n	8006120 <_printf_i+0x164>
 800611a:	0655      	lsls	r5, r2, #25
 800611c:	d5fb      	bpl.n	8006116 <_printf_i+0x15a>
 800611e:	8803      	ldrh	r3, [r0, #0]
 8006120:	07d0      	lsls	r0, r2, #31
 8006122:	bf44      	itt	mi
 8006124:	f042 0220 	orrmi.w	r2, r2, #32
 8006128:	6022      	strmi	r2, [r4, #0]
 800612a:	b91b      	cbnz	r3, 8006134 <_printf_i+0x178>
 800612c:	6822      	ldr	r2, [r4, #0]
 800612e:	f022 0220 	bic.w	r2, r2, #32
 8006132:	6022      	str	r2, [r4, #0]
 8006134:	2210      	movs	r2, #16
 8006136:	e7b1      	b.n	800609c <_printf_i+0xe0>
 8006138:	4675      	mov	r5, lr
 800613a:	fbb3 f0f2 	udiv	r0, r3, r2
 800613e:	fb02 3310 	mls	r3, r2, r0, r3
 8006142:	5ccb      	ldrb	r3, [r1, r3]
 8006144:	f805 3d01 	strb.w	r3, [r5, #-1]!
 8006148:	4603      	mov	r3, r0
 800614a:	2800      	cmp	r0, #0
 800614c:	d1f5      	bne.n	800613a <_printf_i+0x17e>
 800614e:	e7b7      	b.n	80060c0 <_printf_i+0x104>
 8006150:	6808      	ldr	r0, [r1, #0]
 8006152:	681a      	ldr	r2, [r3, #0]
 8006154:	f010 0f80 	tst.w	r0, #128	; 0x80
 8006158:	6949      	ldr	r1, [r1, #20]
 800615a:	d004      	beq.n	8006166 <_printf_i+0x1aa>
 800615c:	1d10      	adds	r0, r2, #4
 800615e:	6018      	str	r0, [r3, #0]
 8006160:	6813      	ldr	r3, [r2, #0]
 8006162:	6019      	str	r1, [r3, #0]
 8006164:	e007      	b.n	8006176 <_printf_i+0x1ba>
 8006166:	f010 0f40 	tst.w	r0, #64	; 0x40
 800616a:	f102 0004 	add.w	r0, r2, #4
 800616e:	6018      	str	r0, [r3, #0]
 8006170:	6813      	ldr	r3, [r2, #0]
 8006172:	d0f6      	beq.n	8006162 <_printf_i+0x1a6>
 8006174:	8019      	strh	r1, [r3, #0]
 8006176:	2300      	movs	r3, #0
 8006178:	4675      	mov	r5, lr
 800617a:	6123      	str	r3, [r4, #16]
 800617c:	e7b1      	b.n	80060e2 <_printf_i+0x126>
 800617e:	681a      	ldr	r2, [r3, #0]
 8006180:	1d11      	adds	r1, r2, #4
 8006182:	6019      	str	r1, [r3, #0]
 8006184:	6815      	ldr	r5, [r2, #0]
 8006186:	2100      	movs	r1, #0
 8006188:	6862      	ldr	r2, [r4, #4]
 800618a:	4628      	mov	r0, r5
 800618c:	f000 f836 	bl	80061fc <memchr>
 8006190:	b108      	cbz	r0, 8006196 <_printf_i+0x1da>
 8006192:	1b40      	subs	r0, r0, r5
 8006194:	6060      	str	r0, [r4, #4]
 8006196:	6863      	ldr	r3, [r4, #4]
 8006198:	6123      	str	r3, [r4, #16]
 800619a:	2300      	movs	r3, #0
 800619c:	f884 3043 	strb.w	r3, [r4, #67]	; 0x43
 80061a0:	e79f      	b.n	80060e2 <_printf_i+0x126>
 80061a2:	6923      	ldr	r3, [r4, #16]
 80061a4:	462a      	mov	r2, r5
 80061a6:	4639      	mov	r1, r7
 80061a8:	4630      	mov	r0, r6
 80061aa:	47c0      	blx	r8
 80061ac:	3001      	adds	r0, #1
 80061ae:	d0a2      	beq.n	80060f6 <_printf_i+0x13a>
 80061b0:	6823      	ldr	r3, [r4, #0]
 80061b2:	079b      	lsls	r3, r3, #30
 80061b4:	d507      	bpl.n	80061c6 <_printf_i+0x20a>
 80061b6:	2500      	movs	r5, #0
 80061b8:	f104 0919 	add.w	r9, r4, #25
 80061bc:	68e3      	ldr	r3, [r4, #12]
 80061be:	9a03      	ldr	r2, [sp, #12]
 80061c0:	1a9b      	subs	r3, r3, r2
 80061c2:	429d      	cmp	r5, r3
 80061c4:	db05      	blt.n	80061d2 <_printf_i+0x216>
 80061c6:	68e0      	ldr	r0, [r4, #12]
 80061c8:	9b03      	ldr	r3, [sp, #12]
 80061ca:	4298      	cmp	r0, r3
 80061cc:	bfb8      	it	lt
 80061ce:	4618      	movlt	r0, r3
 80061d0:	e793      	b.n	80060fa <_printf_i+0x13e>
 80061d2:	2301      	movs	r3, #1
 80061d4:	464a      	mov	r2, r9
 80061d6:	4639      	mov	r1, r7
 80061d8:	4630      	mov	r0, r6
 80061da:	47c0      	blx	r8
 80061dc:	3001      	adds	r0, #1
 80061de:	d08a      	beq.n	80060f6 <_printf_i+0x13a>
 80061e0:	3501      	adds	r5, #1
 80061e2:	e7eb      	b.n	80061bc <_printf_i+0x200>
 80061e4:	2b00      	cmp	r3, #0
 80061e6:	d1a7      	bne.n	8006138 <_printf_i+0x17c>
 80061e8:	780b      	ldrb	r3, [r1, #0]
 80061ea:	f104 0542 	add.w	r5, r4, #66	; 0x42
 80061ee:	f884 3042 	strb.w	r3, [r4, #66]	; 0x42
 80061f2:	e765      	b.n	80060c0 <_printf_i+0x104>
 80061f4:	080068e3 	.word	0x080068e3
 80061f8:	080068d2 	.word	0x080068d2

080061fc <memchr>:
 80061fc:	b510      	push	{r4, lr}
 80061fe:	b2c9      	uxtb	r1, r1
 8006200:	4402      	add	r2, r0
 8006202:	4290      	cmp	r0, r2
 8006204:	4603      	mov	r3, r0
 8006206:	d101      	bne.n	800620c <memchr+0x10>
 8006208:	2000      	movs	r0, #0
 800620a:	bd10      	pop	{r4, pc}
 800620c:	781c      	ldrb	r4, [r3, #0]
 800620e:	3001      	adds	r0, #1
 8006210:	428c      	cmp	r4, r1
 8006212:	d1f6      	bne.n	8006202 <memchr+0x6>
 8006214:	4618      	mov	r0, r3
 8006216:	bd10      	pop	{r4, pc}

08006218 <memcpy>:
 8006218:	b510      	push	{r4, lr}
 800621a:	1e43      	subs	r3, r0, #1
 800621c:	440a      	add	r2, r1
 800621e:	4291      	cmp	r1, r2
 8006220:	d100      	bne.n	8006224 <memcpy+0xc>
 8006222:	bd10      	pop	{r4, pc}
 8006224:	f811 4b01 	ldrb.w	r4, [r1], #1
 8006228:	f803 4f01 	strb.w	r4, [r3, #1]!
 800622c:	e7f7      	b.n	800621e <memcpy+0x6>

0800622e <memmove>:
 800622e:	4288      	cmp	r0, r1
 8006230:	b510      	push	{r4, lr}
 8006232:	eb01 0302 	add.w	r3, r1, r2
 8006236:	d803      	bhi.n	8006240 <memmove+0x12>
 8006238:	1e42      	subs	r2, r0, #1
 800623a:	4299      	cmp	r1, r3
 800623c:	d10c      	bne.n	8006258 <memmove+0x2a>
 800623e:	bd10      	pop	{r4, pc}
 8006240:	4298      	cmp	r0, r3
 8006242:	d2f9      	bcs.n	8006238 <memmove+0xa>
 8006244:	1881      	adds	r1, r0, r2
 8006246:	1ad2      	subs	r2, r2, r3
 8006248:	42d3      	cmn	r3, r2
 800624a:	d100      	bne.n	800624e <memmove+0x20>
 800624c:	bd10      	pop	{r4, pc}
 800624e:	f813 4d01 	ldrb.w	r4, [r3, #-1]!
 8006252:	f801 4d01 	strb.w	r4, [r1, #-1]!
 8006256:	e7f7      	b.n	8006248 <memmove+0x1a>
 8006258:	f811 4b01 	ldrb.w	r4, [r1], #1
 800625c:	f802 4f01 	strb.w	r4, [r2, #1]!
 8006260:	e7eb      	b.n	800623a <memmove+0xc>
	...

08006264 <_free_r>:
 8006264:	b538      	push	{r3, r4, r5, lr}
 8006266:	4605      	mov	r5, r0
 8006268:	2900      	cmp	r1, #0
 800626a:	d043      	beq.n	80062f4 <_free_r+0x90>
 800626c:	f851 3c04 	ldr.w	r3, [r1, #-4]
 8006270:	1f0c      	subs	r4, r1, #4
 8006272:	2b00      	cmp	r3, #0
 8006274:	bfb8      	it	lt
 8006276:	18e4      	addlt	r4, r4, r3
 8006278:	f000 f8d4 	bl	8006424 <__malloc_lock>
 800627c:	4a1e      	ldr	r2, [pc, #120]	; (80062f8 <_free_r+0x94>)
 800627e:	6813      	ldr	r3, [r2, #0]
 8006280:	4610      	mov	r0, r2
 8006282:	b933      	cbnz	r3, 8006292 <_free_r+0x2e>
 8006284:	6063      	str	r3, [r4, #4]
 8006286:	6014      	str	r4, [r2, #0]
 8006288:	4628      	mov	r0, r5
 800628a:	e8bd 4038 	ldmia.w	sp!, {r3, r4, r5, lr}
 800628e:	f000 b8ca 	b.w	8006426 <__malloc_unlock>
 8006292:	42a3      	cmp	r3, r4
 8006294:	d90b      	bls.n	80062ae <_free_r+0x4a>
 8006296:	6821      	ldr	r1, [r4, #0]
 8006298:	1862      	adds	r2, r4, r1
 800629a:	4293      	cmp	r3, r2
 800629c:	bf01      	itttt	eq
 800629e:	681a      	ldreq	r2, [r3, #0]
 80062a0:	685b      	ldreq	r3, [r3, #4]
 80062a2:	1852      	addeq	r2, r2, r1
 80062a4:	6022      	streq	r2, [r4, #0]
 80062a6:	6063      	str	r3, [r4, #4]
 80062a8:	6004      	str	r4, [r0, #0]
 80062aa:	e7ed      	b.n	8006288 <_free_r+0x24>
 80062ac:	4613      	mov	r3, r2
 80062ae:	685a      	ldr	r2, [r3, #4]
 80062b0:	b10a      	cbz	r2, 80062b6 <_free_r+0x52>
 80062b2:	42a2      	cmp	r2, r4
 80062b4:	d9fa      	bls.n	80062ac <_free_r+0x48>
 80062b6:	6819      	ldr	r1, [r3, #0]
 80062b8:	1858      	adds	r0, r3, r1
 80062ba:	42a0      	cmp	r0, r4
 80062bc:	d10b      	bne.n	80062d6 <_free_r+0x72>
 80062be:	6820      	ldr	r0, [r4, #0]
 80062c0:	4401      	add	r1, r0
 80062c2:	1858      	adds	r0, r3, r1
 80062c4:	4282      	cmp	r2, r0
 80062c6:	6019      	str	r1, [r3, #0]
 80062c8:	d1de      	bne.n	8006288 <_free_r+0x24>
 80062ca:	6810      	ldr	r0, [r2, #0]
 80062cc:	6852      	ldr	r2, [r2, #4]
 80062ce:	4401      	add	r1, r0
 80062d0:	6019      	str	r1, [r3, #0]
 80062d2:	605a      	str	r2, [r3, #4]
 80062d4:	e7d8      	b.n	8006288 <_free_r+0x24>
 80062d6:	d902      	bls.n	80062de <_free_r+0x7a>
 80062d8:	230c      	movs	r3, #12
 80062da:	602b      	str	r3, [r5, #0]
 80062dc:	e7d4      	b.n	8006288 <_free_r+0x24>
 80062de:	6820      	ldr	r0, [r4, #0]
 80062e0:	1821      	adds	r1, r4, r0
 80062e2:	428a      	cmp	r2, r1
 80062e4:	bf01      	itttt	eq
 80062e6:	6811      	ldreq	r1, [r2, #0]
 80062e8:	6852      	ldreq	r2, [r2, #4]
 80062ea:	1809      	addeq	r1, r1, r0
 80062ec:	6021      	streq	r1, [r4, #0]
 80062ee:	6062      	str	r2, [r4, #4]
 80062f0:	605c      	str	r4, [r3, #4]
 80062f2:	e7c9      	b.n	8006288 <_free_r+0x24>
 80062f4:	bd38      	pop	{r3, r4, r5, pc}
 80062f6:	bf00      	nop
 80062f8:	20000484 	.word	0x20000484

080062fc <_malloc_r>:
 80062fc:	b570      	push	{r4, r5, r6, lr}
 80062fe:	1ccd      	adds	r5, r1, #3
 8006300:	f025 0503 	bic.w	r5, r5, #3
 8006304:	3508      	adds	r5, #8
 8006306:	2d0c      	cmp	r5, #12
 8006308:	bf38      	it	cc
 800630a:	250c      	movcc	r5, #12
 800630c:	2d00      	cmp	r5, #0
 800630e:	4606      	mov	r6, r0
 8006310:	db01      	blt.n	8006316 <_malloc_r+0x1a>
 8006312:	42a9      	cmp	r1, r5
 8006314:	d903      	bls.n	800631e <_malloc_r+0x22>
 8006316:	230c      	movs	r3, #12
 8006318:	6033      	str	r3, [r6, #0]
 800631a:	2000      	movs	r0, #0
 800631c:	bd70      	pop	{r4, r5, r6, pc}
 800631e:	f000 f881 	bl	8006424 <__malloc_lock>
 8006322:	4a23      	ldr	r2, [pc, #140]	; (80063b0 <_malloc_r+0xb4>)
 8006324:	6814      	ldr	r4, [r2, #0]
 8006326:	4621      	mov	r1, r4
 8006328:	b991      	cbnz	r1, 8006350 <_malloc_r+0x54>
 800632a:	4c22      	ldr	r4, [pc, #136]	; (80063b4 <_malloc_r+0xb8>)
 800632c:	6823      	ldr	r3, [r4, #0]
 800632e:	b91b      	cbnz	r3, 8006338 <_malloc_r+0x3c>
 8006330:	4630      	mov	r0, r6
 8006332:	f000 f867 	bl	8006404 <_sbrk_r>
 8006336:	6020      	str	r0, [r4, #0]
 8006338:	4629      	mov	r1, r5
 800633a:	4630      	mov	r0, r6
 800633c:	f000 f862 	bl	8006404 <_sbrk_r>
 8006340:	1c43      	adds	r3, r0, #1
 8006342:	d126      	bne.n	8006392 <_malloc_r+0x96>
 8006344:	230c      	movs	r3, #12
 8006346:	4630      	mov	r0, r6
 8006348:	6033      	str	r3, [r6, #0]
 800634a:	f000 f86c 	bl	8006426 <__malloc_unlock>
 800634e:	e7e4      	b.n	800631a <_malloc_r+0x1e>
 8006350:	680b      	ldr	r3, [r1, #0]
 8006352:	1b5b      	subs	r3, r3, r5
 8006354:	d41a      	bmi.n	800638c <_malloc_r+0x90>
 8006356:	2b0b      	cmp	r3, #11
 8006358:	d90f      	bls.n	800637a <_malloc_r+0x7e>
 800635a:	600b      	str	r3, [r1, #0]
 800635c:	18cc      	adds	r4, r1, r3
 800635e:	50cd      	str	r5, [r1, r3]
 8006360:	4630      	mov	r0, r6
 8006362:	f000 f860 	bl	8006426 <__malloc_unlock>
 8006366:	f104 000b 	add.w	r0, r4, #11
 800636a:	1d23      	adds	r3, r4, #4
 800636c:	f020 0007 	bic.w	r0, r0, #7
 8006370:	1ac3      	subs	r3, r0, r3
 8006372:	d01b      	beq.n	80063ac <_malloc_r+0xb0>
 8006374:	425a      	negs	r2, r3
 8006376:	50e2      	str	r2, [r4, r3]
 8006378:	bd70      	pop	{r4, r5, r6, pc}
 800637a:	428c      	cmp	r4, r1
 800637c:	bf0b      	itete	eq
 800637e:	6863      	ldreq	r3, [r4, #4]
 8006380:	684b      	ldrne	r3, [r1, #4]
 8006382:	6013      	streq	r3, [r2, #0]
 8006384:	6063      	strne	r3, [r4, #4]
 8006386:	bf18      	it	ne
 8006388:	460c      	movne	r4, r1
 800638a:	e7e9      	b.n	8006360 <_malloc_r+0x64>
 800638c:	460c      	mov	r4, r1
 800638e:	6849      	ldr	r1, [r1, #4]
 8006390:	e7ca      	b.n	8006328 <_malloc_r+0x2c>
 8006392:	1cc4      	adds	r4, r0, #3
 8006394:	f024 0403 	bic.w	r4, r4, #3
 8006398:	42a0      	cmp	r0, r4
 800639a:	d005      	beq.n	80063a8 <_malloc_r+0xac>
 800639c:	1a21      	subs	r1, r4, r0
 800639e:	4630      	mov	r0, r6
 80063a0:	f000 f830 	bl	8006404 <_sbrk_r>
 80063a4:	3001      	adds	r0, #1
 80063a6:	d0cd      	beq.n	8006344 <_malloc_r+0x48>
 80063a8:	6025      	str	r5, [r4, #0]
 80063aa:	e7d9      	b.n	8006360 <_malloc_r+0x64>
 80063ac:	bd70      	pop	{r4, r5, r6, pc}
 80063ae:	bf00      	nop
 80063b0:	20000484 	.word	0x20000484
 80063b4:	20000488 	.word	0x20000488

080063b8 <_realloc_r>:
 80063b8:	b5f8      	push	{r3, r4, r5, r6, r7, lr}
 80063ba:	4607      	mov	r7, r0
 80063bc:	4614      	mov	r4, r2
 80063be:	460e      	mov	r6, r1
 80063c0:	b921      	cbnz	r1, 80063cc <_realloc_r+0x14>
 80063c2:	4611      	mov	r1, r2
 80063c4:	e8bd 40f8 	ldmia.w	sp!, {r3, r4, r5, r6, r7, lr}
 80063c8:	f7ff bf98 	b.w	80062fc <_malloc_r>
 80063cc:	b922      	cbnz	r2, 80063d8 <_realloc_r+0x20>
 80063ce:	f7ff ff49 	bl	8006264 <_free_r>
 80063d2:	4625      	mov	r5, r4
 80063d4:	4628      	mov	r0, r5
 80063d6:	bdf8      	pop	{r3, r4, r5, r6, r7, pc}
 80063d8:	f000 f826 	bl	8006428 <_malloc_usable_size_r>
 80063dc:	4284      	cmp	r4, r0
 80063de:	d90f      	bls.n	8006400 <_realloc_r+0x48>
 80063e0:	4621      	mov	r1, r4
 80063e2:	4638      	mov	r0, r7
 80063e4:	f7ff ff8a 	bl	80062fc <_malloc_r>
 80063e8:	4605      	mov	r5, r0
 80063ea:	2800      	cmp	r0, #0
 80063ec:	d0f2      	beq.n	80063d4 <_realloc_r+0x1c>
 80063ee:	4631      	mov	r1, r6
 80063f0:	4622      	mov	r2, r4
 80063f2:	f7ff ff11 	bl	8006218 <memcpy>
 80063f6:	4631      	mov	r1, r6
 80063f8:	4638      	mov	r0, r7
 80063fa:	f7ff ff33 	bl	8006264 <_free_r>
 80063fe:	e7e9      	b.n	80063d4 <_realloc_r+0x1c>
 8006400:	4635      	mov	r5, r6
 8006402:	e7e7      	b.n	80063d4 <_realloc_r+0x1c>

08006404 <_sbrk_r>:
 8006404:	b538      	push	{r3, r4, r5, lr}
 8006406:	2300      	movs	r3, #0
 8006408:	4c05      	ldr	r4, [pc, #20]	; (8006420 <_sbrk_r+0x1c>)
 800640a:	4605      	mov	r5, r0
 800640c:	4608      	mov	r0, r1
 800640e:	6023      	str	r3, [r4, #0]
 8006410:	f000 f814 	bl	800643c <_sbrk>
 8006414:	1c43      	adds	r3, r0, #1
 8006416:	d102      	bne.n	800641e <_sbrk_r+0x1a>
 8006418:	6823      	ldr	r3, [r4, #0]
 800641a:	b103      	cbz	r3, 800641e <_sbrk_r+0x1a>
 800641c:	602b      	str	r3, [r5, #0]
 800641e:	bd38      	pop	{r3, r4, r5, pc}
 8006420:	20000820 	.word	0x20000820

08006424 <__malloc_lock>:
 8006424:	4770      	bx	lr

08006426 <__malloc_unlock>:
 8006426:	4770      	bx	lr

08006428 <_malloc_usable_size_r>:
 8006428:	f851 0c04 	ldr.w	r0, [r1, #-4]
 800642c:	2800      	cmp	r0, #0
 800642e:	f1a0 0004 	sub.w	r0, r0, #4
 8006432:	bfbc      	itt	lt
 8006434:	580b      	ldrlt	r3, [r1, r0]
 8006436:	18c0      	addlt	r0, r0, r3
 8006438:	4770      	bx	lr
	...

0800643c <_sbrk>:
 800643c:	4b04      	ldr	r3, [pc, #16]	; (8006450 <_sbrk+0x14>)
 800643e:	4602      	mov	r2, r0
 8006440:	6819      	ldr	r1, [r3, #0]
 8006442:	b909      	cbnz	r1, 8006448 <_sbrk+0xc>
 8006444:	4903      	ldr	r1, [pc, #12]	; (8006454 <_sbrk+0x18>)
 8006446:	6019      	str	r1, [r3, #0]
 8006448:	6818      	ldr	r0, [r3, #0]
 800644a:	4402      	add	r2, r0
 800644c:	601a      	str	r2, [r3, #0]
 800644e:	4770      	bx	lr
 8006450:	2000048c 	.word	0x2000048c
 8006454:	20000824 	.word	0x20000824

08006458 <_init>:
 8006458:	b5f8      	push	{r3, r4, r5, r6, r7, lr}
 800645a:	bf00      	nop
 800645c:	bcf8      	pop	{r3, r4, r5, r6, r7}
 800645e:	bc08      	pop	{r3}
 8006460:	469e      	mov	lr, r3
 8006462:	4770      	bx	lr

08006464 <_fini>:
 8006464:	b5f8      	push	{r3, r4, r5, r6, r7, lr}
 8006466:	bf00      	nop
 8006468:	bcf8      	pop	{r3, r4, r5, r6, r7}
 800646a:	bc08      	pop	{r3}
 800646c:	469e      	mov	lr, r3
 800646e:	4770      	bx	lr
