
digiTOS-COMOD-SinBoard-CODE.elf:     file format elf32-littlearm

Sections:
Idx Name          Size      VMA       LMA       File off  Algn
  0 .isr_vector   000000c0  08000000  08000000  00010000  2**0
                  CONTENTS, ALLOC, LOAD, READONLY, DATA
  1 .text         00007054  080000c0  080000c0  000100c0  2**2
                  CONTENTS, ALLOC, LOAD, READONLY, CODE
  2 .rodata       00000594  08007114  08007114  00017114  2**2
                  CONTENTS, ALLOC, LOAD, READONLY, DATA
  3 .init_array   00000004  080076a8  080076a8  000176a8  2**2
                  CONTENTS, ALLOC, LOAD, DATA
  4 .fini_array   00000004  080076ac  080076ac  000176ac  2**2
                  CONTENTS, ALLOC, LOAD, DATA
  5 .data         000002b0  20000000  080076b0  00020000  2**2
                  CONTENTS, ALLOC, LOAD, DATA
  6 .bss          0000052c  200002b0  08007960  000202b0  2**3
                  ALLOC
  7 ._user_heap_stack 00000600  200007dc  08007960  000207dc  2**0
                  ALLOC
  8 .ARM.attributes 00000028  00000000  00000000  000202b0  2**0
                  CONTENTS, READONLY
  9 .debug_info   0002cd9c  00000000  00000000  000202d8  2**0
                  CONTENTS, READONLY, DEBUGGING
 10 .debug_abbrev 00005850  00000000  00000000  0004d074  2**0
                  CONTENTS, READONLY, DEBUGGING
 11 .debug_loc    00009e40  00000000  00000000  000528c4  2**0
                  CONTENTS, READONLY, DEBUGGING
 12 .debug_aranges 00000fc8  00000000  00000000  0005c708  2**3
                  CONTENTS, READONLY, DEBUGGING
 13 .debug_ranges 000015a0  00000000  00000000  0005d6d0  2**3
                  CONTENTS, READONLY, DEBUGGING
 14 .debug_line   0000b9f5  00000000  00000000  0005ec70  2**0
                  CONTENTS, READONLY, DEBUGGING
 15 .debug_str    000052b4  00000000  00000000  0006a665  2**0
                  CONTENTS, READONLY, DEBUGGING
 16 .comment      0000007c  00000000  00000000  0006f919  2**0
                  CONTENTS, READONLY
 17 .debug_frame  000031c0  00000000  00000000  0006f998  2**2
                  CONTENTS, READONLY, DEBUGGING

Disassembly of section .text:

080000c0 <__do_global_dtors_aux>:
 80000c0:	b510      	push	{r4, lr}
 80000c2:	4c06      	ldr	r4, [pc, #24]	; (80000dc <__do_global_dtors_aux+0x1c>)
 80000c4:	7823      	ldrb	r3, [r4, #0]
 80000c6:	2b00      	cmp	r3, #0
 80000c8:	d107      	bne.n	80000da <__do_global_dtors_aux+0x1a>
 80000ca:	4b05      	ldr	r3, [pc, #20]	; (80000e0 <__do_global_dtors_aux+0x20>)
 80000cc:	2b00      	cmp	r3, #0
 80000ce:	d002      	beq.n	80000d6 <__do_global_dtors_aux+0x16>
 80000d0:	4804      	ldr	r0, [pc, #16]	; (80000e4 <__do_global_dtors_aux+0x24>)
 80000d2:	e000      	b.n	80000d6 <__do_global_dtors_aux+0x16>
 80000d4:	bf00      	nop
 80000d6:	2301      	movs	r3, #1
 80000d8:	7023      	strb	r3, [r4, #0]
 80000da:	bd10      	pop	{r4, pc}
 80000dc:	200002b0 	.word	0x200002b0
 80000e0:	00000000 	.word	0x00000000
 80000e4:	080070fc 	.word	0x080070fc

080000e8 <frame_dummy>:
 80000e8:	4b04      	ldr	r3, [pc, #16]	; (80000fc <frame_dummy+0x14>)
 80000ea:	b510      	push	{r4, lr}
 80000ec:	2b00      	cmp	r3, #0
 80000ee:	d003      	beq.n	80000f8 <frame_dummy+0x10>
 80000f0:	4903      	ldr	r1, [pc, #12]	; (8000100 <frame_dummy+0x18>)
 80000f2:	4804      	ldr	r0, [pc, #16]	; (8000104 <frame_dummy+0x1c>)
 80000f4:	e000      	b.n	80000f8 <frame_dummy+0x10>
 80000f6:	bf00      	nop
 80000f8:	bd10      	pop	{r4, pc}
 80000fa:	46c0      	nop			; (mov r8, r8)
 80000fc:	00000000 	.word	0x00000000
 8000100:	200002b4 	.word	0x200002b4
 8000104:	080070fc 	.word	0x080070fc

08000108 <__gnu_thumb1_case_uqi>:
 8000108:	b402      	push	{r1}
 800010a:	4671      	mov	r1, lr
 800010c:	0849      	lsrs	r1, r1, #1
 800010e:	0049      	lsls	r1, r1, #1
 8000110:	5c09      	ldrb	r1, [r1, r0]
 8000112:	0049      	lsls	r1, r1, #1
 8000114:	448e      	add	lr, r1
 8000116:	bc02      	pop	{r1}
 8000118:	4770      	bx	lr
 800011a:	46c0      	nop			; (mov r8, r8)

0800011c <__udivsi3>:
 800011c:	2200      	movs	r2, #0
 800011e:	0843      	lsrs	r3, r0, #1
 8000120:	428b      	cmp	r3, r1
 8000122:	d374      	bcc.n	800020e <__udivsi3+0xf2>
 8000124:	0903      	lsrs	r3, r0, #4
 8000126:	428b      	cmp	r3, r1
 8000128:	d35f      	bcc.n	80001ea <__udivsi3+0xce>
 800012a:	0a03      	lsrs	r3, r0, #8
 800012c:	428b      	cmp	r3, r1
 800012e:	d344      	bcc.n	80001ba <__udivsi3+0x9e>
 8000130:	0b03      	lsrs	r3, r0, #12
 8000132:	428b      	cmp	r3, r1
 8000134:	d328      	bcc.n	8000188 <__udivsi3+0x6c>
 8000136:	0c03      	lsrs	r3, r0, #16
 8000138:	428b      	cmp	r3, r1
 800013a:	d30d      	bcc.n	8000158 <__udivsi3+0x3c>
 800013c:	22ff      	movs	r2, #255	; 0xff
 800013e:	0209      	lsls	r1, r1, #8
 8000140:	ba12      	rev	r2, r2
 8000142:	0c03      	lsrs	r3, r0, #16
 8000144:	428b      	cmp	r3, r1
 8000146:	d302      	bcc.n	800014e <__udivsi3+0x32>
 8000148:	1212      	asrs	r2, r2, #8
 800014a:	0209      	lsls	r1, r1, #8
 800014c:	d065      	beq.n	800021a <__udivsi3+0xfe>
 800014e:	0b03      	lsrs	r3, r0, #12
 8000150:	428b      	cmp	r3, r1
 8000152:	d319      	bcc.n	8000188 <__udivsi3+0x6c>
 8000154:	e000      	b.n	8000158 <__udivsi3+0x3c>
 8000156:	0a09      	lsrs	r1, r1, #8
 8000158:	0bc3      	lsrs	r3, r0, #15
 800015a:	428b      	cmp	r3, r1
 800015c:	d301      	bcc.n	8000162 <__udivsi3+0x46>
 800015e:	03cb      	lsls	r3, r1, #15
 8000160:	1ac0      	subs	r0, r0, r3
 8000162:	4152      	adcs	r2, r2
 8000164:	0b83      	lsrs	r3, r0, #14
 8000166:	428b      	cmp	r3, r1
 8000168:	d301      	bcc.n	800016e <__udivsi3+0x52>
 800016a:	038b      	lsls	r3, r1, #14
 800016c:	1ac0      	subs	r0, r0, r3
 800016e:	4152      	adcs	r2, r2
 8000170:	0b43      	lsrs	r3, r0, #13
 8000172:	428b      	cmp	r3, r1
 8000174:	d301      	bcc.n	800017a <__udivsi3+0x5e>
 8000176:	034b      	lsls	r3, r1, #13
 8000178:	1ac0      	subs	r0, r0, r3
 800017a:	4152      	adcs	r2, r2
 800017c:	0b03      	lsrs	r3, r0, #12
 800017e:	428b      	cmp	r3, r1
 8000180:	d301      	bcc.n	8000186 <__udivsi3+0x6a>
 8000182:	030b      	lsls	r3, r1, #12
 8000184:	1ac0      	subs	r0, r0, r3
 8000186:	4152      	adcs	r2, r2
 8000188:	0ac3      	lsrs	r3, r0, #11
 800018a:	428b      	cmp	r3, r1
 800018c:	d301      	bcc.n	8000192 <__udivsi3+0x76>
 800018e:	02cb      	lsls	r3, r1, #11
 8000190:	1ac0      	subs	r0, r0, r3
 8000192:	4152      	adcs	r2, r2
 8000194:	0a83      	lsrs	r3, r0, #10
 8000196:	428b      	cmp	r3, r1
 8000198:	d301      	bcc.n	800019e <__udivsi3+0x82>
 800019a:	028b      	lsls	r3, r1, #10
 800019c:	1ac0      	subs	r0, r0, r3
 800019e:	4152      	adcs	r2, r2
 80001a0:	0a43      	lsrs	r3, r0, #9
 80001a2:	428b      	cmp	r3, r1
 80001a4:	d301      	bcc.n	80001aa <__udivsi3+0x8e>
 80001a6:	024b      	lsls	r3, r1, #9
 80001a8:	1ac0      	subs	r0, r0, r3
 80001aa:	4152      	adcs	r2, r2
 80001ac:	0a03      	lsrs	r3, r0, #8
 80001ae:	428b      	cmp	r3, r1
 80001b0:	d301      	bcc.n	80001b6 <__udivsi3+0x9a>
 80001b2:	020b      	lsls	r3, r1, #8
 80001b4:	1ac0      	subs	r0, r0, r3
 80001b6:	4152      	adcs	r2, r2
 80001b8:	d2cd      	bcs.n	8000156 <__udivsi3+0x3a>
 80001ba:	09c3      	lsrs	r3, r0, #7
 80001bc:	428b      	cmp	r3, r1
 80001be:	d301      	bcc.n	80001c4 <__udivsi3+0xa8>
 80001c0:	01cb      	lsls	r3, r1, #7
 80001c2:	1ac0      	subs	r0, r0, r3
 80001c4:	4152      	adcs	r2, r2
 80001c6:	0983      	lsrs	r3, r0, #6
 80001c8:	428b      	cmp	r3, r1
 80001ca:	d301      	bcc.n	80001d0 <__udivsi3+0xb4>
 80001cc:	018b      	lsls	r3, r1, #6
 80001ce:	1ac0      	subs	r0, r0, r3
 80001d0:	4152      	adcs	r2, r2
 80001d2:	0943      	lsrs	r3, r0, #5
 80001d4:	428b      	cmp	r3, r1
 80001d6:	d301      	bcc.n	80001dc <__udivsi3+0xc0>
 80001d8:	014b      	lsls	r3, r1, #5
 80001da:	1ac0      	subs	r0, r0, r3
 80001dc:	4152      	adcs	r2, r2
 80001de:	0903      	lsrs	r3, r0, #4
 80001e0:	428b      	cmp	r3, r1
 80001e2:	d301      	bcc.n	80001e8 <__udivsi3+0xcc>
 80001e4:	010b      	lsls	r3, r1, #4
 80001e6:	1ac0      	subs	r0, r0, r3
 80001e8:	4152      	adcs	r2, r2
 80001ea:	08c3      	lsrs	r3, r0, #3
 80001ec:	428b      	cmp	r3, r1
 80001ee:	d301      	bcc.n	80001f4 <__udivsi3+0xd8>
 80001f0:	00cb      	lsls	r3, r1, #3
 80001f2:	1ac0      	subs	r0, r0, r3
 80001f4:	4152      	adcs	r2, r2
 80001f6:	0883      	lsrs	r3, r0, #2
 80001f8:	428b      	cmp	r3, r1
 80001fa:	d301      	bcc.n	8000200 <__udivsi3+0xe4>
 80001fc:	008b      	lsls	r3, r1, #2
 80001fe:	1ac0      	subs	r0, r0, r3
 8000200:	4152      	adcs	r2, r2
 8000202:	0843      	lsrs	r3, r0, #1
 8000204:	428b      	cmp	r3, r1
 8000206:	d301      	bcc.n	800020c <__udivsi3+0xf0>
 8000208:	004b      	lsls	r3, r1, #1
 800020a:	1ac0      	subs	r0, r0, r3
 800020c:	4152      	adcs	r2, r2
 800020e:	1a41      	subs	r1, r0, r1
 8000210:	d200      	bcs.n	8000214 <__udivsi3+0xf8>
 8000212:	4601      	mov	r1, r0
 8000214:	4152      	adcs	r2, r2
 8000216:	4610      	mov	r0, r2
 8000218:	4770      	bx	lr
 800021a:	e7ff      	b.n	800021c <__udivsi3+0x100>
 800021c:	b501      	push	{r0, lr}
 800021e:	2000      	movs	r0, #0
 8000220:	f000 f806 	bl	8000230 <__aeabi_idiv0>
 8000224:	bd02      	pop	{r1, pc}
 8000226:	46c0      	nop			; (mov r8, r8)

08000228 <__aeabi_uidivmod>:
 8000228:	2900      	cmp	r1, #0
 800022a:	d0f7      	beq.n	800021c <__udivsi3+0x100>
 800022c:	e776      	b.n	800011c <__udivsi3>
 800022e:	4770      	bx	lr

08000230 <__aeabi_idiv0>:
 8000230:	4770      	bx	lr
 8000232:	46c0      	nop			; (mov r8, r8)

08000234 <__aeabi_llsr>:
 8000234:	40d0      	lsrs	r0, r2
 8000236:	1c0b      	adds	r3, r1, #0
 8000238:	40d1      	lsrs	r1, r2
 800023a:	469c      	mov	ip, r3
 800023c:	3a20      	subs	r2, #32
 800023e:	40d3      	lsrs	r3, r2
 8000240:	4318      	orrs	r0, r3
 8000242:	4252      	negs	r2, r2
 8000244:	4663      	mov	r3, ip
 8000246:	4093      	lsls	r3, r2
 8000248:	4318      	orrs	r0, r3
 800024a:	4770      	bx	lr

0800024c <__aeabi_cfrcmple>:
 800024c:	4684      	mov	ip, r0
 800024e:	1c08      	adds	r0, r1, #0
 8000250:	4661      	mov	r1, ip
 8000252:	e7ff      	b.n	8000254 <__aeabi_cfcmpeq>

08000254 <__aeabi_cfcmpeq>:
 8000254:	b51f      	push	{r0, r1, r2, r3, r4, lr}
 8000256:	f000 fb8b 	bl	8000970 <__lesf2>
 800025a:	2800      	cmp	r0, #0
 800025c:	d401      	bmi.n	8000262 <__aeabi_cfcmpeq+0xe>
 800025e:	2100      	movs	r1, #0
 8000260:	42c8      	cmn	r0, r1
 8000262:	bd1f      	pop	{r0, r1, r2, r3, r4, pc}

08000264 <__aeabi_fcmpeq>:
 8000264:	b510      	push	{r4, lr}
 8000266:	f000 fb1d 	bl	80008a4 <__eqsf2>
 800026a:	4240      	negs	r0, r0
 800026c:	3001      	adds	r0, #1
 800026e:	bd10      	pop	{r4, pc}

08000270 <__aeabi_fcmplt>:
 8000270:	b510      	push	{r4, lr}
 8000272:	f000 fb7d 	bl	8000970 <__lesf2>
 8000276:	2800      	cmp	r0, #0
 8000278:	db01      	blt.n	800027e <__aeabi_fcmplt+0xe>
 800027a:	2000      	movs	r0, #0
 800027c:	bd10      	pop	{r4, pc}
 800027e:	2001      	movs	r0, #1
 8000280:	bd10      	pop	{r4, pc}
 8000282:	46c0      	nop			; (mov r8, r8)

08000284 <__aeabi_fcmple>:
 8000284:	b510      	push	{r4, lr}
 8000286:	f000 fb73 	bl	8000970 <__lesf2>
 800028a:	2800      	cmp	r0, #0
 800028c:	dd01      	ble.n	8000292 <__aeabi_fcmple+0xe>
 800028e:	2000      	movs	r0, #0
 8000290:	bd10      	pop	{r4, pc}
 8000292:	2001      	movs	r0, #1
 8000294:	bd10      	pop	{r4, pc}
 8000296:	46c0      	nop			; (mov r8, r8)

08000298 <__aeabi_fcmpgt>:
 8000298:	b510      	push	{r4, lr}
 800029a:	f000 fb29 	bl	80008f0 <__gesf2>
 800029e:	2800      	cmp	r0, #0
 80002a0:	dc01      	bgt.n	80002a6 <__aeabi_fcmpgt+0xe>
 80002a2:	2000      	movs	r0, #0
 80002a4:	bd10      	pop	{r4, pc}
 80002a6:	2001      	movs	r0, #1
 80002a8:	bd10      	pop	{r4, pc}
 80002aa:	46c0      	nop			; (mov r8, r8)

080002ac <__aeabi_fcmpge>:
 80002ac:	b510      	push	{r4, lr}
 80002ae:	f000 fb1f 	bl	80008f0 <__gesf2>
 80002b2:	2800      	cmp	r0, #0
 80002b4:	da01      	bge.n	80002ba <__aeabi_fcmpge+0xe>
 80002b6:	2000      	movs	r0, #0
 80002b8:	bd10      	pop	{r4, pc}
 80002ba:	2001      	movs	r0, #1
 80002bc:	bd10      	pop	{r4, pc}
 80002be:	46c0      	nop			; (mov r8, r8)

080002c0 <__aeabi_f2uiz>:
 80002c0:	219e      	movs	r1, #158	; 0x9e
 80002c2:	b510      	push	{r4, lr}
 80002c4:	05c9      	lsls	r1, r1, #23
 80002c6:	1c04      	adds	r4, r0, #0
 80002c8:	f7ff fff0 	bl	80002ac <__aeabi_fcmpge>
 80002cc:	2800      	cmp	r0, #0
 80002ce:	d103      	bne.n	80002d8 <__aeabi_f2uiz+0x18>
 80002d0:	1c20      	adds	r0, r4, #0
 80002d2:	f000 fe4b 	bl	8000f6c <__aeabi_f2iz>
 80002d6:	bd10      	pop	{r4, pc}
 80002d8:	219e      	movs	r1, #158	; 0x9e
 80002da:	1c20      	adds	r0, r4, #0
 80002dc:	05c9      	lsls	r1, r1, #23
 80002de:	f000 fca9 	bl	8000c34 <__aeabi_fsub>
 80002e2:	f000 fe43 	bl	8000f6c <__aeabi_f2iz>
 80002e6:	2380      	movs	r3, #128	; 0x80
 80002e8:	061b      	lsls	r3, r3, #24
 80002ea:	469c      	mov	ip, r3
 80002ec:	4460      	add	r0, ip
 80002ee:	e7f2      	b.n	80002d6 <__aeabi_f2uiz+0x16>

080002f0 <__aeabi_fadd>:
 80002f0:	b5f0      	push	{r4, r5, r6, r7, lr}
 80002f2:	46c6      	mov	lr, r8
 80002f4:	024e      	lsls	r6, r1, #9
 80002f6:	0247      	lsls	r7, r0, #9
 80002f8:	0a76      	lsrs	r6, r6, #9
 80002fa:	0a7b      	lsrs	r3, r7, #9
 80002fc:	0044      	lsls	r4, r0, #1
 80002fe:	0fc5      	lsrs	r5, r0, #31
 8000300:	00f7      	lsls	r7, r6, #3
 8000302:	0048      	lsls	r0, r1, #1
 8000304:	4698      	mov	r8, r3
 8000306:	b500      	push	{lr}
 8000308:	0e24      	lsrs	r4, r4, #24
 800030a:	002a      	movs	r2, r5
 800030c:	00db      	lsls	r3, r3, #3
 800030e:	0e00      	lsrs	r0, r0, #24
 8000310:	0fc9      	lsrs	r1, r1, #31
 8000312:	46bc      	mov	ip, r7
 8000314:	428d      	cmp	r5, r1
 8000316:	d067      	beq.n	80003e8 <__aeabi_fadd+0xf8>
 8000318:	1a22      	subs	r2, r4, r0
 800031a:	2a00      	cmp	r2, #0
 800031c:	dc00      	bgt.n	8000320 <__aeabi_fadd+0x30>
 800031e:	e0a5      	b.n	800046c <__aeabi_fadd+0x17c>
 8000320:	2800      	cmp	r0, #0
 8000322:	d13a      	bne.n	800039a <__aeabi_fadd+0xaa>
 8000324:	2f00      	cmp	r7, #0
 8000326:	d100      	bne.n	800032a <__aeabi_fadd+0x3a>
 8000328:	e093      	b.n	8000452 <__aeabi_fadd+0x162>
 800032a:	1e51      	subs	r1, r2, #1
 800032c:	2900      	cmp	r1, #0
 800032e:	d000      	beq.n	8000332 <__aeabi_fadd+0x42>
 8000330:	e0bc      	b.n	80004ac <__aeabi_fadd+0x1bc>
 8000332:	2401      	movs	r4, #1
 8000334:	1bdb      	subs	r3, r3, r7
 8000336:	015a      	lsls	r2, r3, #5
 8000338:	d546      	bpl.n	80003c8 <__aeabi_fadd+0xd8>
 800033a:	019b      	lsls	r3, r3, #6
 800033c:	099e      	lsrs	r6, r3, #6
 800033e:	0030      	movs	r0, r6
 8000340:	f000 feca 	bl	80010d8 <__clzsi2>
 8000344:	3805      	subs	r0, #5
 8000346:	4086      	lsls	r6, r0
 8000348:	4284      	cmp	r4, r0
 800034a:	dd00      	ble.n	800034e <__aeabi_fadd+0x5e>
 800034c:	e09d      	b.n	800048a <__aeabi_fadd+0x19a>
 800034e:	1b04      	subs	r4, r0, r4
 8000350:	0032      	movs	r2, r6
 8000352:	2020      	movs	r0, #32
 8000354:	3401      	adds	r4, #1
 8000356:	40e2      	lsrs	r2, r4
 8000358:	1b04      	subs	r4, r0, r4
 800035a:	40a6      	lsls	r6, r4
 800035c:	0033      	movs	r3, r6
 800035e:	1e5e      	subs	r6, r3, #1
 8000360:	41b3      	sbcs	r3, r6
 8000362:	2400      	movs	r4, #0
 8000364:	4313      	orrs	r3, r2
 8000366:	075a      	lsls	r2, r3, #29
 8000368:	d004      	beq.n	8000374 <__aeabi_fadd+0x84>
 800036a:	220f      	movs	r2, #15
 800036c:	401a      	ands	r2, r3
 800036e:	2a04      	cmp	r2, #4
 8000370:	d000      	beq.n	8000374 <__aeabi_fadd+0x84>
 8000372:	3304      	adds	r3, #4
 8000374:	015a      	lsls	r2, r3, #5
 8000376:	d529      	bpl.n	80003cc <__aeabi_fadd+0xdc>
 8000378:	3401      	adds	r4, #1
 800037a:	2cff      	cmp	r4, #255	; 0xff
 800037c:	d100      	bne.n	8000380 <__aeabi_fadd+0x90>
 800037e:	e081      	b.n	8000484 <__aeabi_fadd+0x194>
 8000380:	002a      	movs	r2, r5
 8000382:	019b      	lsls	r3, r3, #6
 8000384:	0a5b      	lsrs	r3, r3, #9
 8000386:	b2e4      	uxtb	r4, r4
 8000388:	025b      	lsls	r3, r3, #9
 800038a:	05e4      	lsls	r4, r4, #23
 800038c:	0a58      	lsrs	r0, r3, #9
 800038e:	07d2      	lsls	r2, r2, #31
 8000390:	4320      	orrs	r0, r4
 8000392:	4310      	orrs	r0, r2
 8000394:	bc04      	pop	{r2}
 8000396:	4690      	mov	r8, r2
 8000398:	bdf0      	pop	{r4, r5, r6, r7, pc}
 800039a:	2cff      	cmp	r4, #255	; 0xff
 800039c:	d0e3      	beq.n	8000366 <__aeabi_fadd+0x76>
 800039e:	2180      	movs	r1, #128	; 0x80
 80003a0:	0038      	movs	r0, r7
 80003a2:	04c9      	lsls	r1, r1, #19
 80003a4:	4308      	orrs	r0, r1
 80003a6:	4684      	mov	ip, r0
 80003a8:	2a1b      	cmp	r2, #27
 80003aa:	dd00      	ble.n	80003ae <__aeabi_fadd+0xbe>
 80003ac:	e082      	b.n	80004b4 <__aeabi_fadd+0x1c4>
 80003ae:	2020      	movs	r0, #32
 80003b0:	4661      	mov	r1, ip
 80003b2:	40d1      	lsrs	r1, r2
 80003b4:	1a82      	subs	r2, r0, r2
 80003b6:	4660      	mov	r0, ip
 80003b8:	4090      	lsls	r0, r2
 80003ba:	0002      	movs	r2, r0
 80003bc:	1e50      	subs	r0, r2, #1
 80003be:	4182      	sbcs	r2, r0
 80003c0:	430a      	orrs	r2, r1
 80003c2:	1a9b      	subs	r3, r3, r2
 80003c4:	015a      	lsls	r2, r3, #5
 80003c6:	d4b8      	bmi.n	800033a <__aeabi_fadd+0x4a>
 80003c8:	075a      	lsls	r2, r3, #29
 80003ca:	d1ce      	bne.n	800036a <__aeabi_fadd+0x7a>
 80003cc:	08de      	lsrs	r6, r3, #3
 80003ce:	002a      	movs	r2, r5
 80003d0:	2cff      	cmp	r4, #255	; 0xff
 80003d2:	d13a      	bne.n	800044a <__aeabi_fadd+0x15a>
 80003d4:	2e00      	cmp	r6, #0
 80003d6:	d100      	bne.n	80003da <__aeabi_fadd+0xea>
 80003d8:	e0ae      	b.n	8000538 <__aeabi_fadd+0x248>
 80003da:	2380      	movs	r3, #128	; 0x80
 80003dc:	03db      	lsls	r3, r3, #15
 80003de:	4333      	orrs	r3, r6
 80003e0:	025b      	lsls	r3, r3, #9
 80003e2:	0a5b      	lsrs	r3, r3, #9
 80003e4:	24ff      	movs	r4, #255	; 0xff
 80003e6:	e7cf      	b.n	8000388 <__aeabi_fadd+0x98>
 80003e8:	1a21      	subs	r1, r4, r0
 80003ea:	2900      	cmp	r1, #0
 80003ec:	dd52      	ble.n	8000494 <__aeabi_fadd+0x1a4>
 80003ee:	2800      	cmp	r0, #0
 80003f0:	d031      	beq.n	8000456 <__aeabi_fadd+0x166>
 80003f2:	2cff      	cmp	r4, #255	; 0xff
 80003f4:	d0b7      	beq.n	8000366 <__aeabi_fadd+0x76>
 80003f6:	2080      	movs	r0, #128	; 0x80
 80003f8:	003e      	movs	r6, r7
 80003fa:	04c0      	lsls	r0, r0, #19
 80003fc:	4306      	orrs	r6, r0
 80003fe:	46b4      	mov	ip, r6
 8000400:	291b      	cmp	r1, #27
 8000402:	dd00      	ble.n	8000406 <__aeabi_fadd+0x116>
 8000404:	e0aa      	b.n	800055c <__aeabi_fadd+0x26c>
 8000406:	2620      	movs	r6, #32
 8000408:	4660      	mov	r0, ip
 800040a:	40c8      	lsrs	r0, r1
 800040c:	1a71      	subs	r1, r6, r1
 800040e:	4666      	mov	r6, ip
 8000410:	408e      	lsls	r6, r1
 8000412:	0031      	movs	r1, r6
 8000414:	1e4e      	subs	r6, r1, #1
 8000416:	41b1      	sbcs	r1, r6
 8000418:	4301      	orrs	r1, r0
 800041a:	185b      	adds	r3, r3, r1
 800041c:	0159      	lsls	r1, r3, #5
 800041e:	d5d3      	bpl.n	80003c8 <__aeabi_fadd+0xd8>
 8000420:	3401      	adds	r4, #1
 8000422:	2cff      	cmp	r4, #255	; 0xff
 8000424:	d100      	bne.n	8000428 <__aeabi_fadd+0x138>
 8000426:	e087      	b.n	8000538 <__aeabi_fadd+0x248>
 8000428:	2201      	movs	r2, #1
 800042a:	4978      	ldr	r1, [pc, #480]	; (800060c <__aeabi_fadd+0x31c>)
 800042c:	401a      	ands	r2, r3
 800042e:	085b      	lsrs	r3, r3, #1
 8000430:	400b      	ands	r3, r1
 8000432:	4313      	orrs	r3, r2
 8000434:	e797      	b.n	8000366 <__aeabi_fadd+0x76>
 8000436:	2c00      	cmp	r4, #0
 8000438:	d000      	beq.n	800043c <__aeabi_fadd+0x14c>
 800043a:	e0a7      	b.n	800058c <__aeabi_fadd+0x29c>
 800043c:	2b00      	cmp	r3, #0
 800043e:	d000      	beq.n	8000442 <__aeabi_fadd+0x152>
 8000440:	e0b6      	b.n	80005b0 <__aeabi_fadd+0x2c0>
 8000442:	1e3b      	subs	r3, r7, #0
 8000444:	d162      	bne.n	800050c <__aeabi_fadd+0x21c>
 8000446:	2600      	movs	r6, #0
 8000448:	2200      	movs	r2, #0
 800044a:	0273      	lsls	r3, r6, #9
 800044c:	0a5b      	lsrs	r3, r3, #9
 800044e:	b2e4      	uxtb	r4, r4
 8000450:	e79a      	b.n	8000388 <__aeabi_fadd+0x98>
 8000452:	0014      	movs	r4, r2
 8000454:	e787      	b.n	8000366 <__aeabi_fadd+0x76>
 8000456:	2f00      	cmp	r7, #0
 8000458:	d04d      	beq.n	80004f6 <__aeabi_fadd+0x206>
 800045a:	1e48      	subs	r0, r1, #1
 800045c:	2800      	cmp	r0, #0
 800045e:	d157      	bne.n	8000510 <__aeabi_fadd+0x220>
 8000460:	4463      	add	r3, ip
 8000462:	2401      	movs	r4, #1
 8000464:	015a      	lsls	r2, r3, #5
 8000466:	d5af      	bpl.n	80003c8 <__aeabi_fadd+0xd8>
 8000468:	2402      	movs	r4, #2
 800046a:	e7dd      	b.n	8000428 <__aeabi_fadd+0x138>
 800046c:	2a00      	cmp	r2, #0
 800046e:	d124      	bne.n	80004ba <__aeabi_fadd+0x1ca>
 8000470:	1c62      	adds	r2, r4, #1
 8000472:	b2d2      	uxtb	r2, r2
 8000474:	2a01      	cmp	r2, #1
 8000476:	ddde      	ble.n	8000436 <__aeabi_fadd+0x146>
 8000478:	1bde      	subs	r6, r3, r7
 800047a:	0172      	lsls	r2, r6, #5
 800047c:	d535      	bpl.n	80004ea <__aeabi_fadd+0x1fa>
 800047e:	1afe      	subs	r6, r7, r3
 8000480:	000d      	movs	r5, r1
 8000482:	e75c      	b.n	800033e <__aeabi_fadd+0x4e>
 8000484:	002a      	movs	r2, r5
 8000486:	2300      	movs	r3, #0
 8000488:	e77e      	b.n	8000388 <__aeabi_fadd+0x98>
 800048a:	0033      	movs	r3, r6
 800048c:	4a60      	ldr	r2, [pc, #384]	; (8000610 <__aeabi_fadd+0x320>)
 800048e:	1a24      	subs	r4, r4, r0
 8000490:	4013      	ands	r3, r2
 8000492:	e768      	b.n	8000366 <__aeabi_fadd+0x76>
 8000494:	2900      	cmp	r1, #0
 8000496:	d163      	bne.n	8000560 <__aeabi_fadd+0x270>
 8000498:	1c61      	adds	r1, r4, #1
 800049a:	b2c8      	uxtb	r0, r1
 800049c:	2801      	cmp	r0, #1
 800049e:	dd4e      	ble.n	800053e <__aeabi_fadd+0x24e>
 80004a0:	29ff      	cmp	r1, #255	; 0xff
 80004a2:	d049      	beq.n	8000538 <__aeabi_fadd+0x248>
 80004a4:	4463      	add	r3, ip
 80004a6:	085b      	lsrs	r3, r3, #1
 80004a8:	000c      	movs	r4, r1
 80004aa:	e75c      	b.n	8000366 <__aeabi_fadd+0x76>
 80004ac:	2aff      	cmp	r2, #255	; 0xff
 80004ae:	d041      	beq.n	8000534 <__aeabi_fadd+0x244>
 80004b0:	000a      	movs	r2, r1
 80004b2:	e779      	b.n	80003a8 <__aeabi_fadd+0xb8>
 80004b4:	2201      	movs	r2, #1
 80004b6:	1a9b      	subs	r3, r3, r2
 80004b8:	e784      	b.n	80003c4 <__aeabi_fadd+0xd4>
 80004ba:	2c00      	cmp	r4, #0
 80004bc:	d01d      	beq.n	80004fa <__aeabi_fadd+0x20a>
 80004be:	28ff      	cmp	r0, #255	; 0xff
 80004c0:	d022      	beq.n	8000508 <__aeabi_fadd+0x218>
 80004c2:	2480      	movs	r4, #128	; 0x80
 80004c4:	04e4      	lsls	r4, r4, #19
 80004c6:	4252      	negs	r2, r2
 80004c8:	4323      	orrs	r3, r4
 80004ca:	2a1b      	cmp	r2, #27
 80004cc:	dd00      	ble.n	80004d0 <__aeabi_fadd+0x1e0>
 80004ce:	e08a      	b.n	80005e6 <__aeabi_fadd+0x2f6>
 80004d0:	001c      	movs	r4, r3
 80004d2:	2520      	movs	r5, #32
 80004d4:	40d4      	lsrs	r4, r2
 80004d6:	1aaa      	subs	r2, r5, r2
 80004d8:	4093      	lsls	r3, r2
 80004da:	1e5a      	subs	r2, r3, #1
 80004dc:	4193      	sbcs	r3, r2
 80004de:	4323      	orrs	r3, r4
 80004e0:	4662      	mov	r2, ip
 80004e2:	0004      	movs	r4, r0
 80004e4:	1ad3      	subs	r3, r2, r3
 80004e6:	000d      	movs	r5, r1
 80004e8:	e725      	b.n	8000336 <__aeabi_fadd+0x46>
 80004ea:	2e00      	cmp	r6, #0
 80004ec:	d000      	beq.n	80004f0 <__aeabi_fadd+0x200>
 80004ee:	e726      	b.n	800033e <__aeabi_fadd+0x4e>
 80004f0:	2200      	movs	r2, #0
 80004f2:	2400      	movs	r4, #0
 80004f4:	e7a9      	b.n	800044a <__aeabi_fadd+0x15a>
 80004f6:	000c      	movs	r4, r1
 80004f8:	e735      	b.n	8000366 <__aeabi_fadd+0x76>
 80004fa:	2b00      	cmp	r3, #0
 80004fc:	d04d      	beq.n	800059a <__aeabi_fadd+0x2aa>
 80004fe:	43d2      	mvns	r2, r2
 8000500:	2a00      	cmp	r2, #0
 8000502:	d0ed      	beq.n	80004e0 <__aeabi_fadd+0x1f0>
 8000504:	28ff      	cmp	r0, #255	; 0xff
 8000506:	d1e0      	bne.n	80004ca <__aeabi_fadd+0x1da>
 8000508:	4663      	mov	r3, ip
 800050a:	24ff      	movs	r4, #255	; 0xff
 800050c:	000d      	movs	r5, r1
 800050e:	e72a      	b.n	8000366 <__aeabi_fadd+0x76>
 8000510:	29ff      	cmp	r1, #255	; 0xff
 8000512:	d00f      	beq.n	8000534 <__aeabi_fadd+0x244>
 8000514:	0001      	movs	r1, r0
 8000516:	e773      	b.n	8000400 <__aeabi_fadd+0x110>
 8000518:	2b00      	cmp	r3, #0
 800051a:	d061      	beq.n	80005e0 <__aeabi_fadd+0x2f0>
 800051c:	24ff      	movs	r4, #255	; 0xff
 800051e:	2f00      	cmp	r7, #0
 8000520:	d100      	bne.n	8000524 <__aeabi_fadd+0x234>
 8000522:	e720      	b.n	8000366 <__aeabi_fadd+0x76>
 8000524:	2280      	movs	r2, #128	; 0x80
 8000526:	4641      	mov	r1, r8
 8000528:	03d2      	lsls	r2, r2, #15
 800052a:	4211      	tst	r1, r2
 800052c:	d002      	beq.n	8000534 <__aeabi_fadd+0x244>
 800052e:	4216      	tst	r6, r2
 8000530:	d100      	bne.n	8000534 <__aeabi_fadd+0x244>
 8000532:	003b      	movs	r3, r7
 8000534:	24ff      	movs	r4, #255	; 0xff
 8000536:	e716      	b.n	8000366 <__aeabi_fadd+0x76>
 8000538:	24ff      	movs	r4, #255	; 0xff
 800053a:	2300      	movs	r3, #0
 800053c:	e724      	b.n	8000388 <__aeabi_fadd+0x98>
 800053e:	2c00      	cmp	r4, #0
 8000540:	d1ea      	bne.n	8000518 <__aeabi_fadd+0x228>
 8000542:	2b00      	cmp	r3, #0
 8000544:	d058      	beq.n	80005f8 <__aeabi_fadd+0x308>
 8000546:	2f00      	cmp	r7, #0
 8000548:	d100      	bne.n	800054c <__aeabi_fadd+0x25c>
 800054a:	e70c      	b.n	8000366 <__aeabi_fadd+0x76>
 800054c:	4463      	add	r3, ip
 800054e:	015a      	lsls	r2, r3, #5
 8000550:	d400      	bmi.n	8000554 <__aeabi_fadd+0x264>
 8000552:	e739      	b.n	80003c8 <__aeabi_fadd+0xd8>
 8000554:	4a2e      	ldr	r2, [pc, #184]	; (8000610 <__aeabi_fadd+0x320>)
 8000556:	000c      	movs	r4, r1
 8000558:	4013      	ands	r3, r2
 800055a:	e704      	b.n	8000366 <__aeabi_fadd+0x76>
 800055c:	2101      	movs	r1, #1
 800055e:	e75c      	b.n	800041a <__aeabi_fadd+0x12a>
 8000560:	2c00      	cmp	r4, #0
 8000562:	d11e      	bne.n	80005a2 <__aeabi_fadd+0x2b2>
 8000564:	2b00      	cmp	r3, #0
 8000566:	d040      	beq.n	80005ea <__aeabi_fadd+0x2fa>
 8000568:	43c9      	mvns	r1, r1
 800056a:	2900      	cmp	r1, #0
 800056c:	d00b      	beq.n	8000586 <__aeabi_fadd+0x296>
 800056e:	28ff      	cmp	r0, #255	; 0xff
 8000570:	d036      	beq.n	80005e0 <__aeabi_fadd+0x2f0>
 8000572:	291b      	cmp	r1, #27
 8000574:	dc47      	bgt.n	8000606 <__aeabi_fadd+0x316>
 8000576:	001c      	movs	r4, r3
 8000578:	2620      	movs	r6, #32
 800057a:	40cc      	lsrs	r4, r1
 800057c:	1a71      	subs	r1, r6, r1
 800057e:	408b      	lsls	r3, r1
 8000580:	1e59      	subs	r1, r3, #1
 8000582:	418b      	sbcs	r3, r1
 8000584:	4323      	orrs	r3, r4
 8000586:	4463      	add	r3, ip
 8000588:	0004      	movs	r4, r0
 800058a:	e747      	b.n	800041c <__aeabi_fadd+0x12c>
 800058c:	2b00      	cmp	r3, #0
 800058e:	d118      	bne.n	80005c2 <__aeabi_fadd+0x2d2>
 8000590:	1e3b      	subs	r3, r7, #0
 8000592:	d02d      	beq.n	80005f0 <__aeabi_fadd+0x300>
 8000594:	000d      	movs	r5, r1
 8000596:	24ff      	movs	r4, #255	; 0xff
 8000598:	e6e5      	b.n	8000366 <__aeabi_fadd+0x76>
 800059a:	003b      	movs	r3, r7
 800059c:	0004      	movs	r4, r0
 800059e:	000d      	movs	r5, r1
 80005a0:	e6e1      	b.n	8000366 <__aeabi_fadd+0x76>
 80005a2:	28ff      	cmp	r0, #255	; 0xff
 80005a4:	d01c      	beq.n	80005e0 <__aeabi_fadd+0x2f0>
 80005a6:	2480      	movs	r4, #128	; 0x80
 80005a8:	04e4      	lsls	r4, r4, #19
 80005aa:	4249      	negs	r1, r1
 80005ac:	4323      	orrs	r3, r4
 80005ae:	e7e0      	b.n	8000572 <__aeabi_fadd+0x282>
 80005b0:	2f00      	cmp	r7, #0
 80005b2:	d100      	bne.n	80005b6 <__aeabi_fadd+0x2c6>
 80005b4:	e6d7      	b.n	8000366 <__aeabi_fadd+0x76>
 80005b6:	1bde      	subs	r6, r3, r7
 80005b8:	0172      	lsls	r2, r6, #5
 80005ba:	d51f      	bpl.n	80005fc <__aeabi_fadd+0x30c>
 80005bc:	1afb      	subs	r3, r7, r3
 80005be:	000d      	movs	r5, r1
 80005c0:	e6d1      	b.n	8000366 <__aeabi_fadd+0x76>
 80005c2:	24ff      	movs	r4, #255	; 0xff
 80005c4:	2f00      	cmp	r7, #0
 80005c6:	d100      	bne.n	80005ca <__aeabi_fadd+0x2da>
 80005c8:	e6cd      	b.n	8000366 <__aeabi_fadd+0x76>
 80005ca:	2280      	movs	r2, #128	; 0x80
 80005cc:	4640      	mov	r0, r8
 80005ce:	03d2      	lsls	r2, r2, #15
 80005d0:	4210      	tst	r0, r2
 80005d2:	d0af      	beq.n	8000534 <__aeabi_fadd+0x244>
 80005d4:	4216      	tst	r6, r2
 80005d6:	d1ad      	bne.n	8000534 <__aeabi_fadd+0x244>
 80005d8:	003b      	movs	r3, r7
 80005da:	000d      	movs	r5, r1
 80005dc:	24ff      	movs	r4, #255	; 0xff
 80005de:	e6c2      	b.n	8000366 <__aeabi_fadd+0x76>
 80005e0:	4663      	mov	r3, ip
 80005e2:	24ff      	movs	r4, #255	; 0xff
 80005e4:	e6bf      	b.n	8000366 <__aeabi_fadd+0x76>
 80005e6:	2301      	movs	r3, #1
 80005e8:	e77a      	b.n	80004e0 <__aeabi_fadd+0x1f0>
 80005ea:	003b      	movs	r3, r7
 80005ec:	0004      	movs	r4, r0
 80005ee:	e6ba      	b.n	8000366 <__aeabi_fadd+0x76>
 80005f0:	2680      	movs	r6, #128	; 0x80
 80005f2:	2200      	movs	r2, #0
 80005f4:	03f6      	lsls	r6, r6, #15
 80005f6:	e6f0      	b.n	80003da <__aeabi_fadd+0xea>
 80005f8:	003b      	movs	r3, r7
 80005fa:	e6b4      	b.n	8000366 <__aeabi_fadd+0x76>
 80005fc:	1e33      	subs	r3, r6, #0
 80005fe:	d000      	beq.n	8000602 <__aeabi_fadd+0x312>
 8000600:	e6e2      	b.n	80003c8 <__aeabi_fadd+0xd8>
 8000602:	2200      	movs	r2, #0
 8000604:	e721      	b.n	800044a <__aeabi_fadd+0x15a>
 8000606:	2301      	movs	r3, #1
 8000608:	e7bd      	b.n	8000586 <__aeabi_fadd+0x296>
 800060a:	46c0      	nop			; (mov r8, r8)
 800060c:	7dffffff 	.word	0x7dffffff
 8000610:	fbffffff 	.word	0xfbffffff

08000614 <__aeabi_fdiv>:
 8000614:	b5f0      	push	{r4, r5, r6, r7, lr}
 8000616:	4657      	mov	r7, sl
 8000618:	464e      	mov	r6, r9
 800061a:	46de      	mov	lr, fp
 800061c:	4645      	mov	r5, r8
 800061e:	b5e0      	push	{r5, r6, r7, lr}
 8000620:	0244      	lsls	r4, r0, #9
 8000622:	0043      	lsls	r3, r0, #1
 8000624:	0fc6      	lsrs	r6, r0, #31
 8000626:	b083      	sub	sp, #12
 8000628:	1c0f      	adds	r7, r1, #0
 800062a:	0a64      	lsrs	r4, r4, #9
 800062c:	0e1b      	lsrs	r3, r3, #24
 800062e:	46b2      	mov	sl, r6
 8000630:	d053      	beq.n	80006da <__aeabi_fdiv+0xc6>
 8000632:	2bff      	cmp	r3, #255	; 0xff
 8000634:	d027      	beq.n	8000686 <__aeabi_fdiv+0x72>
 8000636:	2280      	movs	r2, #128	; 0x80
 8000638:	00e4      	lsls	r4, r4, #3
 800063a:	04d2      	lsls	r2, r2, #19
 800063c:	4314      	orrs	r4, r2
 800063e:	227f      	movs	r2, #127	; 0x7f
 8000640:	4252      	negs	r2, r2
 8000642:	4690      	mov	r8, r2
 8000644:	4498      	add	r8, r3
 8000646:	2300      	movs	r3, #0
 8000648:	4699      	mov	r9, r3
 800064a:	469b      	mov	fp, r3
 800064c:	027d      	lsls	r5, r7, #9
 800064e:	0078      	lsls	r0, r7, #1
 8000650:	0ffb      	lsrs	r3, r7, #31
 8000652:	0a6d      	lsrs	r5, r5, #9
 8000654:	0e00      	lsrs	r0, r0, #24
 8000656:	9300      	str	r3, [sp, #0]
 8000658:	d024      	beq.n	80006a4 <__aeabi_fdiv+0x90>
 800065a:	28ff      	cmp	r0, #255	; 0xff
 800065c:	d046      	beq.n	80006ec <__aeabi_fdiv+0xd8>
 800065e:	2380      	movs	r3, #128	; 0x80
 8000660:	2100      	movs	r1, #0
 8000662:	00ed      	lsls	r5, r5, #3
 8000664:	04db      	lsls	r3, r3, #19
 8000666:	431d      	orrs	r5, r3
 8000668:	387f      	subs	r0, #127	; 0x7f
 800066a:	4647      	mov	r7, r8
 800066c:	1a38      	subs	r0, r7, r0
 800066e:	464f      	mov	r7, r9
 8000670:	430f      	orrs	r7, r1
 8000672:	00bf      	lsls	r7, r7, #2
 8000674:	46b9      	mov	r9, r7
 8000676:	0033      	movs	r3, r6
 8000678:	9a00      	ldr	r2, [sp, #0]
 800067a:	4f87      	ldr	r7, [pc, #540]	; (8000898 <__aeabi_fdiv+0x284>)
 800067c:	4053      	eors	r3, r2
 800067e:	464a      	mov	r2, r9
 8000680:	58ba      	ldr	r2, [r7, r2]
 8000682:	9301      	str	r3, [sp, #4]
 8000684:	4697      	mov	pc, r2
 8000686:	2c00      	cmp	r4, #0
 8000688:	d14e      	bne.n	8000728 <__aeabi_fdiv+0x114>
 800068a:	2308      	movs	r3, #8
 800068c:	4699      	mov	r9, r3
 800068e:	33f7      	adds	r3, #247	; 0xf7
 8000690:	4698      	mov	r8, r3
 8000692:	3bfd      	subs	r3, #253	; 0xfd
 8000694:	469b      	mov	fp, r3
 8000696:	027d      	lsls	r5, r7, #9
 8000698:	0078      	lsls	r0, r7, #1
 800069a:	0ffb      	lsrs	r3, r7, #31
 800069c:	0a6d      	lsrs	r5, r5, #9
 800069e:	0e00      	lsrs	r0, r0, #24
 80006a0:	9300      	str	r3, [sp, #0]
 80006a2:	d1da      	bne.n	800065a <__aeabi_fdiv+0x46>
 80006a4:	2d00      	cmp	r5, #0
 80006a6:	d126      	bne.n	80006f6 <__aeabi_fdiv+0xe2>
 80006a8:	2000      	movs	r0, #0
 80006aa:	2101      	movs	r1, #1
 80006ac:	0033      	movs	r3, r6
 80006ae:	9a00      	ldr	r2, [sp, #0]
 80006b0:	4f7a      	ldr	r7, [pc, #488]	; (800089c <__aeabi_fdiv+0x288>)
 80006b2:	4053      	eors	r3, r2
 80006b4:	4642      	mov	r2, r8
 80006b6:	1a10      	subs	r0, r2, r0
 80006b8:	464a      	mov	r2, r9
 80006ba:	430a      	orrs	r2, r1
 80006bc:	0092      	lsls	r2, r2, #2
 80006be:	58ba      	ldr	r2, [r7, r2]
 80006c0:	001d      	movs	r5, r3
 80006c2:	4697      	mov	pc, r2
 80006c4:	9b00      	ldr	r3, [sp, #0]
 80006c6:	002c      	movs	r4, r5
 80006c8:	469a      	mov	sl, r3
 80006ca:	468b      	mov	fp, r1
 80006cc:	465b      	mov	r3, fp
 80006ce:	2b02      	cmp	r3, #2
 80006d0:	d131      	bne.n	8000736 <__aeabi_fdiv+0x122>
 80006d2:	4653      	mov	r3, sl
 80006d4:	21ff      	movs	r1, #255	; 0xff
 80006d6:	2400      	movs	r4, #0
 80006d8:	e038      	b.n	800074c <__aeabi_fdiv+0x138>
 80006da:	2c00      	cmp	r4, #0
 80006dc:	d117      	bne.n	800070e <__aeabi_fdiv+0xfa>
 80006de:	2304      	movs	r3, #4
 80006e0:	4699      	mov	r9, r3
 80006e2:	2300      	movs	r3, #0
 80006e4:	4698      	mov	r8, r3
 80006e6:	3301      	adds	r3, #1
 80006e8:	469b      	mov	fp, r3
 80006ea:	e7af      	b.n	800064c <__aeabi_fdiv+0x38>
 80006ec:	20ff      	movs	r0, #255	; 0xff
 80006ee:	2d00      	cmp	r5, #0
 80006f0:	d10b      	bne.n	800070a <__aeabi_fdiv+0xf6>
 80006f2:	2102      	movs	r1, #2
 80006f4:	e7da      	b.n	80006ac <__aeabi_fdiv+0x98>
 80006f6:	0028      	movs	r0, r5
 80006f8:	f000 fcee 	bl	80010d8 <__clzsi2>
 80006fc:	1f43      	subs	r3, r0, #5
 80006fe:	409d      	lsls	r5, r3
 8000700:	2376      	movs	r3, #118	; 0x76
 8000702:	425b      	negs	r3, r3
 8000704:	1a18      	subs	r0, r3, r0
 8000706:	2100      	movs	r1, #0
 8000708:	e7af      	b.n	800066a <__aeabi_fdiv+0x56>
 800070a:	2103      	movs	r1, #3
 800070c:	e7ad      	b.n	800066a <__aeabi_fdiv+0x56>
 800070e:	0020      	movs	r0, r4
 8000710:	f000 fce2 	bl	80010d8 <__clzsi2>
 8000714:	1f43      	subs	r3, r0, #5
 8000716:	409c      	lsls	r4, r3
 8000718:	2376      	movs	r3, #118	; 0x76
 800071a:	425b      	negs	r3, r3
 800071c:	1a1b      	subs	r3, r3, r0
 800071e:	4698      	mov	r8, r3
 8000720:	2300      	movs	r3, #0
 8000722:	4699      	mov	r9, r3
 8000724:	469b      	mov	fp, r3
 8000726:	e791      	b.n	800064c <__aeabi_fdiv+0x38>
 8000728:	230c      	movs	r3, #12
 800072a:	4699      	mov	r9, r3
 800072c:	33f3      	adds	r3, #243	; 0xf3
 800072e:	4698      	mov	r8, r3
 8000730:	3bfc      	subs	r3, #252	; 0xfc
 8000732:	469b      	mov	fp, r3
 8000734:	e78a      	b.n	800064c <__aeabi_fdiv+0x38>
 8000736:	2b03      	cmp	r3, #3
 8000738:	d100      	bne.n	800073c <__aeabi_fdiv+0x128>
 800073a:	e0a5      	b.n	8000888 <__aeabi_fdiv+0x274>
 800073c:	4655      	mov	r5, sl
 800073e:	2b01      	cmp	r3, #1
 8000740:	d000      	beq.n	8000744 <__aeabi_fdiv+0x130>
 8000742:	e081      	b.n	8000848 <__aeabi_fdiv+0x234>
 8000744:	2301      	movs	r3, #1
 8000746:	2100      	movs	r1, #0
 8000748:	2400      	movs	r4, #0
 800074a:	402b      	ands	r3, r5
 800074c:	0264      	lsls	r4, r4, #9
 800074e:	05c9      	lsls	r1, r1, #23
 8000750:	0a60      	lsrs	r0, r4, #9
 8000752:	07db      	lsls	r3, r3, #31
 8000754:	4308      	orrs	r0, r1
 8000756:	4318      	orrs	r0, r3
 8000758:	b003      	add	sp, #12
 800075a:	bc3c      	pop	{r2, r3, r4, r5}
 800075c:	4690      	mov	r8, r2
 800075e:	4699      	mov	r9, r3
 8000760:	46a2      	mov	sl, r4
 8000762:	46ab      	mov	fp, r5
 8000764:	bdf0      	pop	{r4, r5, r6, r7, pc}
 8000766:	2480      	movs	r4, #128	; 0x80
 8000768:	2300      	movs	r3, #0
 800076a:	03e4      	lsls	r4, r4, #15
 800076c:	21ff      	movs	r1, #255	; 0xff
 800076e:	e7ed      	b.n	800074c <__aeabi_fdiv+0x138>
 8000770:	21ff      	movs	r1, #255	; 0xff
 8000772:	2400      	movs	r4, #0
 8000774:	e7ea      	b.n	800074c <__aeabi_fdiv+0x138>
 8000776:	2301      	movs	r3, #1
 8000778:	1a59      	subs	r1, r3, r1
 800077a:	291b      	cmp	r1, #27
 800077c:	dd66      	ble.n	800084c <__aeabi_fdiv+0x238>
 800077e:	9a01      	ldr	r2, [sp, #4]
 8000780:	4013      	ands	r3, r2
 8000782:	2100      	movs	r1, #0
 8000784:	2400      	movs	r4, #0
 8000786:	e7e1      	b.n	800074c <__aeabi_fdiv+0x138>
 8000788:	2380      	movs	r3, #128	; 0x80
 800078a:	03db      	lsls	r3, r3, #15
 800078c:	421c      	tst	r4, r3
 800078e:	d038      	beq.n	8000802 <__aeabi_fdiv+0x1ee>
 8000790:	421d      	tst	r5, r3
 8000792:	d051      	beq.n	8000838 <__aeabi_fdiv+0x224>
 8000794:	431c      	orrs	r4, r3
 8000796:	0264      	lsls	r4, r4, #9
 8000798:	0a64      	lsrs	r4, r4, #9
 800079a:	0033      	movs	r3, r6
 800079c:	21ff      	movs	r1, #255	; 0xff
 800079e:	e7d5      	b.n	800074c <__aeabi_fdiv+0x138>
 80007a0:	0163      	lsls	r3, r4, #5
 80007a2:	016c      	lsls	r4, r5, #5
 80007a4:	42a3      	cmp	r3, r4
 80007a6:	d23b      	bcs.n	8000820 <__aeabi_fdiv+0x20c>
 80007a8:	261b      	movs	r6, #27
 80007aa:	2100      	movs	r1, #0
 80007ac:	3801      	subs	r0, #1
 80007ae:	2501      	movs	r5, #1
 80007b0:	001f      	movs	r7, r3
 80007b2:	0049      	lsls	r1, r1, #1
 80007b4:	005b      	lsls	r3, r3, #1
 80007b6:	2f00      	cmp	r7, #0
 80007b8:	db01      	blt.n	80007be <__aeabi_fdiv+0x1aa>
 80007ba:	429c      	cmp	r4, r3
 80007bc:	d801      	bhi.n	80007c2 <__aeabi_fdiv+0x1ae>
 80007be:	1b1b      	subs	r3, r3, r4
 80007c0:	4329      	orrs	r1, r5
 80007c2:	3e01      	subs	r6, #1
 80007c4:	2e00      	cmp	r6, #0
 80007c6:	d1f3      	bne.n	80007b0 <__aeabi_fdiv+0x19c>
 80007c8:	001c      	movs	r4, r3
 80007ca:	1e63      	subs	r3, r4, #1
 80007cc:	419c      	sbcs	r4, r3
 80007ce:	430c      	orrs	r4, r1
 80007d0:	0001      	movs	r1, r0
 80007d2:	317f      	adds	r1, #127	; 0x7f
 80007d4:	2900      	cmp	r1, #0
 80007d6:	ddce      	ble.n	8000776 <__aeabi_fdiv+0x162>
 80007d8:	0763      	lsls	r3, r4, #29
 80007da:	d004      	beq.n	80007e6 <__aeabi_fdiv+0x1d2>
 80007dc:	230f      	movs	r3, #15
 80007de:	4023      	ands	r3, r4
 80007e0:	2b04      	cmp	r3, #4
 80007e2:	d000      	beq.n	80007e6 <__aeabi_fdiv+0x1d2>
 80007e4:	3404      	adds	r4, #4
 80007e6:	0123      	lsls	r3, r4, #4
 80007e8:	d503      	bpl.n	80007f2 <__aeabi_fdiv+0x1de>
 80007ea:	0001      	movs	r1, r0
 80007ec:	4b2c      	ldr	r3, [pc, #176]	; (80008a0 <__aeabi_fdiv+0x28c>)
 80007ee:	3180      	adds	r1, #128	; 0x80
 80007f0:	401c      	ands	r4, r3
 80007f2:	29fe      	cmp	r1, #254	; 0xfe
 80007f4:	dd0d      	ble.n	8000812 <__aeabi_fdiv+0x1fe>
 80007f6:	2301      	movs	r3, #1
 80007f8:	9a01      	ldr	r2, [sp, #4]
 80007fa:	21ff      	movs	r1, #255	; 0xff
 80007fc:	4013      	ands	r3, r2
 80007fe:	2400      	movs	r4, #0
 8000800:	e7a4      	b.n	800074c <__aeabi_fdiv+0x138>
 8000802:	2380      	movs	r3, #128	; 0x80
 8000804:	03db      	lsls	r3, r3, #15
 8000806:	431c      	orrs	r4, r3
 8000808:	0264      	lsls	r4, r4, #9
 800080a:	0a64      	lsrs	r4, r4, #9
 800080c:	0033      	movs	r3, r6
 800080e:	21ff      	movs	r1, #255	; 0xff
 8000810:	e79c      	b.n	800074c <__aeabi_fdiv+0x138>
 8000812:	2301      	movs	r3, #1
 8000814:	9a01      	ldr	r2, [sp, #4]
 8000816:	01a4      	lsls	r4, r4, #6
 8000818:	0a64      	lsrs	r4, r4, #9
 800081a:	b2c9      	uxtb	r1, r1
 800081c:	4013      	ands	r3, r2
 800081e:	e795      	b.n	800074c <__aeabi_fdiv+0x138>
 8000820:	1b1b      	subs	r3, r3, r4
 8000822:	261a      	movs	r6, #26
 8000824:	2101      	movs	r1, #1
 8000826:	e7c2      	b.n	80007ae <__aeabi_fdiv+0x19a>
 8000828:	9b00      	ldr	r3, [sp, #0]
 800082a:	468b      	mov	fp, r1
 800082c:	469a      	mov	sl, r3
 800082e:	2400      	movs	r4, #0
 8000830:	e74c      	b.n	80006cc <__aeabi_fdiv+0xb8>
 8000832:	0263      	lsls	r3, r4, #9
 8000834:	d5e5      	bpl.n	8000802 <__aeabi_fdiv+0x1ee>
 8000836:	2500      	movs	r5, #0
 8000838:	2480      	movs	r4, #128	; 0x80
 800083a:	03e4      	lsls	r4, r4, #15
 800083c:	432c      	orrs	r4, r5
 800083e:	0264      	lsls	r4, r4, #9
 8000840:	0a64      	lsrs	r4, r4, #9
 8000842:	9b00      	ldr	r3, [sp, #0]
 8000844:	21ff      	movs	r1, #255	; 0xff
 8000846:	e781      	b.n	800074c <__aeabi_fdiv+0x138>
 8000848:	9501      	str	r5, [sp, #4]
 800084a:	e7c1      	b.n	80007d0 <__aeabi_fdiv+0x1bc>
 800084c:	0023      	movs	r3, r4
 800084e:	2020      	movs	r0, #32
 8000850:	40cb      	lsrs	r3, r1
 8000852:	1a41      	subs	r1, r0, r1
 8000854:	408c      	lsls	r4, r1
 8000856:	1e61      	subs	r1, r4, #1
 8000858:	418c      	sbcs	r4, r1
 800085a:	431c      	orrs	r4, r3
 800085c:	0763      	lsls	r3, r4, #29
 800085e:	d004      	beq.n	800086a <__aeabi_fdiv+0x256>
 8000860:	230f      	movs	r3, #15
 8000862:	4023      	ands	r3, r4
 8000864:	2b04      	cmp	r3, #4
 8000866:	d000      	beq.n	800086a <__aeabi_fdiv+0x256>
 8000868:	3404      	adds	r4, #4
 800086a:	0163      	lsls	r3, r4, #5
 800086c:	d505      	bpl.n	800087a <__aeabi_fdiv+0x266>
 800086e:	2301      	movs	r3, #1
 8000870:	9a01      	ldr	r2, [sp, #4]
 8000872:	2101      	movs	r1, #1
 8000874:	4013      	ands	r3, r2
 8000876:	2400      	movs	r4, #0
 8000878:	e768      	b.n	800074c <__aeabi_fdiv+0x138>
 800087a:	2301      	movs	r3, #1
 800087c:	9a01      	ldr	r2, [sp, #4]
 800087e:	01a4      	lsls	r4, r4, #6
 8000880:	0a64      	lsrs	r4, r4, #9
 8000882:	4013      	ands	r3, r2
 8000884:	2100      	movs	r1, #0
 8000886:	e761      	b.n	800074c <__aeabi_fdiv+0x138>
 8000888:	2380      	movs	r3, #128	; 0x80
 800088a:	03db      	lsls	r3, r3, #15
 800088c:	431c      	orrs	r4, r3
 800088e:	0264      	lsls	r4, r4, #9
 8000890:	0a64      	lsrs	r4, r4, #9
 8000892:	4653      	mov	r3, sl
 8000894:	21ff      	movs	r1, #255	; 0xff
 8000896:	e759      	b.n	800074c <__aeabi_fdiv+0x138>
 8000898:	08007134 	.word	0x08007134
 800089c:	08007174 	.word	0x08007174
 80008a0:	f7ffffff 	.word	0xf7ffffff

080008a4 <__eqsf2>:
 80008a4:	b570      	push	{r4, r5, r6, lr}
 80008a6:	0042      	lsls	r2, r0, #1
 80008a8:	0245      	lsls	r5, r0, #9
 80008aa:	024e      	lsls	r6, r1, #9
 80008ac:	004c      	lsls	r4, r1, #1
 80008ae:	0fc3      	lsrs	r3, r0, #31
 80008b0:	0a6d      	lsrs	r5, r5, #9
 80008b2:	0e12      	lsrs	r2, r2, #24
 80008b4:	0a76      	lsrs	r6, r6, #9
 80008b6:	0e24      	lsrs	r4, r4, #24
 80008b8:	0fc9      	lsrs	r1, r1, #31
 80008ba:	2001      	movs	r0, #1
 80008bc:	2aff      	cmp	r2, #255	; 0xff
 80008be:	d006      	beq.n	80008ce <__eqsf2+0x2a>
 80008c0:	2cff      	cmp	r4, #255	; 0xff
 80008c2:	d003      	beq.n	80008cc <__eqsf2+0x28>
 80008c4:	42a2      	cmp	r2, r4
 80008c6:	d101      	bne.n	80008cc <__eqsf2+0x28>
 80008c8:	42b5      	cmp	r5, r6
 80008ca:	d006      	beq.n	80008da <__eqsf2+0x36>
 80008cc:	bd70      	pop	{r4, r5, r6, pc}
 80008ce:	2d00      	cmp	r5, #0
 80008d0:	d1fc      	bne.n	80008cc <__eqsf2+0x28>
 80008d2:	2cff      	cmp	r4, #255	; 0xff
 80008d4:	d1fa      	bne.n	80008cc <__eqsf2+0x28>
 80008d6:	2e00      	cmp	r6, #0
 80008d8:	d1f8      	bne.n	80008cc <__eqsf2+0x28>
 80008da:	428b      	cmp	r3, r1
 80008dc:	d006      	beq.n	80008ec <__eqsf2+0x48>
 80008de:	2001      	movs	r0, #1
 80008e0:	2a00      	cmp	r2, #0
 80008e2:	d1f3      	bne.n	80008cc <__eqsf2+0x28>
 80008e4:	0028      	movs	r0, r5
 80008e6:	1e45      	subs	r5, r0, #1
 80008e8:	41a8      	sbcs	r0, r5
 80008ea:	e7ef      	b.n	80008cc <__eqsf2+0x28>
 80008ec:	2000      	movs	r0, #0
 80008ee:	e7ed      	b.n	80008cc <__eqsf2+0x28>

080008f0 <__gesf2>:
 80008f0:	b5f0      	push	{r4, r5, r6, r7, lr}
 80008f2:	0042      	lsls	r2, r0, #1
 80008f4:	0245      	lsls	r5, r0, #9
 80008f6:	024c      	lsls	r4, r1, #9
 80008f8:	0fc3      	lsrs	r3, r0, #31
 80008fa:	0048      	lsls	r0, r1, #1
 80008fc:	0a6d      	lsrs	r5, r5, #9
 80008fe:	0e12      	lsrs	r2, r2, #24
 8000900:	0a64      	lsrs	r4, r4, #9
 8000902:	0e00      	lsrs	r0, r0, #24
 8000904:	0fc9      	lsrs	r1, r1, #31
 8000906:	2aff      	cmp	r2, #255	; 0xff
 8000908:	d01e      	beq.n	8000948 <__gesf2+0x58>
 800090a:	28ff      	cmp	r0, #255	; 0xff
 800090c:	d021      	beq.n	8000952 <__gesf2+0x62>
 800090e:	2a00      	cmp	r2, #0
 8000910:	d10a      	bne.n	8000928 <__gesf2+0x38>
 8000912:	426e      	negs	r6, r5
 8000914:	416e      	adcs	r6, r5
 8000916:	b2f6      	uxtb	r6, r6
 8000918:	2800      	cmp	r0, #0
 800091a:	d10f      	bne.n	800093c <__gesf2+0x4c>
 800091c:	2c00      	cmp	r4, #0
 800091e:	d10d      	bne.n	800093c <__gesf2+0x4c>
 8000920:	2000      	movs	r0, #0
 8000922:	2d00      	cmp	r5, #0
 8000924:	d009      	beq.n	800093a <__gesf2+0x4a>
 8000926:	e005      	b.n	8000934 <__gesf2+0x44>
 8000928:	2800      	cmp	r0, #0
 800092a:	d101      	bne.n	8000930 <__gesf2+0x40>
 800092c:	2c00      	cmp	r4, #0
 800092e:	d001      	beq.n	8000934 <__gesf2+0x44>
 8000930:	428b      	cmp	r3, r1
 8000932:	d011      	beq.n	8000958 <__gesf2+0x68>
 8000934:	2101      	movs	r1, #1
 8000936:	4258      	negs	r0, r3
 8000938:	4308      	orrs	r0, r1
 800093a:	bdf0      	pop	{r4, r5, r6, r7, pc}
 800093c:	2e00      	cmp	r6, #0
 800093e:	d0f7      	beq.n	8000930 <__gesf2+0x40>
 8000940:	2001      	movs	r0, #1
 8000942:	3901      	subs	r1, #1
 8000944:	4308      	orrs	r0, r1
 8000946:	e7f8      	b.n	800093a <__gesf2+0x4a>
 8000948:	2d00      	cmp	r5, #0
 800094a:	d0de      	beq.n	800090a <__gesf2+0x1a>
 800094c:	2002      	movs	r0, #2
 800094e:	4240      	negs	r0, r0
 8000950:	e7f3      	b.n	800093a <__gesf2+0x4a>
 8000952:	2c00      	cmp	r4, #0
 8000954:	d0db      	beq.n	800090e <__gesf2+0x1e>
 8000956:	e7f9      	b.n	800094c <__gesf2+0x5c>
 8000958:	4282      	cmp	r2, r0
 800095a:	dceb      	bgt.n	8000934 <__gesf2+0x44>
 800095c:	db04      	blt.n	8000968 <__gesf2+0x78>
 800095e:	42a5      	cmp	r5, r4
 8000960:	d8e8      	bhi.n	8000934 <__gesf2+0x44>
 8000962:	2000      	movs	r0, #0
 8000964:	42a5      	cmp	r5, r4
 8000966:	d2e8      	bcs.n	800093a <__gesf2+0x4a>
 8000968:	2101      	movs	r1, #1
 800096a:	1e58      	subs	r0, r3, #1
 800096c:	4308      	orrs	r0, r1
 800096e:	e7e4      	b.n	800093a <__gesf2+0x4a>

08000970 <__lesf2>:
 8000970:	b5f0      	push	{r4, r5, r6, r7, lr}
 8000972:	0042      	lsls	r2, r0, #1
 8000974:	024d      	lsls	r5, r1, #9
 8000976:	004c      	lsls	r4, r1, #1
 8000978:	0246      	lsls	r6, r0, #9
 800097a:	0a76      	lsrs	r6, r6, #9
 800097c:	0e12      	lsrs	r2, r2, #24
 800097e:	0fc3      	lsrs	r3, r0, #31
 8000980:	0a6d      	lsrs	r5, r5, #9
 8000982:	0e24      	lsrs	r4, r4, #24
 8000984:	0fc9      	lsrs	r1, r1, #31
 8000986:	2aff      	cmp	r2, #255	; 0xff
 8000988:	d016      	beq.n	80009b8 <__lesf2+0x48>
 800098a:	2cff      	cmp	r4, #255	; 0xff
 800098c:	d018      	beq.n	80009c0 <__lesf2+0x50>
 800098e:	2a00      	cmp	r2, #0
 8000990:	d10a      	bne.n	80009a8 <__lesf2+0x38>
 8000992:	4270      	negs	r0, r6
 8000994:	4170      	adcs	r0, r6
 8000996:	b2c0      	uxtb	r0, r0
 8000998:	2c00      	cmp	r4, #0
 800099a:	d015      	beq.n	80009c8 <__lesf2+0x58>
 800099c:	2800      	cmp	r0, #0
 800099e:	d005      	beq.n	80009ac <__lesf2+0x3c>
 80009a0:	2001      	movs	r0, #1
 80009a2:	3901      	subs	r1, #1
 80009a4:	4308      	orrs	r0, r1
 80009a6:	bdf0      	pop	{r4, r5, r6, r7, pc}
 80009a8:	2c00      	cmp	r4, #0
 80009aa:	d013      	beq.n	80009d4 <__lesf2+0x64>
 80009ac:	4299      	cmp	r1, r3
 80009ae:	d014      	beq.n	80009da <__lesf2+0x6a>
 80009b0:	2001      	movs	r0, #1
 80009b2:	425b      	negs	r3, r3
 80009b4:	4318      	orrs	r0, r3
 80009b6:	e7f6      	b.n	80009a6 <__lesf2+0x36>
 80009b8:	2002      	movs	r0, #2
 80009ba:	2e00      	cmp	r6, #0
 80009bc:	d1f3      	bne.n	80009a6 <__lesf2+0x36>
 80009be:	e7e4      	b.n	800098a <__lesf2+0x1a>
 80009c0:	2002      	movs	r0, #2
 80009c2:	2d00      	cmp	r5, #0
 80009c4:	d1ef      	bne.n	80009a6 <__lesf2+0x36>
 80009c6:	e7e2      	b.n	800098e <__lesf2+0x1e>
 80009c8:	2d00      	cmp	r5, #0
 80009ca:	d1e7      	bne.n	800099c <__lesf2+0x2c>
 80009cc:	2000      	movs	r0, #0
 80009ce:	2e00      	cmp	r6, #0
 80009d0:	d0e9      	beq.n	80009a6 <__lesf2+0x36>
 80009d2:	e7ed      	b.n	80009b0 <__lesf2+0x40>
 80009d4:	2d00      	cmp	r5, #0
 80009d6:	d1e9      	bne.n	80009ac <__lesf2+0x3c>
 80009d8:	e7ea      	b.n	80009b0 <__lesf2+0x40>
 80009da:	42a2      	cmp	r2, r4
 80009dc:	dc06      	bgt.n	80009ec <__lesf2+0x7c>
 80009de:	dbdf      	blt.n	80009a0 <__lesf2+0x30>
 80009e0:	42ae      	cmp	r6, r5
 80009e2:	d803      	bhi.n	80009ec <__lesf2+0x7c>
 80009e4:	2000      	movs	r0, #0
 80009e6:	42ae      	cmp	r6, r5
 80009e8:	d3da      	bcc.n	80009a0 <__lesf2+0x30>
 80009ea:	e7dc      	b.n	80009a6 <__lesf2+0x36>
 80009ec:	2001      	movs	r0, #1
 80009ee:	4249      	negs	r1, r1
 80009f0:	4308      	orrs	r0, r1
 80009f2:	e7d8      	b.n	80009a6 <__lesf2+0x36>

080009f4 <__aeabi_fmul>:
 80009f4:	b5f8      	push	{r3, r4, r5, r6, r7, lr}
 80009f6:	4657      	mov	r7, sl
 80009f8:	464e      	mov	r6, r9
 80009fa:	4645      	mov	r5, r8
 80009fc:	46de      	mov	lr, fp
 80009fe:	b5e0      	push	{r5, r6, r7, lr}
 8000a00:	0247      	lsls	r7, r0, #9
 8000a02:	0046      	lsls	r6, r0, #1
 8000a04:	4688      	mov	r8, r1
 8000a06:	0a7f      	lsrs	r7, r7, #9
 8000a08:	0e36      	lsrs	r6, r6, #24
 8000a0a:	0fc4      	lsrs	r4, r0, #31
 8000a0c:	2e00      	cmp	r6, #0
 8000a0e:	d047      	beq.n	8000aa0 <__aeabi_fmul+0xac>
 8000a10:	2eff      	cmp	r6, #255	; 0xff
 8000a12:	d024      	beq.n	8000a5e <__aeabi_fmul+0x6a>
 8000a14:	00fb      	lsls	r3, r7, #3
 8000a16:	2780      	movs	r7, #128	; 0x80
 8000a18:	04ff      	lsls	r7, r7, #19
 8000a1a:	431f      	orrs	r7, r3
 8000a1c:	2300      	movs	r3, #0
 8000a1e:	4699      	mov	r9, r3
 8000a20:	469a      	mov	sl, r3
 8000a22:	3e7f      	subs	r6, #127	; 0x7f
 8000a24:	4643      	mov	r3, r8
 8000a26:	025d      	lsls	r5, r3, #9
 8000a28:	0058      	lsls	r0, r3, #1
 8000a2a:	0fdb      	lsrs	r3, r3, #31
 8000a2c:	0a6d      	lsrs	r5, r5, #9
 8000a2e:	0e00      	lsrs	r0, r0, #24
 8000a30:	4698      	mov	r8, r3
 8000a32:	d043      	beq.n	8000abc <__aeabi_fmul+0xc8>
 8000a34:	28ff      	cmp	r0, #255	; 0xff
 8000a36:	d03b      	beq.n	8000ab0 <__aeabi_fmul+0xbc>
 8000a38:	00eb      	lsls	r3, r5, #3
 8000a3a:	2580      	movs	r5, #128	; 0x80
 8000a3c:	2200      	movs	r2, #0
 8000a3e:	04ed      	lsls	r5, r5, #19
 8000a40:	431d      	orrs	r5, r3
 8000a42:	387f      	subs	r0, #127	; 0x7f
 8000a44:	1836      	adds	r6, r6, r0
 8000a46:	1c73      	adds	r3, r6, #1
 8000a48:	4641      	mov	r1, r8
 8000a4a:	469b      	mov	fp, r3
 8000a4c:	464b      	mov	r3, r9
 8000a4e:	4061      	eors	r1, r4
 8000a50:	4313      	orrs	r3, r2
 8000a52:	2b0f      	cmp	r3, #15
 8000a54:	d864      	bhi.n	8000b20 <__aeabi_fmul+0x12c>
 8000a56:	4875      	ldr	r0, [pc, #468]	; (8000c2c <__aeabi_fmul+0x238>)
 8000a58:	009b      	lsls	r3, r3, #2
 8000a5a:	58c3      	ldr	r3, [r0, r3]
 8000a5c:	469f      	mov	pc, r3
 8000a5e:	2f00      	cmp	r7, #0
 8000a60:	d142      	bne.n	8000ae8 <__aeabi_fmul+0xf4>
 8000a62:	2308      	movs	r3, #8
 8000a64:	4699      	mov	r9, r3
 8000a66:	3b06      	subs	r3, #6
 8000a68:	26ff      	movs	r6, #255	; 0xff
 8000a6a:	469a      	mov	sl, r3
 8000a6c:	e7da      	b.n	8000a24 <__aeabi_fmul+0x30>
 8000a6e:	4641      	mov	r1, r8
 8000a70:	2a02      	cmp	r2, #2
 8000a72:	d028      	beq.n	8000ac6 <__aeabi_fmul+0xd2>
 8000a74:	2a03      	cmp	r2, #3
 8000a76:	d100      	bne.n	8000a7a <__aeabi_fmul+0x86>
 8000a78:	e0ce      	b.n	8000c18 <__aeabi_fmul+0x224>
 8000a7a:	2a01      	cmp	r2, #1
 8000a7c:	d000      	beq.n	8000a80 <__aeabi_fmul+0x8c>
 8000a7e:	e0ac      	b.n	8000bda <__aeabi_fmul+0x1e6>
 8000a80:	4011      	ands	r1, r2
 8000a82:	2000      	movs	r0, #0
 8000a84:	2200      	movs	r2, #0
 8000a86:	b2cc      	uxtb	r4, r1
 8000a88:	0240      	lsls	r0, r0, #9
 8000a8a:	05d2      	lsls	r2, r2, #23
 8000a8c:	0a40      	lsrs	r0, r0, #9
 8000a8e:	07e4      	lsls	r4, r4, #31
 8000a90:	4310      	orrs	r0, r2
 8000a92:	4320      	orrs	r0, r4
 8000a94:	bc3c      	pop	{r2, r3, r4, r5}
 8000a96:	4690      	mov	r8, r2
 8000a98:	4699      	mov	r9, r3
 8000a9a:	46a2      	mov	sl, r4
 8000a9c:	46ab      	mov	fp, r5
 8000a9e:	bdf8      	pop	{r3, r4, r5, r6, r7, pc}
 8000aa0:	2f00      	cmp	r7, #0
 8000aa2:	d115      	bne.n	8000ad0 <__aeabi_fmul+0xdc>
 8000aa4:	2304      	movs	r3, #4
 8000aa6:	4699      	mov	r9, r3
 8000aa8:	3b03      	subs	r3, #3
 8000aaa:	2600      	movs	r6, #0
 8000aac:	469a      	mov	sl, r3
 8000aae:	e7b9      	b.n	8000a24 <__aeabi_fmul+0x30>
 8000ab0:	20ff      	movs	r0, #255	; 0xff
 8000ab2:	2202      	movs	r2, #2
 8000ab4:	2d00      	cmp	r5, #0
 8000ab6:	d0c5      	beq.n	8000a44 <__aeabi_fmul+0x50>
 8000ab8:	2203      	movs	r2, #3
 8000aba:	e7c3      	b.n	8000a44 <__aeabi_fmul+0x50>
 8000abc:	2d00      	cmp	r5, #0
 8000abe:	d119      	bne.n	8000af4 <__aeabi_fmul+0x100>
 8000ac0:	2000      	movs	r0, #0
 8000ac2:	2201      	movs	r2, #1
 8000ac4:	e7be      	b.n	8000a44 <__aeabi_fmul+0x50>
 8000ac6:	2401      	movs	r4, #1
 8000ac8:	22ff      	movs	r2, #255	; 0xff
 8000aca:	400c      	ands	r4, r1
 8000acc:	2000      	movs	r0, #0
 8000ace:	e7db      	b.n	8000a88 <__aeabi_fmul+0x94>
 8000ad0:	0038      	movs	r0, r7
 8000ad2:	f000 fb01 	bl	80010d8 <__clzsi2>
 8000ad6:	2676      	movs	r6, #118	; 0x76
 8000ad8:	1f43      	subs	r3, r0, #5
 8000ada:	409f      	lsls	r7, r3
 8000adc:	2300      	movs	r3, #0
 8000ade:	4276      	negs	r6, r6
 8000ae0:	1a36      	subs	r6, r6, r0
 8000ae2:	4699      	mov	r9, r3
 8000ae4:	469a      	mov	sl, r3
 8000ae6:	e79d      	b.n	8000a24 <__aeabi_fmul+0x30>
 8000ae8:	230c      	movs	r3, #12
 8000aea:	4699      	mov	r9, r3
 8000aec:	3b09      	subs	r3, #9
 8000aee:	26ff      	movs	r6, #255	; 0xff
 8000af0:	469a      	mov	sl, r3
 8000af2:	e797      	b.n	8000a24 <__aeabi_fmul+0x30>
 8000af4:	0028      	movs	r0, r5
 8000af6:	f000 faef 	bl	80010d8 <__clzsi2>
 8000afa:	1f43      	subs	r3, r0, #5
 8000afc:	409d      	lsls	r5, r3
 8000afe:	2376      	movs	r3, #118	; 0x76
 8000b00:	425b      	negs	r3, r3
 8000b02:	1a18      	subs	r0, r3, r0
 8000b04:	2200      	movs	r2, #0
 8000b06:	e79d      	b.n	8000a44 <__aeabi_fmul+0x50>
 8000b08:	2080      	movs	r0, #128	; 0x80
 8000b0a:	2400      	movs	r4, #0
 8000b0c:	03c0      	lsls	r0, r0, #15
 8000b0e:	22ff      	movs	r2, #255	; 0xff
 8000b10:	e7ba      	b.n	8000a88 <__aeabi_fmul+0x94>
 8000b12:	003d      	movs	r5, r7
 8000b14:	4652      	mov	r2, sl
 8000b16:	e7ab      	b.n	8000a70 <__aeabi_fmul+0x7c>
 8000b18:	003d      	movs	r5, r7
 8000b1a:	0021      	movs	r1, r4
 8000b1c:	4652      	mov	r2, sl
 8000b1e:	e7a7      	b.n	8000a70 <__aeabi_fmul+0x7c>
 8000b20:	0c3b      	lsrs	r3, r7, #16
 8000b22:	469c      	mov	ip, r3
 8000b24:	042a      	lsls	r2, r5, #16
 8000b26:	0c12      	lsrs	r2, r2, #16
 8000b28:	0c2b      	lsrs	r3, r5, #16
 8000b2a:	0014      	movs	r4, r2
 8000b2c:	4660      	mov	r0, ip
 8000b2e:	4665      	mov	r5, ip
 8000b30:	043f      	lsls	r7, r7, #16
 8000b32:	0c3f      	lsrs	r7, r7, #16
 8000b34:	437c      	muls	r4, r7
 8000b36:	4342      	muls	r2, r0
 8000b38:	435d      	muls	r5, r3
 8000b3a:	437b      	muls	r3, r7
 8000b3c:	0c27      	lsrs	r7, r4, #16
 8000b3e:	189b      	adds	r3, r3, r2
 8000b40:	18ff      	adds	r7, r7, r3
 8000b42:	42ba      	cmp	r2, r7
 8000b44:	d903      	bls.n	8000b4e <__aeabi_fmul+0x15a>
 8000b46:	2380      	movs	r3, #128	; 0x80
 8000b48:	025b      	lsls	r3, r3, #9
 8000b4a:	469c      	mov	ip, r3
 8000b4c:	4465      	add	r5, ip
 8000b4e:	0424      	lsls	r4, r4, #16
 8000b50:	043a      	lsls	r2, r7, #16
 8000b52:	0c24      	lsrs	r4, r4, #16
 8000b54:	1912      	adds	r2, r2, r4
 8000b56:	0193      	lsls	r3, r2, #6
 8000b58:	1e5c      	subs	r4, r3, #1
 8000b5a:	41a3      	sbcs	r3, r4
 8000b5c:	0c3f      	lsrs	r7, r7, #16
 8000b5e:	0e92      	lsrs	r2, r2, #26
 8000b60:	197d      	adds	r5, r7, r5
 8000b62:	431a      	orrs	r2, r3
 8000b64:	01ad      	lsls	r5, r5, #6
 8000b66:	4315      	orrs	r5, r2
 8000b68:	012b      	lsls	r3, r5, #4
 8000b6a:	d504      	bpl.n	8000b76 <__aeabi_fmul+0x182>
 8000b6c:	2301      	movs	r3, #1
 8000b6e:	465e      	mov	r6, fp
 8000b70:	086a      	lsrs	r2, r5, #1
 8000b72:	401d      	ands	r5, r3
 8000b74:	4315      	orrs	r5, r2
 8000b76:	0032      	movs	r2, r6
 8000b78:	327f      	adds	r2, #127	; 0x7f
 8000b7a:	2a00      	cmp	r2, #0
 8000b7c:	dd25      	ble.n	8000bca <__aeabi_fmul+0x1d6>
 8000b7e:	076b      	lsls	r3, r5, #29
 8000b80:	d004      	beq.n	8000b8c <__aeabi_fmul+0x198>
 8000b82:	230f      	movs	r3, #15
 8000b84:	402b      	ands	r3, r5
 8000b86:	2b04      	cmp	r3, #4
 8000b88:	d000      	beq.n	8000b8c <__aeabi_fmul+0x198>
 8000b8a:	3504      	adds	r5, #4
 8000b8c:	012b      	lsls	r3, r5, #4
 8000b8e:	d503      	bpl.n	8000b98 <__aeabi_fmul+0x1a4>
 8000b90:	0032      	movs	r2, r6
 8000b92:	4b27      	ldr	r3, [pc, #156]	; (8000c30 <__aeabi_fmul+0x23c>)
 8000b94:	3280      	adds	r2, #128	; 0x80
 8000b96:	401d      	ands	r5, r3
 8000b98:	2afe      	cmp	r2, #254	; 0xfe
 8000b9a:	dc94      	bgt.n	8000ac6 <__aeabi_fmul+0xd2>
 8000b9c:	2401      	movs	r4, #1
 8000b9e:	01a8      	lsls	r0, r5, #6
 8000ba0:	0a40      	lsrs	r0, r0, #9
 8000ba2:	b2d2      	uxtb	r2, r2
 8000ba4:	400c      	ands	r4, r1
 8000ba6:	e76f      	b.n	8000a88 <__aeabi_fmul+0x94>
 8000ba8:	2080      	movs	r0, #128	; 0x80
 8000baa:	03c0      	lsls	r0, r0, #15
 8000bac:	4207      	tst	r7, r0
 8000bae:	d007      	beq.n	8000bc0 <__aeabi_fmul+0x1cc>
 8000bb0:	4205      	tst	r5, r0
 8000bb2:	d105      	bne.n	8000bc0 <__aeabi_fmul+0x1cc>
 8000bb4:	4328      	orrs	r0, r5
 8000bb6:	0240      	lsls	r0, r0, #9
 8000bb8:	0a40      	lsrs	r0, r0, #9
 8000bba:	4644      	mov	r4, r8
 8000bbc:	22ff      	movs	r2, #255	; 0xff
 8000bbe:	e763      	b.n	8000a88 <__aeabi_fmul+0x94>
 8000bc0:	4338      	orrs	r0, r7
 8000bc2:	0240      	lsls	r0, r0, #9
 8000bc4:	0a40      	lsrs	r0, r0, #9
 8000bc6:	22ff      	movs	r2, #255	; 0xff
 8000bc8:	e75e      	b.n	8000a88 <__aeabi_fmul+0x94>
 8000bca:	2401      	movs	r4, #1
 8000bcc:	1aa3      	subs	r3, r4, r2
 8000bce:	2b1b      	cmp	r3, #27
 8000bd0:	dd05      	ble.n	8000bde <__aeabi_fmul+0x1ea>
 8000bd2:	400c      	ands	r4, r1
 8000bd4:	2200      	movs	r2, #0
 8000bd6:	2000      	movs	r0, #0
 8000bd8:	e756      	b.n	8000a88 <__aeabi_fmul+0x94>
 8000bda:	465e      	mov	r6, fp
 8000bdc:	e7cb      	b.n	8000b76 <__aeabi_fmul+0x182>
 8000bde:	002a      	movs	r2, r5
 8000be0:	2020      	movs	r0, #32
 8000be2:	40da      	lsrs	r2, r3
 8000be4:	1ac3      	subs	r3, r0, r3
 8000be6:	409d      	lsls	r5, r3
 8000be8:	002b      	movs	r3, r5
 8000bea:	1e5d      	subs	r5, r3, #1
 8000bec:	41ab      	sbcs	r3, r5
 8000bee:	4313      	orrs	r3, r2
 8000bf0:	075a      	lsls	r2, r3, #29
 8000bf2:	d004      	beq.n	8000bfe <__aeabi_fmul+0x20a>
 8000bf4:	220f      	movs	r2, #15
 8000bf6:	401a      	ands	r2, r3
 8000bf8:	2a04      	cmp	r2, #4
 8000bfa:	d000      	beq.n	8000bfe <__aeabi_fmul+0x20a>
 8000bfc:	3304      	adds	r3, #4
 8000bfe:	015a      	lsls	r2, r3, #5
 8000c00:	d504      	bpl.n	8000c0c <__aeabi_fmul+0x218>
 8000c02:	2401      	movs	r4, #1
 8000c04:	2201      	movs	r2, #1
 8000c06:	400c      	ands	r4, r1
 8000c08:	2000      	movs	r0, #0
 8000c0a:	e73d      	b.n	8000a88 <__aeabi_fmul+0x94>
 8000c0c:	2401      	movs	r4, #1
 8000c0e:	019b      	lsls	r3, r3, #6
 8000c10:	0a58      	lsrs	r0, r3, #9
 8000c12:	400c      	ands	r4, r1
 8000c14:	2200      	movs	r2, #0
 8000c16:	e737      	b.n	8000a88 <__aeabi_fmul+0x94>
 8000c18:	2080      	movs	r0, #128	; 0x80
 8000c1a:	2401      	movs	r4, #1
 8000c1c:	03c0      	lsls	r0, r0, #15
 8000c1e:	4328      	orrs	r0, r5
 8000c20:	0240      	lsls	r0, r0, #9
 8000c22:	0a40      	lsrs	r0, r0, #9
 8000c24:	400c      	ands	r4, r1
 8000c26:	22ff      	movs	r2, #255	; 0xff
 8000c28:	e72e      	b.n	8000a88 <__aeabi_fmul+0x94>
 8000c2a:	46c0      	nop			; (mov r8, r8)
 8000c2c:	080071b4 	.word	0x080071b4
 8000c30:	f7ffffff 	.word	0xf7ffffff

08000c34 <__aeabi_fsub>:
 8000c34:	b5f0      	push	{r4, r5, r6, r7, lr}
 8000c36:	464f      	mov	r7, r9
 8000c38:	46d6      	mov	lr, sl
 8000c3a:	4646      	mov	r6, r8
 8000c3c:	0044      	lsls	r4, r0, #1
 8000c3e:	b5c0      	push	{r6, r7, lr}
 8000c40:	0fc2      	lsrs	r2, r0, #31
 8000c42:	0247      	lsls	r7, r0, #9
 8000c44:	0248      	lsls	r0, r1, #9
 8000c46:	0a40      	lsrs	r0, r0, #9
 8000c48:	4684      	mov	ip, r0
 8000c4a:	4666      	mov	r6, ip
 8000c4c:	0a7b      	lsrs	r3, r7, #9
 8000c4e:	0048      	lsls	r0, r1, #1
 8000c50:	0fc9      	lsrs	r1, r1, #31
 8000c52:	469a      	mov	sl, r3
 8000c54:	0e24      	lsrs	r4, r4, #24
 8000c56:	0015      	movs	r5, r2
 8000c58:	00db      	lsls	r3, r3, #3
 8000c5a:	0e00      	lsrs	r0, r0, #24
 8000c5c:	4689      	mov	r9, r1
 8000c5e:	00f6      	lsls	r6, r6, #3
 8000c60:	28ff      	cmp	r0, #255	; 0xff
 8000c62:	d100      	bne.n	8000c66 <__aeabi_fsub+0x32>
 8000c64:	e08f      	b.n	8000d86 <__aeabi_fsub+0x152>
 8000c66:	2101      	movs	r1, #1
 8000c68:	464f      	mov	r7, r9
 8000c6a:	404f      	eors	r7, r1
 8000c6c:	0039      	movs	r1, r7
 8000c6e:	4291      	cmp	r1, r2
 8000c70:	d066      	beq.n	8000d40 <__aeabi_fsub+0x10c>
 8000c72:	1a22      	subs	r2, r4, r0
 8000c74:	2a00      	cmp	r2, #0
 8000c76:	dc00      	bgt.n	8000c7a <__aeabi_fsub+0x46>
 8000c78:	e09d      	b.n	8000db6 <__aeabi_fsub+0x182>
 8000c7a:	2800      	cmp	r0, #0
 8000c7c:	d13d      	bne.n	8000cfa <__aeabi_fsub+0xc6>
 8000c7e:	2e00      	cmp	r6, #0
 8000c80:	d100      	bne.n	8000c84 <__aeabi_fsub+0x50>
 8000c82:	e08b      	b.n	8000d9c <__aeabi_fsub+0x168>
 8000c84:	1e51      	subs	r1, r2, #1
 8000c86:	2900      	cmp	r1, #0
 8000c88:	d000      	beq.n	8000c8c <__aeabi_fsub+0x58>
 8000c8a:	e0b5      	b.n	8000df8 <__aeabi_fsub+0x1c4>
 8000c8c:	2401      	movs	r4, #1
 8000c8e:	1b9b      	subs	r3, r3, r6
 8000c90:	015a      	lsls	r2, r3, #5
 8000c92:	d544      	bpl.n	8000d1e <__aeabi_fsub+0xea>
 8000c94:	019b      	lsls	r3, r3, #6
 8000c96:	099f      	lsrs	r7, r3, #6
 8000c98:	0038      	movs	r0, r7
 8000c9a:	f000 fa1d 	bl	80010d8 <__clzsi2>
 8000c9e:	3805      	subs	r0, #5
 8000ca0:	4087      	lsls	r7, r0
 8000ca2:	4284      	cmp	r4, r0
 8000ca4:	dd00      	ble.n	8000ca8 <__aeabi_fsub+0x74>
 8000ca6:	e096      	b.n	8000dd6 <__aeabi_fsub+0x1a2>
 8000ca8:	1b04      	subs	r4, r0, r4
 8000caa:	003a      	movs	r2, r7
 8000cac:	2020      	movs	r0, #32
 8000cae:	3401      	adds	r4, #1
 8000cb0:	40e2      	lsrs	r2, r4
 8000cb2:	1b04      	subs	r4, r0, r4
 8000cb4:	40a7      	lsls	r7, r4
 8000cb6:	003b      	movs	r3, r7
 8000cb8:	1e5f      	subs	r7, r3, #1
 8000cba:	41bb      	sbcs	r3, r7
 8000cbc:	2400      	movs	r4, #0
 8000cbe:	4313      	orrs	r3, r2
 8000cc0:	075a      	lsls	r2, r3, #29
 8000cc2:	d004      	beq.n	8000cce <__aeabi_fsub+0x9a>
 8000cc4:	220f      	movs	r2, #15
 8000cc6:	401a      	ands	r2, r3
 8000cc8:	2a04      	cmp	r2, #4
 8000cca:	d000      	beq.n	8000cce <__aeabi_fsub+0x9a>
 8000ccc:	3304      	adds	r3, #4
 8000cce:	015a      	lsls	r2, r3, #5
 8000cd0:	d527      	bpl.n	8000d22 <__aeabi_fsub+0xee>
 8000cd2:	3401      	adds	r4, #1
 8000cd4:	2cff      	cmp	r4, #255	; 0xff
 8000cd6:	d100      	bne.n	8000cda <__aeabi_fsub+0xa6>
 8000cd8:	e079      	b.n	8000dce <__aeabi_fsub+0x19a>
 8000cda:	2201      	movs	r2, #1
 8000cdc:	019b      	lsls	r3, r3, #6
 8000cde:	0a5b      	lsrs	r3, r3, #9
 8000ce0:	b2e4      	uxtb	r4, r4
 8000ce2:	402a      	ands	r2, r5
 8000ce4:	025b      	lsls	r3, r3, #9
 8000ce6:	05e4      	lsls	r4, r4, #23
 8000ce8:	0a58      	lsrs	r0, r3, #9
 8000cea:	07d2      	lsls	r2, r2, #31
 8000cec:	4320      	orrs	r0, r4
 8000cee:	4310      	orrs	r0, r2
 8000cf0:	bc1c      	pop	{r2, r3, r4}
 8000cf2:	4690      	mov	r8, r2
 8000cf4:	4699      	mov	r9, r3
 8000cf6:	46a2      	mov	sl, r4
 8000cf8:	bdf0      	pop	{r4, r5, r6, r7, pc}
 8000cfa:	2cff      	cmp	r4, #255	; 0xff
 8000cfc:	d0e0      	beq.n	8000cc0 <__aeabi_fsub+0x8c>
 8000cfe:	2180      	movs	r1, #128	; 0x80
 8000d00:	04c9      	lsls	r1, r1, #19
 8000d02:	430e      	orrs	r6, r1
 8000d04:	2a1b      	cmp	r2, #27
 8000d06:	dc7b      	bgt.n	8000e00 <__aeabi_fsub+0x1cc>
 8000d08:	0031      	movs	r1, r6
 8000d0a:	2020      	movs	r0, #32
 8000d0c:	40d1      	lsrs	r1, r2
 8000d0e:	1a82      	subs	r2, r0, r2
 8000d10:	4096      	lsls	r6, r2
 8000d12:	1e72      	subs	r2, r6, #1
 8000d14:	4196      	sbcs	r6, r2
 8000d16:	430e      	orrs	r6, r1
 8000d18:	1b9b      	subs	r3, r3, r6
 8000d1a:	015a      	lsls	r2, r3, #5
 8000d1c:	d4ba      	bmi.n	8000c94 <__aeabi_fsub+0x60>
 8000d1e:	075a      	lsls	r2, r3, #29
 8000d20:	d1d0      	bne.n	8000cc4 <__aeabi_fsub+0x90>
 8000d22:	2201      	movs	r2, #1
 8000d24:	08df      	lsrs	r7, r3, #3
 8000d26:	402a      	ands	r2, r5
 8000d28:	2cff      	cmp	r4, #255	; 0xff
 8000d2a:	d133      	bne.n	8000d94 <__aeabi_fsub+0x160>
 8000d2c:	2f00      	cmp	r7, #0
 8000d2e:	d100      	bne.n	8000d32 <__aeabi_fsub+0xfe>
 8000d30:	e0a8      	b.n	8000e84 <__aeabi_fsub+0x250>
 8000d32:	2380      	movs	r3, #128	; 0x80
 8000d34:	03db      	lsls	r3, r3, #15
 8000d36:	433b      	orrs	r3, r7
 8000d38:	025b      	lsls	r3, r3, #9
 8000d3a:	0a5b      	lsrs	r3, r3, #9
 8000d3c:	24ff      	movs	r4, #255	; 0xff
 8000d3e:	e7d1      	b.n	8000ce4 <__aeabi_fsub+0xb0>
 8000d40:	1a21      	subs	r1, r4, r0
 8000d42:	2900      	cmp	r1, #0
 8000d44:	dd4c      	ble.n	8000de0 <__aeabi_fsub+0x1ac>
 8000d46:	2800      	cmp	r0, #0
 8000d48:	d02a      	beq.n	8000da0 <__aeabi_fsub+0x16c>
 8000d4a:	2cff      	cmp	r4, #255	; 0xff
 8000d4c:	d0b8      	beq.n	8000cc0 <__aeabi_fsub+0x8c>
 8000d4e:	2080      	movs	r0, #128	; 0x80
 8000d50:	04c0      	lsls	r0, r0, #19
 8000d52:	4306      	orrs	r6, r0
 8000d54:	291b      	cmp	r1, #27
 8000d56:	dd00      	ble.n	8000d5a <__aeabi_fsub+0x126>
 8000d58:	e0af      	b.n	8000eba <__aeabi_fsub+0x286>
 8000d5a:	0030      	movs	r0, r6
 8000d5c:	2720      	movs	r7, #32
 8000d5e:	40c8      	lsrs	r0, r1
 8000d60:	1a79      	subs	r1, r7, r1
 8000d62:	408e      	lsls	r6, r1
 8000d64:	1e71      	subs	r1, r6, #1
 8000d66:	418e      	sbcs	r6, r1
 8000d68:	4306      	orrs	r6, r0
 8000d6a:	199b      	adds	r3, r3, r6
 8000d6c:	0159      	lsls	r1, r3, #5
 8000d6e:	d5d6      	bpl.n	8000d1e <__aeabi_fsub+0xea>
 8000d70:	3401      	adds	r4, #1
 8000d72:	2cff      	cmp	r4, #255	; 0xff
 8000d74:	d100      	bne.n	8000d78 <__aeabi_fsub+0x144>
 8000d76:	e085      	b.n	8000e84 <__aeabi_fsub+0x250>
 8000d78:	2201      	movs	r2, #1
 8000d7a:	497a      	ldr	r1, [pc, #488]	; (8000f64 <__aeabi_fsub+0x330>)
 8000d7c:	401a      	ands	r2, r3
 8000d7e:	085b      	lsrs	r3, r3, #1
 8000d80:	400b      	ands	r3, r1
 8000d82:	4313      	orrs	r3, r2
 8000d84:	e79c      	b.n	8000cc0 <__aeabi_fsub+0x8c>
 8000d86:	2e00      	cmp	r6, #0
 8000d88:	d000      	beq.n	8000d8c <__aeabi_fsub+0x158>
 8000d8a:	e770      	b.n	8000c6e <__aeabi_fsub+0x3a>
 8000d8c:	e76b      	b.n	8000c66 <__aeabi_fsub+0x32>
 8000d8e:	1e3b      	subs	r3, r7, #0
 8000d90:	d1c5      	bne.n	8000d1e <__aeabi_fsub+0xea>
 8000d92:	2200      	movs	r2, #0
 8000d94:	027b      	lsls	r3, r7, #9
 8000d96:	0a5b      	lsrs	r3, r3, #9
 8000d98:	b2e4      	uxtb	r4, r4
 8000d9a:	e7a3      	b.n	8000ce4 <__aeabi_fsub+0xb0>
 8000d9c:	0014      	movs	r4, r2
 8000d9e:	e78f      	b.n	8000cc0 <__aeabi_fsub+0x8c>
 8000da0:	2e00      	cmp	r6, #0
 8000da2:	d04d      	beq.n	8000e40 <__aeabi_fsub+0x20c>
 8000da4:	1e48      	subs	r0, r1, #1
 8000da6:	2800      	cmp	r0, #0
 8000da8:	d157      	bne.n	8000e5a <__aeabi_fsub+0x226>
 8000daa:	199b      	adds	r3, r3, r6
 8000dac:	2401      	movs	r4, #1
 8000dae:	015a      	lsls	r2, r3, #5
 8000db0:	d5b5      	bpl.n	8000d1e <__aeabi_fsub+0xea>
 8000db2:	2402      	movs	r4, #2
 8000db4:	e7e0      	b.n	8000d78 <__aeabi_fsub+0x144>
 8000db6:	2a00      	cmp	r2, #0
 8000db8:	d125      	bne.n	8000e06 <__aeabi_fsub+0x1d2>
 8000dba:	1c62      	adds	r2, r4, #1
 8000dbc:	b2d2      	uxtb	r2, r2
 8000dbe:	2a01      	cmp	r2, #1
 8000dc0:	dd72      	ble.n	8000ea8 <__aeabi_fsub+0x274>
 8000dc2:	1b9f      	subs	r7, r3, r6
 8000dc4:	017a      	lsls	r2, r7, #5
 8000dc6:	d535      	bpl.n	8000e34 <__aeabi_fsub+0x200>
 8000dc8:	1af7      	subs	r7, r6, r3
 8000dca:	000d      	movs	r5, r1
 8000dcc:	e764      	b.n	8000c98 <__aeabi_fsub+0x64>
 8000dce:	2201      	movs	r2, #1
 8000dd0:	2300      	movs	r3, #0
 8000dd2:	402a      	ands	r2, r5
 8000dd4:	e786      	b.n	8000ce4 <__aeabi_fsub+0xb0>
 8000dd6:	003b      	movs	r3, r7
 8000dd8:	4a63      	ldr	r2, [pc, #396]	; (8000f68 <__aeabi_fsub+0x334>)
 8000dda:	1a24      	subs	r4, r4, r0
 8000ddc:	4013      	ands	r3, r2
 8000dde:	e76f      	b.n	8000cc0 <__aeabi_fsub+0x8c>
 8000de0:	2900      	cmp	r1, #0
 8000de2:	d16c      	bne.n	8000ebe <__aeabi_fsub+0x28a>
 8000de4:	1c61      	adds	r1, r4, #1
 8000de6:	b2c8      	uxtb	r0, r1
 8000de8:	2801      	cmp	r0, #1
 8000dea:	dd4e      	ble.n	8000e8a <__aeabi_fsub+0x256>
 8000dec:	29ff      	cmp	r1, #255	; 0xff
 8000dee:	d049      	beq.n	8000e84 <__aeabi_fsub+0x250>
 8000df0:	199b      	adds	r3, r3, r6
 8000df2:	085b      	lsrs	r3, r3, #1
 8000df4:	000c      	movs	r4, r1
 8000df6:	e763      	b.n	8000cc0 <__aeabi_fsub+0x8c>
 8000df8:	2aff      	cmp	r2, #255	; 0xff
 8000dfa:	d041      	beq.n	8000e80 <__aeabi_fsub+0x24c>
 8000dfc:	000a      	movs	r2, r1
 8000dfe:	e781      	b.n	8000d04 <__aeabi_fsub+0xd0>
 8000e00:	2601      	movs	r6, #1
 8000e02:	1b9b      	subs	r3, r3, r6
 8000e04:	e789      	b.n	8000d1a <__aeabi_fsub+0xe6>
 8000e06:	2c00      	cmp	r4, #0
 8000e08:	d01c      	beq.n	8000e44 <__aeabi_fsub+0x210>
 8000e0a:	28ff      	cmp	r0, #255	; 0xff
 8000e0c:	d021      	beq.n	8000e52 <__aeabi_fsub+0x21e>
 8000e0e:	2480      	movs	r4, #128	; 0x80
 8000e10:	04e4      	lsls	r4, r4, #19
 8000e12:	4252      	negs	r2, r2
 8000e14:	4323      	orrs	r3, r4
 8000e16:	2a1b      	cmp	r2, #27
 8000e18:	dd00      	ble.n	8000e1c <__aeabi_fsub+0x1e8>
 8000e1a:	e096      	b.n	8000f4a <__aeabi_fsub+0x316>
 8000e1c:	001c      	movs	r4, r3
 8000e1e:	2520      	movs	r5, #32
 8000e20:	40d4      	lsrs	r4, r2
 8000e22:	1aaa      	subs	r2, r5, r2
 8000e24:	4093      	lsls	r3, r2
 8000e26:	1e5a      	subs	r2, r3, #1
 8000e28:	4193      	sbcs	r3, r2
 8000e2a:	4323      	orrs	r3, r4
 8000e2c:	1af3      	subs	r3, r6, r3
 8000e2e:	0004      	movs	r4, r0
 8000e30:	000d      	movs	r5, r1
 8000e32:	e72d      	b.n	8000c90 <__aeabi_fsub+0x5c>
 8000e34:	2f00      	cmp	r7, #0
 8000e36:	d000      	beq.n	8000e3a <__aeabi_fsub+0x206>
 8000e38:	e72e      	b.n	8000c98 <__aeabi_fsub+0x64>
 8000e3a:	2200      	movs	r2, #0
 8000e3c:	2400      	movs	r4, #0
 8000e3e:	e7a9      	b.n	8000d94 <__aeabi_fsub+0x160>
 8000e40:	000c      	movs	r4, r1
 8000e42:	e73d      	b.n	8000cc0 <__aeabi_fsub+0x8c>
 8000e44:	2b00      	cmp	r3, #0
 8000e46:	d058      	beq.n	8000efa <__aeabi_fsub+0x2c6>
 8000e48:	43d2      	mvns	r2, r2
 8000e4a:	2a00      	cmp	r2, #0
 8000e4c:	d0ee      	beq.n	8000e2c <__aeabi_fsub+0x1f8>
 8000e4e:	28ff      	cmp	r0, #255	; 0xff
 8000e50:	d1e1      	bne.n	8000e16 <__aeabi_fsub+0x1e2>
 8000e52:	0033      	movs	r3, r6
 8000e54:	24ff      	movs	r4, #255	; 0xff
 8000e56:	000d      	movs	r5, r1
 8000e58:	e732      	b.n	8000cc0 <__aeabi_fsub+0x8c>
 8000e5a:	29ff      	cmp	r1, #255	; 0xff
 8000e5c:	d010      	beq.n	8000e80 <__aeabi_fsub+0x24c>
 8000e5e:	0001      	movs	r1, r0
 8000e60:	e778      	b.n	8000d54 <__aeabi_fsub+0x120>
 8000e62:	2b00      	cmp	r3, #0
 8000e64:	d06e      	beq.n	8000f44 <__aeabi_fsub+0x310>
 8000e66:	24ff      	movs	r4, #255	; 0xff
 8000e68:	2e00      	cmp	r6, #0
 8000e6a:	d100      	bne.n	8000e6e <__aeabi_fsub+0x23a>
 8000e6c:	e728      	b.n	8000cc0 <__aeabi_fsub+0x8c>
 8000e6e:	2280      	movs	r2, #128	; 0x80
 8000e70:	4651      	mov	r1, sl
 8000e72:	03d2      	lsls	r2, r2, #15
 8000e74:	4211      	tst	r1, r2
 8000e76:	d003      	beq.n	8000e80 <__aeabi_fsub+0x24c>
 8000e78:	4661      	mov	r1, ip
 8000e7a:	4211      	tst	r1, r2
 8000e7c:	d100      	bne.n	8000e80 <__aeabi_fsub+0x24c>
 8000e7e:	0033      	movs	r3, r6
 8000e80:	24ff      	movs	r4, #255	; 0xff
 8000e82:	e71d      	b.n	8000cc0 <__aeabi_fsub+0x8c>
 8000e84:	24ff      	movs	r4, #255	; 0xff
 8000e86:	2300      	movs	r3, #0
 8000e88:	e72c      	b.n	8000ce4 <__aeabi_fsub+0xb0>
 8000e8a:	2c00      	cmp	r4, #0
 8000e8c:	d1e9      	bne.n	8000e62 <__aeabi_fsub+0x22e>
 8000e8e:	2b00      	cmp	r3, #0
 8000e90:	d063      	beq.n	8000f5a <__aeabi_fsub+0x326>
 8000e92:	2e00      	cmp	r6, #0
 8000e94:	d100      	bne.n	8000e98 <__aeabi_fsub+0x264>
 8000e96:	e713      	b.n	8000cc0 <__aeabi_fsub+0x8c>
 8000e98:	199b      	adds	r3, r3, r6
 8000e9a:	015a      	lsls	r2, r3, #5
 8000e9c:	d400      	bmi.n	8000ea0 <__aeabi_fsub+0x26c>
 8000e9e:	e73e      	b.n	8000d1e <__aeabi_fsub+0xea>
 8000ea0:	4a31      	ldr	r2, [pc, #196]	; (8000f68 <__aeabi_fsub+0x334>)
 8000ea2:	000c      	movs	r4, r1
 8000ea4:	4013      	ands	r3, r2
 8000ea6:	e70b      	b.n	8000cc0 <__aeabi_fsub+0x8c>
 8000ea8:	2c00      	cmp	r4, #0
 8000eaa:	d11e      	bne.n	8000eea <__aeabi_fsub+0x2b6>
 8000eac:	2b00      	cmp	r3, #0
 8000eae:	d12f      	bne.n	8000f10 <__aeabi_fsub+0x2dc>
 8000eb0:	2e00      	cmp	r6, #0
 8000eb2:	d04f      	beq.n	8000f54 <__aeabi_fsub+0x320>
 8000eb4:	0033      	movs	r3, r6
 8000eb6:	000d      	movs	r5, r1
 8000eb8:	e702      	b.n	8000cc0 <__aeabi_fsub+0x8c>
 8000eba:	2601      	movs	r6, #1
 8000ebc:	e755      	b.n	8000d6a <__aeabi_fsub+0x136>
 8000ebe:	2c00      	cmp	r4, #0
 8000ec0:	d11f      	bne.n	8000f02 <__aeabi_fsub+0x2ce>
 8000ec2:	2b00      	cmp	r3, #0
 8000ec4:	d043      	beq.n	8000f4e <__aeabi_fsub+0x31a>
 8000ec6:	43c9      	mvns	r1, r1
 8000ec8:	2900      	cmp	r1, #0
 8000eca:	d00b      	beq.n	8000ee4 <__aeabi_fsub+0x2b0>
 8000ecc:	28ff      	cmp	r0, #255	; 0xff
 8000ece:	d039      	beq.n	8000f44 <__aeabi_fsub+0x310>
 8000ed0:	291b      	cmp	r1, #27
 8000ed2:	dc44      	bgt.n	8000f5e <__aeabi_fsub+0x32a>
 8000ed4:	001c      	movs	r4, r3
 8000ed6:	2720      	movs	r7, #32
 8000ed8:	40cc      	lsrs	r4, r1
 8000eda:	1a79      	subs	r1, r7, r1
 8000edc:	408b      	lsls	r3, r1
 8000ede:	1e59      	subs	r1, r3, #1
 8000ee0:	418b      	sbcs	r3, r1
 8000ee2:	4323      	orrs	r3, r4
 8000ee4:	199b      	adds	r3, r3, r6
 8000ee6:	0004      	movs	r4, r0
 8000ee8:	e740      	b.n	8000d6c <__aeabi_fsub+0x138>
 8000eea:	2b00      	cmp	r3, #0
 8000eec:	d11a      	bne.n	8000f24 <__aeabi_fsub+0x2f0>
 8000eee:	2e00      	cmp	r6, #0
 8000ef0:	d124      	bne.n	8000f3c <__aeabi_fsub+0x308>
 8000ef2:	2780      	movs	r7, #128	; 0x80
 8000ef4:	2200      	movs	r2, #0
 8000ef6:	03ff      	lsls	r7, r7, #15
 8000ef8:	e71b      	b.n	8000d32 <__aeabi_fsub+0xfe>
 8000efa:	0033      	movs	r3, r6
 8000efc:	0004      	movs	r4, r0
 8000efe:	000d      	movs	r5, r1
 8000f00:	e6de      	b.n	8000cc0 <__aeabi_fsub+0x8c>
 8000f02:	28ff      	cmp	r0, #255	; 0xff
 8000f04:	d01e      	beq.n	8000f44 <__aeabi_fsub+0x310>
 8000f06:	2480      	movs	r4, #128	; 0x80
 8000f08:	04e4      	lsls	r4, r4, #19
 8000f0a:	4249      	negs	r1, r1
 8000f0c:	4323      	orrs	r3, r4
 8000f0e:	e7df      	b.n	8000ed0 <__aeabi_fsub+0x29c>
 8000f10:	2e00      	cmp	r6, #0
 8000f12:	d100      	bne.n	8000f16 <__aeabi_fsub+0x2e2>
 8000f14:	e6d4      	b.n	8000cc0 <__aeabi_fsub+0x8c>
 8000f16:	1b9f      	subs	r7, r3, r6
 8000f18:	017a      	lsls	r2, r7, #5
 8000f1a:	d400      	bmi.n	8000f1e <__aeabi_fsub+0x2ea>
 8000f1c:	e737      	b.n	8000d8e <__aeabi_fsub+0x15a>
 8000f1e:	1af3      	subs	r3, r6, r3
 8000f20:	000d      	movs	r5, r1
 8000f22:	e6cd      	b.n	8000cc0 <__aeabi_fsub+0x8c>
 8000f24:	24ff      	movs	r4, #255	; 0xff
 8000f26:	2e00      	cmp	r6, #0
 8000f28:	d100      	bne.n	8000f2c <__aeabi_fsub+0x2f8>
 8000f2a:	e6c9      	b.n	8000cc0 <__aeabi_fsub+0x8c>
 8000f2c:	2280      	movs	r2, #128	; 0x80
 8000f2e:	4650      	mov	r0, sl
 8000f30:	03d2      	lsls	r2, r2, #15
 8000f32:	4210      	tst	r0, r2
 8000f34:	d0a4      	beq.n	8000e80 <__aeabi_fsub+0x24c>
 8000f36:	4660      	mov	r0, ip
 8000f38:	4210      	tst	r0, r2
 8000f3a:	d1a1      	bne.n	8000e80 <__aeabi_fsub+0x24c>
 8000f3c:	0033      	movs	r3, r6
 8000f3e:	000d      	movs	r5, r1
 8000f40:	24ff      	movs	r4, #255	; 0xff
 8000f42:	e6bd      	b.n	8000cc0 <__aeabi_fsub+0x8c>
 8000f44:	0033      	movs	r3, r6
 8000f46:	24ff      	movs	r4, #255	; 0xff
 8000f48:	e6ba      	b.n	8000cc0 <__aeabi_fsub+0x8c>
 8000f4a:	2301      	movs	r3, #1
 8000f4c:	e76e      	b.n	8000e2c <__aeabi_fsub+0x1f8>
 8000f4e:	0033      	movs	r3, r6
 8000f50:	0004      	movs	r4, r0
 8000f52:	e6b5      	b.n	8000cc0 <__aeabi_fsub+0x8c>
 8000f54:	2700      	movs	r7, #0
 8000f56:	2200      	movs	r2, #0
 8000f58:	e71c      	b.n	8000d94 <__aeabi_fsub+0x160>
 8000f5a:	0033      	movs	r3, r6
 8000f5c:	e6b0      	b.n	8000cc0 <__aeabi_fsub+0x8c>
 8000f5e:	2301      	movs	r3, #1
 8000f60:	e7c0      	b.n	8000ee4 <__aeabi_fsub+0x2b0>
 8000f62:	46c0      	nop			; (mov r8, r8)
 8000f64:	7dffffff 	.word	0x7dffffff
 8000f68:	fbffffff 	.word	0xfbffffff

08000f6c <__aeabi_f2iz>:
 8000f6c:	0241      	lsls	r1, r0, #9
 8000f6e:	0043      	lsls	r3, r0, #1
 8000f70:	0fc2      	lsrs	r2, r0, #31
 8000f72:	0a49      	lsrs	r1, r1, #9
 8000f74:	0e1b      	lsrs	r3, r3, #24
 8000f76:	2000      	movs	r0, #0
 8000f78:	2b7e      	cmp	r3, #126	; 0x7e
 8000f7a:	dd0d      	ble.n	8000f98 <__aeabi_f2iz+0x2c>
 8000f7c:	2b9d      	cmp	r3, #157	; 0x9d
 8000f7e:	dc0c      	bgt.n	8000f9a <__aeabi_f2iz+0x2e>
 8000f80:	2080      	movs	r0, #128	; 0x80
 8000f82:	0400      	lsls	r0, r0, #16
 8000f84:	4301      	orrs	r1, r0
 8000f86:	2b95      	cmp	r3, #149	; 0x95
 8000f88:	dc0a      	bgt.n	8000fa0 <__aeabi_f2iz+0x34>
 8000f8a:	2096      	movs	r0, #150	; 0x96
 8000f8c:	1ac3      	subs	r3, r0, r3
 8000f8e:	40d9      	lsrs	r1, r3
 8000f90:	4248      	negs	r0, r1
 8000f92:	2a00      	cmp	r2, #0
 8000f94:	d100      	bne.n	8000f98 <__aeabi_f2iz+0x2c>
 8000f96:	0008      	movs	r0, r1
 8000f98:	4770      	bx	lr
 8000f9a:	4b03      	ldr	r3, [pc, #12]	; (8000fa8 <__aeabi_f2iz+0x3c>)
 8000f9c:	18d0      	adds	r0, r2, r3
 8000f9e:	e7fb      	b.n	8000f98 <__aeabi_f2iz+0x2c>
 8000fa0:	3b96      	subs	r3, #150	; 0x96
 8000fa2:	4099      	lsls	r1, r3
 8000fa4:	e7f4      	b.n	8000f90 <__aeabi_f2iz+0x24>
 8000fa6:	46c0      	nop			; (mov r8, r8)
 8000fa8:	7fffffff 	.word	0x7fffffff

08000fac <__aeabi_i2f>:
 8000fac:	b570      	push	{r4, r5, r6, lr}
 8000fae:	2800      	cmp	r0, #0
 8000fb0:	d030      	beq.n	8001014 <__aeabi_i2f+0x68>
 8000fb2:	17c3      	asrs	r3, r0, #31
 8000fb4:	18c4      	adds	r4, r0, r3
 8000fb6:	405c      	eors	r4, r3
 8000fb8:	0fc5      	lsrs	r5, r0, #31
 8000fba:	0020      	movs	r0, r4
 8000fbc:	f000 f88c 	bl	80010d8 <__clzsi2>
 8000fc0:	239e      	movs	r3, #158	; 0x9e
 8000fc2:	1a1b      	subs	r3, r3, r0
 8000fc4:	2b96      	cmp	r3, #150	; 0x96
 8000fc6:	dc0d      	bgt.n	8000fe4 <__aeabi_i2f+0x38>
 8000fc8:	2296      	movs	r2, #150	; 0x96
 8000fca:	1ad2      	subs	r2, r2, r3
 8000fcc:	4094      	lsls	r4, r2
 8000fce:	002a      	movs	r2, r5
 8000fd0:	0264      	lsls	r4, r4, #9
 8000fd2:	0a64      	lsrs	r4, r4, #9
 8000fd4:	b2db      	uxtb	r3, r3
 8000fd6:	0264      	lsls	r4, r4, #9
 8000fd8:	05db      	lsls	r3, r3, #23
 8000fda:	0a60      	lsrs	r0, r4, #9
 8000fdc:	07d2      	lsls	r2, r2, #31
 8000fde:	4318      	orrs	r0, r3
 8000fe0:	4310      	orrs	r0, r2
 8000fe2:	bd70      	pop	{r4, r5, r6, pc}
 8000fe4:	2b99      	cmp	r3, #153	; 0x99
 8000fe6:	dc19      	bgt.n	800101c <__aeabi_i2f+0x70>
 8000fe8:	2299      	movs	r2, #153	; 0x99
 8000fea:	1ad2      	subs	r2, r2, r3
 8000fec:	2a00      	cmp	r2, #0
 8000fee:	dd29      	ble.n	8001044 <__aeabi_i2f+0x98>
 8000ff0:	4094      	lsls	r4, r2
 8000ff2:	0022      	movs	r2, r4
 8000ff4:	4c14      	ldr	r4, [pc, #80]	; (8001048 <__aeabi_i2f+0x9c>)
 8000ff6:	4014      	ands	r4, r2
 8000ff8:	0751      	lsls	r1, r2, #29
 8000ffa:	d004      	beq.n	8001006 <__aeabi_i2f+0x5a>
 8000ffc:	210f      	movs	r1, #15
 8000ffe:	400a      	ands	r2, r1
 8001000:	2a04      	cmp	r2, #4
 8001002:	d000      	beq.n	8001006 <__aeabi_i2f+0x5a>
 8001004:	3404      	adds	r4, #4
 8001006:	0162      	lsls	r2, r4, #5
 8001008:	d413      	bmi.n	8001032 <__aeabi_i2f+0x86>
 800100a:	01a4      	lsls	r4, r4, #6
 800100c:	0a64      	lsrs	r4, r4, #9
 800100e:	b2db      	uxtb	r3, r3
 8001010:	002a      	movs	r2, r5
 8001012:	e7e0      	b.n	8000fd6 <__aeabi_i2f+0x2a>
 8001014:	2200      	movs	r2, #0
 8001016:	2300      	movs	r3, #0
 8001018:	2400      	movs	r4, #0
 800101a:	e7dc      	b.n	8000fd6 <__aeabi_i2f+0x2a>
 800101c:	2205      	movs	r2, #5
 800101e:	0021      	movs	r1, r4
 8001020:	1a12      	subs	r2, r2, r0
 8001022:	40d1      	lsrs	r1, r2
 8001024:	22b9      	movs	r2, #185	; 0xb9
 8001026:	1ad2      	subs	r2, r2, r3
 8001028:	4094      	lsls	r4, r2
 800102a:	1e62      	subs	r2, r4, #1
 800102c:	4194      	sbcs	r4, r2
 800102e:	430c      	orrs	r4, r1
 8001030:	e7da      	b.n	8000fe8 <__aeabi_i2f+0x3c>
 8001032:	4b05      	ldr	r3, [pc, #20]	; (8001048 <__aeabi_i2f+0x9c>)
 8001034:	002a      	movs	r2, r5
 8001036:	401c      	ands	r4, r3
 8001038:	239f      	movs	r3, #159	; 0x9f
 800103a:	01a4      	lsls	r4, r4, #6
 800103c:	1a1b      	subs	r3, r3, r0
 800103e:	0a64      	lsrs	r4, r4, #9
 8001040:	b2db      	uxtb	r3, r3
 8001042:	e7c8      	b.n	8000fd6 <__aeabi_i2f+0x2a>
 8001044:	0022      	movs	r2, r4
 8001046:	e7d5      	b.n	8000ff4 <__aeabi_i2f+0x48>
 8001048:	fbffffff 	.word	0xfbffffff

0800104c <__aeabi_ui2f>:
 800104c:	b510      	push	{r4, lr}
 800104e:	1e04      	subs	r4, r0, #0
 8001050:	d027      	beq.n	80010a2 <__aeabi_ui2f+0x56>
 8001052:	f000 f841 	bl	80010d8 <__clzsi2>
 8001056:	239e      	movs	r3, #158	; 0x9e
 8001058:	1a1b      	subs	r3, r3, r0
 800105a:	2b96      	cmp	r3, #150	; 0x96
 800105c:	dc0a      	bgt.n	8001074 <__aeabi_ui2f+0x28>
 800105e:	2296      	movs	r2, #150	; 0x96
 8001060:	1ad2      	subs	r2, r2, r3
 8001062:	4094      	lsls	r4, r2
 8001064:	0264      	lsls	r4, r4, #9
 8001066:	0a64      	lsrs	r4, r4, #9
 8001068:	b2db      	uxtb	r3, r3
 800106a:	0264      	lsls	r4, r4, #9
 800106c:	05db      	lsls	r3, r3, #23
 800106e:	0a60      	lsrs	r0, r4, #9
 8001070:	4318      	orrs	r0, r3
 8001072:	bd10      	pop	{r4, pc}
 8001074:	2b99      	cmp	r3, #153	; 0x99
 8001076:	dc17      	bgt.n	80010a8 <__aeabi_ui2f+0x5c>
 8001078:	2299      	movs	r2, #153	; 0x99
 800107a:	1ad2      	subs	r2, r2, r3
 800107c:	2a00      	cmp	r2, #0
 800107e:	dd27      	ble.n	80010d0 <__aeabi_ui2f+0x84>
 8001080:	4094      	lsls	r4, r2
 8001082:	0022      	movs	r2, r4
 8001084:	4c13      	ldr	r4, [pc, #76]	; (80010d4 <__aeabi_ui2f+0x88>)
 8001086:	4014      	ands	r4, r2
 8001088:	0751      	lsls	r1, r2, #29
 800108a:	d004      	beq.n	8001096 <__aeabi_ui2f+0x4a>
 800108c:	210f      	movs	r1, #15
 800108e:	400a      	ands	r2, r1
 8001090:	2a04      	cmp	r2, #4
 8001092:	d000      	beq.n	8001096 <__aeabi_ui2f+0x4a>
 8001094:	3404      	adds	r4, #4
 8001096:	0162      	lsls	r2, r4, #5
 8001098:	d412      	bmi.n	80010c0 <__aeabi_ui2f+0x74>
 800109a:	01a4      	lsls	r4, r4, #6
 800109c:	0a64      	lsrs	r4, r4, #9
 800109e:	b2db      	uxtb	r3, r3
 80010a0:	e7e3      	b.n	800106a <__aeabi_ui2f+0x1e>
 80010a2:	2300      	movs	r3, #0
 80010a4:	2400      	movs	r4, #0
 80010a6:	e7e0      	b.n	800106a <__aeabi_ui2f+0x1e>
 80010a8:	22b9      	movs	r2, #185	; 0xb9
 80010aa:	0021      	movs	r1, r4
 80010ac:	1ad2      	subs	r2, r2, r3
 80010ae:	4091      	lsls	r1, r2
 80010b0:	000a      	movs	r2, r1
 80010b2:	1e51      	subs	r1, r2, #1
 80010b4:	418a      	sbcs	r2, r1
 80010b6:	2105      	movs	r1, #5
 80010b8:	1a09      	subs	r1, r1, r0
 80010ba:	40cc      	lsrs	r4, r1
 80010bc:	4314      	orrs	r4, r2
 80010be:	e7db      	b.n	8001078 <__aeabi_ui2f+0x2c>
 80010c0:	4b04      	ldr	r3, [pc, #16]	; (80010d4 <__aeabi_ui2f+0x88>)
 80010c2:	401c      	ands	r4, r3
 80010c4:	239f      	movs	r3, #159	; 0x9f
 80010c6:	01a4      	lsls	r4, r4, #6
 80010c8:	1a1b      	subs	r3, r3, r0
 80010ca:	0a64      	lsrs	r4, r4, #9
 80010cc:	b2db      	uxtb	r3, r3
 80010ce:	e7cc      	b.n	800106a <__aeabi_ui2f+0x1e>
 80010d0:	0022      	movs	r2, r4
 80010d2:	e7d7      	b.n	8001084 <__aeabi_ui2f+0x38>
 80010d4:	fbffffff 	.word	0xfbffffff

080010d8 <__clzsi2>:
 80010d8:	211c      	movs	r1, #28
 80010da:	2301      	movs	r3, #1
 80010dc:	041b      	lsls	r3, r3, #16
 80010de:	4298      	cmp	r0, r3
 80010e0:	d301      	bcc.n	80010e6 <__clzsi2+0xe>
 80010e2:	0c00      	lsrs	r0, r0, #16
 80010e4:	3910      	subs	r1, #16
 80010e6:	0a1b      	lsrs	r3, r3, #8
 80010e8:	4298      	cmp	r0, r3
 80010ea:	d301      	bcc.n	80010f0 <__clzsi2+0x18>
 80010ec:	0a00      	lsrs	r0, r0, #8
 80010ee:	3908      	subs	r1, #8
 80010f0:	091b      	lsrs	r3, r3, #4
 80010f2:	4298      	cmp	r0, r3
 80010f4:	d301      	bcc.n	80010fa <__clzsi2+0x22>
 80010f6:	0900      	lsrs	r0, r0, #4
 80010f8:	3904      	subs	r1, #4
 80010fa:	a202      	add	r2, pc, #8	; (adr r2, 8001104 <__clzsi2+0x2c>)
 80010fc:	5c10      	ldrb	r0, [r2, r0]
 80010fe:	1840      	adds	r0, r0, r1
 8001100:	4770      	bx	lr
 8001102:	46c0      	nop			; (mov r8, r8)
 8001104:	02020304 	.word	0x02020304
 8001108:	01010101 	.word	0x01010101
	...

08001114 <MX_ADC_Init>:
DMA_HandleTypeDef hdma_adc;

/* ADC init function */

void MX_ADC_Init(void)
{
 8001114:	b530      	push	{r4, r5, lr}
 8001116:	b085      	sub	sp, #20
  ADC_ChannelConfTypeDef sConfig = {0};
 8001118:	220c      	movs	r2, #12
 800111a:	2100      	movs	r1, #0
 800111c:	a801      	add	r0, sp, #4
 800111e:	f005 fba6 	bl	800686e <memset>
  hadc.Init.ClockPrescaler = ADC_CLOCK_ASYNC_DIV1;
  //hadc.Init.ClockPrescaler = ADC_CLOCK_SYNC_PCLK_DIV2;
  hadc.Init.Resolution = ADC_RESOLUTION_12B;
  hadc.Init.DataAlign = ADC_DATAALIGN_RIGHT;
  hadc.Init.ScanConvMode = ADC_SCAN_DIRECTION_FORWARD;
  hadc.Init.EOCSelection = ADC_EOC_SINGLE_CONV;
 8001122:	2204      	movs	r2, #4
  hadc.Instance = ADC1;
 8001124:	4c1f      	ldr	r4, [pc, #124]	; (80011a4 <MX_ADC_Init+0x90>)
 8001126:	4b20      	ldr	r3, [pc, #128]	; (80011a8 <MX_ADC_Init+0x94>)
  hadc.Init.EOCSelection = ADC_EOC_SINGLE_CONV;
 8001128:	6162      	str	r2, [r4, #20]
  hadc.Init.LowPowerAutoWait = DISABLE;
  hadc.Init.LowPowerAutoPowerOff = DISABLE;
  hadc.Init.ContinuousConvMode = ENABLE;
  hadc.Init.DiscontinuousConvMode = DISABLE;
  hadc.Init.ExternalTrigConv = ADC_SOFTWARE_START;
 800112a:	22c2      	movs	r2, #194	; 0xc2
  hadc.Init.ScanConvMode = ADC_SCAN_DIRECTION_FORWARD;
 800112c:	2501      	movs	r5, #1
  hadc.Instance = ADC1;
 800112e:	6023      	str	r3, [r4, #0]
  hadc.Init.ClockPrescaler = ADC_CLOCK_ASYNC_DIV1;
 8001130:	2300      	movs	r3, #0
  hadc.Init.ExternalTrigConv = ADC_SOFTWARE_START;
 8001132:	32ff      	adds	r2, #255	; 0xff
  hadc.Init.ExternalTrigConvEdge = ADC_EXTERNALTRIGCONVEDGE_NONE;
  hadc.Init.DMAContinuousRequests = ENABLE;
  hadc.Init.Overrun = ADC_OVR_DATA_OVERWRITTEN;
  if (HAL_ADC_Init(&hadc) != HAL_OK)
 8001134:	0020      	movs	r0, r4
  hadc.Init.ClockPrescaler = ADC_CLOCK_ASYNC_DIV1;
 8001136:	6063      	str	r3, [r4, #4]
  hadc.Init.Resolution = ADC_RESOLUTION_12B;
 8001138:	60a3      	str	r3, [r4, #8]
  hadc.Init.DataAlign = ADC_DATAALIGN_RIGHT;
 800113a:	60e3      	str	r3, [r4, #12]
  hadc.Init.ScanConvMode = ADC_SCAN_DIRECTION_FORWARD;
 800113c:	6125      	str	r5, [r4, #16]
  hadc.Init.LowPowerAutoWait = DISABLE;
 800113e:	61a3      	str	r3, [r4, #24]
  hadc.Init.LowPowerAutoPowerOff = DISABLE;
 8001140:	61e3      	str	r3, [r4, #28]
  hadc.Init.ContinuousConvMode = ENABLE;
 8001142:	6225      	str	r5, [r4, #32]
  hadc.Init.DiscontinuousConvMode = DISABLE;
 8001144:	6263      	str	r3, [r4, #36]	; 0x24
  hadc.Init.ExternalTrigConv = ADC_SOFTWARE_START;
 8001146:	62a2      	str	r2, [r4, #40]	; 0x28
  hadc.Init.ExternalTrigConvEdge = ADC_EXTERNALTRIGCONVEDGE_NONE;
 8001148:	62e3      	str	r3, [r4, #44]	; 0x2c
  hadc.Init.DMAContinuousRequests = ENABLE;
 800114a:	6325      	str	r5, [r4, #48]	; 0x30
  hadc.Init.Overrun = ADC_OVR_DATA_OVERWRITTEN;
 800114c:	6363      	str	r3, [r4, #52]	; 0x34
  if (HAL_ADC_Init(&hadc) != HAL_OK)
 800114e:	f002 f9ab 	bl	80034a8 <HAL_ADC_Init>
 8001152:	2800      	cmp	r0, #0
 8001154:	d001      	beq.n	800115a <MX_ADC_Init+0x46>
  {
    Error_Handler();
 8001156:	f001 fc09 	bl	800296c <Error_Handler>
  }
  /**Configure for the selected ADC regular channel to be converted.
  */
  sConfig.Channel = ADC_CHANNEL_1;
  sConfig.Rank = ADC_RANK_CHANNEL_NUMBER;
 800115a:	2380      	movs	r3, #128	; 0x80
 800115c:	015b      	lsls	r3, r3, #5
 800115e:	9302      	str	r3, [sp, #8]
  sConfig.SamplingTime = ADC_SAMPLETIME_239CYCLES_5;
 8001160:	2307      	movs	r3, #7
  if (HAL_ADC_ConfigChannel(&hadc, &sConfig) != HAL_OK)
 8001162:	a901      	add	r1, sp, #4
 8001164:	0020      	movs	r0, r4
  sConfig.Channel = ADC_CHANNEL_1;
 8001166:	9501      	str	r5, [sp, #4]
  sConfig.SamplingTime = ADC_SAMPLETIME_239CYCLES_5;
 8001168:	9303      	str	r3, [sp, #12]
  if (HAL_ADC_ConfigChannel(&hadc, &sConfig) != HAL_OK)
 800116a:	f002 fc09 	bl	8003980 <HAL_ADC_ConfigChannel>
 800116e:	2800      	cmp	r0, #0
 8001170:	d001      	beq.n	8001176 <MX_ADC_Init+0x62>
  {
    Error_Handler();
 8001172:	f001 fbfb 	bl	800296c <Error_Handler>
  }
  /**Configure for the selected ADC regular channel to be converted.
  */
  sConfig.Channel = ADC_CHANNEL_2;
 8001176:	2302      	movs	r3, #2
  if (HAL_ADC_ConfigChannel(&hadc, &sConfig) != HAL_OK)
 8001178:	a901      	add	r1, sp, #4
 800117a:	0020      	movs	r0, r4
  sConfig.Channel = ADC_CHANNEL_2;
 800117c:	9301      	str	r3, [sp, #4]
  if (HAL_ADC_ConfigChannel(&hadc, &sConfig) != HAL_OK)
 800117e:	f002 fbff 	bl	8003980 <HAL_ADC_ConfigChannel>
 8001182:	2800      	cmp	r0, #0
 8001184:	d001      	beq.n	800118a <MX_ADC_Init+0x76>
  {
    Error_Handler();
 8001186:	f001 fbf1 	bl	800296c <Error_Handler>
  }
  /**Configure for the selected ADC regular channel to be converted.
  */
  sConfig.Channel = ADC_CHANNEL_5;
 800118a:	2305      	movs	r3, #5
  if (HAL_ADC_ConfigChannel(&hadc, &sConfig) != HAL_OK)
 800118c:	a901      	add	r1, sp, #4
 800118e:	0020      	movs	r0, r4
  sConfig.Channel = ADC_CHANNEL_5;
 8001190:	9301      	str	r3, [sp, #4]
  if (HAL_ADC_ConfigChannel(&hadc, &sConfig) != HAL_OK)
 8001192:	f002 fbf5 	bl	8003980 <HAL_ADC_ConfigChannel>
 8001196:	2800      	cmp	r0, #0
 8001198:	d001      	beq.n	800119e <MX_ADC_Init+0x8a>
  {
    Error_Handler();
 800119a:	f001 fbe7 	bl	800296c <Error_Handler>
	  {
		Error_Handler();
	  }
  #endif

}
 800119e:	b005      	add	sp, #20
 80011a0:	bd30      	pop	{r4, r5, pc}
 80011a2:	46c0      	nop			; (mov r8, r8)
 80011a4:	200003dc 	.word	0x200003dc
 80011a8:	40012400 	.word	0x40012400

080011ac <HAL_ADC_MspInit>:

void HAL_ADC_MspInit(ADC_HandleTypeDef* adcHandle)
{
 80011ac:	b570      	push	{r4, r5, r6, lr}
 80011ae:	0005      	movs	r5, r0
 80011b0:	b088      	sub	sp, #32

  GPIO_InitTypeDef GPIO_InitStruct = {0};
 80011b2:	2214      	movs	r2, #20
 80011b4:	2100      	movs	r1, #0
 80011b6:	a803      	add	r0, sp, #12
 80011b8:	f005 fb59 	bl	800686e <memset>
  if(adcHandle->Instance==ADC1)
 80011bc:	4b20      	ldr	r3, [pc, #128]	; (8001240 <HAL_ADC_MspInit+0x94>)
 80011be:	682a      	ldr	r2, [r5, #0]
 80011c0:	429a      	cmp	r2, r3
 80011c2:	d13b      	bne.n	800123c <HAL_ADC_MspInit+0x90>
  {
  /* USER CODE BEGIN ADC1_MspInit 0 */

  /* USER CODE END ADC1_MspInit 0 */
    /* ADC1 clock enable */
    __HAL_RCC_ADC1_CLK_ENABLE();
 80011c4:	2080      	movs	r0, #128	; 0x80
 80011c6:	491f      	ldr	r1, [pc, #124]	; (8001244 <HAL_ADC_MspInit+0x98>)
 80011c8:	0080      	lsls	r0, r0, #2
 80011ca:	698a      	ldr	r2, [r1, #24]
        /* ADC Init */
        hdma_adc.Instance = DMA1_Channel2;
        hdma_adc.Init.Direction = DMA_PERIPH_TO_MEMORY;
        hdma_adc.Init.PeriphInc = DMA_PINC_DISABLE;
        hdma_adc.Init.MemInc = DMA_MINC_ENABLE;
        hdma_adc.Init.PeriphDataAlignment = DMA_PDATAALIGN_HALFWORD;
 80011cc:	2680      	movs	r6, #128	; 0x80
    __HAL_RCC_ADC1_CLK_ENABLE();
 80011ce:	4302      	orrs	r2, r0
 80011d0:	618a      	str	r2, [r1, #24]
 80011d2:	698b      	ldr	r3, [r1, #24]
        hdma_adc.Init.PeriphDataAlignment = DMA_PDATAALIGN_HALFWORD;
 80011d4:	0076      	lsls	r6, r6, #1
    __HAL_RCC_ADC1_CLK_ENABLE();
 80011d6:	4003      	ands	r3, r0
    __HAL_RCC_GPIOA_CLK_ENABLE();
 80011d8:	2080      	movs	r0, #128	; 0x80
    __HAL_RCC_ADC1_CLK_ENABLE();
 80011da:	9301      	str	r3, [sp, #4]
 80011dc:	9b01      	ldr	r3, [sp, #4]
    __HAL_RCC_GPIOA_CLK_ENABLE();
 80011de:	694a      	ldr	r2, [r1, #20]
 80011e0:	0280      	lsls	r0, r0, #10
 80011e2:	4302      	orrs	r2, r0
 80011e4:	614a      	str	r2, [r1, #20]
 80011e6:	694b      	ldr	r3, [r1, #20]
    HAL_GPIO_Init(GPIOA, &GPIO_InitStruct);
 80011e8:	a903      	add	r1, sp, #12
    __HAL_RCC_GPIOA_CLK_ENABLE();
 80011ea:	4003      	ands	r3, r0
 80011ec:	9302      	str	r3, [sp, #8]
 80011ee:	9b02      	ldr	r3, [sp, #8]
    HAL_GPIO_Init(GPIOA, &GPIO_InitStruct);
 80011f0:	2090      	movs	r0, #144	; 0x90
    GPIO_InitStruct.Pin = V_OUT_Pin|C_OUT_Pin|DC_FEEDBACK_Pin;
 80011f2:	2326      	movs	r3, #38	; 0x26
    HAL_GPIO_Init(GPIOA, &GPIO_InitStruct);
 80011f4:	05c0      	lsls	r0, r0, #23
    GPIO_InitStruct.Pin = V_OUT_Pin|C_OUT_Pin|DC_FEEDBACK_Pin;
 80011f6:	9303      	str	r3, [sp, #12]
    GPIO_InitStruct.Mode = GPIO_MODE_ANALOG;
 80011f8:	3b23      	subs	r3, #35	; 0x23
 80011fa:	9304      	str	r3, [sp, #16]
    HAL_GPIO_Init(GPIOA, &GPIO_InitStruct);
 80011fc:	f003 f868 	bl	80042d0 <HAL_GPIO_Init>
        hdma_adc.Instance = DMA1_Channel2;
 8001200:	4c11      	ldr	r4, [pc, #68]	; (8001248 <HAL_ADC_MspInit+0x9c>)
 8001202:	4b12      	ldr	r3, [pc, #72]	; (800124c <HAL_ADC_MspInit+0xa0>)
        hdma_adc.Init.MemDataAlignment = DMA_MDATAALIGN_HALFWORD;
        hdma_adc.Init.Mode = DMA_CIRCULAR;
        hdma_adc.Init.Priority = DMA_PRIORITY_MEDIUM;
        if (HAL_DMA_Init(&hdma_adc) != HAL_OK)
 8001204:	0020      	movs	r0, r4
        hdma_adc.Instance = DMA1_Channel2;
 8001206:	6023      	str	r3, [r4, #0]
        hdma_adc.Init.Direction = DMA_PERIPH_TO_MEMORY;
 8001208:	2300      	movs	r3, #0
 800120a:	6063      	str	r3, [r4, #4]
        hdma_adc.Init.PeriphInc = DMA_PINC_DISABLE;
 800120c:	60a3      	str	r3, [r4, #8]
        hdma_adc.Init.MemInc = DMA_MINC_ENABLE;
 800120e:	3380      	adds	r3, #128	; 0x80
 8001210:	60e3      	str	r3, [r4, #12]
        hdma_adc.Init.MemDataAlignment = DMA_MDATAALIGN_HALFWORD;
 8001212:	2380      	movs	r3, #128	; 0x80
 8001214:	00db      	lsls	r3, r3, #3
 8001216:	6163      	str	r3, [r4, #20]
        hdma_adc.Init.Mode = DMA_CIRCULAR;
 8001218:	2320      	movs	r3, #32
 800121a:	61a3      	str	r3, [r4, #24]
        hdma_adc.Init.Priority = DMA_PRIORITY_MEDIUM;
 800121c:	2380      	movs	r3, #128	; 0x80
 800121e:	015b      	lsls	r3, r3, #5
        hdma_adc.Init.PeriphDataAlignment = DMA_PDATAALIGN_HALFWORD;
 8001220:	6126      	str	r6, [r4, #16]
        hdma_adc.Init.Priority = DMA_PRIORITY_MEDIUM;
 8001222:	61e3      	str	r3, [r4, #28]
        if (HAL_DMA_Init(&hdma_adc) != HAL_OK)
 8001224:	f002 fd1c 	bl	8003c60 <HAL_DMA_Init>
 8001228:	2800      	cmp	r0, #0
 800122a:	d001      	beq.n	8001230 <HAL_ADC_MspInit+0x84>
        {
          Error_Handler();
 800122c:	f001 fb9e 	bl	800296c <Error_Handler>
        }

        __HAL_DMA_REMAP_CHANNEL_ENABLE(DMA_REMAP_ADC_DMA_CH2);
 8001230:	4a07      	ldr	r2, [pc, #28]	; (8001250 <HAL_ADC_MspInit+0xa4>)
 8001232:	6813      	ldr	r3, [r2, #0]
 8001234:	4333      	orrs	r3, r6
 8001236:	6013      	str	r3, [r2, #0]

        __HAL_LINKDMA(adcHandle,DMA_Handle,hdma_adc);
 8001238:	63ec      	str	r4, [r5, #60]	; 0x3c
 800123a:	6265      	str	r5, [r4, #36]	; 0x24

  /* USER CODE BEGIN ADC1_MspInit 1 */

  /* USER CODE END ADC1_MspInit 1 */
  }
}
 800123c:	b008      	add	sp, #32
 800123e:	bd70      	pop	{r4, r5, r6, pc}
 8001240:	40012400 	.word	0x40012400
 8001244:	40021000 	.word	0x40021000
 8001248:	20000398 	.word	0x20000398
 800124c:	4002001c 	.word	0x4002001c
 8001250:	40010000 	.word	0x40010000

08001254 <MX_CRC_Init>:

CRC_HandleTypeDef hcrc;

/* CRC init function */
void MX_CRC_Init(void)
{
 8001254:	b510      	push	{r4, lr}

  hcrc.Instance = CRC;
 8001256:	4b0c      	ldr	r3, [pc, #48]	; (8001288 <MX_CRC_Init+0x34>)
 8001258:	4c0c      	ldr	r4, [pc, #48]	; (800128c <MX_CRC_Init+0x38>)
 800125a:	6023      	str	r3, [r4, #0]
  hcrc.Init.DefaultPolynomialUse = DEFAULT_POLYNOMIAL_ENABLE;
 800125c:	2300      	movs	r3, #0
  hcrc.Init.DefaultInitValueUse = DEFAULT_INIT_VALUE_ENABLE;
  hcrc.Init.InputDataInversionMode = CRC_INPUTDATA_INVERSION_NONE;
  hcrc.Init.OutputDataInversionMode = CRC_OUTPUTDATA_INVERSION_DISABLE;
  hcrc.InputDataFormat = CRC_INPUTDATA_FORMAT_BYTES;
  if (HAL_CRC_Init(&hcrc) != HAL_OK)
 800125e:	0020      	movs	r0, r4
  hcrc.Init.DefaultPolynomialUse = DEFAULT_POLYNOMIAL_ENABLE;
 8001260:	7123      	strb	r3, [r4, #4]
  hcrc.Init.DefaultInitValueUse = DEFAULT_INIT_VALUE_ENABLE;
 8001262:	7163      	strb	r3, [r4, #5]
  hcrc.Init.InputDataInversionMode = CRC_INPUTDATA_INVERSION_NONE;
 8001264:	6163      	str	r3, [r4, #20]
  hcrc.Init.OutputDataInversionMode = CRC_OUTPUTDATA_INVERSION_DISABLE;
 8001266:	61a3      	str	r3, [r4, #24]
  hcrc.InputDataFormat = CRC_INPUTDATA_FORMAT_BYTES;
 8001268:	3301      	adds	r3, #1
 800126a:	6223      	str	r3, [r4, #32]
  if (HAL_CRC_Init(&hcrc) != HAL_OK)
 800126c:	f002 fc9c 	bl	8003ba8 <HAL_CRC_Init>
 8001270:	2800      	cmp	r0, #0
 8001272:	d001      	beq.n	8001278 <MX_CRC_Init+0x24>
  {
    Error_Handler();
 8001274:	f001 fb7a 	bl	800296c <Error_Handler>
  }
  if (HAL_CRCEx_Init(&hcrc) != HAL_OK)
 8001278:	0020      	movs	r0, r4
 800127a:	f002 fcef 	bl	8003c5c <HAL_CRCEx_Init>
 800127e:	2800      	cmp	r0, #0
 8001280:	d001      	beq.n	8001286 <MX_CRC_Init+0x32>
  {
    Error_Handler();
 8001282:	f001 fb73 	bl	800296c <Error_Handler>
  }

}
 8001286:	bd10      	pop	{r4, pc}
 8001288:	40023000 	.word	0x40023000
 800128c:	20000428 	.word	0x20000428

08001290 <HAL_CRC_MspInit>:

void HAL_CRC_MspInit(CRC_HandleTypeDef* crcHandle)
{

  if(crcHandle->Instance==CRC)
 8001290:	4b07      	ldr	r3, [pc, #28]	; (80012b0 <HAL_CRC_MspInit+0x20>)
 8001292:	6802      	ldr	r2, [r0, #0]
{
 8001294:	b082      	sub	sp, #8
  if(crcHandle->Instance==CRC)
 8001296:	429a      	cmp	r2, r3
 8001298:	d108      	bne.n	80012ac <HAL_CRC_MspInit+0x1c>
  {
  /* USER CODE BEGIN CRC_MspInit 0 */

  /* USER CODE END CRC_MspInit 0 */
    /* CRC clock enable */
    __HAL_RCC_CRC_CLK_ENABLE();
 800129a:	2040      	movs	r0, #64	; 0x40
 800129c:	4a05      	ldr	r2, [pc, #20]	; (80012b4 <HAL_CRC_MspInit+0x24>)
 800129e:	6951      	ldr	r1, [r2, #20]
 80012a0:	4301      	orrs	r1, r0
 80012a2:	6151      	str	r1, [r2, #20]
 80012a4:	6953      	ldr	r3, [r2, #20]
 80012a6:	4003      	ands	r3, r0
 80012a8:	9301      	str	r3, [sp, #4]
 80012aa:	9b01      	ldr	r3, [sp, #4]
  /* USER CODE BEGIN CRC_MspInit 1 */

  /* USER CODE END CRC_MspInit 1 */
  }
}
 80012ac:	b002      	add	sp, #8
 80012ae:	4770      	bx	lr
 80012b0:	40023000 	.word	0x40023000
 80012b4:	40021000 	.word	0x40021000

080012b8 <StartADC>:
#endif

// ************** ADC SECTION ************** //
//uint32_t adc_cnt1=0;

void StartADC(){
 80012b8:	b510      	push	{r4, lr}
	//HAL_ADC_Start_IT(&hadc);
	//ADC->CCR |= ADC_CCR_TSEN | ADC_CCR_VREFEN;
	HAL_ADC_Start_DMA(&hadc,(uint32_t*) &ADC_Data,ADC_ChannelCnt);
 80012ba:	2203      	movs	r2, #3
 80012bc:	4902      	ldr	r1, [pc, #8]	; (80012c8 <StartADC+0x10>)
 80012be:	4803      	ldr	r0, [pc, #12]	; (80012cc <StartADC+0x14>)
 80012c0:	f002 fa26 	bl	8003710 <HAL_ADC_Start_DMA>
}
 80012c4:	bd10      	pop	{r4, pc}
 80012c6:	46c0      	nop			; (mov r8, r8)
 80012c8:	20000458 	.word	0x20000458
 80012cc:	200003dc 	.word	0x200003dc

080012d0 <ResetV_data>:

//******* ADC **********//

//******* AMPLITUDE **********//
void ResetV_data() {
	 V_1=0;
 80012d0:	2300      	movs	r3, #0
 80012d2:	4a1f      	ldr	r2, [pc, #124]	; (8001350 <ResetV_data+0x80>)
void ResetV_data() {
 80012d4:	b510      	push	{r4, lr}
	 V_1=0;
 80012d6:	6013      	str	r3, [r2, #0]
	 V_2=0;
 80012d8:	4a1e      	ldr	r2, [pc, #120]	; (8001354 <ResetV_data+0x84>)
	 V_3=0;
	 V_4=0;

	 V_Cnt[0]=1;
 80012da:	491f      	ldr	r1, [pc, #124]	; (8001358 <ResetV_data+0x88>)
	 V_2=0;
 80012dc:	6013      	str	r3, [r2, #0]
	 V_3=0;
 80012de:	4a1f      	ldr	r2, [pc, #124]	; (800135c <ResetV_data+0x8c>)
	 V_Cnt[1]=1;
	 V_Cnt[2]=1;
	 V_Cnt[3]=1;

	 V_Out_Cnt=1;
	 V_Out_RawData=0;
 80012e0:	2000      	movs	r0, #0
	 V_3=0;
 80012e2:	6013      	str	r3, [r2, #0]
	 V_4=0;
 80012e4:	4a1e      	ldr	r2, [pc, #120]	; (8001360 <ResetV_data+0x90>)
	 V_Out_RawData=0;
 80012e6:	4c1f      	ldr	r4, [pc, #124]	; (8001364 <ResetV_data+0x94>)
	 V_4=0;
 80012e8:	6013      	str	r3, [r2, #0]
	 V_Cnt[0]=1;
 80012ea:	2201      	movs	r2, #1
 80012ec:	600a      	str	r2, [r1, #0]
	 V_Cnt[1]=1;
 80012ee:	604a      	str	r2, [r1, #4]
	 V_Cnt[2]=1;
 80012f0:	608a      	str	r2, [r1, #8]
	 V_Cnt[3]=1;
 80012f2:	60ca      	str	r2, [r1, #12]
	 V_Out_Cnt=1;
 80012f4:	491c      	ldr	r1, [pc, #112]	; (8001368 <ResetV_data+0x98>)
 80012f6:	600a      	str	r2, [r1, #0]
	 V_Out_RawData=0;
 80012f8:	2100      	movs	r1, #0
 80012fa:	6020      	str	r0, [r4, #0]
 80012fc:	6061      	str	r1, [r4, #4]

	 I_Out_Cnt=1;
 80012fe:	4c1b      	ldr	r4, [pc, #108]	; (800136c <ResetV_data+0x9c>)
 8001300:	6022      	str	r2, [r4, #0]
	 I_Out_RawData=0;
 8001302:	4a1b      	ldr	r2, [pc, #108]	; (8001370 <ResetV_data+0xa0>)
 8001304:	6010      	str	r0, [r2, #0]
 8001306:	6051      	str	r1, [r2, #4]
	 V_Cnt[4]=1;
	 V_5=1500;
	#endif

	#ifdef DC_PROTECTION
	 	 DC_Data=0;
 8001308:	4a1a      	ldr	r2, [pc, #104]	; (8001374 <ResetV_data+0xa4>)
 800130a:	6013      	str	r3, [r2, #0]
	 	 DC_DataCnt=0;
 800130c:	4a1a      	ldr	r2, [pc, #104]	; (8001378 <ResetV_data+0xa8>)
 800130e:	6013      	str	r3, [r2, #0]
	#endif

	 	//reset temp buffer
	 	V_1_temp=0;
 8001310:	4a1a      	ldr	r2, [pc, #104]	; (800137c <ResetV_data+0xac>)
 8001312:	6013      	str	r3, [r2, #0]
	 	V_2_temp=0;
 8001314:	4a1a      	ldr	r2, [pc, #104]	; (8001380 <ResetV_data+0xb0>)
 8001316:	6013      	str	r3, [r2, #0]
	 	V_3_temp=0;
 8001318:	4a1a      	ldr	r2, [pc, #104]	; (8001384 <ResetV_data+0xb4>)
 800131a:	6013      	str	r3, [r2, #0]
	 	V_4_temp=0;
 800131c:	4a1a      	ldr	r2, [pc, #104]	; (8001388 <ResetV_data+0xb8>)
 800131e:	6013      	str	r3, [r2, #0]

	 	Vcnt_1_temp=0;
 8001320:	4a1a      	ldr	r2, [pc, #104]	; (800138c <ResetV_data+0xbc>)
 8001322:	6013      	str	r3, [r2, #0]
	 	Vcnt_2_temp=0;
 8001324:	4a1a      	ldr	r2, [pc, #104]	; (8001390 <ResetV_data+0xc0>)
 8001326:	6013      	str	r3, [r2, #0]
	 	Vcnt_3_temp=0;
 8001328:	4a1a      	ldr	r2, [pc, #104]	; (8001394 <ResetV_data+0xc4>)
 800132a:	6013      	str	r3, [r2, #0]
	 	Vcnt_4_temp=0;
 800132c:	4a1a      	ldr	r2, [pc, #104]	; (8001398 <ResetV_data+0xc8>)
 800132e:	6013      	str	r3, [r2, #0]

	 	I_Out_RawData_temp=0;
 8001330:	4a1a      	ldr	r2, [pc, #104]	; (800139c <ResetV_data+0xcc>)
 8001332:	6013      	str	r3, [r2, #0]
	 	V_Out_RawData_temp=0;
 8001334:	4a1a      	ldr	r2, [pc, #104]	; (80013a0 <ResetV_data+0xd0>)
 8001336:	6013      	str	r3, [r2, #0]
	 	I_Out_Cnt_temp=0;
 8001338:	4a1a      	ldr	r2, [pc, #104]	; (80013a4 <ResetV_data+0xd4>)
 800133a:	6013      	str	r3, [r2, #0]
	 	V_Out_Cnt_temp=0;
 800133c:	4a1a      	ldr	r2, [pc, #104]	; (80013a8 <ResetV_data+0xd8>)
 800133e:	6013      	str	r3, [r2, #0]

	 	#ifdef DC_PROTECTION
	 		DC_Data_temp=0;
 8001340:	4a1a      	ldr	r2, [pc, #104]	; (80013ac <ResetV_data+0xdc>)
 8001342:	6013      	str	r3, [r2, #0]
	 		DC_DataCnt_temp=0;
 8001344:	4a1a      	ldr	r2, [pc, #104]	; (80013b0 <ResetV_data+0xe0>)
 8001346:	6013      	str	r3, [r2, #0]
	 	#ifdef USE_VREF
	 		V_5_temp=0;
	 		Vcnt_5_temp=0;
	     #endif

	 	TempBuffer_Flag=0;
 8001348:	4a1a      	ldr	r2, [pc, #104]	; (80013b4 <ResetV_data+0xe4>)
 800134a:	8013      	strh	r3, [r2, #0]
}
 800134c:	bd10      	pop	{r4, pc}
 800134e:	46c0      	nop			; (mov r8, r8)
 8001350:	20000028 	.word	0x20000028
 8001354:	2000002c 	.word	0x2000002c
 8001358:	20000038 	.word	0x20000038
 800135c:	20000030 	.word	0x20000030
 8001360:	20000034 	.word	0x20000034
 8001364:	20000320 	.word	0x20000320
 8001368:	20000048 	.word	0x20000048
 800136c:	20000000 	.word	0x20000000
 8001370:	20000308 	.word	0x20000308
 8001374:	200002e0 	.word	0x200002e0
 8001378:	200002e8 	.word	0x200002e8
 800137c:	20000364 	.word	0x20000364
 8001380:	20000368 	.word	0x20000368
 8001384:	2000036c 	.word	0x2000036c
 8001388:	20000370 	.word	0x20000370
 800138c:	2000037c 	.word	0x2000037c
 8001390:	20000380 	.word	0x20000380
 8001394:	20000384 	.word	0x20000384
 8001398:	20000388 	.word	0x20000388
 800139c:	20000358 	.word	0x20000358
 80013a0:	20000378 	.word	0x20000378
 80013a4:	20000354 	.word	0x20000354
 80013a8:	20000374 	.word	0x20000374
 80013ac:	20000338 	.word	0x20000338
 80013b0:	20000334 	.word	0x20000334
 80013b4:	200002cc 	.word	0x200002cc

080013b8 <CalcNewAmp>:
	}
	return Value;
	//
}

float CalcNewAmp(uint32_t V_curr, uint32_t V_etalon) {
 80013b8:	b510      	push	{r4, lr}
	float fRes=1;
	if (V_curr>V_etalon) {
 80013ba:	4288      	cmp	r0, r1
 80013bc:	d924      	bls.n	8001408 <CalcNewAmp+0x50>
		fRes=fRes+(float)((V_curr-V_etalon)*Amp_CoefPlus);
 80013be:	1a40      	subs	r0, r0, r1
 80013c0:	f7ff fe44 	bl	800104c <__aeabi_ui2f>
 80013c4:	4914      	ldr	r1, [pc, #80]	; (8001418 <CalcNewAmp+0x60>)
 80013c6:	f7ff fb15 	bl	80009f4 <__aeabi_fmul>
 80013ca:	21fe      	movs	r1, #254	; 0xfe
 80013cc:	0589      	lsls	r1, r1, #22
 80013ce:	f7fe ff8f 	bl	80002f0 <__aeabi_fadd>
	}
	if (V_curr<V_etalon) {
		fRes=fRes-(float)((V_etalon-V_curr)*Amp_CoefMinus);
	}

	if (fRes>Amp_max) {
 80013d2:	4912      	ldr	r1, [pc, #72]	; (800141c <CalcNewAmp+0x64>)
		fRes=fRes-(float)((V_etalon-V_curr)*Amp_CoefMinus);
 80013d4:	1c04      	adds	r4, r0, #0
	if (fRes>Amp_max) {
 80013d6:	f7fe ff5f 	bl	8000298 <__aeabi_fcmpgt>
 80013da:	2800      	cmp	r0, #0
 80013dc:	d119      	bne.n	8001412 <CalcNewAmp+0x5a>
		fRes=Amp_max;
	}
	if (fRes<Amp_min) {
 80013de:	4910      	ldr	r1, [pc, #64]	; (8001420 <CalcNewAmp+0x68>)
 80013e0:	1c20      	adds	r0, r4, #0
 80013e2:	f7fe ff45 	bl	8000270 <__aeabi_fcmplt>
 80013e6:	2800      	cmp	r0, #0
 80013e8:	d000      	beq.n	80013ec <CalcNewAmp+0x34>
		fRes=Amp_min;
 80013ea:	4c0d      	ldr	r4, [pc, #52]	; (8001420 <CalcNewAmp+0x68>)
	}

	return fRes;
}
 80013ec:	1c20      	adds	r0, r4, #0
 80013ee:	bd10      	pop	{r4, pc}
		fRes=fRes-(float)((V_etalon-V_curr)*Amp_CoefMinus);
 80013f0:	1a08      	subs	r0, r1, r0
 80013f2:	f7ff fe2b 	bl	800104c <__aeabi_ui2f>
 80013f6:	4908      	ldr	r1, [pc, #32]	; (8001418 <CalcNewAmp+0x60>)
 80013f8:	f7ff fafc 	bl	80009f4 <__aeabi_fmul>
 80013fc:	1c01      	adds	r1, r0, #0
 80013fe:	20fe      	movs	r0, #254	; 0xfe
 8001400:	0580      	lsls	r0, r0, #22
 8001402:	f7ff fc17 	bl	8000c34 <__aeabi_fsub>
 8001406:	e7e4      	b.n	80013d2 <CalcNewAmp+0x1a>
	if (V_curr<V_etalon) {
 8001408:	4288      	cmp	r0, r1
 800140a:	d3f1      	bcc.n	80013f0 <CalcNewAmp+0x38>
	float fRes=1;
 800140c:	24fe      	movs	r4, #254	; 0xfe
 800140e:	05a4      	lsls	r4, r4, #22
 8001410:	e7ec      	b.n	80013ec <CalcNewAmp+0x34>
		fRes=Amp_max;
 8001412:	4c02      	ldr	r4, [pc, #8]	; (800141c <CalcNewAmp+0x64>)
 8001414:	e7ea      	b.n	80013ec <CalcNewAmp+0x34>
 8001416:	46c0      	nop			; (mov r8, r8)
 8001418:	3999999a 	.word	0x3999999a
 800141c:	3fcccccd 	.word	0x3fcccccd
 8001420:	3ecccccd 	.word	0x3ecccccd

08001424 <CalcNewAmpByStep>:

#ifdef AMP_CORRECTION_TYPE_STEP
float CalcNewAmpByStep(float CurrAmp, float TargetAmp) {
 8001424:	b570      	push	{r4, r5, r6, lr}
 8001426:	1c05      	adds	r5, r0, #0
 8001428:	1c0c      	adds	r4, r1, #0
	float fRes=CurrAmp;
	if (TargetAmp>CurrAmp) {
 800142a:	f7fe ff21 	bl	8000270 <__aeabi_fcmplt>
 800142e:	2800      	cmp	r0, #0
 8001430:	d00d      	beq.n	800144e <CalcNewAmpByStep+0x2a>
		fRes=fRes+amp_correction_step;
 8001432:	490f      	ldr	r1, [pc, #60]	; (8001470 <CalcNewAmpByStep+0x4c>)
 8001434:	1c28      	adds	r0, r5, #0
 8001436:	f7fe ff5b 	bl	80002f0 <__aeabi_fadd>
 800143a:	1c05      	adds	r5, r0, #0
		if (fRes>=TargetAmp) {
 800143c:	1c01      	adds	r1, r0, #0
 800143e:	1c20      	adds	r0, r4, #0
 8001440:	f7fe ff20 	bl	8000284 <__aeabi_fcmple>
		}
		return fRes;
	}
	if (TargetAmp<CurrAmp) {
		fRes=fRes-amp_correction_step;
		if (fRes<=TargetAmp) {
 8001444:	2800      	cmp	r0, #0
 8001446:	d100      	bne.n	800144a <CalcNewAmpByStep+0x26>
			fRes=TargetAmp;
		}
		return fRes;
	}
	return fRes;
 8001448:	1c2c      	adds	r4, r5, #0
}
 800144a:	1c20      	adds	r0, r4, #0
 800144c:	bd70      	pop	{r4, r5, r6, pc}
	if (TargetAmp<CurrAmp) {
 800144e:	1c21      	adds	r1, r4, #0
 8001450:	1c28      	adds	r0, r5, #0
 8001452:	f7fe ff21 	bl	8000298 <__aeabi_fcmpgt>
 8001456:	2800      	cmp	r0, #0
 8001458:	d0f6      	beq.n	8001448 <CalcNewAmpByStep+0x24>
		fRes=fRes-amp_correction_step;
 800145a:	4905      	ldr	r1, [pc, #20]	; (8001470 <CalcNewAmpByStep+0x4c>)
 800145c:	1c28      	adds	r0, r5, #0
 800145e:	f7ff fbe9 	bl	8000c34 <__aeabi_fsub>
 8001462:	1c05      	adds	r5, r0, #0
		if (fRes<=TargetAmp) {
 8001464:	1c01      	adds	r1, r0, #0
 8001466:	1c20      	adds	r0, r4, #0
 8001468:	f7fe ff20 	bl	80002ac <__aeabi_fcmpge>
 800146c:	e7ea      	b.n	8001444 <CalcNewAmpByStep+0x20>
 800146e:	46c0      	nop			; (mov r8, r8)
 8001470:	3bc49ba6 	.word	0x3bc49ba6

08001474 <asqrt>:
  op = x;
  res = 0;

  /* "one" starts at the highest power of four <= than the argument. */

  one = 1 << 30;	/* second-to-top bit set */
 8001474:	2380      	movs	r3, #128	; 0x80
uint16_t asqrt(uint32_t x) {
 8001476:	b510      	push	{r4, lr}
  one = 1 << 30;	/* second-to-top bit set */
 8001478:	05db      	lsls	r3, r3, #23
  while (one > op) one >>= 2;
 800147a:	4283      	cmp	r3, r0
 800147c:	dc05      	bgt.n	800148a <asqrt+0x16>
 800147e:	2200      	movs	r2, #0
    if (op >= res + one) {
      op = op - (res + one);
      res = res +  2 * one;
    }
    res /= 2;
    one /= 4;
 8001480:	2403      	movs	r4, #3
  while (one != 0) {
 8001482:	2b00      	cmp	r3, #0
 8001484:	d103      	bne.n	800148e <asqrt+0x1a>
  }
  return (uint16_t) (res);
 8001486:	b290      	uxth	r0, r2
}
 8001488:	bd10      	pop	{r4, pc}
  while (one > op) one >>= 2;
 800148a:	109b      	asrs	r3, r3, #2
 800148c:	e7f5      	b.n	800147a <asqrt+0x6>
    if (op >= res + one) {
 800148e:	18d1      	adds	r1, r2, r3
 8001490:	4288      	cmp	r0, r1
 8001492:	db01      	blt.n	8001498 <asqrt+0x24>
      op = op - (res + one);
 8001494:	1a40      	subs	r0, r0, r1
      res = res +  2 * one;
 8001496:	185a      	adds	r2, r3, r1
    res /= 2;
 8001498:	0fd1      	lsrs	r1, r2, #31
 800149a:	188a      	adds	r2, r1, r2
    one /= 4;
 800149c:	17d9      	asrs	r1, r3, #31
 800149e:	4021      	ands	r1, r4
 80014a0:	18cb      	adds	r3, r1, r3
    res /= 2;
 80014a2:	1052      	asrs	r2, r2, #1
    one /= 4;
 80014a4:	109b      	asrs	r3, r3, #2
 80014a6:	e7ec      	b.n	8001482 <asqrt+0xe>

080014a8 <CalcAc_I_ByWave>:
void CalcAc_I_ByWave() {
	// calc AC data for one wave form'
	#ifdef Detect_ZeroI_Point
		ZeroI_point=ADC_Data[1]; // Store last value of V_out via zero point
	#endif
	I_Out = (uint32_t) (I_Out_RawData_temp / I_Out_Cnt_temp);
 80014a8:	4b0c      	ldr	r3, [pc, #48]	; (80014dc <CalcAc_I_ByWave+0x34>)
void CalcAc_I_ByWave() {
 80014aa:	b570      	push	{r4, r5, r6, lr}
	I_Out = (uint32_t) (I_Out_RawData_temp / I_Out_Cnt_temp);
 80014ac:	6818      	ldr	r0, [r3, #0]
 80014ae:	4b0c      	ldr	r3, [pc, #48]	; (80014e0 <CalcAc_I_ByWave+0x38>)
 80014b0:	6819      	ldr	r1, [r3, #0]
 80014b2:	f7fe fe33 	bl	800011c <__udivsi3>
 80014b6:	4c0b      	ldr	r4, [pc, #44]	; (80014e4 <CalcAc_I_ByWave+0x3c>)
 80014b8:	6020      	str	r0, [r4, #0]
	I_Out = asqrt(I_Out);
 80014ba:	6820      	ldr	r0, [r4, #0]
 80014bc:	f7ff ffda 	bl	8001474 <asqrt>
	I_Out = (uint32_t) (I_RATIO * I_Out);
 80014c0:	4b09      	ldr	r3, [pc, #36]	; (80014e8 <CalcAc_I_ByWave+0x40>)
	I_Out = asqrt(I_Out);
 80014c2:	6020      	str	r0, [r4, #0]
	I_Out = (uint32_t) (I_RATIO * I_Out);
 80014c4:	6820      	ldr	r0, [r4, #0]
 80014c6:	681d      	ldr	r5, [r3, #0]
 80014c8:	f7ff fdc0 	bl	800104c <__aeabi_ui2f>
 80014cc:	1c29      	adds	r1, r5, #0
 80014ce:	f7ff fa91 	bl	80009f4 <__aeabi_fmul>
 80014d2:	f7fe fef5 	bl	80002c0 <__aeabi_f2uiz>
 80014d6:	6020      	str	r0, [r4, #0]
}
 80014d8:	bd70      	pop	{r4, r5, r6, pc}
 80014da:	46c0      	nop			; (mov r8, r8)
 80014dc:	20000358 	.word	0x20000358
 80014e0:	20000354 	.word	0x20000354
 80014e4:	20000300 	.word	0x20000300
 80014e8:	20000004 	.word	0x20000004

080014ec <CalcAc_V_ByWave>:
void CalcAc_V_ByWave() {
	// calc AC data for one wave form'
	#ifdef Detect_ZeroV_Point
		ZeroV_point=ADC_Data[0]; // Store last value of V_out via zero point
	#endif
	V_Out = (uint32_t) (V_Out_RawData_temp / V_Out_Cnt_temp);
 80014ec:	4b0c      	ldr	r3, [pc, #48]	; (8001520 <CalcAc_V_ByWave+0x34>)
void CalcAc_V_ByWave() {
 80014ee:	b570      	push	{r4, r5, r6, lr}
	V_Out = (uint32_t) (V_Out_RawData_temp / V_Out_Cnt_temp);
 80014f0:	6818      	ldr	r0, [r3, #0]
 80014f2:	4b0c      	ldr	r3, [pc, #48]	; (8001524 <CalcAc_V_ByWave+0x38>)
 80014f4:	6819      	ldr	r1, [r3, #0]
 80014f6:	f7fe fe11 	bl	800011c <__udivsi3>
 80014fa:	4c0b      	ldr	r4, [pc, #44]	; (8001528 <CalcAc_V_ByWave+0x3c>)
 80014fc:	6020      	str	r0, [r4, #0]
	V_Out = asqrt(V_Out);
 80014fe:	6820      	ldr	r0, [r4, #0]
 8001500:	f7ff ffb8 	bl	8001474 <asqrt>
	V_Out = (uint32_t) (V_RATIO * V_Out);
 8001504:	4b09      	ldr	r3, [pc, #36]	; (800152c <CalcAc_V_ByWave+0x40>)
	V_Out = asqrt(V_Out);
 8001506:	6020      	str	r0, [r4, #0]
	V_Out = (uint32_t) (V_RATIO * V_Out);
 8001508:	6820      	ldr	r0, [r4, #0]
 800150a:	681d      	ldr	r5, [r3, #0]
 800150c:	f7ff fd9e 	bl	800104c <__aeabi_ui2f>
 8001510:	1c29      	adds	r1, r5, #0
 8001512:	f7ff fa6f 	bl	80009f4 <__aeabi_fmul>
 8001516:	f7fe fed3 	bl	80002c0 <__aeabi_f2uiz>
 800151a:	6020      	str	r0, [r4, #0]
}
 800151c:	bd70      	pop	{r4, r5, r6, pc}
 800151e:	46c0      	nop			; (mov r8, r8)
 8001520:	20000378 	.word	0x20000378
 8001524:	20000374 	.word	0x20000374
 8001528:	2000031c 	.word	0x2000031c
 800152c:	2000004c 	.word	0x2000004c

08001530 <CalcDC_Average>:

void CalcDC_Average() {
	#ifdef DC_PROTECTION
		 DC_DataAverage=(DC_Data_temp/DC_DataCnt_temp);
 8001530:	4b04      	ldr	r3, [pc, #16]	; (8001544 <CalcDC_Average+0x14>)
void CalcDC_Average() {
 8001532:	b510      	push	{r4, lr}
		 DC_DataAverage=(DC_Data_temp/DC_DataCnt_temp);
 8001534:	6818      	ldr	r0, [r3, #0]
 8001536:	4b04      	ldr	r3, [pc, #16]	; (8001548 <CalcDC_Average+0x18>)
 8001538:	6819      	ldr	r1, [r3, #0]
 800153a:	f7fe fdef 	bl	800011c <__udivsi3>
 800153e:	4b03      	ldr	r3, [pc, #12]	; (800154c <CalcDC_Average+0x1c>)
 8001540:	6018      	str	r0, [r3, #0]
	#endif
}
 8001542:	bd10      	pop	{r4, pc}
 8001544:	20000338 	.word	0x20000338
 8001548:	20000334 	.word	0x20000334
 800154c:	200002e4 	.word	0x200002e4

08001550 <ReadTempValue>:

void ReadTempValue() {
		if (TempBuffer_Flag==1) {
 8001550:	4b1e      	ldr	r3, [pc, #120]	; (80015cc <ReadTempValue+0x7c>)
 8001552:	881a      	ldrh	r2, [r3, #0]
 8001554:	2a01      	cmp	r2, #1
 8001556:	d038      	beq.n	80015ca <ReadTempValue+0x7a>
			return;
		}
		TempBuffer_Flag=1;
 8001558:	2201      	movs	r2, #1
 800155a:	801a      	strh	r2, [r3, #0]
		V_1_temp=V_1;
 800155c:	4b1c      	ldr	r3, [pc, #112]	; (80015d0 <ReadTempValue+0x80>)
 800155e:	681a      	ldr	r2, [r3, #0]
 8001560:	4b1c      	ldr	r3, [pc, #112]	; (80015d4 <ReadTempValue+0x84>)
 8001562:	601a      	str	r2, [r3, #0]
		V_2_temp=V_2;
 8001564:	4b1c      	ldr	r3, [pc, #112]	; (80015d8 <ReadTempValue+0x88>)
 8001566:	681a      	ldr	r2, [r3, #0]
 8001568:	4b1c      	ldr	r3, [pc, #112]	; (80015dc <ReadTempValue+0x8c>)
 800156a:	601a      	str	r2, [r3, #0]
		V_3_temp=V_3;
 800156c:	4b1c      	ldr	r3, [pc, #112]	; (80015e0 <ReadTempValue+0x90>)
 800156e:	681a      	ldr	r2, [r3, #0]
 8001570:	4b1c      	ldr	r3, [pc, #112]	; (80015e4 <ReadTempValue+0x94>)
 8001572:	601a      	str	r2, [r3, #0]
		V_4_temp=V_4;
 8001574:	4b1c      	ldr	r3, [pc, #112]	; (80015e8 <ReadTempValue+0x98>)
 8001576:	681a      	ldr	r2, [r3, #0]
 8001578:	4b1c      	ldr	r3, [pc, #112]	; (80015ec <ReadTempValue+0x9c>)
 800157a:	601a      	str	r2, [r3, #0]

		Vcnt_1_temp=V_Cnt[0];
 800157c:	4b1c      	ldr	r3, [pc, #112]	; (80015f0 <ReadTempValue+0xa0>)
 800157e:	4a1d      	ldr	r2, [pc, #116]	; (80015f4 <ReadTempValue+0xa4>)
 8001580:	6819      	ldr	r1, [r3, #0]
 8001582:	6011      	str	r1, [r2, #0]
		Vcnt_2_temp=V_Cnt[1];
 8001584:	6859      	ldr	r1, [r3, #4]
 8001586:	4a1c      	ldr	r2, [pc, #112]	; (80015f8 <ReadTempValue+0xa8>)
 8001588:	6011      	str	r1, [r2, #0]
		Vcnt_3_temp=V_Cnt[2];
 800158a:	6899      	ldr	r1, [r3, #8]
 800158c:	4a1b      	ldr	r2, [pc, #108]	; (80015fc <ReadTempValue+0xac>)
 800158e:	6011      	str	r1, [r2, #0]
		Vcnt_4_temp=V_Cnt[3];
 8001590:	68da      	ldr	r2, [r3, #12]
 8001592:	4b1b      	ldr	r3, [pc, #108]	; (8001600 <ReadTempValue+0xb0>)
 8001594:	601a      	str	r2, [r3, #0]

		I_Out_RawData_temp=I_Out_RawData;
 8001596:	4b1b      	ldr	r3, [pc, #108]	; (8001604 <ReadTempValue+0xb4>)
 8001598:	681a      	ldr	r2, [r3, #0]
 800159a:	685b      	ldr	r3, [r3, #4]
 800159c:	4b1a      	ldr	r3, [pc, #104]	; (8001608 <ReadTempValue+0xb8>)
 800159e:	601a      	str	r2, [r3, #0]
		V_Out_RawData_temp=V_Out_RawData;
 80015a0:	4b1a      	ldr	r3, [pc, #104]	; (800160c <ReadTempValue+0xbc>)
 80015a2:	681a      	ldr	r2, [r3, #0]
 80015a4:	685b      	ldr	r3, [r3, #4]
 80015a6:	4b1a      	ldr	r3, [pc, #104]	; (8001610 <ReadTempValue+0xc0>)
 80015a8:	601a      	str	r2, [r3, #0]
		I_Out_Cnt_temp=I_Out_Cnt;
 80015aa:	4b1a      	ldr	r3, [pc, #104]	; (8001614 <ReadTempValue+0xc4>)
 80015ac:	681a      	ldr	r2, [r3, #0]
 80015ae:	4b1a      	ldr	r3, [pc, #104]	; (8001618 <ReadTempValue+0xc8>)
 80015b0:	601a      	str	r2, [r3, #0]
		V_Out_Cnt_temp=V_Out_Cnt;
 80015b2:	4b1a      	ldr	r3, [pc, #104]	; (800161c <ReadTempValue+0xcc>)
 80015b4:	681a      	ldr	r2, [r3, #0]
 80015b6:	4b1a      	ldr	r3, [pc, #104]	; (8001620 <ReadTempValue+0xd0>)
 80015b8:	601a      	str	r2, [r3, #0]

		#ifdef DC_PROTECTION
			DC_Data_temp=DC_Data;
 80015ba:	4b1a      	ldr	r3, [pc, #104]	; (8001624 <ReadTempValue+0xd4>)
 80015bc:	681a      	ldr	r2, [r3, #0]
 80015be:	4b1a      	ldr	r3, [pc, #104]	; (8001628 <ReadTempValue+0xd8>)
 80015c0:	601a      	str	r2, [r3, #0]
			DC_DataCnt_temp=DC_DataCnt;
 80015c2:	4b1a      	ldr	r3, [pc, #104]	; (800162c <ReadTempValue+0xdc>)
 80015c4:	681a      	ldr	r2, [r3, #0]
 80015c6:	4b1a      	ldr	r3, [pc, #104]	; (8001630 <ReadTempValue+0xe0>)
 80015c8:	601a      	str	r2, [r3, #0]

		#ifdef USE_VREF
			V_5_temp=V_5;
			Vcnt_5_temp=V_Cnt[4];
	    #endif
}
 80015ca:	4770      	bx	lr
 80015cc:	200002cc 	.word	0x200002cc
 80015d0:	20000028 	.word	0x20000028
 80015d4:	20000364 	.word	0x20000364
 80015d8:	2000002c 	.word	0x2000002c
 80015dc:	20000368 	.word	0x20000368
 80015e0:	20000030 	.word	0x20000030
 80015e4:	2000036c 	.word	0x2000036c
 80015e8:	20000034 	.word	0x20000034
 80015ec:	20000370 	.word	0x20000370
 80015f0:	20000038 	.word	0x20000038
 80015f4:	2000037c 	.word	0x2000037c
 80015f8:	20000380 	.word	0x20000380
 80015fc:	20000384 	.word	0x20000384
 8001600:	20000388 	.word	0x20000388
 8001604:	20000308 	.word	0x20000308
 8001608:	20000358 	.word	0x20000358
 800160c:	20000320 	.word	0x20000320
 8001610:	20000378 	.word	0x20000378
 8001614:	20000000 	.word	0x20000000
 8001618:	20000354 	.word	0x20000354
 800161c:	20000048 	.word	0x20000048
 8001620:	20000374 	.word	0x20000374
 8001624:	200002e0 	.word	0x200002e0
 8001628:	20000338 	.word	0x20000338
 800162c:	200002e8 	.word	0x200002e8
 8001630:	20000334 	.word	0x20000334

08001634 <UpdateAmplitudeByV>:

void UpdateAmplitudeByV() {
 8001634:	b5f8      	push	{r3, r4, r5, r6, r7, lr}
	//store value in temp
	if (TempBuffer_Flag==0) {
 8001636:	4b6c      	ldr	r3, [pc, #432]	; (80017e8 <UpdateAmplitudeByV+0x1b4>)
 8001638:	881b      	ldrh	r3, [r3, #0]
 800163a:	2b00      	cmp	r3, #0
 800163c:	d101      	bne.n	8001642 <UpdateAmplitudeByV+0xe>
		ReadTempValue();
 800163e:	f7ff ff87 	bl	8001550 <ReadTempValue>
	}
	//

	CalcAc_V_ByWave();
 8001642:	f7ff ff53 	bl	80014ec <CalcAc_V_ByWave>
	CalcAc_I_ByWave();
 8001646:	f7ff ff2f 	bl	80014a8 <CalcAc_I_ByWave>
	CalcDC_Average();
 800164a:	f7ff ff71 	bl	8001530 <CalcDC_Average>

	#ifndef USE_VREF_FOR_ADC_CORRECTION
		V_1_temp=(uint32_t) (V_1_temp/Vcnt_1_temp);
 800164e:	4c67      	ldr	r4, [pc, #412]	; (80017ec <UpdateAmplitudeByV+0x1b8>)
 8001650:	4b67      	ldr	r3, [pc, #412]	; (80017f0 <UpdateAmplitudeByV+0x1bc>)
 8001652:	6820      	ldr	r0, [r4, #0]
 8001654:	6819      	ldr	r1, [r3, #0]
 8001656:	f7fe fd61 	bl	800011c <__udivsi3>
		V_2_temp=(uint32_t) (V_2_temp/Vcnt_2_temp);
 800165a:	4d66      	ldr	r5, [pc, #408]	; (80017f4 <UpdateAmplitudeByV+0x1c0>)
 800165c:	4b66      	ldr	r3, [pc, #408]	; (80017f8 <UpdateAmplitudeByV+0x1c4>)
		V_1_temp=(uint32_t) (V_1_temp/Vcnt_1_temp);
 800165e:	6020      	str	r0, [r4, #0]
		V_2_temp=(uint32_t) (V_2_temp/Vcnt_2_temp);
 8001660:	6828      	ldr	r0, [r5, #0]
 8001662:	6819      	ldr	r1, [r3, #0]
 8001664:	f7fe fd5a 	bl	800011c <__udivsi3>
		V_3_temp=(uint32_t) (V_3_temp/Vcnt_3_temp);
 8001668:	4e64      	ldr	r6, [pc, #400]	; (80017fc <UpdateAmplitudeByV+0x1c8>)
 800166a:	4b65      	ldr	r3, [pc, #404]	; (8001800 <UpdateAmplitudeByV+0x1cc>)
		V_2_temp=(uint32_t) (V_2_temp/Vcnt_2_temp);
 800166c:	6028      	str	r0, [r5, #0]
		V_3_temp=(uint32_t) (V_3_temp/Vcnt_3_temp);
 800166e:	6830      	ldr	r0, [r6, #0]
 8001670:	6819      	ldr	r1, [r3, #0]
 8001672:	f7fe fd53 	bl	800011c <__udivsi3>
		V_4_temp=(uint32_t) (V_4_temp/Vcnt_4_temp);
 8001676:	4f63      	ldr	r7, [pc, #396]	; (8001804 <UpdateAmplitudeByV+0x1d0>)
 8001678:	4b63      	ldr	r3, [pc, #396]	; (8001808 <UpdateAmplitudeByV+0x1d4>)
		V_3_temp=(uint32_t) (V_3_temp/Vcnt_3_temp);
 800167a:	6030      	str	r0, [r6, #0]
		V_4_temp=(uint32_t) (V_4_temp/Vcnt_4_temp);
 800167c:	6838      	ldr	r0, [r7, #0]
 800167e:	6819      	ldr	r1, [r3, #0]
 8001680:	f7fe fd4c 	bl	800011c <__udivsi3>
		Sine_Amplitude_3=CalcNewAmp(V_3_temp,V3_etalon);
		Sine_Amplitude_4=CalcNewAmp(V_4_temp,V4_etalon);
	#endif

	#ifdef AMP_CORRECTION_TYPE_STEP
		amp1_target=CalcNewAmp(V_1_temp,V1_etalon);
 8001684:	2180      	movs	r1, #128	; 0x80
		V_4_temp=(uint32_t) (V_4_temp/Vcnt_4_temp);
 8001686:	6038      	str	r0, [r7, #0]
		amp1_target=CalcNewAmp(V_1_temp,V1_etalon);
 8001688:	6820      	ldr	r0, [r4, #0]
 800168a:	0109      	lsls	r1, r1, #4
 800168c:	f7ff fe94 	bl	80013b8 <CalcNewAmp>
 8001690:	4b5e      	ldr	r3, [pc, #376]	; (800180c <UpdateAmplitudeByV+0x1d8>)
		Sine_Amplitude_1=CalcNewAmpByStep(Sine_Amplitude_1,amp1_target);
 8001692:	4c5f      	ldr	r4, [pc, #380]	; (8001810 <UpdateAmplitudeByV+0x1dc>)
		amp1_target=CalcNewAmp(V_1_temp,V1_etalon);
 8001694:	6018      	str	r0, [r3, #0]
 8001696:	1c01      	adds	r1, r0, #0
		Sine_Amplitude_1=CalcNewAmpByStep(Sine_Amplitude_1,amp1_target);
 8001698:	6820      	ldr	r0, [r4, #0]
 800169a:	f7ff fec3 	bl	8001424 <CalcNewAmpByStep>

		amp2_target=CalcNewAmp(V_2_temp,V2_etalon);
 800169e:	2180      	movs	r1, #128	; 0x80
		Sine_Amplitude_1=CalcNewAmpByStep(Sine_Amplitude_1,amp1_target);
 80016a0:	6020      	str	r0, [r4, #0]
		amp2_target=CalcNewAmp(V_2_temp,V2_etalon);
 80016a2:	6828      	ldr	r0, [r5, #0]
 80016a4:	0109      	lsls	r1, r1, #4
 80016a6:	f7ff fe87 	bl	80013b8 <CalcNewAmp>
		Sine_Amplitude_2=CalcNewAmpByStep(Sine_Amplitude_2,amp2_target);
 80016aa:	4d5a      	ldr	r5, [pc, #360]	; (8001814 <UpdateAmplitudeByV+0x1e0>)
		amp2_target=CalcNewAmp(V_2_temp,V2_etalon);
 80016ac:	4b5a      	ldr	r3, [pc, #360]	; (8001818 <UpdateAmplitudeByV+0x1e4>)
 80016ae:	1c01      	adds	r1, r0, #0
 80016b0:	6018      	str	r0, [r3, #0]
		Sine_Amplitude_2=CalcNewAmpByStep(Sine_Amplitude_2,amp2_target);
 80016b2:	6828      	ldr	r0, [r5, #0]
 80016b4:	f7ff feb6 	bl	8001424 <CalcNewAmpByStep>

		amp3_target=CalcNewAmp(V_3_temp,V3_etalon);
 80016b8:	2180      	movs	r1, #128	; 0x80
		Sine_Amplitude_2=CalcNewAmpByStep(Sine_Amplitude_2,amp2_target);
 80016ba:	6028      	str	r0, [r5, #0]
		amp3_target=CalcNewAmp(V_3_temp,V3_etalon);
 80016bc:	6830      	ldr	r0, [r6, #0]
 80016be:	0109      	lsls	r1, r1, #4
 80016c0:	f7ff fe7a 	bl	80013b8 <CalcNewAmp>
 80016c4:	4b55      	ldr	r3, [pc, #340]	; (800181c <UpdateAmplitudeByV+0x1e8>)
		Sine_Amplitude_3=CalcNewAmpByStep(Sine_Amplitude_3,amp3_target);
 80016c6:	4e56      	ldr	r6, [pc, #344]	; (8001820 <UpdateAmplitudeByV+0x1ec>)
		amp3_target=CalcNewAmp(V_3_temp,V3_etalon);
 80016c8:	6018      	str	r0, [r3, #0]
 80016ca:	1c01      	adds	r1, r0, #0
		Sine_Amplitude_3=CalcNewAmpByStep(Sine_Amplitude_3,amp3_target);
 80016cc:	6830      	ldr	r0, [r6, #0]
 80016ce:	f7ff fea9 	bl	8001424 <CalcNewAmpByStep>

		amp4_target=CalcNewAmp(V_4_temp,V4_etalon);
 80016d2:	2180      	movs	r1, #128	; 0x80
		Sine_Amplitude_3=CalcNewAmpByStep(Sine_Amplitude_3,amp3_target);
 80016d4:	6030      	str	r0, [r6, #0]
		amp4_target=CalcNewAmp(V_4_temp,V4_etalon);
 80016d6:	6838      	ldr	r0, [r7, #0]
 80016d8:	0109      	lsls	r1, r1, #4
 80016da:	f7ff fe6d 	bl	80013b8 <CalcNewAmp>
 80016de:	4b51      	ldr	r3, [pc, #324]	; (8001824 <UpdateAmplitudeByV+0x1f0>)
		Sine_Amplitude_4=CalcNewAmpByStep(Sine_Amplitude_4,amp4_target);
 80016e0:	4f51      	ldr	r7, [pc, #324]	; (8001828 <UpdateAmplitudeByV+0x1f4>)
		amp4_target=CalcNewAmp(V_4_temp,V4_etalon);
 80016e2:	1c01      	adds	r1, r0, #0
 80016e4:	6018      	str	r0, [r3, #0]
		Sine_Amplitude_4=CalcNewAmpByStep(Sine_Amplitude_4,amp4_target);
 80016e6:	6838      	ldr	r0, [r7, #0]
 80016e8:	f7ff fe9c 	bl	8001424 <CalcNewAmpByStep>
 80016ec:	6038      	str	r0, [r7, #0]
	#endif

	#ifdef AMP_PROTECTION
		uint16_t AverageAmplitude=(uint16_t) (100*(float)(Sine_Amplitude_4+Sine_Amplitude_3+Sine_Amplitude_2+Sine_Amplitude_1));
 80016ee:	6838      	ldr	r0, [r7, #0]
 80016f0:	6831      	ldr	r1, [r6, #0]
 80016f2:	682e      	ldr	r6, [r5, #0]
 80016f4:	6825      	ldr	r5, [r4, #0]
		if ((AMP_BLOCKED==0) && ((AverageAmplitude>=AMP_PROTECTION_MAX) || (AverageAmplitude<=AMP_PROTECTION_MIN))) {
 80016f6:	4c4d      	ldr	r4, [pc, #308]	; (800182c <UpdateAmplitudeByV+0x1f8>)
 80016f8:	6823      	ldr	r3, [r4, #0]
 80016fa:	2b00      	cmp	r3, #0
 80016fc:	d11c      	bne.n	8001738 <UpdateAmplitudeByV+0x104>
		uint16_t AverageAmplitude=(uint16_t) (100*(float)(Sine_Amplitude_4+Sine_Amplitude_3+Sine_Amplitude_2+Sine_Amplitude_1));
 80016fe:	f7fe fdf7 	bl	80002f0 <__aeabi_fadd>
 8001702:	1c31      	adds	r1, r6, #0
 8001704:	f7fe fdf4 	bl	80002f0 <__aeabi_fadd>
 8001708:	1c29      	adds	r1, r5, #0
 800170a:	f7fe fdf1 	bl	80002f0 <__aeabi_fadd>
 800170e:	4948      	ldr	r1, [pc, #288]	; (8001830 <UpdateAmplitudeByV+0x1fc>)
 8001710:	f7ff f970 	bl	80009f4 <__aeabi_fmul>
 8001714:	f7fe fdd4 	bl	80002c0 <__aeabi_f2uiz>
		if ((AMP_BLOCKED==0) && ((AverageAmplitude>=AMP_PROTECTION_MAX) || (AverageAmplitude<=AMP_PROTECTION_MIN))) {
 8001718:	23c7      	movs	r3, #199	; 0xc7
 800171a:	38c9      	subs	r0, #201	; 0xc9
 800171c:	b280      	uxth	r0, r0
 800171e:	005b      	lsls	r3, r3, #1
 8001720:	4298      	cmp	r0, r3
 8001722:	d909      	bls.n	8001738 <UpdateAmplitudeByV+0x104>
			AMP_PROTECTION_CNT++;
 8001724:	4a43      	ldr	r2, [pc, #268]	; (8001834 <UpdateAmplitudeByV+0x200>)
 8001726:	6813      	ldr	r3, [r2, #0]
 8001728:	3301      	adds	r3, #1
 800172a:	6013      	str	r3, [r2, #0]
			if (AMP_PROTECTION_CNT>AMP_PROTECTION_MINMAX_CNT) {
 800172c:	22fa      	movs	r2, #250	; 0xfa
 800172e:	00d2      	lsls	r2, r2, #3
 8001730:	4293      	cmp	r3, r2
 8001732:	dd01      	ble.n	8001738 <UpdateAmplitudeByV+0x104>
				AMP_BLOCKED=1;
 8001734:	2301      	movs	r3, #1
 8001736:	6023      	str	r3, [r4, #0]

		}
	#endif

	#ifdef DC_PROTECTION
			 if ((DC_BLOCKED==0) && (DC_DataAverage>=DC_PROTECTION_MAX) ) {
 8001738:	4a3f      	ldr	r2, [pc, #252]	; (8001838 <UpdateAmplitudeByV+0x204>)
 800173a:	6813      	ldr	r3, [r2, #0]
 800173c:	2b00      	cmp	r3, #0
 800173e:	d10e      	bne.n	800175e <UpdateAmplitudeByV+0x12a>
 8001740:	4b3e      	ldr	r3, [pc, #248]	; (800183c <UpdateAmplitudeByV+0x208>)
 8001742:	6819      	ldr	r1, [r3, #0]
 8001744:	4b3e      	ldr	r3, [pc, #248]	; (8001840 <UpdateAmplitudeByV+0x20c>)
 8001746:	4299      	cmp	r1, r3
 8001748:	d909      	bls.n	800175e <UpdateAmplitudeByV+0x12a>
				 DC_PROTECTION_CNT++;
 800174a:	493e      	ldr	r1, [pc, #248]	; (8001844 <UpdateAmplitudeByV+0x210>)
 800174c:	680b      	ldr	r3, [r1, #0]
 800174e:	3301      	adds	r3, #1
 8001750:	600b      	str	r3, [r1, #0]
				 if (DC_PROTECTION_CNT>DC_PROTECTION_WAVE_CNT) {
 8001752:	21fa      	movs	r1, #250	; 0xfa
 8001754:	0089      	lsls	r1, r1, #2
 8001756:	428b      	cmp	r3, r1
 8001758:	dd01      	ble.n	800175e <UpdateAmplitudeByV+0x12a>
				 	DC_BLOCKED=1;
 800175a:	2301      	movs	r3, #1
 800175c:	6013      	str	r3, [r2, #0]
				 }
			 }
	#endif

	#ifdef VOUT_PROTECTION
		if ((VOUT_BLOCKED==0) && ((V_Out>=VOUT_PROTECTION_MAX) || (V_Out<=VOUT_PROTECTION_MIN))) {
 800175e:	4a3a      	ldr	r2, [pc, #232]	; (8001848 <UpdateAmplitudeByV+0x214>)
 8001760:	6813      	ldr	r3, [r2, #0]
 8001762:	2b00      	cmp	r3, #0
 8001764:	d11e      	bne.n	80017a4 <UpdateAmplitudeByV+0x170>
 8001766:	232c      	movs	r3, #44	; 0x2c
 8001768:	4938      	ldr	r1, [pc, #224]	; (800184c <UpdateAmplitudeByV+0x218>)
 800176a:	33ff      	adds	r3, #255	; 0xff
 800176c:	6808      	ldr	r0, [r1, #0]
 800176e:	4298      	cmp	r0, r3
 8001770:	d802      	bhi.n	8001778 <UpdateAmplitudeByV+0x144>
 8001772:	680b      	ldr	r3, [r1, #0]
 8001774:	2b64      	cmp	r3, #100	; 0x64
 8001776:	d80a      	bhi.n	800178e <UpdateAmplitudeByV+0x15a>
				VOUT_PROTECTION_CNT++;
 8001778:	4835      	ldr	r0, [pc, #212]	; (8001850 <UpdateAmplitudeByV+0x21c>)
 800177a:	6803      	ldr	r3, [r0, #0]
 800177c:	3301      	adds	r3, #1
 800177e:	6003      	str	r3, [r0, #0]
				if (VOUT_PROTECTION_CNT>VOUT_PROTECTION_MINMAX_CNT) {
 8001780:	20fa      	movs	r0, #250	; 0xfa
 8001782:	0040      	lsls	r0, r0, #1
 8001784:	4283      	cmp	r3, r0
 8001786:	dd02      	ble.n	800178e <UpdateAmplitudeByV+0x15a>
				}
		}
		if ((VOUT_BLOCKED==0) && (V_Out>=VOUT_PROTECTION_ULTRA) ) {
						VOUT_PROTECTION_CNT++;
						if (VOUT_PROTECTION_CNT>VOUT_PROTECTION_MOMENTARY_CNT) {
							VOUT_BLOCKED=1;
 8001788:	2301      	movs	r3, #1
 800178a:	6013      	str	r3, [r2, #0]
 800178c:	e00a      	b.n	80017a4 <UpdateAmplitudeByV+0x170>
		if ((VOUT_BLOCKED==0) && (V_Out>=VOUT_PROTECTION_ULTRA) ) {
 800178e:	237c      	movs	r3, #124	; 0x7c
 8001790:	6809      	ldr	r1, [r1, #0]
 8001792:	33ff      	adds	r3, #255	; 0xff
 8001794:	4299      	cmp	r1, r3
 8001796:	d905      	bls.n	80017a4 <UpdateAmplitudeByV+0x170>
						VOUT_PROTECTION_CNT++;
 8001798:	492d      	ldr	r1, [pc, #180]	; (8001850 <UpdateAmplitudeByV+0x21c>)
 800179a:	680b      	ldr	r3, [r1, #0]
 800179c:	3301      	adds	r3, #1
 800179e:	600b      	str	r3, [r1, #0]
						if (VOUT_PROTECTION_CNT>VOUT_PROTECTION_MOMENTARY_CNT) {
 80017a0:	2b02      	cmp	r3, #2
 80017a2:	dcf1      	bgt.n	8001788 <UpdateAmplitudeByV+0x154>
						}
				}
	#endif

	#ifdef IOUT_PROTECTION
		if ((IOUT_BLOCKED==0) && (I_Out>=IOUT_PROTECTION_MAX)) {
 80017a4:	4a2b      	ldr	r2, [pc, #172]	; (8001854 <UpdateAmplitudeByV+0x220>)
 80017a6:	6813      	ldr	r3, [r2, #0]
 80017a8:	2b00      	cmp	r3, #0
 80017aa:	d119      	bne.n	80017e0 <UpdateAmplitudeByV+0x1ac>
 80017ac:	492a      	ldr	r1, [pc, #168]	; (8001858 <UpdateAmplitudeByV+0x224>)
 80017ae:	4b2b      	ldr	r3, [pc, #172]	; (800185c <UpdateAmplitudeByV+0x228>)
 80017b0:	6808      	ldr	r0, [r1, #0]
 80017b2:	4298      	cmp	r0, r3
 80017b4:	d90a      	bls.n	80017cc <UpdateAmplitudeByV+0x198>
				IOUT_PROTECTION_CNT++;
 80017b6:	482a      	ldr	r0, [pc, #168]	; (8001860 <UpdateAmplitudeByV+0x22c>)
 80017b8:	6803      	ldr	r3, [r0, #0]
 80017ba:	3301      	adds	r3, #1
 80017bc:	6003      	str	r3, [r0, #0]
				if (IOUT_PROTECTION_CNT>IOUT_PROTECTION_MINMAX_CNT) {
 80017be:	20fa      	movs	r0, #250	; 0xfa
 80017c0:	0040      	lsls	r0, r0, #1
 80017c2:	4283      	cmp	r3, r0
 80017c4:	dd02      	ble.n	80017cc <UpdateAmplitudeByV+0x198>
				}
		}
		if ((IOUT_BLOCKED==0) && (I_Out>=IOUT_PROTECTION_ULTRA) ) {
			IOUT_PROTECTION_CNT++;
						if (IOUT_PROTECTION_CNT>IOUT_PROTECTION_MOMENTARY_CNT) {
							IOUT_BLOCKED=1;
 80017c6:	2301      	movs	r3, #1
 80017c8:	6013      	str	r3, [r2, #0]
 80017ca:	e009      	b.n	80017e0 <UpdateAmplitudeByV+0x1ac>
		if ((IOUT_BLOCKED==0) && (I_Out>=IOUT_PROTECTION_ULTRA) ) {
 80017cc:	6809      	ldr	r1, [r1, #0]
 80017ce:	4b25      	ldr	r3, [pc, #148]	; (8001864 <UpdateAmplitudeByV+0x230>)
 80017d0:	4299      	cmp	r1, r3
 80017d2:	d905      	bls.n	80017e0 <UpdateAmplitudeByV+0x1ac>
			IOUT_PROTECTION_CNT++;
 80017d4:	4922      	ldr	r1, [pc, #136]	; (8001860 <UpdateAmplitudeByV+0x22c>)
 80017d6:	680b      	ldr	r3, [r1, #0]
 80017d8:	3301      	adds	r3, #1
 80017da:	600b      	str	r3, [r1, #0]
						if (IOUT_PROTECTION_CNT>IOUT_PROTECTION_MOMENTARY_CNT) {
 80017dc:	2b02      	cmp	r3, #2
 80017de:	dcf2      	bgt.n	80017c6 <UpdateAmplitudeByV+0x192>
						}
				}
	#endif

	ResetV_data();
 80017e0:	f7ff fd76 	bl	80012d0 <ResetV_data>
}
 80017e4:	bdf8      	pop	{r3, r4, r5, r6, r7, pc}
 80017e6:	46c0      	nop			; (mov r8, r8)
 80017e8:	200002cc 	.word	0x200002cc
 80017ec:	20000364 	.word	0x20000364
 80017f0:	2000037c 	.word	0x2000037c
 80017f4:	20000368 	.word	0x20000368
 80017f8:	20000380 	.word	0x20000380
 80017fc:	2000036c 	.word	0x2000036c
 8001800:	20000384 	.word	0x20000384
 8001804:	20000370 	.word	0x20000370
 8001808:	20000388 	.word	0x20000388
 800180c:	20000050 	.word	0x20000050
 8001810:	20000018 	.word	0x20000018
 8001814:	2000001c 	.word	0x2000001c
 8001818:	20000054 	.word	0x20000054
 800181c:	20000058 	.word	0x20000058
 8001820:	20000020 	.word	0x20000020
 8001824:	2000005c 	.word	0x2000005c
 8001828:	20000024 	.word	0x20000024
 800182c:	200002d0 	.word	0x200002d0
 8001830:	42c80000 	.word	0x42c80000
 8001834:	200002d4 	.word	0x200002d4
 8001838:	200002dc 	.word	0x200002dc
 800183c:	200002e4 	.word	0x200002e4
 8001840:	00000dab 	.word	0x00000dab
 8001844:	200002ec 	.word	0x200002ec
 8001848:	20000310 	.word	0x20000310
 800184c:	2000031c 	.word	0x2000031c
 8001850:	20000314 	.word	0x20000314
 8001854:	200002f4 	.word	0x200002f4
 8001858:	20000300 	.word	0x20000300
 800185c:	00001387 	.word	0x00001387
 8001860:	200002f8 	.word	0x200002f8
 8001864:	00002327 	.word	0x00002327

08001868 <CheckV_Feedback>:

void CheckV_Feedback() {

		///Calc I_out data AC coltage
			I_Out_Cnt++;
 8001868:	4a2e      	ldr	r2, [pc, #184]	; (8001924 <CheckV_Feedback+0xbc>)
void CheckV_Feedback() {
 800186a:	b570      	push	{r4, r5, r6, lr}
			I_Out_Cnt++;
 800186c:	6813      	ldr	r3, [r2, #0]
					I_Out_RawData=I_Out_RawData+TempVal*TempVal;
				}
			#endif

			#ifndef Detect_ZeroV_Point
				I_Out_RawData=I_Out_RawData+ADC_Data[1]*ADC_Data[1];
 800186e:	4e2e      	ldr	r6, [pc, #184]	; (8001928 <CheckV_Feedback+0xc0>)
			I_Out_Cnt++;
 8001870:	3301      	adds	r3, #1
 8001872:	6013      	str	r3, [r2, #0]
				I_Out_RawData=I_Out_RawData+ADC_Data[1]*ADC_Data[1];
 8001874:	4b2d      	ldr	r3, [pc, #180]	; (800192c <CheckV_Feedback+0xc4>)
 8001876:	8859      	ldrh	r1, [r3, #2]
 8001878:	885a      	ldrh	r2, [r3, #2]
 800187a:	6834      	ldr	r4, [r6, #0]
 800187c:	6875      	ldr	r5, [r6, #4]
 800187e:	434a      	muls	r2, r1
 8001880:	0010      	movs	r0, r2
 8001882:	17d1      	asrs	r1, r2, #31
 8001884:	1900      	adds	r0, r0, r4
 8001886:	4169      	adcs	r1, r5
 8001888:	6030      	str	r0, [r6, #0]
 800188a:	6071      	str	r1, [r6, #4]

			//


	    //Calc V_out data AC coltage
		V_Out_Cnt++;
 800188c:	4928      	ldr	r1, [pc, #160]	; (8001930 <CheckV_Feedback+0xc8>)
				V_Out_RawData=V_Out_RawData+TempVal*TempVal;
			}
		#endif

		#ifndef Detect_ZeroV_Point
			V_Out_RawData=V_Out_RawData+ADC_Data[0]*ADC_Data[0];
 800188e:	4e29      	ldr	r6, [pc, #164]	; (8001934 <CheckV_Feedback+0xcc>)
		V_Out_Cnt++;
 8001890:	680a      	ldr	r2, [r1, #0]
 8001892:	3201      	adds	r2, #1
 8001894:	600a      	str	r2, [r1, #0]
			V_Out_RawData=V_Out_RawData+ADC_Data[0]*ADC_Data[0];
 8001896:	8819      	ldrh	r1, [r3, #0]
 8001898:	881a      	ldrh	r2, [r3, #0]
 800189a:	6834      	ldr	r4, [r6, #0]
 800189c:	6875      	ldr	r5, [r6, #4]
 800189e:	434a      	muls	r2, r1
 80018a0:	0010      	movs	r0, r2
 80018a2:	17d1      	asrs	r1, r2, #31
 80018a4:	1900      	adds	r0, r0, r4
 80018a6:	4169      	adcs	r1, r5
 80018a8:	6030      	str	r0, [r6, #0]
 80018aa:	6071      	str	r1, [r6, #4]
			V_5=V_5+ADC_Data[3];
			V_Cnt[4]= V_Cnt[4]+1;
		#endif

		#ifdef DC_PROTECTION
			 DC_Data=DC_Data+ADC_Data[2];
 80018ac:	4922      	ldr	r1, [pc, #136]	; (8001938 <CheckV_Feedback+0xd0>)
 80018ae:	889a      	ldrh	r2, [r3, #4]
 80018b0:	6808      	ldr	r0, [r1, #0]
 80018b2:	1812      	adds	r2, r2, r0
 80018b4:	600a      	str	r2, [r1, #0]
			 DC_DataCnt=DC_DataCnt+1;
 80018b6:	4921      	ldr	r1, [pc, #132]	; (800193c <CheckV_Feedback+0xd4>)
		#endif


		if (sin_step>Sin_Amp_ind[2]) {
 80018b8:	4821      	ldr	r0, [pc, #132]	; (8001940 <CheckV_Feedback+0xd8>)
			 DC_DataCnt=DC_DataCnt+1;
 80018ba:	680a      	ldr	r2, [r1, #0]
 80018bc:	3201      	adds	r2, #1
 80018be:	600a      	str	r2, [r1, #0]
		if (sin_step>Sin_Amp_ind[2]) {
 80018c0:	4920      	ldr	r1, [pc, #128]	; (8001944 <CheckV_Feedback+0xdc>)
 80018c2:	8804      	ldrh	r4, [r0, #0]
 80018c4:	688d      	ldr	r5, [r1, #8]
 80018c6:	4a20      	ldr	r2, [pc, #128]	; (8001948 <CheckV_Feedback+0xe0>)
 80018c8:	42ac      	cmp	r4, r5
 80018ca:	dd08      	ble.n	80018de <CheckV_Feedback+0x76>
			V_4=V_4+ADC_Data[0];
 80018cc:	491f      	ldr	r1, [pc, #124]	; (800194c <CheckV_Feedback+0xe4>)
 80018ce:	881b      	ldrh	r3, [r3, #0]
 80018d0:	6808      	ldr	r0, [r1, #0]
 80018d2:	181b      	adds	r3, r3, r0
 80018d4:	600b      	str	r3, [r1, #0]
			V_Cnt[3]= V_Cnt[3]+1;
 80018d6:	68d3      	ldr	r3, [r2, #12]
 80018d8:	3301      	adds	r3, #1
 80018da:	60d3      	str	r3, [r2, #12]
		} else {
			V_1=V_1+ADC_Data[0];
			V_Cnt[0]= V_Cnt[0]+1;
			return;
		}
}
 80018dc:	bd70      	pop	{r4, r5, r6, pc}
		if (sin_step>Sin_Amp_ind[1]) {
 80018de:	8804      	ldrh	r4, [r0, #0]
 80018e0:	684d      	ldr	r5, [r1, #4]
 80018e2:	42ac      	cmp	r4, r5
 80018e4:	dd08      	ble.n	80018f8 <CheckV_Feedback+0x90>
			V_3=V_3+ADC_Data[0];
 80018e6:	491a      	ldr	r1, [pc, #104]	; (8001950 <CheckV_Feedback+0xe8>)
 80018e8:	881b      	ldrh	r3, [r3, #0]
 80018ea:	6808      	ldr	r0, [r1, #0]
 80018ec:	181b      	adds	r3, r3, r0
 80018ee:	600b      	str	r3, [r1, #0]
			V_Cnt[2]= V_Cnt[2]+1;
 80018f0:	6893      	ldr	r3, [r2, #8]
 80018f2:	3301      	adds	r3, #1
 80018f4:	6093      	str	r3, [r2, #8]
			return;
 80018f6:	e7f1      	b.n	80018dc <CheckV_Feedback+0x74>
		if (sin_step>Sin_Amp_ind[0]) {
 80018f8:	8800      	ldrh	r0, [r0, #0]
 80018fa:	6809      	ldr	r1, [r1, #0]
			V_2=V_2+ADC_Data[0];
 80018fc:	881b      	ldrh	r3, [r3, #0]
		if (sin_step>Sin_Amp_ind[0]) {
 80018fe:	4288      	cmp	r0, r1
 8001900:	dd07      	ble.n	8001912 <CheckV_Feedback+0xaa>
			V_2=V_2+ADC_Data[0];
 8001902:	4914      	ldr	r1, [pc, #80]	; (8001954 <CheckV_Feedback+0xec>)
 8001904:	6808      	ldr	r0, [r1, #0]
 8001906:	181b      	adds	r3, r3, r0
 8001908:	600b      	str	r3, [r1, #0]
			V_Cnt[1]= V_Cnt[1]+1;
 800190a:	6853      	ldr	r3, [r2, #4]
 800190c:	3301      	adds	r3, #1
 800190e:	6053      	str	r3, [r2, #4]
			return;
 8001910:	e7e4      	b.n	80018dc <CheckV_Feedback+0x74>
			V_1=V_1+ADC_Data[0];
 8001912:	4911      	ldr	r1, [pc, #68]	; (8001958 <CheckV_Feedback+0xf0>)
 8001914:	6808      	ldr	r0, [r1, #0]
 8001916:	181b      	adds	r3, r3, r0
 8001918:	600b      	str	r3, [r1, #0]
			V_Cnt[0]= V_Cnt[0]+1;
 800191a:	6813      	ldr	r3, [r2, #0]
 800191c:	3301      	adds	r3, #1
 800191e:	6013      	str	r3, [r2, #0]
			return;
 8001920:	e7dc      	b.n	80018dc <CheckV_Feedback+0x74>
 8001922:	46c0      	nop			; (mov r8, r8)
 8001924:	20000000 	.word	0x20000000
 8001928:	20000308 	.word	0x20000308
 800192c:	20000458 	.word	0x20000458
 8001930:	20000048 	.word	0x20000048
 8001934:	20000320 	.word	0x20000320
 8001938:	200002e0 	.word	0x200002e0
 800193c:	200002e8 	.word	0x200002e8
 8001940:	2000032a 	.word	0x2000032a
 8001944:	20000008 	.word	0x20000008
 8001948:	20000038 	.word	0x20000038
 800194c:	20000034 	.word	0x20000034
 8001950:	20000030 	.word	0x20000030
 8001954:	2000002c 	.word	0x2000002c
 8001958:	20000028 	.word	0x20000028

0800195c <TM_CRC_Calculate8>:
		volatile uint32_t DC_Data_temp=0;
		volatile uint32_t DC_DataCnt_temp=0;
	#endif


uint32_t TM_CRC_Calculate8(uint8_t* arr, uint32_t count, uint8_t reset) {
 800195c:	b570      	push	{r4, r5, r6, lr}
 800195e:	4b0d      	ldr	r3, [pc, #52]	; (8001994 <TM_CRC_Calculate8+0x38>)
	uint32_t cnt;

	/* Reset CRC data register if necessary */
	if (reset) {
 8001960:	2a00      	cmp	r2, #0
 8001962:	d001      	beq.n	8001968 <TM_CRC_Calculate8+0xc>
		/* Reset generator */
		CRC->CR = CRC_CR_RESET;
 8001964:	2201      	movs	r2, #1
 8001966:	609a      	str	r2, [r3, #8]
	}

	/* Calculate number of 32-bit blocks */
	cnt = count >> 2;
 8001968:	088a      	lsrs	r2, r1, #2
 800196a:	0014      	movs	r4, r2

	/* Calculate */
	while (cnt--) {
 800196c:	0005      	movs	r5, r0
 800196e:	3c01      	subs	r4, #1
 8001970:	d208      	bcs.n	8001984 <TM_CRC_Calculate8+0x28>
 8001972:	0092      	lsls	r2, r2, #2
 8001974:	1880      	adds	r0, r0, r2
		/* Increase by 4 */
		arr += 4;
	}

	/* Calculate remaining data as 8-bit */
	cnt = count % 4;
 8001976:	2203      	movs	r2, #3
 8001978:	4011      	ands	r1, r2
 800197a:	1841      	adds	r1, r0, r1

	/* Calculate */
	while (cnt--) {
 800197c:	4288      	cmp	r0, r1
 800197e:	d104      	bne.n	800198a <TM_CRC_Calculate8+0x2e>
		/* Set new value */
		*((uint8_t *)&CRC->DR) = *arr++;
	}

	/* Return data */
	return CRC->DR;
 8001980:	6818      	ldr	r0, [r3, #0]
}
 8001982:	bd70      	pop	{r4, r5, r6, pc}
		CRC->DR = *(uint32_t *)arr;
 8001984:	cd40      	ldmia	r5!, {r6}
 8001986:	601e      	str	r6, [r3, #0]
 8001988:	e7f1      	b.n	800196e <TM_CRC_Calculate8+0x12>
		*((uint8_t *)&CRC->DR) = *arr++;
 800198a:	7802      	ldrb	r2, [r0, #0]
 800198c:	3001      	adds	r0, #1
 800198e:	701a      	strb	r2, [r3, #0]
 8001990:	e7f4      	b.n	800197c <TM_CRC_Calculate8+0x20>
 8001992:	46c0      	nop			; (mov r8, r8)
 8001994:	40023000 	.word	0x40023000

08001998 <TM_CRC_Calculate32>:

	/* Return data */
	return CRC->DR;
}

uint32_t TM_CRC_Calculate32(uint32_t* arr, uint32_t count, uint8_t reset) {
 8001998:	4b05      	ldr	r3, [pc, #20]	; (80019b0 <TM_CRC_Calculate32+0x18>)
	/* Reset CRC data register if necessary */
	if (reset) {
 800199a:	2a00      	cmp	r2, #0
 800199c:	d001      	beq.n	80019a2 <TM_CRC_Calculate32+0xa>
		/* Reset generator */
		CRC->CR = CRC_CR_RESET;
 800199e:	2201      	movs	r2, #1
 80019a0:	609a      	str	r2, [r3, #8]
	}

	/* Calculate CRC */
	while (count--) {
 80019a2:	3901      	subs	r1, #1
 80019a4:	d201      	bcs.n	80019aa <TM_CRC_Calculate32+0x12>
		/* Set new value */
		CRC->DR = *arr++;
	}

	/* Return data */
	return CRC->DR;
 80019a6:	6818      	ldr	r0, [r3, #0]
}
 80019a8:	4770      	bx	lr
		CRC->DR = *arr++;
 80019aa:	c804      	ldmia	r0!, {r2}
 80019ac:	601a      	str	r2, [r3, #0]
 80019ae:	e7f8      	b.n	80019a2 <TM_CRC_Calculate32+0xa>
 80019b0:	40023000 	.word	0x40023000

080019b4 <AddUART_CRC>:
void AddUART_Header() {
	ClearUART_Buff();
	strcat(uart_buff,"@data@");
}

void AddUART_CRC() {
 80019b4:	b570      	push	{r4, r5, r6, lr}
	memset(crc_buff, '\0', sizeof(crc_buff));
 80019b6:	4c0b      	ldr	r4, [pc, #44]	; (80019e4 <AddUART_CRC+0x30>)
 80019b8:	2214      	movs	r2, #20
 80019ba:	2100      	movs	r1, #0
 80019bc:	0020      	movs	r0, r4
 80019be:	f004 ff56 	bl	800686e <memset>
	//uint32_t crc=Get_CRC((uint8_t *) &uart_buff, sizeof(uart_buff));
	uint32_t crc=TM_CRC_Calculate8((uint8_t *) &uart_buff, sizeof(uart_buff), 1);
 80019c2:	4d09      	ldr	r5, [pc, #36]	; (80019e8 <AddUART_CRC+0x34>)
 80019c4:	2201      	movs	r2, #1
 80019c6:	0028      	movs	r0, r5
 80019c8:	2164      	movs	r1, #100	; 0x64
 80019ca:	f7ff ffc7 	bl	800195c <TM_CRC_Calculate8>
	sprintf(crc_buff, "@crc@%08X@\r\n",  (unsigned int) crc);
 80019ce:	4907      	ldr	r1, [pc, #28]	; (80019ec <AddUART_CRC+0x38>)
	uint32_t crc=TM_CRC_Calculate8((uint8_t *) &uart_buff, sizeof(uart_buff), 1);
 80019d0:	0002      	movs	r2, r0
	sprintf(crc_buff, "@crc@%08X@\r\n",  (unsigned int) crc);
 80019d2:	0020      	movs	r0, r4
 80019d4:	f004 ff54 	bl	8006880 <siprintf>
	strcat(uart_buff,crc_buff);
 80019d8:	0028      	movs	r0, r5
 80019da:	0021      	movs	r1, r4
 80019dc:	f004 ff72 	bl	80068c4 <strcat>

}
 80019e0:	bd70      	pop	{r4, r5, r6, pc}
 80019e2:	46c0      	nop			; (mov r8, r8)
 80019e4:	20000518 	.word	0x20000518
 80019e8:	20000498 	.word	0x20000498
 80019ec:	080071f4 	.word	0x080071f4

080019f0 <ClearUART_Buff>:
	if (WaitForTX) {
		WaitForUART_TX();
	}
}

void ClearUART_Buff() {
 80019f0:	b510      	push	{r4, lr}
	memset(uart_buff, '\0', sizeof(uart_buff));
 80019f2:	2264      	movs	r2, #100	; 0x64
 80019f4:	2100      	movs	r1, #0
 80019f6:	4802      	ldr	r0, [pc, #8]	; (8001a00 <ClearUART_Buff+0x10>)
 80019f8:	f004 ff39 	bl	800686e <memset>
}
 80019fc:	bd10      	pop	{r4, pc}
 80019fe:	46c0      	nop			; (mov r8, r8)
 8001a00:	20000498 	.word	0x20000498

08001a04 <Get_ChipID>:
void Get_ChipID(void) {
 8001a04:	b507      	push	{r0, r1, r2, lr}
	ClearUART_Buff();
 8001a06:	f7ff fff3 	bl	80019f0 <ClearUART_Buff>
	sprintf(uart_buff, "@id@%08X-%08X-%08X",   (unsigned int) TM_ID_GetUnique32(0),
 8001a0a:	4b07      	ldr	r3, [pc, #28]	; (8001a28 <Get_ChipID+0x24>)
 8001a0c:	4907      	ldr	r1, [pc, #28]	; (8001a2c <Get_ChipID+0x28>)
 8001a0e:	681a      	ldr	r2, [r3, #0]
 8001a10:	4b07      	ldr	r3, [pc, #28]	; (8001a30 <Get_ChipID+0x2c>)
 8001a12:	4808      	ldr	r0, [pc, #32]	; (8001a34 <Get_ChipID+0x30>)
 8001a14:	681b      	ldr	r3, [r3, #0]
 8001a16:	6809      	ldr	r1, [r1, #0]
 8001a18:	9100      	str	r1, [sp, #0]
 8001a1a:	4907      	ldr	r1, [pc, #28]	; (8001a38 <Get_ChipID+0x34>)
 8001a1c:	f004 ff30 	bl	8006880 <siprintf>
	AddUART_CRC();
 8001a20:	f7ff ffc8 	bl	80019b4 <AddUART_CRC>
}
 8001a24:	bd07      	pop	{r0, r1, r2, pc}
 8001a26:	46c0      	nop			; (mov r8, r8)
 8001a28:	1ffff7ac 	.word	0x1ffff7ac
 8001a2c:	1ffff7b4 	.word	0x1ffff7b4
 8001a30:	1ffff7b0 	.word	0x1ffff7b0
 8001a34:	20000498 	.word	0x20000498
 8001a38:	0800720f 	.word	0x0800720f

08001a3c <Get_FlashSize>:
void Get_FlashSize(void) {
 8001a3c:	b510      	push	{r4, lr}
	ClearUART_Buff();
 8001a3e:	f7ff ffd7 	bl	80019f0 <ClearUART_Buff>
    sprintf(uart_buff, "@flash_size@%02d", TM_ID_GetFlashSize());
 8001a42:	4b05      	ldr	r3, [pc, #20]	; (8001a58 <Get_FlashSize+0x1c>)
 8001a44:	4905      	ldr	r1, [pc, #20]	; (8001a5c <Get_FlashSize+0x20>)
 8001a46:	881a      	ldrh	r2, [r3, #0]
 8001a48:	4805      	ldr	r0, [pc, #20]	; (8001a60 <Get_FlashSize+0x24>)
 8001a4a:	b292      	uxth	r2, r2
 8001a4c:	f004 ff18 	bl	8006880 <siprintf>
    AddUART_CRC();
 8001a50:	f7ff ffb0 	bl	80019b4 <AddUART_CRC>
}
 8001a54:	bd10      	pop	{r4, pc}
 8001a56:	46c0      	nop			; (mov r8, r8)
 8001a58:	1ffff7cc 	.word	0x1ffff7cc
 8001a5c:	08007222 	.word	0x08007222
 8001a60:	20000498 	.word	0x20000498

08001a64 <Get_Version>:
void Get_Version(void) {
 8001a64:	b510      	push	{r4, lr}
	ClearUART_Buff();
 8001a66:	f7ff ffc3 	bl	80019f0 <ClearUART_Buff>
	strcat(uart_buff,"@version@");
 8001a6a:	4c06      	ldr	r4, [pc, #24]	; (8001a84 <Get_Version+0x20>)
 8001a6c:	4906      	ldr	r1, [pc, #24]	; (8001a88 <Get_Version+0x24>)
 8001a6e:	0020      	movs	r0, r4
 8001a70:	f004 ff28 	bl	80068c4 <strcat>
    strcat(uart_buff,__DATE__);
 8001a74:	4905      	ldr	r1, [pc, #20]	; (8001a8c <Get_Version+0x28>)
 8001a76:	0020      	movs	r0, r4
 8001a78:	f004 ff24 	bl	80068c4 <strcat>
    AddUART_CRC();
 8001a7c:	f7ff ff9a 	bl	80019b4 <AddUART_CRC>
}
 8001a80:	bd10      	pop	{r4, pc}
 8001a82:	46c0      	nop			; (mov r8, r8)
 8001a84:	20000498 	.word	0x20000498
 8001a88:	08007233 	.word	0x08007233
 8001a8c:	0800723d 	.word	0x0800723d

08001a90 <WaitForUART_TX>:

void WaitForUART_TX() {
	while (!huart1_finished_tx);
 8001a90:	4a02      	ldr	r2, [pc, #8]	; (8001a9c <WaitForUART_TX+0xc>)
 8001a92:	6813      	ldr	r3, [r2, #0]
 8001a94:	2b00      	cmp	r3, #0
 8001a96:	d0fc      	beq.n	8001a92 <WaitForUART_TX+0x2>
}
 8001a98:	4770      	bx	lr
 8001a9a:	46c0      	nop			; (mov r8, r8)
 8001a9c:	20000244 	.word	0x20000244

08001aa0 <SerialPrintln>:
	huart1_finished_tx = 0;
 8001aa0:	2200      	movs	r2, #0
void SerialPrintln(int WaitForTX) {
 8001aa2:	b510      	push	{r4, lr}
 8001aa4:	0004      	movs	r4, r0
	huart1_finished_tx = 0;
 8001aa6:	4b07      	ldr	r3, [pc, #28]	; (8001ac4 <SerialPrintln+0x24>)
 8001aa8:	601a      	str	r2, [r3, #0]
	while (HAL_UART_Transmit_DMA(&huart1, (uint8_t*) uart_buff, sizeof(uart_buff)-1) == HAL_BUSY);
 8001aaa:	2263      	movs	r2, #99	; 0x63
 8001aac:	4906      	ldr	r1, [pc, #24]	; (8001ac8 <SerialPrintln+0x28>)
 8001aae:	4807      	ldr	r0, [pc, #28]	; (8001acc <SerialPrintln+0x2c>)
 8001ab0:	f004 fac4 	bl	800603c <HAL_UART_Transmit_DMA>
 8001ab4:	2802      	cmp	r0, #2
 8001ab6:	d0f8      	beq.n	8001aaa <SerialPrintln+0xa>
	if (WaitForTX) {
 8001ab8:	2c00      	cmp	r4, #0
 8001aba:	d001      	beq.n	8001ac0 <SerialPrintln+0x20>
		WaitForUART_TX();
 8001abc:	f7ff ffe8 	bl	8001a90 <WaitForUART_TX>
}
 8001ac0:	bd10      	pop	{r4, pc}
 8001ac2:	46c0      	nop			; (mov r8, r8)
 8001ac4:	20000244 	.word	0x20000244
 8001ac8:	20000498 	.word	0x20000498
 8001acc:	20000740 	.word	0x20000740

08001ad0 <HAL_UART_TxCpltCallback>:

void HAL_UART_TxCpltCallback(UART_HandleTypeDef *huart)
{
    if (huart->Instance == USART1)  // change USART instance
 8001ad0:	4b05      	ldr	r3, [pc, #20]	; (8001ae8 <HAL_UART_TxCpltCallback+0x18>)
 8001ad2:	6802      	ldr	r2, [r0, #0]
{
 8001ad4:	b510      	push	{r4, lr}
    if (huart->Instance == USART1)  // change USART instance
 8001ad6:	429a      	cmp	r2, r3
 8001ad8:	d104      	bne.n	8001ae4 <HAL_UART_TxCpltCallback+0x14>
    {
    	huart1_finished_tx = 1;
 8001ada:	2201      	movs	r2, #1
 8001adc:	4b03      	ldr	r3, [pc, #12]	; (8001aec <HAL_UART_TxCpltCallback+0x1c>)
 8001ade:	601a      	str	r2, [r3, #0]
    	ClearUART_Buff();
 8001ae0:	f7ff ff86 	bl	80019f0 <ClearUART_Buff>
    }
}
 8001ae4:	bd10      	pop	{r4, pc}
 8001ae6:	46c0      	nop			; (mov r8, r8)
 8001ae8:	40013800 	.word	0x40013800
 8001aec:	20000244 	.word	0x20000244

08001af0 <ResetWDG>:

void ResetWDG() {
 8001af0:	b510      	push	{r4, lr}
	 HAL_IWDG_Refresh(&hiwdg);
 8001af2:	4802      	ldr	r0, [pc, #8]	; (8001afc <ResetWDG+0xc>)
 8001af4:	f002 fdbe 	bl	8004674 <HAL_IWDG_Refresh>
	 //IWDG->KR = 0x0000AAAAU;
}
 8001af8:	bd10      	pop	{r4, pc}
 8001afa:	46c0      	nop			; (mov r8, r8)
 8001afc:	200005a8 	.word	0x200005a8

08001b00 <PrintCurrentState>:


void PrintCurrentState() {
 8001b00:	b5f0      	push	{r4, r5, r6, r7, lr}
	if (DevMode1!=1) {
 8001b02:	4b37      	ldr	r3, [pc, #220]	; (8001be0 <PrintCurrentState+0xe0>)
void PrintCurrentState() {
 8001b04:	b08d      	sub	sp, #52	; 0x34
	if (DevMode1!=1) {
 8001b06:	681b      	ldr	r3, [r3, #0]
 8001b08:	2b01      	cmp	r3, #1
 8001b0a:	d167      	bne.n	8001bdc <PrintCurrentState+0xdc>
		return;
	}
	#ifdef DEBUG_MODE
	ClearUART_Buff();
 8001b0c:	f7ff ff70 	bl	80019f0 <ClearUART_Buff>
	  			HAL_UART_Receive_DMA(&huart1, (uint8_t*) cmd_buff, sizeof(cmd_buff));
	  			hdma_usart1_rx.State=HAL_DMA_STATE_BUSY;
	  			SerialPrintln(0);
	  			return;
	  		}*/
		if ((DC_BLOCKED==1) || (VOUT_BLOCKED==1) || (AMP_BLOCKED==1) || (IOUT_BLOCKED==1)) {
 8001b10:	4b34      	ldr	r3, [pc, #208]	; (8001be4 <PrintCurrentState+0xe4>)
 8001b12:	681b      	ldr	r3, [r3, #0]
 8001b14:	2b01      	cmp	r3, #1
 8001b16:	d00b      	beq.n	8001b30 <PrintCurrentState+0x30>
 8001b18:	4b33      	ldr	r3, [pc, #204]	; (8001be8 <PrintCurrentState+0xe8>)
 8001b1a:	681b      	ldr	r3, [r3, #0]
 8001b1c:	2b01      	cmp	r3, #1
 8001b1e:	d007      	beq.n	8001b30 <PrintCurrentState+0x30>
 8001b20:	4b32      	ldr	r3, [pc, #200]	; (8001bec <PrintCurrentState+0xec>)
 8001b22:	681b      	ldr	r3, [r3, #0]
 8001b24:	2b01      	cmp	r3, #1
 8001b26:	d003      	beq.n	8001b30 <PrintCurrentState+0x30>
 8001b28:	4b31      	ldr	r3, [pc, #196]	; (8001bf0 <PrintCurrentState+0xf0>)
 8001b2a:	681b      	ldr	r3, [r3, #0]
 8001b2c:	2b01      	cmp	r3, #1
 8001b2e:	d107      	bne.n	8001b40 <PrintCurrentState+0x40>
			//V_Out_RawData=ADC_Data[0]*ADC_Data[0];
			//V_Out_Cnt=1;
			CalcAc_V_ByWave();
 8001b30:	f7ff fcdc 	bl	80014ec <CalcAc_V_ByWave>
			CalcAc_I_ByWave();
 8001b34:	f7ff fcb8 	bl	80014a8 <CalcAc_I_ByWave>
			CalcDC_Average();
 8001b38:	f7ff fcfa 	bl	8001530 <CalcDC_Average>
			ResetV_data();
 8001b3c:	f7ff fbc8 	bl	80012d0 <ResetV_data>
		#endif

		#ifndef USE_VREF
				"V=%4u v, I=%4u W, DC=%4u, A1=%03d,  A2=%03d,  A3=%03d,  A4=%03d, A_F=%01d, F=%01d, DC_F=%01d, V_F=%01d, I_F=%01d \r\n",
		#endif
								(uint16_t) V_Out,
 8001b40:	4b2c      	ldr	r3, [pc, #176]	; (8001bf4 <PrintCurrentState+0xf4>)
 8001b42:	681a      	ldr	r2, [r3, #0]
								(uint16_t) I_Out,
 8001b44:	4b2c      	ldr	r3, [pc, #176]	; (8001bf8 <PrintCurrentState+0xf8>)
		sprintf(uart_buff,
 8001b46:	b292      	uxth	r2, r2
								(uint16_t) I_Out,
 8001b48:	6819      	ldr	r1, [r3, #0]
								(uint16_t) ADC_Data[2],
 8001b4a:	4b2c      	ldr	r3, [pc, #176]	; (8001bfc <PrintCurrentState+0xfc>)
		sprintf(uart_buff,
 8001b4c:	b289      	uxth	r1, r1
								(uint16_t) ADC_Data[2],
 8001b4e:	889c      	ldrh	r4, [r3, #4]
								#ifdef USE_VREF
								(uint16_t) (VDDA_Actual),
								#endif
	      		  				(uint16_t) (100*Sine_Amplitude_1),
 8001b50:	4b2b      	ldr	r3, [pc, #172]	; (8001c00 <PrintCurrentState+0x100>)
		sprintf(uart_buff,
 8001b52:	920b      	str	r2, [sp, #44]	; 0x2c
	      		  				(uint16_t) (100*Sine_Amplitude_1),
 8001b54:	681d      	ldr	r5, [r3, #0]
	      		  				(uint16_t) (100*Sine_Amplitude_2),
 8001b56:	4b2b      	ldr	r3, [pc, #172]	; (8001c04 <PrintCurrentState+0x104>)
		sprintf(uart_buff,
 8001b58:	4a25      	ldr	r2, [pc, #148]	; (8001bf0 <PrintCurrentState+0xf0>)
	      		  				(uint16_t) (100*Sine_Amplitude_2),
 8001b5a:	681e      	ldr	r6, [r3, #0]
								(uint16_t) (100*Sine_Amplitude_3),
 8001b5c:	4b2a      	ldr	r3, [pc, #168]	; (8001c08 <PrintCurrentState+0x108>)
		sprintf(uart_buff,
 8001b5e:	6812      	ldr	r2, [r2, #0]
								(uint16_t) (100*Sine_Amplitude_3),
 8001b60:	681f      	ldr	r7, [r3, #0]
								(uint16_t) (100*Sine_Amplitude_4),
 8001b62:	4b2a      	ldr	r3, [pc, #168]	; (8001c0c <PrintCurrentState+0x10c>)
		sprintf(uart_buff,
 8001b64:	910a      	str	r1, [sp, #40]	; 0x28
								(uint16_t) (100*Sine_Amplitude_4),
 8001b66:	6818      	ldr	r0, [r3, #0]
		sprintf(uart_buff,
 8001b68:	4b29      	ldr	r3, [pc, #164]	; (8001c10 <PrintCurrentState+0x110>)
								(uint16_t) (100*Sine_Amplitude_4),
 8001b6a:	492a      	ldr	r1, [pc, #168]	; (8001c14 <PrintCurrentState+0x114>)
		sprintf(uart_buff,
 8001b6c:	781b      	ldrb	r3, [r3, #0]
 8001b6e:	9209      	str	r2, [sp, #36]	; 0x24
 8001b70:	4a1d      	ldr	r2, [pc, #116]	; (8001be8 <PrintCurrentState+0xe8>)
 8001b72:	3b03      	subs	r3, #3
 8001b74:	6812      	ldr	r2, [r2, #0]
								(uint16_t) ADC_Data[2],
 8001b76:	b2a4      	uxth	r4, r4
		sprintf(uart_buff,
 8001b78:	9208      	str	r2, [sp, #32]
 8001b7a:	4a1a      	ldr	r2, [pc, #104]	; (8001be4 <PrintCurrentState+0xe4>)
 8001b7c:	6812      	ldr	r2, [r2, #0]
 8001b7e:	9207      	str	r2, [sp, #28]
 8001b80:	425a      	negs	r2, r3
 8001b82:	4153      	adcs	r3, r2
 8001b84:	9306      	str	r3, [sp, #24]
 8001b86:	4b19      	ldr	r3, [pc, #100]	; (8001bec <PrintCurrentState+0xec>)
 8001b88:	681b      	ldr	r3, [r3, #0]
 8001b8a:	9305      	str	r3, [sp, #20]
								(uint16_t) (100*Sine_Amplitude_4),
 8001b8c:	f7fe ff32 	bl	80009f4 <__aeabi_fmul>
 8001b90:	f7fe fb96 	bl	80002c0 <__aeabi_f2uiz>
		sprintf(uart_buff,
 8001b94:	b280      	uxth	r0, r0
								(uint16_t) (100*Sine_Amplitude_3),
 8001b96:	491f      	ldr	r1, [pc, #124]	; (8001c14 <PrintCurrentState+0x114>)
		sprintf(uart_buff,
 8001b98:	9004      	str	r0, [sp, #16]
								(uint16_t) (100*Sine_Amplitude_3),
 8001b9a:	1c38      	adds	r0, r7, #0
 8001b9c:	f7fe ff2a 	bl	80009f4 <__aeabi_fmul>
 8001ba0:	f7fe fb8e 	bl	80002c0 <__aeabi_f2uiz>
		sprintf(uart_buff,
 8001ba4:	b280      	uxth	r0, r0
	      		  				(uint16_t) (100*Sine_Amplitude_2),
 8001ba6:	491b      	ldr	r1, [pc, #108]	; (8001c14 <PrintCurrentState+0x114>)
		sprintf(uart_buff,
 8001ba8:	9003      	str	r0, [sp, #12]
	      		  				(uint16_t) (100*Sine_Amplitude_2),
 8001baa:	1c30      	adds	r0, r6, #0
 8001bac:	f7fe ff22 	bl	80009f4 <__aeabi_fmul>
 8001bb0:	f7fe fb86 	bl	80002c0 <__aeabi_f2uiz>
		sprintf(uart_buff,
 8001bb4:	b280      	uxth	r0, r0
	      		  				(uint16_t) (100*Sine_Amplitude_1),
 8001bb6:	4917      	ldr	r1, [pc, #92]	; (8001c14 <PrintCurrentState+0x114>)
		sprintf(uart_buff,
 8001bb8:	9002      	str	r0, [sp, #8]
	      		  				(uint16_t) (100*Sine_Amplitude_1),
 8001bba:	1c28      	adds	r0, r5, #0
 8001bbc:	f7fe ff1a 	bl	80009f4 <__aeabi_fmul>
 8001bc0:	f7fe fb7e 	bl	80002c0 <__aeabi_f2uiz>
		sprintf(uart_buff,
 8001bc4:	b280      	uxth	r0, r0
 8001bc6:	9001      	str	r0, [sp, #4]
 8001bc8:	9400      	str	r4, [sp, #0]
 8001bca:	9b0a      	ldr	r3, [sp, #40]	; 0x28
 8001bcc:	9a0b      	ldr	r2, [sp, #44]	; 0x2c
 8001bce:	4912      	ldr	r1, [pc, #72]	; (8001c18 <PrintCurrentState+0x118>)
 8001bd0:	4812      	ldr	r0, [pc, #72]	; (8001c1c <PrintCurrentState+0x11c>)
 8001bd2:	f004 fe55 	bl	8006880 <siprintf>
								AMP_BLOCKED,
								(uint16_t) (BoardStatus==sFaultFlag),
								DC_BLOCKED,
								VOUT_BLOCKED,
								IOUT_BLOCKED);
		SerialPrintln(0);
 8001bd6:	2000      	movs	r0, #0
 8001bd8:	f7ff ff62 	bl	8001aa0 <SerialPrintln>

	#endif
}
 8001bdc:	b00d      	add	sp, #52	; 0x34
 8001bde:	bdf0      	pop	{r4, r5, r6, r7, pc}
 8001be0:	2000033c 	.word	0x2000033c
 8001be4:	200002dc 	.word	0x200002dc
 8001be8:	20000310 	.word	0x20000310
 8001bec:	200002d0 	.word	0x200002d0
 8001bf0:	200002f4 	.word	0x200002f4
 8001bf4:	2000031c 	.word	0x2000031c
 8001bf8:	20000300 	.word	0x20000300
 8001bfc:	20000458 	.word	0x20000458
 8001c00:	20000018 	.word	0x20000018
 8001c04:	2000001c 	.word	0x2000001c
 8001c08:	20000020 	.word	0x20000020
 8001c0c:	20000024 	.word	0x20000024
 8001c10:	2000032c 	.word	0x2000032c
 8001c14:	42c80000 	.word	0x42c80000
 8001c18:	08007249 	.word	0x08007249
 8001c1c:	20000498 	.word	0x20000498

08001c20 <ResetEEPROM>:

// EEPROM
void ResetEEPROM() {
	EEPROM_DATA[0]=0;
 8001c20:	2300      	movs	r3, #0
 8001c22:	4a03      	ldr	r2, [pc, #12]	; (8001c30 <ResetEEPROM+0x10>)
 8001c24:	6013      	str	r3, [r2, #0]
	EEPROM_DATA[1]=0;
 8001c26:	6053      	str	r3, [r2, #4]
	EEPROM_CRC=0;
 8001c28:	4a02      	ldr	r2, [pc, #8]	; (8001c34 <ResetEEPROM+0x14>)
 8001c2a:	6013      	str	r3, [r2, #0]
}
 8001c2c:	4770      	bx	lr
 8001c2e:	46c0      	nop			; (mov r8, r8)
 8001c30:	20000344 	.word	0x20000344
 8001c34:	20000340 	.word	0x20000340

08001c38 <CALC_RATIO>:

void CALC_RATIO() {
 8001c38:	b510      	push	{r4, lr}
	memcpy(&fVal, &EEPROM_DATA[1],sizeof(fVal));
	I_RATIO=(fVal*(3.3/4096));
	memcpy(&fVal, &EEPROM_DATA[0],sizeof(fVal));
	V_RATIO=(fVal*(3.3/4096));*/

	I_RATIO=(EEPROM_DATA[1]*IV_RATIO);
 8001c3a:	4c09      	ldr	r4, [pc, #36]	; (8001c60 <CALC_RATIO+0x28>)
 8001c3c:	6860      	ldr	r0, [r4, #4]
 8001c3e:	f7ff fa05 	bl	800104c <__aeabi_ui2f>
 8001c42:	4908      	ldr	r1, [pc, #32]	; (8001c64 <CALC_RATIO+0x2c>)
 8001c44:	f7fe fed6 	bl	80009f4 <__aeabi_fmul>
 8001c48:	4b07      	ldr	r3, [pc, #28]	; (8001c68 <CALC_RATIO+0x30>)
 8001c4a:	6018      	str	r0, [r3, #0]
	V_RATIO=(EEPROM_DATA[0]*IV_RATIO);
 8001c4c:	6820      	ldr	r0, [r4, #0]
 8001c4e:	f7ff f9fd 	bl	800104c <__aeabi_ui2f>
 8001c52:	4904      	ldr	r1, [pc, #16]	; (8001c64 <CALC_RATIO+0x2c>)
 8001c54:	f7fe fece 	bl	80009f4 <__aeabi_fmul>
 8001c58:	4b04      	ldr	r3, [pc, #16]	; (8001c6c <CALC_RATIO+0x34>)
 8001c5a:	6018      	str	r0, [r3, #0]
}
 8001c5c:	bd10      	pop	{r4, pc}
 8001c5e:	46c0      	nop			; (mov r8, r8)
 8001c60:	20000344 	.word	0x20000344
 8001c64:	3a533333 	.word	0x3a533333
 8001c68:	20000004 	.word	0x20000004
 8001c6c:	2000004c 	.word	0x2000004c

08001c70 <USE_DEF_CALIB>:
	//memcpy(&EEPROM_DATA[0], &fVal,sizeof(uint32_t));

	//fVal=3636;
	//memcpy(&EEPROM_DATA[1], &fVal,sizeof(uint32_t));
	EEPROM_DATA[0]=132;
	EEPROM_DATA[1]=3636;
 8001c70:	2184      	movs	r1, #132	; 0x84
void USE_DEF_CALIB() {
 8001c72:	b510      	push	{r4, lr}
	EEPROM_DATA[0]=132;
 8001c74:	4b02      	ldr	r3, [pc, #8]	; (8001c80 <USE_DEF_CALIB+0x10>)
	EEPROM_DATA[1]=3636;
 8001c76:	4a03      	ldr	r2, [pc, #12]	; (8001c84 <USE_DEF_CALIB+0x14>)
 8001c78:	c306      	stmia	r3!, {r1, r2}
	CALC_RATIO();
 8001c7a:	f7ff ffdd 	bl	8001c38 <CALC_RATIO>
}
 8001c7e:	bd10      	pop	{r4, pc}
 8001c80:	20000344 	.word	0x20000344
 8001c84:	00000e34 	.word	0x00000e34

08001c88 <USE_NEW_CALIB>:

void USE_NEW_CALIB() {
	if (EEPROM_CRC==0) {
 8001c88:	4b05      	ldr	r3, [pc, #20]	; (8001ca0 <USE_NEW_CALIB+0x18>)
void USE_NEW_CALIB() {
 8001c8a:	b510      	push	{r4, lr}
	if (EEPROM_CRC==0) {
 8001c8c:	681b      	ldr	r3, [r3, #0]
 8001c8e:	2b00      	cmp	r3, #0
 8001c90:	d102      	bne.n	8001c98 <USE_NEW_CALIB+0x10>
		USE_DEF_CALIB();
 8001c92:	f7ff ffed 	bl	8001c70 <USE_DEF_CALIB>
		return;
	}
	CALC_RATIO();
}
 8001c96:	bd10      	pop	{r4, pc}
	CALC_RATIO();
 8001c98:	f7ff ffce 	bl	8001c38 <CALC_RATIO>
 8001c9c:	e7fb      	b.n	8001c96 <USE_NEW_CALIB+0xe>
 8001c9e:	46c0      	nop			; (mov r8, r8)
 8001ca0:	20000340 	.word	0x20000340

08001ca4 <StoreEEPROM>:

//void StoreEEPROM(float V_CAL, float I_CAL) {
void StoreEEPROM(uint32_t V_CAL, uint32_t I_CAL) {
 8001ca4:	b570      	push	{r4, r5, r6, lr}
	EEPROM_FLAG=1;
 8001ca6:	2501      	movs	r5, #1
	//
	//memcpy(&EEPROM_DATA[0], &V_CAL,sizeof(uint32_t));
	//memcpy(&EEPROM_DATA[1], &I_CAL,sizeof(uint32_t));
	EEPROM_DATA[0]=V_CAL;
 8001ca8:	4c0d      	ldr	r4, [pc, #52]	; (8001ce0 <StoreEEPROM+0x3c>)
	EEPROM_FLAG=1;
 8001caa:	4e0e      	ldr	r6, [pc, #56]	; (8001ce4 <StoreEEPROM+0x40>)
	EEPROM_DATA[1]=I_CAL;
	EEPROM_CRC=TM_CRC_Calculate32((uint32_t *) &EEPROM_DATA, sizeof(EEPROM_DATA), 1);
 8001cac:	002a      	movs	r2, r5
	EEPROM_DATA[0]=V_CAL;
 8001cae:	6020      	str	r0, [r4, #0]
	EEPROM_DATA[1]=I_CAL;
 8001cb0:	6061      	str	r1, [r4, #4]
	EEPROM_CRC=TM_CRC_Calculate32((uint32_t *) &EEPROM_DATA, sizeof(EEPROM_DATA), 1);
 8001cb2:	0020      	movs	r0, r4
 8001cb4:	2108      	movs	r1, #8
	EEPROM_FLAG=1;
 8001cb6:	6035      	str	r5, [r6, #0]
	EEPROM_CRC=TM_CRC_Calculate32((uint32_t *) &EEPROM_DATA, sizeof(EEPROM_DATA), 1);
 8001cb8:	f7ff fe6e 	bl	8001998 <TM_CRC_Calculate32>
 8001cbc:	4b0a      	ldr	r3, [pc, #40]	; (8001ce8 <StoreEEPROM+0x44>)
 8001cbe:	0001      	movs	r1, r0
 8001cc0:	6018      	str	r0, [r3, #0]
	EE_Write(0,EEPROM_CRC);
 8001cc2:	2000      	movs	r0, #0
 8001cc4:	f000 fb28 	bl	8002318 <EE_Write>
	EE_Write(1,EEPROM_DATA[0]);
 8001cc8:	6821      	ldr	r1, [r4, #0]
 8001cca:	0028      	movs	r0, r5
 8001ccc:	f000 fb24 	bl	8002318 <EE_Write>
	EE_Write(2,EEPROM_DATA[1]);
 8001cd0:	6861      	ldr	r1, [r4, #4]
 8001cd2:	2002      	movs	r0, #2
 8001cd4:	f000 fb20 	bl	8002318 <EE_Write>
	//
	EEPROM_FLAG=0;
 8001cd8:	2300      	movs	r3, #0
 8001cda:	6033      	str	r3, [r6, #0]
}
 8001cdc:	bd70      	pop	{r4, r5, r6, pc}
 8001cde:	46c0      	nop			; (mov r8, r8)
 8001ce0:	20000344 	.word	0x20000344
 8001ce4:	2000034c 	.word	0x2000034c
 8001ce8:	20000340 	.word	0x20000340

08001cec <InitEEPROM>:

int InitEEPROM() {
 8001cec:	b5f8      	push	{r3, r4, r5, r6, r7, lr}
	EEPROM_FLAG=1;
 8001cee:	2401      	movs	r4, #1
 8001cf0:	4f10      	ldr	r7, [pc, #64]	; (8001d34 <InitEEPROM+0x48>)
 8001cf2:	603c      	str	r4, [r7, #0]
	//

	ResetEEPROM();
 8001cf4:	f7ff ff94 	bl	8001c20 <ResetEEPROM>
	EE_Read(0,&EEPROM_CRC);
 8001cf8:	4e0f      	ldr	r6, [pc, #60]	; (8001d38 <InitEEPROM+0x4c>)
 8001cfa:	2000      	movs	r0, #0
 8001cfc:	0031      	movs	r1, r6
 8001cfe:	f000 fae9 	bl	80022d4 <EE_Read>
	EE_Read(1,&EEPROM_DATA[0]);
 8001d02:	4d0e      	ldr	r5, [pc, #56]	; (8001d3c <InitEEPROM+0x50>)
 8001d04:	0020      	movs	r0, r4
 8001d06:	0029      	movs	r1, r5
 8001d08:	f000 fae4 	bl	80022d4 <EE_Read>
	EE_Read(2,&EEPROM_DATA[1]);
 8001d0c:	1d29      	adds	r1, r5, #4
 8001d0e:	2002      	movs	r0, #2
 8001d10:	f000 fae0 	bl	80022d4 <EE_Read>

	uint32_t EEPROM_CRC_tmp=TM_CRC_Calculate32((uint32_t *) &EEPROM_DATA, sizeof(EEPROM_DATA), 1);
 8001d14:	0028      	movs	r0, r5
 8001d16:	0022      	movs	r2, r4
 8001d18:	2108      	movs	r1, #8
 8001d1a:	f7ff fe3d 	bl	8001998 <TM_CRC_Calculate32>
	EEPROM_FLAG=0;
 8001d1e:	2500      	movs	r5, #0

	if (EEPROM_CRC_tmp==EEPROM_CRC) {
 8001d20:	6833      	ldr	r3, [r6, #0]
	EEPROM_FLAG=0;
 8001d22:	603d      	str	r5, [r7, #0]
	if (EEPROM_CRC_tmp==EEPROM_CRC) {
 8001d24:	4298      	cmp	r0, r3
 8001d26:	d002      	beq.n	8001d2e <InitEEPROM+0x42>
		return 1;
	} else {
		ResetEEPROM();
 8001d28:	f7ff ff7a 	bl	8001c20 <ResetEEPROM>
		return 0;
 8001d2c:	002c      	movs	r4, r5
	}
}
 8001d2e:	0020      	movs	r0, r4
 8001d30:	bdf8      	pop	{r3, r4, r5, r6, r7, pc}
 8001d32:	46c0      	nop			; (mov r8, r8)
 8001d34:	2000034c 	.word	0x2000034c
 8001d38:	20000340 	.word	0x20000340
 8001d3c:	20000344 	.word	0x20000344

08001d40 <CalibSave>:

//Calibration code
void CalibSave() {
 8001d40:	b510      	push	{r4, lr}
						EEPROMStoredCnt=0;
 8001d42:	2400      	movs	r4, #0
 8001d44:	4b07      	ldr	r3, [pc, #28]	; (8001d64 <CalibSave+0x24>)
 8001d46:	801c      	strh	r4, [r3, #0]
		      			USE_NEW_CALIB();
 8001d48:	f7ff ff9e 	bl	8001c88 <USE_NEW_CALIB>
		      			StoreEEPROM(EEPROM_DATA[0],EEPROM_DATA[1]);
 8001d4c:	4b06      	ldr	r3, [pc, #24]	; (8001d68 <CalibSave+0x28>)
 8001d4e:	cb03      	ldmia	r3!, {r0, r1}
 8001d50:	f7ff ffa8 	bl	8001ca4 <StoreEEPROM>
		      			strcpy(uart_buff,"CALIB DONE!\r\n");
 8001d54:	4905      	ldr	r1, [pc, #20]	; (8001d6c <CalibSave+0x2c>)
 8001d56:	4806      	ldr	r0, [pc, #24]	; (8001d70 <CalibSave+0x30>)
 8001d58:	f004 fdc1 	bl	80068de <strcpy>
		      			SerialPrintln(0);
 8001d5c:	0020      	movs	r0, r4
 8001d5e:	f7ff fe9f 	bl	8001aa0 <SerialPrintln>
		      		//}
}
 8001d62:	bd10      	pop	{r4, pc}
 8001d64:	20000240 	.word	0x20000240
 8001d68:	20000344 	.word	0x20000344
 8001d6c:	08007201 	.word	0x08007201
 8001d70:	20000498 	.word	0x20000498

08001d74 <CalibCmdCheck>:

int CalibCmdCheck() {
 8001d74:	b570      	push	{r4, r5, r6, lr}
				button_state_t ICAL_FLAG=buttonUpdate(&CALIB_I);
 8001d76:	4820      	ldr	r0, [pc, #128]	; (8001df8 <CalibCmdCheck+0x84>)
 8001d78:	f000 fb30 	bl	80023dc <buttonUpdate>
 8001d7c:	0005      	movs	r5, r0
				button_state_t VCAL_FLAG=buttonUpdate(&CALIB_V);
 8001d7e:	481f      	ldr	r0, [pc, #124]	; (8001dfc <CalibCmdCheck+0x88>)
 8001d80:	f000 fb2c 	bl	80023dc <buttonUpdate>

				if (EEPROMStoredCnt<EEPROMDelayBeforeNewStore) {
 8001d84:	4a1e      	ldr	r2, [pc, #120]	; (8001e00 <CalibCmdCheck+0x8c>)
 8001d86:	8813      	ldrh	r3, [r2, #0]
 8001d88:	2b09      	cmp	r3, #9
 8001d8a:	d803      	bhi.n	8001d94 <CalibCmdCheck+0x20>
					EEPROMStoredCnt++;
					return 0;
 8001d8c:	2000      	movs	r0, #0
					EEPROMStoredCnt++;
 8001d8e:	3301      	adds	r3, #1
 8001d90:	8013      	strh	r3, [r2, #0]
	      					//EEPROMStoredCnt=0;
	      					CalibSave();
	      					return 1;
	      		}
	      		return 0;
}
 8001d92:	bd70      	pop	{r4, r5, r6, pc}
				if ( (VCAL_FLAG == isPressed)
 8001d94:	2802      	cmp	r0, #2
 8001d96:	d115      	bne.n	8001dc4 <CalibCmdCheck+0x50>
 8001d98:	4c1a      	ldr	r4, [pc, #104]	; (8001e04 <CalibCmdCheck+0x90>)
	      				  && (ICAL_FLAG != isPressed)){
 8001d9a:	2d02      	cmp	r5, #2
 8001d9c:	d026      	beq.n	8001dec <CalibCmdCheck+0x78>
						EEPROM_DATA[0]=(VOLTAGE_ETALONE/(IV_RATIO*ADC_Data[0]));
 8001d9e:	4b1a      	ldr	r3, [pc, #104]	; (8001e08 <CalibCmdCheck+0x94>)
 8001da0:	8818      	ldrh	r0, [r3, #0]
 8001da2:	b280      	uxth	r0, r0
 8001da4:	f7ff f902 	bl	8000fac <__aeabi_i2f>
 8001da8:	4918      	ldr	r1, [pc, #96]	; (8001e0c <CalibCmdCheck+0x98>)
 8001daa:	f7fe fe23 	bl	80009f4 <__aeabi_fmul>
 8001dae:	1c01      	adds	r1, r0, #0
 8001db0:	4817      	ldr	r0, [pc, #92]	; (8001e10 <CalibCmdCheck+0x9c>)
 8001db2:	f7fe fc2f 	bl	8000614 <__aeabi_fdiv>
 8001db6:	f7fe fa83 	bl	80002c0 <__aeabi_f2uiz>
 8001dba:	6020      	str	r0, [r4, #0]
	      					CalibSave();
 8001dbc:	f7ff ffc0 	bl	8001d40 <CalibSave>
	      					return 1;
 8001dc0:	2001      	movs	r0, #1
 8001dc2:	e7e6      	b.n	8001d92 <CalibCmdCheck+0x1e>
	      		return 0;
 8001dc4:	2000      	movs	r0, #0
	      		  if ( (ICAL_FLAG == isPressed)
 8001dc6:	2d02      	cmp	r5, #2
 8001dc8:	d1e3      	bne.n	8001d92 <CalibCmdCheck+0x1e>
	      			  	EEPROM_DATA[1]=(POWER_ETALONE/(IV_RATIO*ADC_Data[1]));
 8001dca:	4b0f      	ldr	r3, [pc, #60]	; (8001e08 <CalibCmdCheck+0x94>)
 8001dcc:	8858      	ldrh	r0, [r3, #2]
 8001dce:	b280      	uxth	r0, r0
 8001dd0:	f7ff f8ec 	bl	8000fac <__aeabi_i2f>
 8001dd4:	490d      	ldr	r1, [pc, #52]	; (8001e0c <CalibCmdCheck+0x98>)
 8001dd6:	f7fe fe0d 	bl	80009f4 <__aeabi_fmul>
 8001dda:	1c01      	adds	r1, r0, #0
 8001ddc:	480d      	ldr	r0, [pc, #52]	; (8001e14 <CalibCmdCheck+0xa0>)
 8001dde:	f7fe fc19 	bl	8000614 <__aeabi_fdiv>
 8001de2:	f7fe fa6d 	bl	80002c0 <__aeabi_f2uiz>
 8001de6:	4b07      	ldr	r3, [pc, #28]	; (8001e04 <CalibCmdCheck+0x90>)
 8001de8:	6058      	str	r0, [r3, #4]
 8001dea:	e7e7      	b.n	8001dbc <CalibCmdCheck+0x48>
	      					USE_DEF_CALIB();
 8001dec:	f7ff ff40 	bl	8001c70 <USE_DEF_CALIB>
	      					StoreEEPROM(EEPROM_DATA[0],EEPROM_DATA[1]);
 8001df0:	cc03      	ldmia	r4!, {r0, r1}
 8001df2:	f7ff ff57 	bl	8001ca4 <StoreEEPROM>
 8001df6:	e7e1      	b.n	8001dbc <CalibCmdCheck+0x48>
 8001df8:	2000047c 	.word	0x2000047c
 8001dfc:	20000460 	.word	0x20000460
 8001e00:	20000240 	.word	0x20000240
 8001e04:	20000344 	.word	0x20000344
 8001e08:	20000458 	.word	0x20000458
 8001e0c:	3a533333 	.word	0x3a533333
 8001e10:	43660000 	.word	0x43660000
 8001e14:	447a0000 	.word	0x447a0000

08001e18 <Set50HzDeadTimeNS>:
//#define DeadTime64X 				1 //1331,2ns
//#define DeadTime128X 				1 //2662,4ns
void Set50HzDeadTimeNS(void) {

		// Tdts = Tck_int //
	    TIM1->CR1 &= ~TIM_CR1_CKD;
 8001e18:	4b10      	ldr	r3, [pc, #64]	; (8001e5c <Set50HzDeadTimeNS+0x44>)
 8001e1a:	4911      	ldr	r1, [pc, #68]	; (8001e60 <Set50HzDeadTimeNS+0x48>)
 8001e1c:	681a      	ldr	r2, [r3, #0]
 8001e1e:	400a      	ands	r2, r1
	    TIM1->BDTR &= ~TIM_BDTR_DTG;
 8001e20:	21ff      	movs	r1, #255	; 0xff
	    TIM1->CR1 &= ~TIM_CR1_CKD;
 8001e22:	601a      	str	r2, [r3, #0]
	    TIM1->BDTR &= ~TIM_BDTR_DTG;
 8001e24:	6c5a      	ldr	r2, [r3, #68]	; 0x44
 8001e26:	438a      	bics	r2, r1
 8001e28:	645a      	str	r2, [r3, #68]	; 0x44

	    //TIM1->BDTR  |= TIM_BDTR_DTG_7;//128x //2662,4ns
	    TIM1->BDTR  |= TIM_BDTR_DTG_6;//64x //1331,2ns
 8001e2a:	2240      	movs	r2, #64	; 0x40
 8001e2c:	6c59      	ldr	r1, [r3, #68]	; 0x44
 8001e2e:	430a      	orrs	r2, r1
 8001e30:	645a      	str	r2, [r3, #68]	; 0x44
	    //TIM1->BDTR  |= TIM_BDTR_DTG_5;//32x //665,6ns
	    TIM1->BDTR  |= TIM_BDTR_DTG_4;//16x //332,8ns
 8001e32:	2210      	movs	r2, #16
 8001e34:	6c59      	ldr	r1, [r3, #68]	; 0x44
 8001e36:	430a      	orrs	r2, r1
 8001e38:	645a      	str	r2, [r3, #68]	; 0x44
	    TIM1->BDTR  |= TIM_BDTR_DTG_3;//8x //166,4ns
 8001e3a:	2208      	movs	r2, #8
 8001e3c:	6c59      	ldr	r1, [r3, #68]	; 0x44
 8001e3e:	430a      	orrs	r2, r1
 8001e40:	645a      	str	r2, [r3, #68]	; 0x44
	    TIM1->BDTR  |= TIM_BDTR_DTG_2;//4x //83,2ns
 8001e42:	2204      	movs	r2, #4
 8001e44:	6c59      	ldr	r1, [r3, #68]	; 0x44
 8001e46:	430a      	orrs	r2, r1
 8001e48:	645a      	str	r2, [r3, #68]	; 0x44
	    TIM1->BDTR  |= TIM_BDTR_DTG_1;//2x  //41,6ns
 8001e4a:	2202      	movs	r2, #2
 8001e4c:	6c59      	ldr	r1, [r3, #68]	; 0x44
 8001e4e:	430a      	orrs	r2, r1
 8001e50:	645a      	str	r2, [r3, #68]	; 0x44
	    TIM1->BDTR  |= TIM_BDTR_DTG_0;//1x // Dead time base value 1/Fosc=1/48000=20.8ns
 8001e52:	2201      	movs	r2, #1
 8001e54:	6c59      	ldr	r1, [r3, #68]	; 0x44
 8001e56:	430a      	orrs	r2, r1
 8001e58:	645a      	str	r2, [r3, #68]	; 0x44
}
 8001e5a:	4770      	bx	lr
 8001e5c:	40012c00 	.word	0x40012c00
 8001e60:	fffffcff 	.word	0xfffffcff

08001e64 <SetNormalSignal>:
////////////////////// DEAD TIME - END //////////////////////


////////////////////// SIGNAL INVERSE - BEGIN //////////////////////
void SetNormalSignal(void) {
		TIM1->CCER |= TIM_CCER_CC3NP; // active high level: 0 - high, 1 - low
 8001e64:	2280      	movs	r2, #128	; 0x80
 8001e66:	4b05      	ldr	r3, [pc, #20]	; (8001e7c <SetNormalSignal+0x18>)
 8001e68:	0112      	lsls	r2, r2, #4
 8001e6a:	6a19      	ldr	r1, [r3, #32]
 8001e6c:	430a      	orrs	r2, r1
 8001e6e:	621a      	str	r2, [r3, #32]
		TIM1->CCER |= TIM_CCER_CC3P; // active high level: 0 - high, 1 - low
 8001e70:	2280      	movs	r2, #128	; 0x80
 8001e72:	6a19      	ldr	r1, [r3, #32]
 8001e74:	0092      	lsls	r2, r2, #2
 8001e76:	430a      	orrs	r2, r1
 8001e78:	621a      	str	r2, [r3, #32]
}
 8001e7a:	4770      	bx	lr
 8001e7c:	40012c00 	.word	0x40012c00

08001e80 <Idle_SET>:
////////////////////// SIGNAL INVERSE - END //////////////////////

////////////////////// IDLE STATE - BEGIN //////////////////////
void Idle_SET(void) {
	    /* output idle state HIGHT */
		TIM1->CR2 |= TIM_CR2_OIS3;
 8001e80:	2280      	movs	r2, #128	; 0x80
 8001e82:	4b05      	ldr	r3, [pc, #20]	; (8001e98 <Idle_SET+0x18>)
 8001e84:	0152      	lsls	r2, r2, #5
 8001e86:	6859      	ldr	r1, [r3, #4]
 8001e88:	430a      	orrs	r2, r1
 8001e8a:	605a      	str	r2, [r3, #4]
		TIM1->CR2 |= TIM_CR2_OIS3N;
 8001e8c:	2280      	movs	r2, #128	; 0x80
 8001e8e:	6859      	ldr	r1, [r3, #4]
 8001e90:	0192      	lsls	r2, r2, #6
 8001e92:	430a      	orrs	r2, r1
 8001e94:	605a      	str	r2, [r3, #4]
}
 8001e96:	4770      	bx	lr
 8001e98:	40012c00 	.word	0x40012c00

08001e9c <PWM_50Hz_Init>:
	/************************** Config PWM channel ************************************/

	TIM1->PSC = 960-1; // div for clock: F = SYSCLK / [PSC + 1]
	TIM1->ARR = 1000; // count to 1000
	TIM1->CCR3 = 500; // duty cycle 50%
	TIM1->CR1 &= ~TIM_CR1_DIR; // count up: 0 - up, 1 - down
 8001e9c:	2110      	movs	r1, #16
	TIM1->PSC = 960-1; // div for clock: F = SYSCLK / [PSC + 1]
 8001e9e:	4b11      	ldr	r3, [pc, #68]	; (8001ee4 <PWM_50Hz_Init+0x48>)
 8001ea0:	4a11      	ldr	r2, [pc, #68]	; (8001ee8 <PWM_50Hz_Init+0x4c>)
void PWM_50Hz_Init (void) {
 8001ea2:	b510      	push	{r4, lr}
	TIM1->PSC = 960-1; // div for clock: F = SYSCLK / [PSC + 1]
 8001ea4:	629a      	str	r2, [r3, #40]	; 0x28
	TIM1->ARR = 1000; // count to 1000
 8001ea6:	3229      	adds	r2, #41	; 0x29
 8001ea8:	62da      	str	r2, [r3, #44]	; 0x2c
	TIM1->CCR3 = 500; // duty cycle 50%
 8001eaa:	3af5      	subs	r2, #245	; 0xf5
 8001eac:	3aff      	subs	r2, #255	; 0xff
 8001eae:	63da      	str	r2, [r3, #60]	; 0x3c
	TIM1->CR1 &= ~TIM_CR1_DIR; // count up: 0 - up, 1 - down
 8001eb0:	681a      	ldr	r2, [r3, #0]
    TIM1->CR1 &= ~TIM_CR1_CMS; // aligned on the front signal

    TIM1->CCMR2 &= ~TIM_CCMR2_OC3M;
 8001eb2:	2070      	movs	r0, #112	; 0x70
	TIM1->CR1 &= ~TIM_CR1_DIR; // count up: 0 - up, 1 - down
 8001eb4:	438a      	bics	r2, r1
 8001eb6:	601a      	str	r2, [r3, #0]
    TIM1->CR1 &= ~TIM_CR1_CMS; // aligned on the front signal
 8001eb8:	2260      	movs	r2, #96	; 0x60
 8001eba:	6819      	ldr	r1, [r3, #0]
 8001ebc:	4391      	bics	r1, r2
 8001ebe:	6019      	str	r1, [r3, #0]
    TIM1->CCMR2 &= ~TIM_CCMR2_OC3M;
 8001ec0:	69d9      	ldr	r1, [r3, #28]
 8001ec2:	4381      	bics	r1, r0
 8001ec4:	61d9      	str	r1, [r3, #28]
    TIM1->CCMR2 |= TIM_CCMR2_OC3M_2 | TIM_CCMR2_OC3M_1; // positiv PWM
 8001ec6:	69d9      	ldr	r1, [r3, #28]
 8001ec8:	430a      	orrs	r2, r1
 8001eca:	61da      	str	r2, [r3, #28]

	/* Enable channel outputs */
	TIM1->CCER |= TIM_CCER_CC3E | TIM_CCER_CC3NE; // enable PWM complementary out
 8001ecc:	22a0      	movs	r2, #160	; 0xa0
 8001ece:	6a19      	ldr	r1, [r3, #32]
 8001ed0:	00d2      	lsls	r2, r2, #3
 8001ed2:	430a      	orrs	r2, r1
 8001ed4:	621a      	str	r2, [r3, #32]

	SetNormalSignal(); // NORMAL or INVERSE
 8001ed6:	f7ff ffc5 	bl	8001e64 <SetNormalSignal>
	Idle_SET(); // se idle state /* output idle state HIGHT */
 8001eda:	f7ff ffd1 	bl	8001e80 <Idle_SET>

	Set50HzDeadTimeNS(); // 1976 ns
 8001ede:	f7ff ff9b 	bl	8001e18 <Set50HzDeadTimeNS>

	//ch50HZ_OUTEN(); // OUTPUT ENABLE
	//ch50HZ_START(); // start CNT

}
 8001ee2:	bd10      	pop	{r4, pc}
 8001ee4:	40012c00 	.word	0x40012c00
 8001ee8:	000003bf 	.word	0x000003bf

08001eec <PWM_50Hz_START>:

////////////////////// CONTROL 50Hz - BEGIN //////////////////////
void PWM_50Hz_START(void)
{
	//TIM1->CNT = 0;
	TIM1->CCR3=500;
 8001eec:	23fa      	movs	r3, #250	; 0xfa
{
 8001eee:	b510      	push	{r4, lr}
	TIM1->CCR3=500;
 8001ef0:	4c0c      	ldr	r4, [pc, #48]	; (8001f24 <PWM_50Hz_START+0x38>)
 8001ef2:	005b      	lsls	r3, r3, #1
 8001ef4:	63e3      	str	r3, [r4, #60]	; 0x3c
	/* Enable channel outputs */
		TIM1->CCER |= TIM_CCER_CC3E | TIM_CCER_CC3NE; // enable PWM complementary out
 8001ef6:	23a0      	movs	r3, #160	; 0xa0
 8001ef8:	6a22      	ldr	r2, [r4, #32]
 8001efa:	00db      	lsls	r3, r3, #3
 8001efc:	4313      	orrs	r3, r2
 8001efe:	6223      	str	r3, [r4, #32]

		SetNormalSignal(); // NORMAL or INVERSE
 8001f00:	f7ff ffb0 	bl	8001e64 <SetNormalSignal>
		Idle_SET(); // se idle state /* output idle state HIGHT */
 8001f04:	f7ff ffbc 	bl	8001e80 <Idle_SET>

		Set50HzDeadTimeNS(); // 1976 ns
 8001f08:	f7ff ff86 	bl	8001e18 <Set50HzDeadTimeNS>

	TIM1->DIER |= TIM_DIER_UIE;
 8001f0c:	2301      	movs	r3, #1
 8001f0e:	68e2      	ldr	r2, [r4, #12]
 8001f10:	431a      	orrs	r2, r3
 8001f12:	60e2      	str	r2, [r4, #12]
	TIM1->CR1 |= TIM_CR1_CEN;
 8001f14:	6822      	ldr	r2, [r4, #0]
 8001f16:	4313      	orrs	r3, r2
 8001f18:	6023      	str	r3, [r4, #0]

	ResetV_data();
 8001f1a:	f7ff f9d9 	bl	80012d0 <ResetV_data>
	UpdateAmplitudeByV();
 8001f1e:	f7ff fb89 	bl	8001634 <UpdateAmplitudeByV>
}
 8001f22:	bd10      	pop	{r4, pc}
 8001f24:	40012c00 	.word	0x40012c00

08001f28 <PWM_50Hz_STOP>:

void PWM_50Hz_STOP(void)
{
	//TIM1->CNT = 0;
	TIM1->SR&=~TIM_SR_UIF; // clear update flag
 8001f28:	2101      	movs	r1, #1
 8001f2a:	4b10      	ldr	r3, [pc, #64]	; (8001f6c <PWM_50Hz_STOP+0x44>)
 8001f2c:	691a      	ldr	r2, [r3, #16]
 8001f2e:	438a      	bics	r2, r1
 8001f30:	611a      	str	r2, [r3, #16]

	TIM1->DIER &= ~TIM_DIER_UIE; // stop interrupt
 8001f32:	68da      	ldr	r2, [r3, #12]
 8001f34:	438a      	bics	r2, r1
 8001f36:	60da      	str	r2, [r3, #12]
	TIM1->CR1 &= (uint16_t)~TIM_CR1_CEN; // stop cnt
 8001f38:	681a      	ldr	r2, [r3, #0]
 8001f3a:	490d      	ldr	r1, [pc, #52]	; (8001f70 <PWM_50Hz_STOP+0x48>)
 8001f3c:	400a      	ands	r2, r1
 8001f3e:	601a      	str	r2, [r3, #0]

	//TIM1->CR1 &= ~TIM_CR1_CKD; // off dead time
	//TIM1->BDTR &= ~TIM_BDTR_DTG;

	TIM1->CR2 |= TIM_CR2_OIS3N; // revert level
 8001f40:	2280      	movs	r2, #128	; 0x80
 8001f42:	6859      	ldr	r1, [r3, #4]
 8001f44:	0192      	lsls	r2, r2, #6
 8001f46:	430a      	orrs	r2, r1
 8001f48:	605a      	str	r2, [r3, #4]
	TIM1->CR2 &= ~TIM_CR2_OIS3;
 8001f4a:	685a      	ldr	r2, [r3, #4]
 8001f4c:	4909      	ldr	r1, [pc, #36]	; (8001f74 <PWM_50Hz_STOP+0x4c>)
 8001f4e:	400a      	ands	r2, r1
 8001f50:	605a      	str	r2, [r3, #4]

	TIM1->CCER |= TIM_CCER_CC3P; // active high level: 0 - high, 1 - low
 8001f52:	2280      	movs	r2, #128	; 0x80
 8001f54:	6a19      	ldr	r1, [r3, #32]
 8001f56:	0092      	lsls	r2, r2, #2
 8001f58:	430a      	orrs	r2, r1
 8001f5a:	621a      	str	r2, [r3, #32]
	TIM1->CCER &= ~TIM_CCER_CC3NP; // active high level: 0 - high, 1 - low
 8001f5c:	6a1a      	ldr	r2, [r3, #32]
 8001f5e:	4906      	ldr	r1, [pc, #24]	; (8001f78 <PWM_50Hz_STOP+0x50>)
 8001f60:	400a      	ands	r2, r1
 8001f62:	621a      	str	r2, [r3, #32]

	TIM1->CCR3=0;
 8001f64:	2200      	movs	r2, #0
 8001f66:	63da      	str	r2, [r3, #60]	; 0x3c

}
 8001f68:	4770      	bx	lr
 8001f6a:	46c0      	nop			; (mov r8, r8)
 8001f6c:	40012c00 	.word	0x40012c00
 8001f70:	0000fffe 	.word	0x0000fffe
 8001f74:	ffffefff 	.word	0xffffefff
 8001f78:	fffff7ff 	.word	0xfffff7ff

08001f7c <PWM_50Hz_OUTEN>:

void PWM_50Hz_OUTEN(void)
{
	TIM1->BDTR |= TIM_BDTR_MOE | TIM_BDTR_AOE; // enable generation output
 8001f7c:	23c0      	movs	r3, #192	; 0xc0
 8001f7e:	4a03      	ldr	r2, [pc, #12]	; (8001f8c <PWM_50Hz_OUTEN+0x10>)
 8001f80:	021b      	lsls	r3, r3, #8
 8001f82:	6c51      	ldr	r1, [r2, #68]	; 0x44
 8001f84:	430b      	orrs	r3, r1
 8001f86:	6453      	str	r3, [r2, #68]	; 0x44
	//HAL_TIM_PWM_Start(&htim1,TIM_CHANNEL_3);
}
 8001f88:	4770      	bx	lr
 8001f8a:	46c0      	nop			; (mov r8, r8)
 8001f8c:	40012c00 	.word	0x40012c00

08001f90 <PWM_50Hz_OUTDIS>:

void PWM_50Hz_OUTDIS(void)
{
    TIM1->BDTR &= ~TIM_BDTR_MOE;
 8001f90:	4b04      	ldr	r3, [pc, #16]	; (8001fa4 <PWM_50Hz_OUTDIS+0x14>)
 8001f92:	4905      	ldr	r1, [pc, #20]	; (8001fa8 <PWM_50Hz_OUTDIS+0x18>)
 8001f94:	6c5a      	ldr	r2, [r3, #68]	; 0x44
 8001f96:	400a      	ands	r2, r1
 8001f98:	645a      	str	r2, [r3, #68]	; 0x44
    TIM1->BDTR &= ~TIM_BDTR_AOE;
 8001f9a:	6c5a      	ldr	r2, [r3, #68]	; 0x44
 8001f9c:	4903      	ldr	r1, [pc, #12]	; (8001fac <PWM_50Hz_OUTDIS+0x1c>)
 8001f9e:	400a      	ands	r2, r1
 8001fa0:	645a      	str	r2, [r3, #68]	; 0x44
    //HAL_TIM_PWM_Stop(&htim1,TIM_CHANNEL_3);
}
 8001fa2:	4770      	bx	lr
 8001fa4:	40012c00 	.word	0x40012c00
 8001fa8:	ffff7fff 	.word	0xffff7fff
 8001fac:	ffffbfff 	.word	0xffffbfff

08001fb0 <PWM_50Hz_ON>:

void PWM_50Hz_ON(void){
 8001fb0:	b510      	push	{r4, lr}
	PWM_50Hz_OUTEN(); // OUTPUT ENABLE
 8001fb2:	f7ff ffe3 	bl	8001f7c <PWM_50Hz_OUTEN>
	PWM_50Hz_START(); // start CNT
 8001fb6:	f7ff ff99 	bl	8001eec <PWM_50Hz_START>
}
 8001fba:	bd10      	pop	{r4, pc}

08001fbc <PWM_50Hz_OFF>:

void PWM_50Hz_OFF(void){
 8001fbc:	b510      	push	{r4, lr}
	PWM_50Hz_OUTDIS(); // OUTPUT ENABLE
 8001fbe:	f7ff ffe7 	bl	8001f90 <PWM_50Hz_OUTDIS>
	PWM_50Hz_STOP(); // start CNT
 8001fc2:	f7ff ffb1 	bl	8001f28 <PWM_50Hz_STOP>
}
 8001fc6:	bd10      	pop	{r4, pc}

08001fc8 <PWM_Sinus_START>:


////////////////////// INIT GENERATOR PWM LOW - BEGIN //////////////////////
void PWM_Sinus_START(void)
{
	sin_step=0;
 8001fc8:	2200      	movs	r2, #0
 8001fca:	4b08      	ldr	r3, [pc, #32]	; (8001fec <PWM_Sinus_START+0x24>)
{
 8001fcc:	b510      	push	{r4, lr}
	sin_step=0;
 8001fce:	801a      	strh	r2, [r3, #0]
	//TIM1->CNT = 0;
	TIM3->CCR1=0;
 8001fd0:	4b07      	ldr	r3, [pc, #28]	; (8001ff0 <PWM_Sinus_START+0x28>)
 8001fd2:	635a      	str	r2, [r3, #52]	; 0x34
	TIM3->CCR2=0;
 8001fd4:	639a      	str	r2, [r3, #56]	; 0x38
	//TIM3->CCER |= TIM_CCER_CC1P;

	//TIM3->CCER |= TIM_CCER_CC2E; // enable PWM complementary out to PA9
	//TIM3->CCER |= TIM_CCER_CC2P;

	TIM3->DIER |= TIM_DIER_UIE;
 8001fd6:	68d9      	ldr	r1, [r3, #12]
 8001fd8:	3201      	adds	r2, #1
 8001fda:	4311      	orrs	r1, r2
 8001fdc:	60d9      	str	r1, [r3, #12]
	TIM3->CR1 |= TIM_CR1_CEN;
 8001fde:	6819      	ldr	r1, [r3, #0]
 8001fe0:	430a      	orrs	r2, r1
 8001fe2:	601a      	str	r2, [r3, #0]

	ResetAmplitude();
 8001fe4:	f000 f8e6 	bl	80021b4 <ResetAmplitude>
}
 8001fe8:	bd10      	pop	{r4, pc}
 8001fea:	46c0      	nop			; (mov r8, r8)
 8001fec:	2000032a 	.word	0x2000032a
 8001ff0:	40000400 	.word	0x40000400

08001ff4 <PWM_Sinus_STOP>:

void PWM_Sinus_STOP(void)
{
	//TIM1->CNT = 0;
	TIM3->SR&=~TIM_SR_UIF; // clear update flag
 8001ff4:	2101      	movs	r1, #1
 8001ff6:	4b07      	ldr	r3, [pc, #28]	; (8002014 <PWM_Sinus_STOP+0x20>)
 8001ff8:	691a      	ldr	r2, [r3, #16]
 8001ffa:	438a      	bics	r2, r1
 8001ffc:	611a      	str	r2, [r3, #16]

	TIM3->DIER &= ~TIM_DIER_UIE; // stop interrupt
 8001ffe:	68da      	ldr	r2, [r3, #12]
 8002000:	438a      	bics	r2, r1
 8002002:	60da      	str	r2, [r3, #12]
	TIM3->CR1 &= (uint16_t)~TIM_CR1_CEN; // stop cnt
 8002004:	681a      	ldr	r2, [r3, #0]
 8002006:	4904      	ldr	r1, [pc, #16]	; (8002018 <PWM_Sinus_STOP+0x24>)
 8002008:	400a      	ands	r2, r1
 800200a:	601a      	str	r2, [r3, #0]

	TIM3->CCR1=0;
 800200c:	2200      	movs	r2, #0
 800200e:	635a      	str	r2, [r3, #52]	; 0x34
	TIM3->CCR2=0;
 8002010:	639a      	str	r2, [r3, #56]	; 0x38
}
 8002012:	4770      	bx	lr
 8002014:	40000400 	.word	0x40000400
 8002018:	0000fffe 	.word	0x0000fffe

0800201c <PWM_Sinus_OUTEN>:

void PWM_Sinus_OUTEN(void)
{
	TIM3->BDTR |= TIM_BDTR_MOE | TIM_BDTR_AOE; // enable generation output
 800201c:	23c0      	movs	r3, #192	; 0xc0
 800201e:	4a03      	ldr	r2, [pc, #12]	; (800202c <PWM_Sinus_OUTEN+0x10>)
 8002020:	021b      	lsls	r3, r3, #8
 8002022:	6c51      	ldr	r1, [r2, #68]	; 0x44
 8002024:	430b      	orrs	r3, r1
 8002026:	6453      	str	r3, [r2, #68]	; 0x44

	//HAL_TIM_PWM_Start(&htim3,TIM_CHANNEL_1);
	//HAL_TIM_PWM_Start(&htim3,TIM_CHANNEL_2);
}
 8002028:	4770      	bx	lr
 800202a:	46c0      	nop			; (mov r8, r8)
 800202c:	40000400 	.word	0x40000400

08002030 <PWM_Sinus_OUTDIS>:

void PWM_Sinus_OUTDIS(void)
{
    TIM3->BDTR &= ~TIM_BDTR_MOE;
 8002030:	4b04      	ldr	r3, [pc, #16]	; (8002044 <PWM_Sinus_OUTDIS+0x14>)
 8002032:	4905      	ldr	r1, [pc, #20]	; (8002048 <PWM_Sinus_OUTDIS+0x18>)
 8002034:	6c5a      	ldr	r2, [r3, #68]	; 0x44
 8002036:	400a      	ands	r2, r1
 8002038:	645a      	str	r2, [r3, #68]	; 0x44
    TIM3->BDTR &= ~TIM_BDTR_AOE;
 800203a:	6c5a      	ldr	r2, [r3, #68]	; 0x44
 800203c:	4903      	ldr	r1, [pc, #12]	; (800204c <PWM_Sinus_OUTDIS+0x1c>)
 800203e:	400a      	ands	r2, r1
 8002040:	645a      	str	r2, [r3, #68]	; 0x44

    //HAL_TIM_PWM_Stop(&htim3,TIM_CHANNEL_1);
    //HAL_TIM_PWM_Stop(&htim3,TIM_CHANNEL_2);
}
 8002042:	4770      	bx	lr
 8002044:	40000400 	.word	0x40000400
 8002048:	ffff7fff 	.word	0xffff7fff
 800204c:	ffffbfff 	.word	0xffffbfff

08002050 <PWM_Sinus_ON>:

void PWM_Sinus_ON(void) {
 8002050:	b510      	push	{r4, lr}
	PWM_Sinus_OUTEN(); // OUTPUT ENABLE
 8002052:	f7ff ffe3 	bl	800201c <PWM_Sinus_OUTEN>
	PWM_Sinus_START(); // start CNT
 8002056:	f7ff ffb7 	bl	8001fc8 <PWM_Sinus_START>
}
 800205a:	bd10      	pop	{r4, pc}

0800205c <PWM_Sinus_OFF>:

void PWM_Sinus_OFF(void){
 800205c:	b510      	push	{r4, lr}
	PWM_Sinus_OUTDIS(); // OUTPUT ENABLE
 800205e:	f7ff ffe7 	bl	8002030 <PWM_Sinus_OUTDIS>
	PWM_Sinus_STOP(); // start CNT
 8002062:	f7ff ffc7 	bl	8001ff4 <PWM_Sinus_STOP>
}
 8002066:	bd10      	pop	{r4, pc}

08002068 <PWM_Sinus_Init>:
	//GPIOA->CRL	&= ~GPIO_CRL_MODE1;
	//GPIOA->CRL	|= GPIO_CRL_MODE1; // gpio speed 50 MHz

	/*************************** Config PWM channel ***********************************/
		TIM3->PSC = SinResPSC; // div for clock: F = SYSCLK / [PSC + 1]
		TIM3->ARR = 1000; // count to 1000
 8002068:	21fa      	movs	r1, #250	; 0xfa
		TIM3->PSC = SinResPSC; // div for clock: F = SYSCLK / [PSC + 1]
 800206a:	2201      	movs	r2, #1
 800206c:	4b17      	ldr	r3, [pc, #92]	; (80020cc <PWM_Sinus_Init+0x64>)
		TIM3->ARR = 1000; // count to 1000
 800206e:	0089      	lsls	r1, r1, #2
		TIM3->PSC = SinResPSC; // div for clock: F = SYSCLK / [PSC + 1]
 8002070:	629a      	str	r2, [r3, #40]	; 0x28
		TIM3->ARR = 1000; // count to 1000
 8002072:	62d9      	str	r1, [r3, #44]	; 0x2c
		TIM3->CCR1 = 0; // duty cycle 0%
 8002074:	2100      	movs	r1, #0
 8002076:	6359      	str	r1, [r3, #52]	; 0x34
		TIM3->CCR2 = 0; // duty cycle 0%
 8002078:	6399      	str	r1, [r3, #56]	; 0x38

			TIM3->CCER |= TIM_CCER_CC1E; // enable PWM out to PA8
 800207a:	6a19      	ldr	r1, [r3, #32]
 800207c:	430a      	orrs	r2, r1
 800207e:	621a      	str	r2, [r3, #32]
			//TIM3->CCER &= ~TIM_CCER_CC1P; // active high level: 0 - high, 1 - low
			TIM3->CCER |= TIM_CCER_CC1P;
 8002080:	2202      	movs	r2, #2
 8002082:	6a19      	ldr	r1, [r3, #32]
 8002084:	430a      	orrs	r2, r1

			TIM3->CCER |= TIM_CCER_CC2E; // enable PWM complementary out to PA9
 8002086:	2110      	movs	r1, #16
			TIM3->CCER |= TIM_CCER_CC1P;
 8002088:	621a      	str	r2, [r3, #32]
			TIM3->CCER |= TIM_CCER_CC2E; // enable PWM complementary out to PA9
 800208a:	6a1a      	ldr	r2, [r3, #32]
 800208c:	430a      	orrs	r2, r1
 800208e:	621a      	str	r2, [r3, #32]
			//TIM3->CCER &= ~TIM_CCER_CC2P; // active high level: 0 - high, 1 - low
			TIM3->CCER |= TIM_CCER_CC2P;
 8002090:	2220      	movs	r2, #32
 8002092:	6a18      	ldr	r0, [r3, #32]
 8002094:	4302      	orrs	r2, r0
 8002096:	621a      	str	r2, [r3, #32]

		// se idle state
		TIM3->CR2 |= TIM_CR2_OIS1;
 8002098:	2280      	movs	r2, #128	; 0x80
 800209a:	6858      	ldr	r0, [r3, #4]
 800209c:	0052      	lsls	r2, r2, #1
 800209e:	4302      	orrs	r2, r0
 80020a0:	605a      	str	r2, [r3, #4]
		TIM3->CR2 |= TIM_CR2_OIS2;
 80020a2:	2280      	movs	r2, #128	; 0x80
 80020a4:	6858      	ldr	r0, [r3, #4]
 80020a6:	00d2      	lsls	r2, r2, #3
 80020a8:	4302      	orrs	r2, r0
 80020aa:	605a      	str	r2, [r3, #4]

		TIM3->CCMR1 &= ~(TIM_CCMR1_OC1M | TIM_CCMR1_OC2M);
 80020ac:	699a      	ldr	r2, [r3, #24]
 80020ae:	4808      	ldr	r0, [pc, #32]	; (80020d0 <PWM_Sinus_Init+0x68>)
 80020b0:	4002      	ands	r2, r0
 80020b2:	619a      	str	r2, [r3, #24]
		TIM3->CCMR1 |= TIM_CCMR1_OC1M_2 | TIM_CCMR1_OC1M_1 |
 80020b4:	6998      	ldr	r0, [r3, #24]
 80020b6:	4a07      	ldr	r2, [pc, #28]	; (80020d4 <PWM_Sinus_Init+0x6c>)
 80020b8:	4302      	orrs	r2, r0
 80020ba:	619a      	str	r2, [r3, #24]
		 TIM_CCMR1_OC2M_2 | TIM_CCMR1_OC2M_1; // positiv PWM1_CH1 and PWM1_CH2

		/*******************************************************************************/

		TIM3->CR1 &= ~TIM_CR1_DIR; // count up: 0 - up, 1 - down
 80020bc:	681a      	ldr	r2, [r3, #0]
 80020be:	438a      	bics	r2, r1
 80020c0:	601a      	str	r2, [r3, #0]
		TIM3->CR1 &= ~TIM_CR1_CMS; // aligned on the front signal: 00 - front; 01, 10, 11 - center
 80020c2:	681a      	ldr	r2, [r3, #0]
 80020c4:	3150      	adds	r1, #80	; 0x50
 80020c6:	438a      	bics	r2, r1
 80020c8:	601a      	str	r2, [r3, #0]

}
 80020ca:	4770      	bx	lr
 80020cc:	40000400 	.word	0x40000400
 80020d0:	ffff8f8f 	.word	0xffff8f8f
 80020d4:	00006060 	.word	0x00006060

080020d8 <DigiTOS_IWDG_Init>:
	
	/* Check if the system has resumed from IWDG reset */
#if defined(STM32F4xx)
	if (RCC->CSR & RCC_CSR_WDGRSTF) {
#else
	if (RCC->CSR & RCC_CSR_IWDGRSTF) {	
 80020d8:	4b23      	ldr	r3, [pc, #140]	; (8002168 <DigiTOS_IWDG_Init+0x90>)
uint8_t DigiTOS_IWDG_Init(DigiTOS_IWDG_Timeout_t timeout) {
 80020da:	0002      	movs	r2, r0
	if (RCC->CSR & RCC_CSR_IWDGRSTF) {	
 80020dc:	6a59      	ldr	r1, [r3, #36]	; 0x24
	uint8_t result = 0;
 80020de:	2000      	movs	r0, #0
	if (RCC->CSR & RCC_CSR_IWDGRSTF) {	
 80020e0:	0089      	lsls	r1, r1, #2
 80020e2:	d505      	bpl.n	80020f0 <DigiTOS_IWDG_Init+0x18>
#endif
		/* Reset by IWDG */
		result = 1;
		
		/* Clear reset flags */
		RCC->CSR |= RCC_CSR_RMVF;
 80020e4:	2180      	movs	r1, #128	; 0x80
 80020e6:	6a58      	ldr	r0, [r3, #36]	; 0x24
 80020e8:	0449      	lsls	r1, r1, #17
 80020ea:	4301      	orrs	r1, r0
		result = 1;
 80020ec:	2001      	movs	r0, #1
		RCC->CSR |= RCC_CSR_RMVF;
 80020ee:	6259      	str	r1, [r3, #36]	; 0x24
	}

	/* Enable write access to IWDG_PR and IWDG_RLR registers */
	IWDG->KR = 0x5555;
 80020f0:	491e      	ldr	r1, [pc, #120]	; (800216c <DigiTOS_IWDG_Init+0x94>)
 80020f2:	4b1f      	ldr	r3, [pc, #124]	; (8002170 <DigiTOS_IWDG_Init+0x98>)
 80020f4:	600b      	str	r3, [r1, #0]

	/* Set proper clock depending on timeout user select */
	if (timeout >= DigiTOS_IWDG_Timeout_8s) {
 80020f6:	2a0a      	cmp	r2, #10
 80020f8:	d921      	bls.n	800213e <DigiTOS_IWDG_Init+0x66>
		/* IWDG counter clock: LSI/256 = 128Hz */
		IWDG->PR = 0x07;
 80020fa:	2307      	movs	r3, #7
 80020fc:	604b      	str	r3, [r1, #4]
	if (timeout == DigiTOS_IWDG_Timeout_5ms) {
		reload = 5; /* 1024 Hz IWDG ticking */
	} else if (timeout == DigiTOS_IWDG_Timeout_10ms) {
		reload = 10; /* 1024 Hz IWDG ticking */
	} else if (timeout == DigiTOS_IWDG_Timeout_15ms) {
		reload = 15; /* 1024 Hz IWDG ticking */
 80020fe:	230f      	movs	r3, #15
	} else if (timeout == DigiTOS_IWDG_Timeout_15ms) {
 8002100:	2a02      	cmp	r2, #2
 8002102:	d024      	beq.n	800214e <DigiTOS_IWDG_Init+0x76>
	} else if (timeout == DigiTOS_IWDG_Timeout_30ms) {
		reload = 31; /* 1024 Hz IWDG ticking */
 8002104:	3310      	adds	r3, #16
	} else if (timeout == DigiTOS_IWDG_Timeout_30ms) {
 8002106:	2a03      	cmp	r2, #3
 8002108:	d021      	beq.n	800214e <DigiTOS_IWDG_Init+0x76>
	} else if (timeout == DigiTOS_IWDG_Timeout_60ms) {
		reload = 61; /* 1024 Hz IWDG ticking */
 800210a:	331e      	adds	r3, #30
	} else if (timeout == DigiTOS_IWDG_Timeout_60ms) {
 800210c:	2a04      	cmp	r2, #4
 800210e:	d01e      	beq.n	800214e <DigiTOS_IWDG_Init+0x76>
	} else if (timeout == DigiTOS_IWDG_Timeout_120ms) {
		reload = 123; /* 1024 Hz IWDG ticking */
 8002110:	333e      	adds	r3, #62	; 0x3e
	} else if (timeout == DigiTOS_IWDG_Timeout_120ms) {
 8002112:	2a05      	cmp	r2, #5
 8002114:	d01b      	beq.n	800214e <DigiTOS_IWDG_Init+0x76>
	} else if (timeout == DigiTOS_IWDG_Timeout_250ms) {
		reload = 255; /* 1024 Hz IWDG ticking */
 8002116:	3384      	adds	r3, #132	; 0x84
	} else if (timeout == DigiTOS_IWDG_Timeout_250ms) {
 8002118:	2a06      	cmp	r2, #6
 800211a:	d018      	beq.n	800214e <DigiTOS_IWDG_Init+0x76>
	} else if (timeout == DigiTOS_IWDG_Timeout_500ms) {
 800211c:	2a07      	cmp	r2, #7
 800211e:	d01c      	beq.n	800215a <DigiTOS_IWDG_Init+0x82>
		reload = 511; /* 1024 Hz IWDG ticking */
	} else if (timeout == DigiTOS_IWDG_Timeout_1s) {
 8002120:	2a08      	cmp	r2, #8
 8002122:	d01c      	beq.n	800215e <DigiTOS_IWDG_Init+0x86>
		reload = 1023; /* 1024 Hz IWDG ticking */
	} else if (timeout == DigiTOS_IWDG_Timeout_2s) {
 8002124:	2a09      	cmp	r2, #9
 8002126:	d01c      	beq.n	8002162 <DigiTOS_IWDG_Init+0x8a>
		reload = 2047; /* 1024 Hz IWDG ticking */
	} else if (timeout == DigiTOS_IWDG_Timeout_4s) {
 8002128:	2a0a      	cmp	r2, #10
 800212a:	d006      	beq.n	800213a <DigiTOS_IWDG_Init+0x62>
		reload = 4095; /* 1024 Hz IWDG ticking */
	} else if (timeout == DigiTOS_IWDG_Timeout_8s) {
 800212c:	2a0b      	cmp	r2, #11
 800212e:	d016      	beq.n	800215e <DigiTOS_IWDG_Init+0x86>
		reload = 1023; /* 128 Hz IWDG ticking */
	} else if (timeout == DigiTOS_IWDG_Timeout_16s) {
 8002130:	2a0c      	cmp	r2, #12
 8002132:	d016      	beq.n	8002162 <DigiTOS_IWDG_Init+0x8a>
	uint16_t reload = 0;
 8002134:	2300      	movs	r3, #0
		reload = 2047; /* 128 Hz IWDG ticking */
	} else if (timeout == DigiTOS_IWDG_Timeout_32s) {
 8002136:	2a0d      	cmp	r2, #13
 8002138:	d109      	bne.n	800214e <DigiTOS_IWDG_Init+0x76>
		reload = 4095; /* 1024 Hz IWDG ticking */
 800213a:	4b0e      	ldr	r3, [pc, #56]	; (8002174 <DigiTOS_IWDG_Init+0x9c>)
 800213c:	e007      	b.n	800214e <DigiTOS_IWDG_Init+0x76>
		IWDG->PR = 0x03;
 800213e:	2303      	movs	r3, #3
 8002140:	604b      	str	r3, [r1, #4]
		reload = 5; /* 1024 Hz IWDG ticking */
 8002142:	3302      	adds	r3, #2
	if (timeout == DigiTOS_IWDG_Timeout_5ms) {
 8002144:	2a00      	cmp	r2, #0
 8002146:	d002      	beq.n	800214e <DigiTOS_IWDG_Init+0x76>
		reload = 10; /* 1024 Hz IWDG ticking */
 8002148:	3305      	adds	r3, #5
	} else if (timeout == DigiTOS_IWDG_Timeout_10ms) {
 800214a:	2a01      	cmp	r2, #1
 800214c:	d1d7      	bne.n	80020fe <DigiTOS_IWDG_Init+0x26>
		reload = 4095; /* 128 Hz IWDG ticking */
	}
	
	/* Set reload */
	IWDG->RLR = reload;
 800214e:	608b      	str	r3, [r1, #8]

	/* Reload IWDG counter */
	IWDG->KR = 0xAAAA;
 8002150:	4b09      	ldr	r3, [pc, #36]	; (8002178 <DigiTOS_IWDG_Init+0xa0>)
 8002152:	600b      	str	r3, [r1, #0]

	/* Enable IWDG (the LSI oscillator will be enabled by hardware) */
	IWDG->KR = 0xCCCC;
 8002154:	4b09      	ldr	r3, [pc, #36]	; (800217c <DigiTOS_IWDG_Init+0xa4>)
 8002156:	600b      	str	r3, [r1, #0]
	
	/* Return status */
	return result;
}
 8002158:	4770      	bx	lr
		reload = 511; /* 1024 Hz IWDG ticking */
 800215a:	4b09      	ldr	r3, [pc, #36]	; (8002180 <DigiTOS_IWDG_Init+0xa8>)
 800215c:	e7f7      	b.n	800214e <DigiTOS_IWDG_Init+0x76>
		reload = 1023; /* 1024 Hz IWDG ticking */
 800215e:	4b09      	ldr	r3, [pc, #36]	; (8002184 <DigiTOS_IWDG_Init+0xac>)
 8002160:	e7f5      	b.n	800214e <DigiTOS_IWDG_Init+0x76>
		reload = 2047; /* 1024 Hz IWDG ticking */
 8002162:	4b09      	ldr	r3, [pc, #36]	; (8002188 <DigiTOS_IWDG_Init+0xb0>)
 8002164:	e7f3      	b.n	800214e <DigiTOS_IWDG_Init+0x76>
 8002166:	46c0      	nop			; (mov r8, r8)
 8002168:	40021000 	.word	0x40021000
 800216c:	40003000 	.word	0x40003000
 8002170:	00005555 	.word	0x00005555
 8002174:	00000fff 	.word	0x00000fff
 8002178:	0000aaaa 	.word	0x0000aaaa
 800217c:	0000cccc 	.word	0x0000cccc
 8002180:	000001ff 	.word	0x000001ff
 8002184:	000003ff 	.word	0x000003ff
 8002188:	000007ff 	.word	0x000007ff

0800218c <SetSoftstart>:
#include "digiTOS-Sinus.h"

#ifdef AMP_CORRECTION_TYPE_STEP
void SetSoftstart() {
		#ifdef USE_SOFT_START
			Sine_Amplitude_4=SOFT_START_FROM;
 800218c:	23fc      	movs	r3, #252	; 0xfc
 800218e:	4a05      	ldr	r2, [pc, #20]	; (80021a4 <SetSoftstart+0x18>)
 8002190:	059b      	lsls	r3, r3, #22
 8002192:	6013      	str	r3, [r2, #0]
			Sine_Amplitude_3=SOFT_START_FROM;
 8002194:	4a04      	ldr	r2, [pc, #16]	; (80021a8 <SetSoftstart+0x1c>)
 8002196:	6013      	str	r3, [r2, #0]
			Sine_Amplitude_2=SOFT_START_FROM;
 8002198:	4a04      	ldr	r2, [pc, #16]	; (80021ac <SetSoftstart+0x20>)
 800219a:	6013      	str	r3, [r2, #0]
			Sine_Amplitude_1=SOFT_START_FROM;
 800219c:	4a04      	ldr	r2, [pc, #16]	; (80021b0 <SetSoftstart+0x24>)
 800219e:	6013      	str	r3, [r2, #0]
			Sine_Amplitude_4=1;
			Sine_Amplitude_3=1;
			Sine_Amplitude_2=1;
			Sine_Amplitude_1=1;
		#endif
}
 80021a0:	4770      	bx	lr
 80021a2:	46c0      	nop			; (mov r8, r8)
 80021a4:	20000024 	.word	0x20000024
 80021a8:	20000020 	.word	0x20000020
 80021ac:	2000001c 	.word	0x2000001c
 80021b0:	20000018 	.word	0x20000018

080021b4 <ResetAmplitude>:
#endif

void ResetAmplitude() {
 80021b4:	b510      	push	{r4, lr}
		Sine_Amplitude_2=1;
		Sine_Amplitude_1=1;
	#endif

	#ifdef AMP_CORRECTION_TYPE_STEP
		SetSoftstart();
 80021b6:	f7ff ffe9 	bl	800218c <SetSoftstart>
	#endif

	#ifdef AMP_PROTECTION
			AMP_BLOCKED=0;
 80021ba:	2300      	movs	r3, #0
 80021bc:	4a06      	ldr	r2, [pc, #24]	; (80021d8 <ResetAmplitude+0x24>)
 80021be:	6013      	str	r3, [r2, #0]
			AMP_PROTECTION_CNT_BEFORESTART=0;
 80021c0:	4a06      	ldr	r2, [pc, #24]	; (80021dc <ResetAmplitude+0x28>)
 80021c2:	6013      	str	r3, [r2, #0]
			AMP_PROTECTION_CNT=0;
 80021c4:	4a06      	ldr	r2, [pc, #24]	; (80021e0 <ResetAmplitude+0x2c>)
 80021c6:	6013      	str	r3, [r2, #0]
	#endif

	#ifdef VOUT_PROTECTION
		VOUT_PROTECTION_CNT=0;
 80021c8:	4a06      	ldr	r2, [pc, #24]	; (80021e4 <ResetAmplitude+0x30>)
 80021ca:	6013      	str	r3, [r2, #0]
		VOUT_PROTECTION_CNT_BEFORESTART=0;
 80021cc:	4a06      	ldr	r2, [pc, #24]	; (80021e8 <ResetAmplitude+0x34>)
 80021ce:	6013      	str	r3, [r2, #0]
		VOUT_BLOCKED=0;
 80021d0:	4a06      	ldr	r2, [pc, #24]	; (80021ec <ResetAmplitude+0x38>)
 80021d2:	6013      	str	r3, [r2, #0]
	#endif

}
 80021d4:	bd10      	pop	{r4, pc}
 80021d6:	46c0      	nop			; (mov r8, r8)
 80021d8:	200002d0 	.word	0x200002d0
 80021dc:	200002d8 	.word	0x200002d8
 80021e0:	200002d4 	.word	0x200002d4
 80021e4:	20000314 	.word	0x20000314
 80021e8:	20000318 	.word	0x20000318
 80021ec:	20000310 	.word	0x20000310

080021f0 <GetApmlitude>:
		return;
	}
}

float GetApmlitude() {
	if (sin_step>Sin_Amp_ind[2]) {
 80021f0:	4a0b      	ldr	r2, [pc, #44]	; (8002220 <GetApmlitude+0x30>)
 80021f2:	4b0c      	ldr	r3, [pc, #48]	; (8002224 <GetApmlitude+0x34>)
 80021f4:	8811      	ldrh	r1, [r2, #0]
 80021f6:	6898      	ldr	r0, [r3, #8]
 80021f8:	4281      	cmp	r1, r0
 80021fa:	dd02      	ble.n	8002202 <GetApmlitude+0x12>
		return Sine_Amplitude_4;
 80021fc:	4b0a      	ldr	r3, [pc, #40]	; (8002228 <GetApmlitude+0x38>)
		return Sine_Amplitude_3;
	}
	if (sin_step>Sin_Amp_ind[0]) {
		return Sine_Amplitude_2;
	}
	return Sine_Amplitude_1;
 80021fe:	6818      	ldr	r0, [r3, #0]
}
 8002200:	4770      	bx	lr
	if (sin_step>Sin_Amp_ind[1]) {
 8002202:	8811      	ldrh	r1, [r2, #0]
 8002204:	6858      	ldr	r0, [r3, #4]
 8002206:	4281      	cmp	r1, r0
 8002208:	dd01      	ble.n	800220e <GetApmlitude+0x1e>
		return Sine_Amplitude_3;
 800220a:	4b08      	ldr	r3, [pc, #32]	; (800222c <GetApmlitude+0x3c>)
 800220c:	e7f7      	b.n	80021fe <GetApmlitude+0xe>
	if (sin_step>Sin_Amp_ind[0]) {
 800220e:	8812      	ldrh	r2, [r2, #0]
 8002210:	681b      	ldr	r3, [r3, #0]
 8002212:	429a      	cmp	r2, r3
 8002214:	dd01      	ble.n	800221a <GetApmlitude+0x2a>
		return Sine_Amplitude_2;
 8002216:	4b06      	ldr	r3, [pc, #24]	; (8002230 <GetApmlitude+0x40>)
 8002218:	e7f1      	b.n	80021fe <GetApmlitude+0xe>
	return Sine_Amplitude_1;
 800221a:	4b06      	ldr	r3, [pc, #24]	; (8002234 <GetApmlitude+0x44>)
 800221c:	e7ef      	b.n	80021fe <GetApmlitude+0xe>
 800221e:	46c0      	nop			; (mov r8, r8)
 8002220:	2000032a 	.word	0x2000032a
 8002224:	20000008 	.word	0x20000008
 8002228:	20000024 	.word	0x20000024
 800222c:	20000020 	.word	0x20000020
 8002230:	2000001c 	.word	0x2000001c
 8002234:	20000018 	.word	0x20000018

08002238 <GetSinus>:

uint16_t GetSinus() {
	if (sin_step >= SinRes) {
 8002238:	4b14      	ldr	r3, [pc, #80]	; (800228c <GetSinus+0x54>)
uint16_t GetSinus() {
 800223a:	b570      	push	{r4, r5, r6, lr}
	if (sin_step >= SinRes) {
 800223c:	881a      	ldrh	r2, [r3, #0]
 800223e:	2aef      	cmp	r2, #239	; 0xef
 8002240:	d901      	bls.n	8002246 <GetSinus+0xe>
		sin_step = 0;
 8002242:	2200      	movs	r2, #0
 8002244:	801a      	strh	r2, [r3, #0]
	}
	uint16_t fSinusData=sin_data[sin_step];
 8002246:	881b      	ldrh	r3, [r3, #0]
 8002248:	4a11      	ldr	r2, [pc, #68]	; (8002290 <GetSinus+0x58>)
 800224a:	005b      	lsls	r3, r3, #1
 800224c:	5a9c      	ldrh	r4, [r3, r2]
	float curAmplitude=GetApmlitude();
 800224e:	f7ff ffcf 	bl	80021f0 <GetApmlitude>
	if (curAmplitude!=1) {
 8002252:	21fe      	movs	r1, #254	; 0xfe
 8002254:	0589      	lsls	r1, r1, #22
	uint16_t fSinusData=sin_data[sin_step];
 8002256:	b2a4      	uxth	r4, r4
	float curAmplitude=GetApmlitude();
 8002258:	1c05      	adds	r5, r0, #0
	if (curAmplitude!=1) {
 800225a:	f7fe f803 	bl	8000264 <__aeabi_fcmpeq>
 800225e:	2800      	cmp	r0, #0
 8002260:	d108      	bne.n	8002274 <GetSinus+0x3c>
		fSinusData=(uint16_t) (curAmplitude*fSinusData);
 8002262:	0020      	movs	r0, r4
 8002264:	f7fe fea2 	bl	8000fac <__aeabi_i2f>
 8002268:	1c29      	adds	r1, r5, #0
 800226a:	f7fe fbc3 	bl	80009f4 <__aeabi_fmul>
 800226e:	f7fe f827 	bl	80002c0 <__aeabi_f2uiz>
 8002272:	b284      	uxth	r4, r0
 8002274:	4b07      	ldr	r3, [pc, #28]	; (8002294 <GetSinus+0x5c>)
 8002276:	1c20      	adds	r0, r4, #0
 8002278:	429c      	cmp	r4, r3
 800227a:	d902      	bls.n	8002282 <GetSinus+0x4a>
 800227c:	1c18      	adds	r0, r3, #0
 800227e:	b280      	uxth	r0, r0
	}
	if (fSinusData>=MaxSinusData) {
		return MaxSinusData;
	}
	return fSinusData;
}
 8002280:	bd70      	pop	{r4, r5, r6, pc}
 8002282:	b2a3      	uxth	r3, r4
 8002284:	2b1e      	cmp	r3, #30
 8002286:	d2fa      	bcs.n	800227e <GetSinus+0x46>
 8002288:	201e      	movs	r0, #30
 800228a:	e7f8      	b.n	800227e <GetSinus+0x46>
 800228c:	2000032a 	.word	0x2000032a
 8002290:	20000060 	.word	0x20000060
 8002294:	000003ca 	.word	0x000003ca

08002298 <EE_Format>:

//##########################################################################################################
//##########################################################################################################
//##########################################################################################################
bool	EE_Format(void)
{
 8002298:	b51f      	push	{r0, r1, r2, r3, r4, lr}
	uint32_t	error;
	HAL_FLASH_Unlock();
 800229a:	f001 fee9 	bl	8004070 <HAL_FLASH_Unlock>
	FLASH_EraseInitTypeDef	flashErase;
	flashErase.NbPages=1;
 800229e:	2301      	movs	r3, #1
	//flashErase.Banks = FLASH_BANK_1;
	flashErase.PageAddress = _EEPROM_FLASH_PAGE_ADDRESS;
	flashErase.TypeErase = FLASH_TYPEERASE_PAGES;
 80022a0:	2400      	movs	r4, #0
	flashErase.NbPages=1;
 80022a2:	9303      	str	r3, [sp, #12]
	flashErase.PageAddress = _EEPROM_FLASH_PAGE_ADDRESS;
 80022a4:	4b0a      	ldr	r3, [pc, #40]	; (80022d0 <EE_Format+0x38>)
	if(HAL_FLASHEx_Erase(&flashErase,&error)==HAL_OK)
 80022a6:	4669      	mov	r1, sp
 80022a8:	a801      	add	r0, sp, #4
	flashErase.PageAddress = _EEPROM_FLASH_PAGE_ADDRESS;
 80022aa:	9302      	str	r3, [sp, #8]
	flashErase.TypeErase = FLASH_TYPEERASE_PAGES;
 80022ac:	9401      	str	r4, [sp, #4]
	if(HAL_FLASHEx_Erase(&flashErase,&error)==HAL_OK)
 80022ae:	f001 ffa1 	bl	80041f4 <HAL_FLASHEx_Erase>
 80022b2:	42a0      	cmp	r0, r4
 80022b4:	d108      	bne.n	80022c8 <EE_Format+0x30>
	{
		HAL_FLASH_Lock();
 80022b6:	f001 feed 	bl	8004094 <HAL_FLASH_Lock>
		if(error != 0xFFFFFFFF)
 80022ba:	9b00      	ldr	r3, [sp, #0]
 80022bc:	1c58      	adds	r0, r3, #1
 80022be:	4244      	negs	r4, r0
 80022c0:	4160      	adcs	r0, r4
 80022c2:	b2c0      	uxtb	r0, r0
		else
			return true;	
	}
	HAL_FLASH_Lock();
	return false;	
}
 80022c4:	b004      	add	sp, #16
 80022c6:	bd10      	pop	{r4, pc}
	HAL_FLASH_Lock();
 80022c8:	f001 fee4 	bl	8004094 <HAL_FLASH_Lock>
	return false;	
 80022cc:	0020      	movs	r0, r4
 80022ce:	e7f9      	b.n	80022c4 <EE_Format+0x2c>
 80022d0:	08007c00 	.word	0x08007c00

080022d4 <EE_Read>:
//##########################################################################################################
bool EE_Read(uint16_t VirtualAddress, uint32_t* Data)
{
	if(VirtualAddress >=	(_EEPROM_SIZE))
		return false;
 80022d4:	2300      	movs	r3, #0
	if(VirtualAddress >=	(_EEPROM_SIZE))
 80022d6:	2809      	cmp	r0, #9
 80022d8:	d805      	bhi.n	80022e6 <EE_Read+0x12>
	*Data =  (*(__IO uint32_t*)((VirtualAddress*4)+_EEPROM_FLASH_PAGE_ADDRESS));
 80022da:	4b04      	ldr	r3, [pc, #16]	; (80022ec <EE_Read+0x18>)
 80022dc:	0080      	lsls	r0, r0, #2
 80022de:	18c0      	adds	r0, r0, r3
 80022e0:	6803      	ldr	r3, [r0, #0]
 80022e2:	600b      	str	r3, [r1, #0]
	return true;
 80022e4:	2301      	movs	r3, #1
}
 80022e6:	0018      	movs	r0, r3
 80022e8:	4770      	bx	lr
 80022ea:	46c0      	nop			; (mov r8, r8)
 80022ec:	08007c00 	.word	0x08007c00

080022f0 <EE_Reads>:

}
//##########################################################################################################
bool EE_Reads(uint16_t StartVirtualAddress,uint16_t HowMuchToRead,uint32_t* Data)
{
	if((StartVirtualAddress+HowMuchToRead) >	(_EEPROM_SIZE))
 80022f0:	1841      	adds	r1, r0, r1
{
 80022f2:	b510      	push	{r4, lr}
		return false;
 80022f4:	2300      	movs	r3, #0
	if((StartVirtualAddress+HowMuchToRead) >	(_EEPROM_SIZE))
 80022f6:	290a      	cmp	r1, #10
 80022f8:	dd08      	ble.n	800230c <EE_Reads+0x1c>
	{
		*Data =  (*(__IO uint32_t*)((i*4)+_EEPROM_FLASH_PAGE_ADDRESS));
		Data++;
	}
	return true;
}
 80022fa:	0018      	movs	r0, r3
 80022fc:	bd10      	pop	{r4, pc}
		*Data =  (*(__IO uint32_t*)((i*4)+_EEPROM_FLASH_PAGE_ADDRESS));
 80022fe:	4c05      	ldr	r4, [pc, #20]	; (8002314 <EE_Reads+0x24>)
 8002300:	0083      	lsls	r3, r0, #2
 8002302:	191b      	adds	r3, r3, r4
 8002304:	681b      	ldr	r3, [r3, #0]
	for(uint16_t	i=StartVirtualAddress ; i<HowMuchToRead+StartVirtualAddress ; i++)
 8002306:	3001      	adds	r0, #1
		*Data =  (*(__IO uint32_t*)((i*4)+_EEPROM_FLASH_PAGE_ADDRESS));
 8002308:	c208      	stmia	r2!, {r3}
	for(uint16_t	i=StartVirtualAddress ; i<HowMuchToRead+StartVirtualAddress ; i++)
 800230a:	b280      	uxth	r0, r0
 800230c:	4281      	cmp	r1, r0
 800230e:	dcf6      	bgt.n	80022fe <EE_Reads+0xe>
	return true;
 8002310:	2301      	movs	r3, #1
 8002312:	e7f2      	b.n	80022fa <EE_Reads+0xa>
 8002314:	08007c00 	.word	0x08007c00

08002318 <EE_Write>:
{
 8002318:	b5f8      	push	{r3, r4, r5, r6, r7, lr}
 800231a:	0004      	movs	r4, r0
 800231c:	000d      	movs	r5, r1
		return false;
 800231e:	2000      	movs	r0, #0
	if(VirtualAddress >=	(_EEPROM_SIZE))
 8002320:	2c09      	cmp	r4, #9
 8002322:	d817      	bhi.n	8002354 <EE_Write+0x3c>
	if((*(__IO uint32_t*)((VirtualAddress*4)+_EEPROM_FLASH_PAGE_ADDRESS)) != 0xFFFFFFFF)
 8002324:	4b1b      	ldr	r3, [pc, #108]	; (8002394 <EE_Write+0x7c>)
 8002326:	00a4      	lsls	r4, r4, #2
 8002328:	18e7      	adds	r7, r4, r3
 800232a:	683b      	ldr	r3, [r7, #0]
 800232c:	3301      	adds	r3, #1
 800232e:	d107      	bne.n	8002340 <EE_Write+0x28>
	HAL_FLASH_Unlock();
 8002330:	f001 fe9e 	bl	8004070 <HAL_FLASH_Unlock>
	if(Data!=0xFFFFFFFF)
 8002334:	1c6b      	adds	r3, r5, #1
 8002336:	d123      	bne.n	8002380 <EE_Write+0x68>
			HAL_FLASH_Lock();
 8002338:	f001 feac 	bl	8004094 <HAL_FLASH_Lock>
			return true;
 800233c:	2001      	movs	r0, #1
 800233e:	e009      	b.n	8002354 <EE_Write+0x3c>
		if( EE_Reads(0,(_EEPROM_SIZE),EEPROMPageBackup)==false)
 8002340:	4e15      	ldr	r6, [pc, #84]	; (8002398 <EE_Write+0x80>)
 8002342:	210a      	movs	r1, #10
 8002344:	0032      	movs	r2, r6
 8002346:	f7ff ffd3 	bl	80022f0 <EE_Reads>
 800234a:	2800      	cmp	r0, #0
 800234c:	d103      	bne.n	8002356 <EE_Write+0x3e>
			HAL_FLASH_Lock();
 800234e:	f001 fea1 	bl	8004094 <HAL_FLASH_Lock>
			return false;
 8002352:	2000      	movs	r0, #0
}
 8002354:	bdf8      	pop	{r3, r4, r5, r6, r7, pc}
		EEPROMPageBackup[VirtualAddress]=Data;
 8002356:	51a5      	str	r5, [r4, r6]
		EE_Format();
 8002358:	f7ff ff9e 	bl	8002298 <EE_Format>
		HAL_FLASH_Unlock();
 800235c:	f001 fe88 	bl	8004070 <HAL_FLASH_Unlock>
 8002360:	4c0c      	ldr	r4, [pc, #48]	; (8002394 <EE_Write+0x7c>)
      if(HAL_FLASH_Program(FLASH_TYPEPROGRAM_WORD,(i*4)+_EEPROM_FLASH_PAGE_ADDRESS,(uint64_t)EEPROMPageBackup[i])!=HAL_OK)
 8002362:	4b0e      	ldr	r3, [pc, #56]	; (800239c <EE_Write+0x84>)
 8002364:	0021      	movs	r1, r4
 8002366:	18e3      	adds	r3, r4, r3
 8002368:	58f2      	ldr	r2, [r6, r3]
 800236a:	2002      	movs	r0, #2
 800236c:	2300      	movs	r3, #0
 800236e:	f001 fec5 	bl	80040fc <HAL_FLASH_Program>
 8002372:	2800      	cmp	r0, #0
 8002374:	d1eb      	bne.n	800234e <EE_Write+0x36>
		for(uint16_t	i=0 ; i<_EEPROM_SIZE ; i++)
 8002376:	4b0a      	ldr	r3, [pc, #40]	; (80023a0 <EE_Write+0x88>)
 8002378:	3404      	adds	r4, #4
 800237a:	429c      	cmp	r4, r3
 800237c:	d1f1      	bne.n	8002362 <EE_Write+0x4a>
 800237e:	e7d7      	b.n	8002330 <EE_Write+0x18>
		if(HAL_FLASH_Program(FLASH_TYPEPROGRAM_WORD,(VirtualAddress*4)+_EEPROM_FLASH_PAGE_ADDRESS,(uint64_t)Data)==HAL_OK)
 8002380:	002a      	movs	r2, r5
 8002382:	2300      	movs	r3, #0
 8002384:	0039      	movs	r1, r7
 8002386:	2002      	movs	r0, #2
 8002388:	f001 feb8 	bl	80040fc <HAL_FLASH_Program>
 800238c:	2800      	cmp	r0, #0
 800238e:	d1de      	bne.n	800234e <EE_Write+0x36>
 8002390:	e7d2      	b.n	8002338 <EE_Write+0x20>
 8002392:	46c0      	nop			; (mov r8, r8)
 8002394:	08007c00 	.word	0x08007c00
 8002398:	20000580 	.word	0x20000580
 800239c:	f7ff8400 	.word	0xf7ff8400
 80023a0:	08007c28 	.word	0x08007c28

080023a4 <buttonInit>:
			GPIO_InitStruct.Pull = GPIO_PULLDOWN;
		}	
		HAL_GPIO_Init(GPIO_Port, &GPIO_InitStruct);
	#endif
	
	button_struct->GPIO_Pin = GPIO_Pin;
 80023a4:	6002      	str	r2, [r0, #0]
	button_struct->GPIO_Port = GPIO_Port;
	button_struct->debounce_time = debounce_time;
 80023a6:	9a00      	ldr	r2, [sp, #0]
	button_struct->long_press_time = long_press_time;
	button_struct->active_state = active_state;
 80023a8:	7203      	strb	r3, [r0, #8]
	button_struct->debounce_time = debounce_time;
 80023aa:	60c2      	str	r2, [r0, #12]
	button_struct->long_press_time = long_press_time;
 80023ac:	9a01      	ldr	r2, [sp, #4]
	
	button_struct->short_press_handled = 0;
 80023ae:	2300      	movs	r3, #0
	button_struct->long_press_time = long_press_time;
 80023b0:	6102      	str	r2, [r0, #16]
	button_struct->long_press_handled = 0;
	button_struct->_on_press_time = 0;
	button_struct->_previous_state = button_off;
 80023b2:	2201      	movs	r2, #1
	button_struct->GPIO_Port = GPIO_Port;
 80023b4:	6041      	str	r1, [r0, #4]
	button_struct->short_press_handled = 0;
 80023b6:	7503      	strb	r3, [r0, #20]
	button_struct->long_press_handled = 0;
 80023b8:	7543      	strb	r3, [r0, #21]
	button_struct->_on_press_time = 0;
 80023ba:	6183      	str	r3, [r0, #24]
	button_struct->_previous_state = button_off;
 80023bc:	75c2      	strb	r2, [r0, #23]
	button_struct->_state_changed = 0;
 80023be:	7583      	strb	r3, [r0, #22]
	button_struct->_state = noEvent;
 80023c0:	7243      	strb	r3, [r0, #9]
}
 80023c2:	4770      	bx	lr

080023c4 <_button_state>:
/*	PRIVATE FUNCTIONS */
/**********************************************************/
/* Low level GPIO read routine.
button_on - button is currently read as pressed
*/
_phy_state_t _button_state(button_struct_t *button_struct){
 80023c4:	b510      	push	{r4, lr}
 80023c6:	0004      	movs	r4, r0
	if(HAL_GPIO_ReadPin(button_struct->GPIO_Port, button_struct->GPIO_Pin) == button_struct->active_state){
 80023c8:	8801      	ldrh	r1, [r0, #0]
 80023ca:	6840      	ldr	r0, [r0, #4]
 80023cc:	f002 f898 	bl	8004500 <HAL_GPIO_ReadPin>
 80023d0:	7a23      	ldrb	r3, [r4, #8]
 80023d2:	1a18      	subs	r0, r3, r0
 80023d4:	1e43      	subs	r3, r0, #1
 80023d6:	4198      	sbcs	r0, r3
 80023d8:	b2c0      	uxtb	r0, r0
		return button_on;
	}
	else{
		return button_off;
	}
}
 80023da:	bd10      	pop	{r4, pc}

080023dc <buttonUpdate>:
button_state_t buttonUpdate(button_struct_t *button_struct){
 80023dc:	b570      	push	{r4, r5, r6, lr}
 80023de:	0004      	movs	r4, r0
	_phy_state_t state = _button_state(button_struct);	// get button state
 80023e0:	f7ff fff0 	bl	80023c4 <_button_state>
	if(state != button_struct->_previous_state){	// state is	different
 80023e4:	7de6      	ldrb	r6, [r4, #23]
	_phy_state_t state = _button_state(button_struct);	// get button state
 80023e6:	0005      	movs	r5, r0
	if(state != button_struct->_previous_state){	// state is	different
 80023e8:	4286      	cmp	r6, r0
 80023ea:	d01a      	beq.n	8002422 <buttonUpdate+0x46>
		if(state == button_on){	
 80023ec:	2800      	cmp	r0, #0
 80023ee:	d107      	bne.n	8002400 <buttonUpdate+0x24>
			button_struct->_on_press_time = HAL_GetTick(); // get current time
 80023f0:	f000 fff8 	bl	80033e4 <HAL_GetTick>
			button_struct->_state_changed = 1;	// state is changed
 80023f4:	2301      	movs	r3, #1
			button_struct->_on_press_time = HAL_GetTick(); // get current time
 80023f6:	61a0      	str	r0, [r4, #24]
			button_struct->_state_changed = 1;	// state is changed
 80023f8:	75a3      	strb	r3, [r4, #22]
			button_struct->_previous_state = button_on;
 80023fa:	75e5      	strb	r5, [r4, #23]
			return_status = noEvent;
 80023fc:	2000      	movs	r0, #0
 80023fe:	e00f      	b.n	8002420 <buttonUpdate+0x44>
			if(HAL_GetTick() >= (button_struct->_on_press_time + button_struct->debounce_time)){	
 8002400:	f000 fff0 	bl	80033e4 <HAL_GetTick>
 8002404:	69a3      	ldr	r3, [r4, #24]
 8002406:	68e1      	ldr	r1, [r4, #12]
 8002408:	0002      	movs	r2, r0
 800240a:	185b      	adds	r3, r3, r1
 800240c:	2001      	movs	r0, #1
 800240e:	429a      	cmp	r2, r3
 8002410:	d303      	bcc.n	800241a <buttonUpdate+0x3e>
				button_struct->_state = isReleased;
 8002412:	2304      	movs	r3, #4
				button_struct->_previous_state = button_off;
 8002414:	75e0      	strb	r0, [r4, #23]
				return_status = button_struct->_state;
 8002416:	0018      	movs	r0, r3
				button_struct->_state = isReleased;
 8002418:	7263      	strb	r3, [r4, #9]
			button_struct->long_press_handled = 0;
 800241a:	2300      	movs	r3, #0
 800241c:	7563      	strb	r3, [r4, #21]
			button_struct->short_press_handled = 0;
 800241e:	7523      	strb	r3, [r4, #20]
}
 8002420:	bd70      	pop	{r4, r5, r6, pc}
		if(state == button_on){	// state = button_on, prevous state = button_on
 8002422:	2e00      	cmp	r6, #0
 8002424:	d1ea      	bne.n	80023fc <buttonUpdate+0x20>
			if(HAL_GetTick() >= (button_struct->_on_press_time + button_struct->long_press_time)){	
 8002426:	f000 ffdd 	bl	80033e4 <HAL_GetTick>
 800242a:	69a3      	ldr	r3, [r4, #24]
 800242c:	6922      	ldr	r2, [r4, #16]
 800242e:	189b      	adds	r3, r3, r2
 8002430:	4298      	cmp	r0, r3
 8002432:	d308      	bcc.n	8002446 <buttonUpdate+0x6a>
				if(button_struct->long_press_handled == 1){	//was button handled yet?
 8002434:	7d63      	ldrb	r3, [r4, #21]
 8002436:	2b01      	cmp	r3, #1
 8002438:	d102      	bne.n	8002440 <buttonUpdate+0x64>
						button_struct->_state = noEvent;
 800243a:	7266      	strb	r6, [r4, #9]
					return_status = button_struct->_state;
 800243c:	7a60      	ldrb	r0, [r4, #9]
 800243e:	e7ef      	b.n	8002420 <buttonUpdate+0x44>
					button_struct->_state = isPressedLong;
 8002440:	2303      	movs	r3, #3
						button_struct->_state = isPressed;
 8002442:	7263      	strb	r3, [r4, #9]
 8002444:	e7fa      	b.n	800243c <buttonUpdate+0x60>
				if(HAL_GetTick() >= (button_struct->_on_press_time + button_struct->debounce_time)){	
 8002446:	f000 ffcd 	bl	80033e4 <HAL_GetTick>
 800244a:	69a3      	ldr	r3, [r4, #24]
 800244c:	68e2      	ldr	r2, [r4, #12]
 800244e:	189b      	adds	r3, r3, r2
 8002450:	4298      	cmp	r0, r3
 8002452:	d3d3      	bcc.n	80023fc <buttonUpdate+0x20>
					if(button_struct->short_press_handled == 1){	//was button handled yet?
 8002454:	7d23      	ldrb	r3, [r4, #20]
 8002456:	2b01      	cmp	r3, #1
 8002458:	d0ef      	beq.n	800243a <buttonUpdate+0x5e>
						button_struct->_state = isPressed;
 800245a:	2302      	movs	r3, #2
 800245c:	e7f1      	b.n	8002442 <buttonUpdate+0x66>
	...

08002460 <MX_DMA_Init>:

/** 
  * Enable DMA controller clock
  */
void MX_DMA_Init(void) 
{
 8002460:	b507      	push	{r0, r1, r2, lr}
  /* DMA controller clock enable */
  __HAL_RCC_DMA1_CLK_ENABLE();
 8002462:	2001      	movs	r0, #1
 8002464:	4a08      	ldr	r2, [pc, #32]	; (8002488 <MX_DMA_Init+0x28>)
 8002466:	6951      	ldr	r1, [r2, #20]
 8002468:	4301      	orrs	r1, r0
 800246a:	6151      	str	r1, [r2, #20]
 800246c:	6953      	ldr	r3, [r2, #20]

  /* DMA interrupt init */
  /* DMA1_Channel4_5_IRQn interrupt configuration */
  HAL_NVIC_SetPriority(DMA1_Channel4_5_IRQn, 0, 0);
 800246e:	2200      	movs	r2, #0
  __HAL_RCC_DMA1_CLK_ENABLE();
 8002470:	4003      	ands	r3, r0
 8002472:	9301      	str	r3, [sp, #4]
  HAL_NVIC_SetPriority(DMA1_Channel4_5_IRQn, 0, 0);
 8002474:	0011      	movs	r1, r2
 8002476:	300a      	adds	r0, #10
  __HAL_RCC_DMA1_CLK_ENABLE();
 8002478:	9b01      	ldr	r3, [sp, #4]
  HAL_NVIC_SetPriority(DMA1_Channel4_5_IRQn, 0, 0);
 800247a:	f001 fb2f 	bl	8003adc <HAL_NVIC_SetPriority>
  HAL_NVIC_EnableIRQ(DMA1_Channel4_5_IRQn);
 800247e:	200b      	movs	r0, #11
 8002480:	f001 fb66 	bl	8003b50 <HAL_NVIC_EnableIRQ>

}
 8002484:	bd07      	pop	{r0, r1, r2, pc}
 8002486:	46c0      	nop			; (mov r8, r8)
 8002488:	40021000 	.word	0x40021000

0800248c <MX_GPIO_Init>:
        * EXTI
        * Free pins are configured automatically as Analog (this feature is enabled through 
        * the Code Generation settings)
*/
void MX_GPIO_Init(void)
{
 800248c:	b5f0      	push	{r4, r5, r6, r7, lr}
 800248e:	b089      	sub	sp, #36	; 0x24

  GPIO_InitTypeDef GPIO_InitStruct = {0};
 8002490:	2214      	movs	r2, #20
 8002492:	2100      	movs	r1, #0
 8002494:	a803      	add	r0, sp, #12
 8002496:	f004 f9ea 	bl	800686e <memset>

  /* GPIO Ports Clock Enable */
  __HAL_RCC_GPIOF_CLK_ENABLE();
 800249a:	2080      	movs	r0, #128	; 0x80
  __HAL_RCC_GPIOA_CLK_ENABLE();
 800249c:	2580      	movs	r5, #128	; 0x80
  __HAL_RCC_GPIOF_CLK_ENABLE();
 800249e:	4b28      	ldr	r3, [pc, #160]	; (8002540 <MX_GPIO_Init+0xb4>)
 80024a0:	03c0      	lsls	r0, r0, #15
 80024a2:	6959      	ldr	r1, [r3, #20]
  __HAL_RCC_GPIOA_CLK_ENABLE();
 80024a4:	02ad      	lsls	r5, r5, #10
  __HAL_RCC_GPIOF_CLK_ENABLE();
 80024a6:	4301      	orrs	r1, r0
 80024a8:	6159      	str	r1, [r3, #20]
  __HAL_RCC_GPIOB_CLK_ENABLE();
 80024aa:	2180      	movs	r1, #128	; 0x80
  __HAL_RCC_GPIOF_CLK_ENABLE();
 80024ac:	695a      	ldr	r2, [r3, #20]
  __HAL_RCC_GPIOB_CLK_ENABLE();
 80024ae:	02c9      	lsls	r1, r1, #11
  __HAL_RCC_GPIOF_CLK_ENABLE();
 80024b0:	4002      	ands	r2, r0
 80024b2:	9200      	str	r2, [sp, #0]
 80024b4:	9a00      	ldr	r2, [sp, #0]
  __HAL_RCC_GPIOA_CLK_ENABLE();
 80024b6:	695a      	ldr	r2, [r3, #20]

  /*Configure GPIO pin Output Level */
  HAL_GPIO_WritePin(GPIOB, LED2_Pin|LED1_Pin|RST_Pin|LED3_Pin 
 80024b8:	4e22      	ldr	r6, [pc, #136]	; (8002544 <MX_GPIO_Init+0xb8>)
  __HAL_RCC_GPIOA_CLK_ENABLE();
 80024ba:	432a      	orrs	r2, r5
 80024bc:	615a      	str	r2, [r3, #20]
 80024be:	695a      	ldr	r2, [r3, #20]
  HAL_GPIO_WritePin(GPIOB, LED2_Pin|LED1_Pin|RST_Pin|LED3_Pin 
 80024c0:	0030      	movs	r0, r6
  __HAL_RCC_GPIOA_CLK_ENABLE();
 80024c2:	402a      	ands	r2, r5
 80024c4:	9201      	str	r2, [sp, #4]
 80024c6:	9a01      	ldr	r2, [sp, #4]
  __HAL_RCC_GPIOB_CLK_ENABLE();
 80024c8:	695a      	ldr	r2, [r3, #20]
                          |LED4_Pin, GPIO_PIN_SET);

  /*Configure GPIO pins : PA0 PA11 PA12 */
  GPIO_InitStruct.Pin = GPIO_PIN_0|GPIO_PIN_11|GPIO_PIN_12;
  GPIO_InitStruct.Mode = GPIO_MODE_ANALOG;
  GPIO_InitStruct.Pull = GPIO_NOPULL;
 80024ca:	2400      	movs	r4, #0
  __HAL_RCC_GPIOB_CLK_ENABLE();
 80024cc:	430a      	orrs	r2, r1
 80024ce:	615a      	str	r2, [r3, #20]
 80024d0:	695b      	ldr	r3, [r3, #20]
  HAL_GPIO_WritePin(GPIOB, LED2_Pin|LED1_Pin|RST_Pin|LED3_Pin 
 80024d2:	2201      	movs	r2, #1
  __HAL_RCC_GPIOB_CLK_ENABLE();
 80024d4:	400b      	ands	r3, r1
 80024d6:	9302      	str	r3, [sp, #8]
  HAL_GPIO_WritePin(GPIOB, LED2_Pin|LED1_Pin|RST_Pin|LED3_Pin 
 80024d8:	21e9      	movs	r1, #233	; 0xe9
  __HAL_RCC_GPIOB_CLK_ENABLE();
 80024da:	9b02      	ldr	r3, [sp, #8]
  HAL_GPIO_WritePin(GPIOB, LED2_Pin|LED1_Pin|RST_Pin|LED3_Pin 
 80024dc:	f002 f822 	bl	8004524 <HAL_GPIO_WritePin>
  HAL_GPIO_Init(GPIOA, &GPIO_InitStruct);
 80024e0:	2090      	movs	r0, #144	; 0x90
  GPIO_InitStruct.Mode = GPIO_MODE_ANALOG;
 80024e2:	2703      	movs	r7, #3
  GPIO_InitStruct.Pin = GPIO_PIN_0|GPIO_PIN_11|GPIO_PIN_12;
 80024e4:	4b18      	ldr	r3, [pc, #96]	; (8002548 <MX_GPIO_Init+0xbc>)
  HAL_GPIO_Init(GPIOA, &GPIO_InitStruct);
 80024e6:	a903      	add	r1, sp, #12
 80024e8:	05c0      	lsls	r0, r0, #23
  GPIO_InitStruct.Pin = GPIO_PIN_0|GPIO_PIN_11|GPIO_PIN_12;
 80024ea:	9303      	str	r3, [sp, #12]
  GPIO_InitStruct.Mode = GPIO_MODE_ANALOG;
 80024ec:	9704      	str	r7, [sp, #16]
  GPIO_InitStruct.Pull = GPIO_NOPULL;
 80024ee:	9405      	str	r4, [sp, #20]
  HAL_GPIO_Init(GPIOA, &GPIO_InitStruct);
 80024f0:	f001 feee 	bl	80042d0 <HAL_GPIO_Init>

  /*Configure GPIO pins : PAPin PAPin PAPin */
  GPIO_InitStruct.Pin = FAULT_FEEDBACK_Pin|DEV_MODE2_Pin|DEV_MODE1_Pin|CALIBV_Pin|CALIBI_Pin|CALIBMODE_Pin;
 80024f4:	4b15      	ldr	r3, [pc, #84]	; (800254c <MX_GPIO_Init+0xc0>)
  GPIO_InitStruct.Mode = GPIO_MODE_INPUT;
  GPIO_InitStruct.Pull = GPIO_PULLUP;
  HAL_GPIO_Init(GPIOA, &GPIO_InitStruct);
 80024f6:	2090      	movs	r0, #144	; 0x90
  GPIO_InitStruct.Pin = FAULT_FEEDBACK_Pin|DEV_MODE2_Pin|DEV_MODE1_Pin|CALIBV_Pin|CALIBI_Pin|CALIBMODE_Pin;
 80024f8:	9303      	str	r3, [sp, #12]
  GPIO_InitStruct.Pull = GPIO_PULLUP;
 80024fa:	2301      	movs	r3, #1
  HAL_GPIO_Init(GPIOA, &GPIO_InitStruct);
 80024fc:	a903      	add	r1, sp, #12
 80024fe:	05c0      	lsls	r0, r0, #23
  GPIO_InitStruct.Pull = GPIO_PULLUP;
 8002500:	9305      	str	r3, [sp, #20]
  GPIO_InitStruct.Mode = GPIO_MODE_INPUT;
 8002502:	9404      	str	r4, [sp, #16]
  HAL_GPIO_Init(GPIOA, &GPIO_InitStruct);
 8002504:	f001 fee4 	bl	80042d0 <HAL_GPIO_Init>

  /*Configure GPIO pins : PBPin PBPin PBPin PBPin 
                           PBPin */
  GPIO_InitStruct.Pin = LED2_Pin|LED1_Pin|RST_Pin|LED3_Pin 
 8002508:	23e9      	movs	r3, #233	; 0xe9
                          |LED4_Pin;
  GPIO_InitStruct.Mode = GPIO_MODE_OUTPUT_PP;
  GPIO_InitStruct.Pull = GPIO_NOPULL;
  GPIO_InitStruct.Speed = GPIO_SPEED_FREQ_HIGH;
  HAL_GPIO_Init(GPIOB, &GPIO_InitStruct);
 800250a:	a903      	add	r1, sp, #12
  GPIO_InitStruct.Pin = LED2_Pin|LED1_Pin|RST_Pin|LED3_Pin 
 800250c:	9303      	str	r3, [sp, #12]
  HAL_GPIO_Init(GPIOB, &GPIO_InitStruct);
 800250e:	0030      	movs	r0, r6
  GPIO_InitStruct.Mode = GPIO_MODE_OUTPUT_PP;
 8002510:	3be8      	subs	r3, #232	; 0xe8
 8002512:	9304      	str	r3, [sp, #16]
  GPIO_InitStruct.Pull = GPIO_NOPULL;
 8002514:	9405      	str	r4, [sp, #20]
  GPIO_InitStruct.Speed = GPIO_SPEED_FREQ_HIGH;
 8002516:	9706      	str	r7, [sp, #24]
  HAL_GPIO_Init(GPIOB, &GPIO_InitStruct);
 8002518:	f001 feda 	bl	80042d0 <HAL_GPIO_Init>

  /*Configure GPIO pin : PB4 */
  GPIO_InitStruct.Pin = GPIO_PIN_4;
 800251c:	2310      	movs	r3, #16
  GPIO_InitStruct.Mode = GPIO_MODE_ANALOG;
  GPIO_InitStruct.Pull = GPIO_NOPULL;
  HAL_GPIO_Init(GPIOB, &GPIO_InitStruct);
 800251e:	a903      	add	r1, sp, #12
 8002520:	0030      	movs	r0, r6
  GPIO_InitStruct.Pin = GPIO_PIN_4;
 8002522:	9303      	str	r3, [sp, #12]
  GPIO_InitStruct.Mode = GPIO_MODE_ANALOG;
 8002524:	9704      	str	r7, [sp, #16]
  GPIO_InitStruct.Pull = GPIO_NOPULL;
 8002526:	9405      	str	r4, [sp, #20]
  HAL_GPIO_Init(GPIOB, &GPIO_InitStruct);
 8002528:	f001 fed2 	bl	80042d0 <HAL_GPIO_Init>

  /**/
  HAL_I2CEx_EnableFastModePlus(SYSCFG_CFGR1_I2C_FMP_PB6);
 800252c:	2080      	movs	r0, #128	; 0x80
 800252e:	0240      	lsls	r0, r0, #9
 8002530:	f002 f822 	bl	8004578 <HAL_I2CEx_EnableFastModePlus>

  /**/
  HAL_I2CEx_EnableFastModePlus(SYSCFG_CFGR1_I2C_FMP_PB7);
 8002534:	0028      	movs	r0, r5
 8002536:	f002 f81f 	bl	8004578 <HAL_I2CEx_EnableFastModePlus>

}
 800253a:	b009      	add	sp, #36	; 0x24
 800253c:	bdf0      	pop	{r4, r5, r6, r7, pc}
 800253e:	46c0      	nop			; (mov r8, r8)
 8002540:	40021000 	.word	0x40021000
 8002544:	48000400 	.word	0x48000400
 8002548:	00001801 	.word	0x00001801
 800254c:	00001919 	.word	0x00001919

08002550 <MX_IWDG_Init>:

/* IWDG init function */
void MX_IWDG_Init(void)
{

  hiwdg.Instance = IWDG;
 8002550:	4807      	ldr	r0, [pc, #28]	; (8002570 <MX_IWDG_Init+0x20>)
 8002552:	4b08      	ldr	r3, [pc, #32]	; (8002574 <MX_IWDG_Init+0x24>)
{
 8002554:	b510      	push	{r4, lr}
  hiwdg.Instance = IWDG;
 8002556:	6003      	str	r3, [r0, #0]
  hiwdg.Init.Prescaler = IWDG_PRESCALER_256;
 8002558:	2306      	movs	r3, #6
 800255a:	6043      	str	r3, [r0, #4]
  hiwdg.Init.Window = 4095;
 800255c:	4b06      	ldr	r3, [pc, #24]	; (8002578 <MX_IWDG_Init+0x28>)
 800255e:	60c3      	str	r3, [r0, #12]
  hiwdg.Init.Reload = 4095;
 8002560:	6083      	str	r3, [r0, #8]
  if (HAL_IWDG_Init(&hiwdg) != HAL_OK)
 8002562:	f002 f837 	bl	80045d4 <HAL_IWDG_Init>
 8002566:	2800      	cmp	r0, #0
 8002568:	d001      	beq.n	800256e <MX_IWDG_Init+0x1e>
  {
    Error_Handler();
 800256a:	f000 f9ff 	bl	800296c <Error_Handler>
  }

}
 800256e:	bd10      	pop	{r4, pc}
 8002570:	200005a8 	.word	0x200005a8
 8002574:	40003000 	.word	0x40003000
 8002578:	00000fff 	.word	0x00000fff

0800257c <SystemClock_Config>:
/**
  * @brief System Clock Configuration
  * @retval None
  */
void SystemClock_Config(void)
{
 800257c:	b530      	push	{r4, r5, lr}
  RCC_OscInitTypeDef RCC_OscInitStruct = {0};
  RCC_ClkInitTypeDef RCC_ClkInitStruct = {0};
 800257e:	2510      	movs	r5, #16
{
 8002580:	b095      	sub	sp, #84	; 0x54
  RCC_OscInitTypeDef RCC_OscInitStruct = {0};
 8002582:	2230      	movs	r2, #48	; 0x30
 8002584:	2100      	movs	r1, #0
 8002586:	a808      	add	r0, sp, #32
 8002588:	f004 f971 	bl	800686e <memset>
  RCC_ClkInitTypeDef RCC_ClkInitStruct = {0};
 800258c:	002a      	movs	r2, r5
 800258e:	2100      	movs	r1, #0
 8002590:	4668      	mov	r0, sp
 8002592:	f004 f96c 	bl	800686e <memset>
  RCC_PeriphCLKInitTypeDef PeriphClkInit = {0};
 8002596:	002a      	movs	r2, r5
 8002598:	2100      	movs	r1, #0
 800259a:	a804      	add	r0, sp, #16
 800259c:	f004 f967 	bl	800686e <memset>

  /**Initializes the CPU, AHB and APB busses clocks 
  */
  RCC_OscInitStruct.OscillatorType = RCC_OSCILLATORTYPE_HSI14|RCC_OSCILLATORTYPE_LSI
 80025a0:	2319      	movs	r3, #25
 80025a2:	9308      	str	r3, [sp, #32]
  RCC_OscInitStruct.HSEState = RCC_HSE_ON;
  RCC_OscInitStruct.HSI14State = RCC_HSI14_ON;
  RCC_OscInitStruct.HSI14CalibrationValue = 16;
  RCC_OscInitStruct.LSIState = RCC_LSI_ON;
  RCC_OscInitStruct.PLL.PLLState = RCC_PLL_ON;
  RCC_OscInitStruct.PLL.PLLSource = RCC_PLLSOURCE_HSE;
 80025a4:	2380      	movs	r3, #128	; 0x80
 80025a6:	025b      	lsls	r3, r3, #9
 80025a8:	9311      	str	r3, [sp, #68]	; 0x44
  RCC_OscInitStruct.PLL.PLLMUL = RCC_PLL_MUL6;
 80025aa:	2380      	movs	r3, #128	; 0x80
  RCC_OscInitStruct.HSEState = RCC_HSE_ON;
 80025ac:	2401      	movs	r4, #1
  RCC_OscInitStruct.HSI14CalibrationValue = 16;
 80025ae:	950e      	str	r5, [sp, #56]	; 0x38
  RCC_OscInitStruct.PLL.PLLMUL = RCC_PLL_MUL6;
 80025b0:	035b      	lsls	r3, r3, #13
  RCC_OscInitStruct.PLL.PLLState = RCC_PLL_ON;
 80025b2:	3d0e      	subs	r5, #14
  RCC_OscInitStruct.PLL.PREDIV = RCC_PREDIV_DIV1;
  if (HAL_RCC_OscConfig(&RCC_OscInitStruct) != HAL_OK)
 80025b4:	a808      	add	r0, sp, #32
  RCC_OscInitStruct.PLL.PLLState = RCC_PLL_ON;
 80025b6:	9510      	str	r5, [sp, #64]	; 0x40
  RCC_OscInitStruct.PLL.PLLMUL = RCC_PLL_MUL6;
 80025b8:	9312      	str	r3, [sp, #72]	; 0x48
  RCC_OscInitStruct.HSEState = RCC_HSE_ON;
 80025ba:	9409      	str	r4, [sp, #36]	; 0x24
  RCC_OscInitStruct.HSI14State = RCC_HSI14_ON;
 80025bc:	940d      	str	r4, [sp, #52]	; 0x34
  RCC_OscInitStruct.LSIState = RCC_LSI_ON;
 80025be:	940f      	str	r4, [sp, #60]	; 0x3c
  if (HAL_RCC_OscConfig(&RCC_OscInitStruct) != HAL_OK)
 80025c0:	f002 f860 	bl	8004684 <HAL_RCC_OscConfig>
  {
    Error_Handler();
  }
  /**Initializes the CPU, AHB and APB busses clocks 
  */
  RCC_ClkInitStruct.ClockType = RCC_CLOCKTYPE_HCLK|RCC_CLOCKTYPE_SYSCLK
 80025c4:	2307      	movs	r3, #7
                              |RCC_CLOCKTYPE_PCLK1;
  RCC_ClkInitStruct.SYSCLKSource = RCC_SYSCLKSOURCE_PLLCLK;
 80025c6:	9501      	str	r5, [sp, #4]
  RCC_ClkInitStruct.AHBCLKDivider = RCC_SYSCLK_DIV1;
 80025c8:	2500      	movs	r5, #0
  RCC_ClkInitStruct.APB1CLKDivider = RCC_HCLK_DIV1;

  if (HAL_RCC_ClockConfig(&RCC_ClkInitStruct, FLASH_LATENCY_1) != HAL_OK)
 80025ca:	0021      	movs	r1, r4
 80025cc:	4668      	mov	r0, sp
  RCC_ClkInitStruct.ClockType = RCC_CLOCKTYPE_HCLK|RCC_CLOCKTYPE_SYSCLK
 80025ce:	9300      	str	r3, [sp, #0]
  RCC_ClkInitStruct.AHBCLKDivider = RCC_SYSCLK_DIV1;
 80025d0:	9502      	str	r5, [sp, #8]
  RCC_ClkInitStruct.APB1CLKDivider = RCC_HCLK_DIV1;
 80025d2:	9503      	str	r5, [sp, #12]
  if (HAL_RCC_ClockConfig(&RCC_ClkInitStruct, FLASH_LATENCY_1) != HAL_OK)
 80025d4:	f002 fb00 	bl	8004bd8 <HAL_RCC_ClockConfig>
  {
    Error_Handler();
  }
  PeriphClkInit.PeriphClockSelection = RCC_PERIPHCLK_USART1;
  PeriphClkInit.Usart1ClockSelection = RCC_USART1CLKSOURCE_PCLK1;
  if (HAL_RCCEx_PeriphCLKConfig(&PeriphClkInit) != HAL_OK)
 80025d8:	a804      	add	r0, sp, #16
  PeriphClkInit.PeriphClockSelection = RCC_PERIPHCLK_USART1;
 80025da:	9404      	str	r4, [sp, #16]
  PeriphClkInit.Usart1ClockSelection = RCC_USART1CLKSOURCE_PCLK1;
 80025dc:	9506      	str	r5, [sp, #24]
  if (HAL_RCCEx_PeriphCLKConfig(&PeriphClkInit) != HAL_OK)
 80025de:	f002 fc03 	bl	8004de8 <HAL_RCCEx_PeriphCLKConfig>
  {
    Error_Handler();
  }
}
 80025e2:	b015      	add	sp, #84	; 0x54
 80025e4:	bd30      	pop	{r4, r5, pc}
	...

080025e8 <main>:
		__HAL_RCC_DBGMCU_CLK_ENABLE();
 80025e8:	2080      	movs	r0, #128	; 0x80
 80025ea:	4ac5      	ldr	r2, [pc, #788]	; (8002900 <main+0x318>)
 80025ec:	03c0      	lsls	r0, r0, #15
 80025ee:	6991      	ldr	r1, [r2, #24]
{
 80025f0:	b5f0      	push	{r4, r5, r6, r7, lr}
		__HAL_RCC_DBGMCU_CLK_ENABLE();
 80025f2:	4301      	orrs	r1, r0
 80025f4:	6191      	str	r1, [r2, #24]
	    DBGMCU->APB1FZ |= DBGMCU_APB1_FZ_DBG_WWDG_STOP;
 80025f6:	2180      	movs	r1, #128	; 0x80
		__HAL_RCC_DBGMCU_CLK_ENABLE();
 80025f8:	6993      	ldr	r3, [r2, #24]
{
 80025fa:	b085      	sub	sp, #20
		__HAL_RCC_DBGMCU_CLK_ENABLE();
 80025fc:	4003      	ands	r3, r0
 80025fe:	9303      	str	r3, [sp, #12]
 8002600:	9b03      	ldr	r3, [sp, #12]
	    DBGMCU->APB1FZ |= DBGMCU_APB1_FZ_DBG_WWDG_STOP;
 8002602:	4bc0      	ldr	r3, [pc, #768]	; (8002904 <main+0x31c>)
 8002604:	0109      	lsls	r1, r1, #4
 8002606:	689a      	ldr	r2, [r3, #8]
	    __HAL_DBGMCU_FREEZE_IWDG();
 8002608:	2480      	movs	r4, #128	; 0x80
	    DBGMCU->APB1FZ |= DBGMCU_APB1_FZ_DBG_WWDG_STOP;
 800260a:	430a      	orrs	r2, r1
 800260c:	609a      	str	r2, [r3, #8]
	    DBGMCU->APB2FZ = 0xFFFFFFFF;
 800260e:	2201      	movs	r2, #1
 8002610:	4252      	negs	r2, r2
 8002612:	60da      	str	r2, [r3, #12]
	    DBGMCU->APB1FZ = 0xFFFFFFFF;
 8002614:	609a      	str	r2, [r3, #8]
	    DBGMCU->CR |=DBGMCU_CR_DBG_STOP;
 8002616:	6859      	ldr	r1, [r3, #4]
 8002618:	3203      	adds	r2, #3
 800261a:	430a      	orrs	r2, r1
 800261c:	605a      	str	r2, [r3, #4]
	    __HAL_DBGMCU_FREEZE_IWDG();
 800261e:	689a      	ldr	r2, [r3, #8]
 8002620:	0164      	lsls	r4, r4, #5
 8002622:	4322      	orrs	r2, r4
 8002624:	609a      	str	r2, [r3, #8]
  HAL_Init();
 8002626:	f000 fec5 	bl	80033b4 <HAL_Init>
  SystemClock_Config();
 800262a:	f7ff ffa7 	bl	800257c <SystemClock_Config>
  MX_GPIO_Init();
 800262e:	f7ff ff2d 	bl	800248c <MX_GPIO_Init>
  MX_DMA_Init();
 8002632:	f7ff ff15 	bl	8002460 <MX_DMA_Init>
  MX_CRC_Init();
 8002636:	f7fe fe0d 	bl	8001254 <MX_CRC_Init>
  MX_ADC_Init();
 800263a:	f7fe fd6b 	bl	8001114 <MX_ADC_Init>
  MX_IWDG_Init();
 800263e:	f7ff ff87 	bl	8002550 <MX_IWDG_Init>
  MX_TIM1_Init();
 8002642:	f000 fd39 	bl	80030b8 <MX_TIM1_Init>
  MX_TIM14_Init();
 8002646:	f000 fc43 	bl	8002ed0 <MX_TIM14_Init>
  MX_USART1_UART_Init();
 800264a:	f000 fe0f 	bl	800326c <MX_USART1_UART_Init>
  MX_TIM3_Init();
 800264e:	f000 fdab 	bl	80031a8 <MX_TIM3_Init>
  MX_TIM16_Init();
 8002652:	f000 fc57 	bl	8002f04 <MX_TIM16_Init>
  * @retval None
  */
static void MX_NVIC_Init(void)
{
  /* DMA1_Channel2_3_IRQn interrupt configuration */
  HAL_NVIC_SetPriority(DMA1_Channel2_3_IRQn, 0, 0);
 8002656:	2200      	movs	r2, #0
 8002658:	200a      	movs	r0, #10
 800265a:	0011      	movs	r1, r2
 800265c:	f001 fa3e 	bl	8003adc <HAL_NVIC_SetPriority>
  HAL_NVIC_EnableIRQ(DMA1_Channel2_3_IRQn);
 8002660:	200a      	movs	r0, #10
 8002662:	f001 fa75 	bl	8003b50 <HAL_NVIC_EnableIRQ>
  /* RCC_IRQn interrupt configuration */
  HAL_NVIC_SetPriority(RCC_IRQn, 0, 0);
 8002666:	2200      	movs	r2, #0
 8002668:	2004      	movs	r0, #4
 800266a:	0011      	movs	r1, r2
 800266c:	f001 fa36 	bl	8003adc <HAL_NVIC_SetPriority>
  HAL_NVIC_EnableIRQ(RCC_IRQn);
 8002670:	2004      	movs	r0, #4
 8002672:	f001 fa6d 	bl	8003b50 <HAL_NVIC_EnableIRQ>
  /* FLASH_IRQn interrupt configuration */
  HAL_NVIC_SetPriority(FLASH_IRQn, 0, 0);
 8002676:	2200      	movs	r2, #0
 8002678:	2003      	movs	r0, #3
 800267a:	0011      	movs	r1, r2
 800267c:	f001 fa2e 	bl	8003adc <HAL_NVIC_SetPriority>
  HAL_NVIC_EnableIRQ(FLASH_IRQn);
 8002680:	2003      	movs	r0, #3
 8002682:	f001 fa65 	bl	8003b50 <HAL_NVIC_EnableIRQ>
  DigiTOS_IWDG_Init(DigiTOS_IWDG_Timeout_16s);
 8002686:	200c      	movs	r0, #12
 8002688:	f7ff fd26 	bl	80020d8 <DigiTOS_IWDG_Init>
  ResetWDG();
 800268c:	f7ff fa30 	bl	8001af0 <ResetWDG>
  StartADC();
 8002690:	f7fe fe12 	bl	80012b8 <StartADC>
  SinWave=swNOP;
 8002694:	2203      	movs	r2, #3
 8002696:	4b9c      	ldr	r3, [pc, #624]	; (8002908 <main+0x320>)
  BoardStatus=sBoot;
 8002698:	2700      	movs	r7, #0
  SinWave=swNOP;
 800269a:	701a      	strb	r2, [r3, #0]
  PWM_50Hz_Init();
 800269c:	f7ff fbfe 	bl	8001e9c <PWM_50Hz_Init>
  PWM_50Hz_ON();
 80026a0:	f7ff fc86 	bl	8001fb0 <PWM_50Hz_ON>
  PWM_50Hz_OFF();
 80026a4:	f7ff fc8a 	bl	8001fbc <PWM_50Hz_OFF>
  PWM_Sinus_Init();
 80026a8:	f7ff fcde 	bl	8002068 <PWM_Sinus_Init>
  PWM_Sinus_ON();
 80026ac:	f7ff fcd0 	bl	8002050 <PWM_Sinus_ON>
  PWM_Sinus_OFF();
 80026b0:	f7ff fcd4 	bl	800205c <PWM_Sinus_OFF>
  ResetWDG();
 80026b4:	f7ff fa1c 	bl	8001af0 <ResetWDG>
  HAL_GPIO_WritePin(LED1_GPIO_Port, LED1_Pin,GPIO_PIN_SET);
 80026b8:	2201      	movs	r2, #1
 80026ba:	2108      	movs	r1, #8
 80026bc:	4893      	ldr	r0, [pc, #588]	; (800290c <main+0x324>)
 80026be:	f001 ff31 	bl	8004524 <HAL_GPIO_WritePin>
  HAL_GPIO_WritePin(LED2_GPIO_Port, LED2_Pin,GPIO_PIN_SET);
 80026c2:	2201      	movs	r2, #1
 80026c4:	4891      	ldr	r0, [pc, #580]	; (800290c <main+0x324>)
 80026c6:	0011      	movs	r1, r2
 80026c8:	f001 ff2c 	bl	8004524 <HAL_GPIO_WritePin>
  HAL_GPIO_WritePin(LED3_GPIO_Port, LED3_Pin,GPIO_PIN_SET);
 80026cc:	2201      	movs	r2, #1
 80026ce:	2140      	movs	r1, #64	; 0x40
 80026d0:	488e      	ldr	r0, [pc, #568]	; (800290c <main+0x324>)
 80026d2:	f001 ff27 	bl	8004524 <HAL_GPIO_WritePin>
  HAL_GPIO_WritePin(LED4_GPIO_Port, LED4_Pin,GPIO_PIN_SET);
 80026d6:	2180      	movs	r1, #128	; 0x80
 80026d8:	2201      	movs	r2, #1
 80026da:	488c      	ldr	r0, [pc, #560]	; (800290c <main+0x324>)
 80026dc:	f001 ff22 	bl	8004524 <HAL_GPIO_WritePin>
  HAL_TIM_Base_Start(&htim16);
 80026e0:	4d8b      	ldr	r5, [pc, #556]	; (8002910 <main+0x328>)
  buttonInit(&CALIB_V, CALIBV_GPIO_Port, CALIBV_Pin, GPIO_PIN_RESET, 4000, 10000);
 80026e2:	4e8c      	ldr	r6, [pc, #560]	; (8002914 <main+0x32c>)
  HAL_TIM_Base_Start(&htim16);
 80026e4:	0028      	movs	r0, r5
 80026e6:	f002 fd3b 	bl	8005160 <HAL_TIM_Base_Start>
  HAL_TIM_Base_Start_IT(&htim16);
 80026ea:	0028      	movs	r0, r5
 80026ec:	f002 fd68 	bl	80051c0 <HAL_TIM_Base_Start_IT>
  BoardStatus=sBoot;
 80026f0:	4b89      	ldr	r3, [pc, #548]	; (8002918 <main+0x330>)
  TIM16->ARR=sBoot_Delay;
 80026f2:	4a8a      	ldr	r2, [pc, #552]	; (800291c <main+0x334>)
  BoardStatus=sBoot;
 80026f4:	701f      	strb	r7, [r3, #0]
  TIM16->ARR=sBoot_Delay;
 80026f6:	2364      	movs	r3, #100	; 0x64
  buttonInit(&CALIB_V, CALIBV_GPIO_Port, CALIBV_Pin, GPIO_PIN_RESET, 4000, 10000);
 80026f8:	25fa      	movs	r5, #250	; 0xfa
  TIM16->ARR=sBoot_Delay;
 80026fa:	62d3      	str	r3, [r2, #44]	; 0x2c
  ResetWDG();
 80026fc:	f7ff f9f8 	bl	8001af0 <ResetWDG>
  buttonInit(&CALIB_V, CALIBV_GPIO_Port, CALIBV_Pin, GPIO_PIN_RESET, 4000, 10000);
 8002700:	2280      	movs	r2, #128	; 0x80
 8002702:	2190      	movs	r1, #144	; 0x90
 8002704:	012d      	lsls	r5, r5, #4
 8002706:	003b      	movs	r3, r7
 8002708:	9601      	str	r6, [sp, #4]
 800270a:	9500      	str	r5, [sp, #0]
 800270c:	0112      	lsls	r2, r2, #4
 800270e:	05c9      	lsls	r1, r1, #23
 8002710:	4883      	ldr	r0, [pc, #524]	; (8002920 <main+0x338>)
 8002712:	f7ff fe47 	bl	80023a4 <buttonInit>
  buttonInit(&CALIB_I, CALIBI_GPIO_Port, CALIBI_Pin, GPIO_PIN_RESET, 4000, 10000);
 8002716:	2190      	movs	r1, #144	; 0x90
 8002718:	003b      	movs	r3, r7
 800271a:	0022      	movs	r2, r4
 800271c:	9601      	str	r6, [sp, #4]
 800271e:	9500      	str	r5, [sp, #0]
 8002720:	05c9      	lsls	r1, r1, #23
 8002722:	4880      	ldr	r0, [pc, #512]	; (8002924 <main+0x33c>)
  buttonInit(&CALIB_MODE, CALIBMODE_GPIO_Port, CALIBMODE_Pin, GPIO_PIN_RESET, 30, 2000);
 8002724:	24fa      	movs	r4, #250	; 0xfa
  buttonInit(&CALIB_I, CALIBI_GPIO_Port, CALIBI_Pin, GPIO_PIN_RESET, 4000, 10000);
 8002726:	f7ff fe3d 	bl	80023a4 <buttonInit>
  buttonInit(&CALIB_MODE, CALIBMODE_GPIO_Port, CALIBMODE_Pin, GPIO_PIN_RESET, 30, 2000);
 800272a:	261e      	movs	r6, #30
 800272c:	2190      	movs	r1, #144	; 0x90
 800272e:	00e4      	lsls	r4, r4, #3
 8002730:	003b      	movs	r3, r7
 8002732:	9401      	str	r4, [sp, #4]
 8002734:	2201      	movs	r2, #1
 8002736:	05c9      	lsls	r1, r1, #23
 8002738:	487b      	ldr	r0, [pc, #492]	; (8002928 <main+0x340>)
 800273a:	9600      	str	r6, [sp, #0]
 800273c:	f7ff fe32 	bl	80023a4 <buttonInit>
  buttonInit(&DevModeKey, DEV_MODE1_GPIO_Port, DEV_MODE1_Pin, GPIO_PIN_RESET, 30, 2000);
 8002740:	2280      	movs	r2, #128	; 0x80
 8002742:	2190      	movs	r1, #144	; 0x90
 8002744:	003b      	movs	r3, r7
 8002746:	9401      	str	r4, [sp, #4]
 8002748:	0052      	lsls	r2, r2, #1
 800274a:	05c9      	lsls	r1, r1, #23
 800274c:	4877      	ldr	r0, [pc, #476]	; (800292c <main+0x344>)
 800274e:	9600      	str	r6, [sp, #0]
  buttonInit(&DevModeKey2, DEV_MODE2_GPIO_Port, DEV_MODE2_Pin, GPIO_PIN_RESET, 30, 1000);
 8002750:	24fa      	movs	r4, #250	; 0xfa
  buttonInit(&DevModeKey, DEV_MODE1_GPIO_Port, DEV_MODE1_Pin, GPIO_PIN_RESET, 30, 2000);
 8002752:	f7ff fe27 	bl	80023a4 <buttonInit>
  buttonInit(&DevModeKey2, DEV_MODE2_GPIO_Port, DEV_MODE2_Pin, GPIO_PIN_RESET, 30, 1000);
 8002756:	2190      	movs	r1, #144	; 0x90
 8002758:	00a4      	lsls	r4, r4, #2
 800275a:	003b      	movs	r3, r7
 800275c:	9401      	str	r4, [sp, #4]
 800275e:	2210      	movs	r2, #16
 8002760:	05c9      	lsls	r1, r1, #23
 8002762:	4873      	ldr	r0, [pc, #460]	; (8002930 <main+0x348>)
 8002764:	9600      	str	r6, [sp, #0]
 8002766:	f7ff fe1d 	bl	80023a4 <buttonInit>
  buttonInit(&FaultFlag, FAULT_FEEDBACK_GPIO_Port, FAULT_FEEDBACK_Pin, GPIO_PIN_RESET, 30, 1000);
 800276a:	2190      	movs	r1, #144	; 0x90
 800276c:	4d71      	ldr	r5, [pc, #452]	; (8002934 <main+0x34c>)
 800276e:	003b      	movs	r3, r7
 8002770:	2208      	movs	r2, #8
 8002772:	05c9      	lsls	r1, r1, #23
 8002774:	9401      	str	r4, [sp, #4]
 8002776:	0028      	movs	r0, r5
 8002778:	9600      	str	r6, [sp, #0]
 800277a:	f7ff fe13 	bl	80023a4 <buttonInit>
  buttonUpdate(&DevModeKey);
 800277e:	486b      	ldr	r0, [pc, #428]	; (800292c <main+0x344>)
 8002780:	f7ff fe2c 	bl	80023dc <buttonUpdate>
  buttonUpdate(&DevModeKey2);
 8002784:	486a      	ldr	r0, [pc, #424]	; (8002930 <main+0x348>)
 8002786:	f7ff fe29 	bl	80023dc <buttonUpdate>
  buttonUpdate(&FaultFlag);
 800278a:	0028      	movs	r0, r5
 800278c:	f7ff fe26 	bl	80023dc <buttonUpdate>
  buttonUpdate(&CALIB_V);
 8002790:	4863      	ldr	r0, [pc, #396]	; (8002920 <main+0x338>)
 8002792:	f7ff fe23 	bl	80023dc <buttonUpdate>
  buttonUpdate(&CALIB_I);
 8002796:	4863      	ldr	r0, [pc, #396]	; (8002924 <main+0x33c>)
 8002798:	f7ff fe20 	bl	80023dc <buttonUpdate>
  buttonUpdate(&CALIB_MODE);
 800279c:	4862      	ldr	r0, [pc, #392]	; (8002928 <main+0x340>)
 800279e:	f7ff fe1d 	bl	80023dc <buttonUpdate>
  HAL_Delay(500);
 80027a2:	20fa      	movs	r0, #250	; 0xfa
 80027a4:	0040      	lsls	r0, r0, #1
 80027a6:	f000 fe23 	bl	80033f0 <HAL_Delay>
             if (InitEEPROM()==0) {
 80027aa:	f7ff fa9f 	bl	8001cec <InitEEPROM>
 80027ae:	4f5b      	ldr	r7, [pc, #364]	; (800291c <main+0x334>)
 80027b0:	4c61      	ldr	r4, [pc, #388]	; (8002938 <main+0x350>)
 80027b2:	2800      	cmp	r0, #0
 80027b4:	d000      	beq.n	80027b8 <main+0x1d0>
 80027b6:	e09c      	b.n	80028f2 <main+0x30a>
           	  strcpy(uart_buff,"NO EEPROM\r\n");
 80027b8:	4960      	ldr	r1, [pc, #384]	; (800293c <main+0x354>)
 80027ba:	0020      	movs	r0, r4
 80027bc:	f004 f88f 	bl	80068de <strcpy>
           	  USE_DEF_CALIB();
 80027c0:	f7ff fa56 	bl	8001c70 <USE_DEF_CALIB>
           	  SerialPrintln(1);
 80027c4:	2001      	movs	r0, #1
 80027c6:	f7ff f96b 	bl	8001aa0 <SerialPrintln>
  Get_Version();
 80027ca:	f7ff f94b 	bl	8001a64 <Get_Version>
  SerialPrintln(1);
 80027ce:	2001      	movs	r0, #1
 80027d0:	f7ff f966 	bl	8001aa0 <SerialPrintln>
  Get_ChipID();
 80027d4:	f7ff f916 	bl	8001a04 <Get_ChipID>
  SerialPrintln(1);
 80027d8:	2001      	movs	r0, #1
 80027da:	f7ff f961 	bl	8001aa0 <SerialPrintln>
  Get_FlashSize();
 80027de:	f7ff f92d 	bl	8001a3c <Get_FlashSize>
  SerialPrintln(1);
 80027e2:	2001      	movs	r0, #1
 80027e4:	f7ff f95c 	bl	8001aa0 <SerialPrintln>
  ClearUART_Buff();
 80027e8:	f7ff f902 	bl	80019f0 <ClearUART_Buff>
  if(buttonUpdate(&CALIB_MODE) == isPressed){
 80027ec:	484e      	ldr	r0, [pc, #312]	; (8002928 <main+0x340>)
 80027ee:	f7ff fdf5 	bl	80023dc <buttonUpdate>
 80027f2:	4e53      	ldr	r6, [pc, #332]	; (8002940 <main+0x358>)
	  CalibMode=0;
 80027f4:	2300      	movs	r3, #0
  if(buttonUpdate(&CALIB_MODE) == isPressed){
 80027f6:	2802      	cmp	r0, #2
 80027f8:	d107      	bne.n	800280a <main+0x222>
	  strcpy(uart_buff,"CALIB MODE ENABLED\r\n");
 80027fa:	4952      	ldr	r1, [pc, #328]	; (8002944 <main+0x35c>)
 80027fc:	0020      	movs	r0, r4
 80027fe:	f004 f86e 	bl	80068de <strcpy>
	  SerialPrintln(1);
 8002802:	2001      	movs	r0, #1
 8002804:	f7ff f94c 	bl	8001aa0 <SerialPrintln>
	  CalibMode=1;
 8002808:	2301      	movs	r3, #1
  buttonUpdate(&FaultFlag);
 800280a:	0028      	movs	r0, r5
	  CalibMode=0;
 800280c:	6033      	str	r3, [r6, #0]
  buttonUpdate(&FaultFlag);
 800280e:	f7ff fde5 	bl	80023dc <buttonUpdate>
  if(buttonUpdate(&DevModeKey) == isPressed){
 8002812:	4846      	ldr	r0, [pc, #280]	; (800292c <main+0x344>)
 8002814:	f7ff fde2 	bl	80023dc <buttonUpdate>
 8002818:	2802      	cmp	r0, #2
 800281a:	d11b      	bne.n	8002854 <main+0x26c>
	strcpy(uart_buff,"DEV MODE - wait\r\n");
 800281c:	494a      	ldr	r1, [pc, #296]	; (8002948 <main+0x360>)
 800281e:	0020      	movs	r0, r4
 8002820:	f004 f85d 	bl	80068de <strcpy>
	SerialPrintln(1);
 8002824:	2001      	movs	r0, #1
 8002826:	f7ff f93b 	bl	8001aa0 <SerialPrintln>
	ResetWDG();
 800282a:	f7ff f961 	bl	8001af0 <ResetWDG>
    HAL_Delay(500);
 800282e:	20fa      	movs	r0, #250	; 0xfa
 8002830:	0040      	lsls	r0, r0, #1
 8002832:	f000 fddd 	bl	80033f0 <HAL_Delay>
	if(buttonUpdate(&DevModeKey) == isPressed){
 8002836:	483d      	ldr	r0, [pc, #244]	; (800292c <main+0x344>)
 8002838:	f7ff fdd0 	bl	80023dc <buttonUpdate>
 800283c:	2802      	cmp	r0, #2
 800283e:	d109      	bne.n	8002854 <main+0x26c>
		strcpy(uart_buff,"DEV MODE - confirmed\r\n");
 8002840:	4942      	ldr	r1, [pc, #264]	; (800294c <main+0x364>)
 8002842:	0020      	movs	r0, r4
 8002844:	f004 f84b 	bl	80068de <strcpy>
	    SerialPrintln(1);
 8002848:	2001      	movs	r0, #1
 800284a:	f7ff f929 	bl	8001aa0 <SerialPrintln>
		DevMode1=1;
 800284e:	2201      	movs	r2, #1
 8002850:	4b3f      	ldr	r3, [pc, #252]	; (8002950 <main+0x368>)
 8002852:	601a      	str	r2, [r3, #0]
  	BoardStatus=sGEN;
 8002854:	2601      	movs	r6, #1
    strcpy(uart_buff,"Start Loop\r\n");
 8002856:	493f      	ldr	r1, [pc, #252]	; (8002954 <main+0x36c>)
 8002858:	0020      	movs	r0, r4
 800285a:	f004 f840 	bl	80068de <strcpy>
    SerialPrintln(1);
 800285e:	2001      	movs	r0, #1
 8002860:	f7ff f91e 	bl	8001aa0 <SerialPrintln>
  	BoardStatus=sGEN;
 8002864:	4b2c      	ldr	r3, [pc, #176]	; (8002918 <main+0x330>)
      HAL_GPIO_WritePin(LED1_GPIO_Port, LED1_Pin,GPIO_PIN_RESET);
 8002866:	2200      	movs	r2, #0
  	BoardStatus=sGEN;
 8002868:	701e      	strb	r6, [r3, #0]
  	TIM16->ARR=sDEF_Delay;
 800286a:	23fa      	movs	r3, #250	; 0xfa
 800286c:	009b      	lsls	r3, r3, #2
 800286e:	62fb      	str	r3, [r7, #44]	; 0x2c
      HAL_GPIO_WritePin(LED1_GPIO_Port, LED1_Pin,GPIO_PIN_RESET);
 8002870:	2108      	movs	r1, #8
 8002872:	4826      	ldr	r0, [pc, #152]	; (800290c <main+0x324>)
 8002874:	f001 fe56 	bl	8004524 <HAL_GPIO_WritePin>
      HAL_GPIO_WritePin(LED2_GPIO_Port, LED2_Pin,GPIO_PIN_RESET);
 8002878:	2200      	movs	r2, #0
 800287a:	0031      	movs	r1, r6
 800287c:	4823      	ldr	r0, [pc, #140]	; (800290c <main+0x324>)
 800287e:	f001 fe51 	bl	8004524 <HAL_GPIO_WritePin>
      HAL_GPIO_WritePin(LED3_GPIO_Port, LED3_Pin,GPIO_PIN_RESET);
 8002882:	2200      	movs	r2, #0
 8002884:	2140      	movs	r1, #64	; 0x40
 8002886:	4821      	ldr	r0, [pc, #132]	; (800290c <main+0x324>)
 8002888:	f001 fe4c 	bl	8004524 <HAL_GPIO_WritePin>
      HAL_GPIO_WritePin(LED4_GPIO_Port, LED4_Pin,GPIO_PIN_RESET);
 800288c:	2200      	movs	r2, #0
 800288e:	2180      	movs	r1, #128	; 0x80
 8002890:	481e      	ldr	r0, [pc, #120]	; (800290c <main+0x324>)
 8002892:	f001 fe47 	bl	8004524 <HAL_GPIO_WritePin>
       buttonUpdate(&FaultFlag);
 8002896:	0028      	movs	r0, r5
 8002898:	f7ff fda0 	bl	80023dc <buttonUpdate>
       buttonUpdate(&DevModeKey2);
 800289c:	4824      	ldr	r0, [pc, #144]	; (8002930 <main+0x348>)
 800289e:	f7ff fd9d 	bl	80023dc <buttonUpdate>
       HAL_Delay(500);
 80028a2:	20fa      	movs	r0, #250	; 0xfa
 80028a4:	0040      	lsls	r0, r0, #1
 80028a6:	f000 fda3 	bl	80033f0 <HAL_Delay>
       if(buttonUpdate(&DevModeKey2) == isPressedLong){
 80028aa:	4821      	ldr	r0, [pc, #132]	; (8002930 <main+0x348>)
 80028ac:	f7ff fd96 	bl	80023dc <buttonUpdate>
 80028b0:	2803      	cmp	r0, #3
 80028b2:	d106      	bne.n	80028c2 <main+0x2da>
    	   strcpy(uart_buff,"Start GENERATOR\r\n");
 80028b4:	4928      	ldr	r1, [pc, #160]	; (8002958 <main+0x370>)
 80028b6:	0020      	movs	r0, r4
 80028b8:	f004 f811 	bl	80068de <strcpy>
    	   SerialPrintln(1);
 80028bc:	0030      	movs	r0, r6
 80028be:	f7ff f8ef 	bl	8001aa0 <SerialPrintln>
       buttonUpdate(&FaultFlag);
 80028c2:	0028      	movs	r0, r5
 80028c4:	f7ff fd8a 	bl	80023dc <buttonUpdate>
       TIM14->PSC=SinResPSC;
 80028c8:	2201      	movs	r2, #1
 80028ca:	4b24      	ldr	r3, [pc, #144]	; (800295c <main+0x374>)
       HAL_TIM_Base_Start(&htim14);
 80028cc:	4c24      	ldr	r4, [pc, #144]	; (8002960 <main+0x378>)
       TIM14->PSC=SinResPSC;
 80028ce:	629a      	str	r2, [r3, #40]	; 0x28
       HAL_TIM_Base_Start(&htim14);
 80028d0:	0020      	movs	r0, r4
 80028d2:	f002 fc45 	bl	8005160 <HAL_TIM_Base_Start>
       HAL_TIM_Base_Start_IT(&htim14);
 80028d6:	0020      	movs	r0, r4
 80028d8:	f002 fc72 	bl	80051c0 <HAL_TIM_Base_Start_IT>
			UpdateAmp_FLAG=2;//busy Flag
 80028dc:	2502      	movs	r5, #2
		if (UpdateAmp_FLAG==1) {
 80028de:	4c21      	ldr	r4, [pc, #132]	; (8002964 <main+0x37c>)
 80028e0:	8823      	ldrh	r3, [r4, #0]
 80028e2:	2b01      	cmp	r3, #1
 80028e4:	d1fc      	bne.n	80028e0 <main+0x2f8>
			UpdateAmp_FLAG=2;//busy Flag
 80028e6:	8025      	strh	r5, [r4, #0]
			UpdateAmplitudeByV();
 80028e8:	f7fe fea4 	bl	8001634 <UpdateAmplitudeByV>
			UpdateAmp_FLAG=0; // clear Flag
 80028ec:	2300      	movs	r3, #0
 80028ee:	8023      	strh	r3, [r4, #0]
 80028f0:	e7f5      	b.n	80028de <main+0x2f6>
          	  USE_NEW_CALIB();
 80028f2:	f7ff f9c9 	bl	8001c88 <USE_NEW_CALIB>
           	  strcpy(uart_buff,"OK EEPROM\r\n");
 80028f6:	491c      	ldr	r1, [pc, #112]	; (8002968 <main+0x380>)
 80028f8:	0020      	movs	r0, r4
 80028fa:	f003 fff0 	bl	80068de <strcpy>
 80028fe:	e761      	b.n	80027c4 <main+0x1dc>
 8002900:	40021000 	.word	0x40021000
 8002904:	40015800 	.word	0x40015800
 8002908:	20000360 	.word	0x20000360
 800290c:	48000400 	.word	0x48000400
 8002910:	20000678 	.word	0x20000678
 8002914:	00002710 	.word	0x00002710
 8002918:	2000032c 	.word	0x2000032c
 800291c:	40014400 	.word	0x40014400
 8002920:	20000460 	.word	0x20000460
 8002924:	2000047c 	.word	0x2000047c
 8002928:	2000052c 	.word	0x2000052c
 800292c:	200004fc 	.word	0x200004fc
 8002930:	20000564 	.word	0x20000564
 8002934:	20000548 	.word	0x20000548
 8002938:	20000498 	.word	0x20000498
 800293c:	080072bd 	.word	0x080072bd
 8002940:	20000330 	.word	0x20000330
 8002944:	080072d5 	.word	0x080072d5
 8002948:	080072ea 	.word	0x080072ea
 800294c:	080072fc 	.word	0x080072fc
 8002950:	2000033c 	.word	0x2000033c
 8002954:	08007313 	.word	0x08007313
 8002958:	08007320 	.word	0x08007320
 800295c:	40002000 	.word	0x40002000
 8002960:	20000638 	.word	0x20000638
 8002964:	20000362 	.word	0x20000362
 8002968:	080072c9 	.word	0x080072c9

0800296c <Error_Handler>:
{
  /* USER CODE BEGIN Error_Handler_Debug */
  /* User can add his own implementation to report the HAL error return state */

  /* USER CODE END Error_Handler_Debug */
}
 800296c:	4770      	bx	lr

0800296e <assert_failed>:
{ 
  /* USER CODE BEGIN 6 */
  /* User can add his own implementation to report the file name and line number,
     tex: printf("Wrong parameters value: file %s on line %d\r\n", file, line) */
  /* USER CODE END 6 */
}
 800296e:	4770      	bx	lr

08002970 <HAL_MspInit>:
{
  /* USER CODE BEGIN MspInit 0 */

  /* USER CODE END MspInit 0 */

  __HAL_RCC_SYSCFG_CLK_ENABLE();
 8002970:	2001      	movs	r0, #1
 8002972:	4b0a      	ldr	r3, [pc, #40]	; (800299c <HAL_MspInit+0x2c>)
{
 8002974:	b082      	sub	sp, #8
  __HAL_RCC_SYSCFG_CLK_ENABLE();
 8002976:	6999      	ldr	r1, [r3, #24]
 8002978:	4301      	orrs	r1, r0
 800297a:	6199      	str	r1, [r3, #24]
  __HAL_RCC_PWR_CLK_ENABLE();
 800297c:	2180      	movs	r1, #128	; 0x80
  __HAL_RCC_SYSCFG_CLK_ENABLE();
 800297e:	699a      	ldr	r2, [r3, #24]
  __HAL_RCC_PWR_CLK_ENABLE();
 8002980:	0549      	lsls	r1, r1, #21
  __HAL_RCC_SYSCFG_CLK_ENABLE();
 8002982:	4002      	ands	r2, r0
 8002984:	9200      	str	r2, [sp, #0]
 8002986:	9a00      	ldr	r2, [sp, #0]
  __HAL_RCC_PWR_CLK_ENABLE();
 8002988:	69da      	ldr	r2, [r3, #28]
 800298a:	430a      	orrs	r2, r1
 800298c:	61da      	str	r2, [r3, #28]
 800298e:	69db      	ldr	r3, [r3, #28]
 8002990:	400b      	ands	r3, r1
 8002992:	9301      	str	r3, [sp, #4]
 8002994:	9b01      	ldr	r3, [sp, #4]
  /* Peripheral interrupt init */

  /* USER CODE BEGIN MspInit 1 */

  /* USER CODE END MspInit 1 */
}
 8002996:	b002      	add	sp, #8
 8002998:	4770      	bx	lr
 800299a:	46c0      	nop			; (mov r8, r8)
 800299c:	40021000 	.word	0x40021000

080029a0 <NMI_Handler>:
 80029a0:	4770      	bx	lr

080029a2 <HardFault_Handler>:

/**
  * @brief This function handles Hard fault interrupt.
  */
void HardFault_Handler(void)
{
 80029a2:	e7fe      	b.n	80029a2 <HardFault_Handler>

080029a4 <SVC_Handler>:
 80029a4:	4770      	bx	lr

080029a6 <PendSV_Handler>:
 80029a6:	4770      	bx	lr

080029a8 <SysTick_Handler>:

/**
  * @brief This function handles System tick timer.
  */
void SysTick_Handler(void)
{
 80029a8:	b510      	push	{r4, lr}
  /* USER CODE BEGIN SysTick_IRQn 0 */

  /* USER CODE END SysTick_IRQn 0 */
  HAL_IncTick();
 80029aa:	f000 fd13 	bl	80033d4 <HAL_IncTick>
  /* USER CODE BEGIN SysTick_IRQn 1 */

  /* USER CODE END SysTick_IRQn 1 */
}
 80029ae:	bd10      	pop	{r4, pc}

080029b0 <FLASH_IRQHandler>:

/**
  * @brief This function handles Flash global interrupt.
  */
void FLASH_IRQHandler(void)
{
 80029b0:	b510      	push	{r4, lr}
  /* USER CODE BEGIN FLASH_IRQn 0 */

  /* USER CODE END FLASH_IRQn 0 */
  HAL_FLASH_IRQHandler();
 80029b2:	f001 facf 	bl	8003f54 <HAL_FLASH_IRQHandler>
  /* USER CODE BEGIN FLASH_IRQn 1 */

  /* USER CODE END FLASH_IRQn 1 */
}
 80029b6:	bd10      	pop	{r4, pc}

080029b8 <RCC_IRQHandler>:

  /* USER CODE END RCC_IRQn 0 */
  /* USER CODE BEGIN RCC_IRQn 1 */

  /* USER CODE END RCC_IRQn 1 */
}
 80029b8:	4770      	bx	lr
	...

080029bc <DMA1_Channel2_3_IRQHandler>:

/**
  * @brief This function handles DMA1 channel 2 and 3 interrupts.
  */
void DMA1_Channel2_3_IRQHandler(void)
{
 80029bc:	b510      	push	{r4, lr}
  /* USER CODE BEGIN DMA1_Channel2_3_IRQn 0 */

  /* USER CODE END DMA1_Channel2_3_IRQn 0 */
  HAL_DMA_IRQHandler(&hdma_adc);
 80029be:	4803      	ldr	r0, [pc, #12]	; (80029cc <DMA1_Channel2_3_IRQHandler+0x10>)
 80029c0:	f001 fa5f 	bl	8003e82 <HAL_DMA_IRQHandler>
  HAL_DMA_IRQHandler(&hdma_usart1_rx);
 80029c4:	4802      	ldr	r0, [pc, #8]	; (80029d0 <DMA1_Channel2_3_IRQHandler+0x14>)
 80029c6:	f001 fa5c 	bl	8003e82 <HAL_DMA_IRQHandler>
  /* USER CODE BEGIN DMA1_Channel2_3_IRQn 1 */

  /* USER CODE END DMA1_Channel2_3_IRQn 1 */
}
 80029ca:	bd10      	pop	{r4, pc}
 80029cc:	20000398 	.word	0x20000398
 80029d0:	200006fc 	.word	0x200006fc

080029d4 <DMA1_Channel4_5_IRQHandler>:

/**
  * @brief This function handles DMA1 channel 4 and 5 interrupts.
  */
void DMA1_Channel4_5_IRQHandler(void)
{
 80029d4:	b510      	push	{r4, lr}
  /* USER CODE BEGIN DMA1_Channel4_5_IRQn 0 */

  /* USER CODE END DMA1_Channel4_5_IRQn 0 */
  HAL_DMA_IRQHandler(&hdma_usart1_tx);
 80029d6:	4802      	ldr	r0, [pc, #8]	; (80029e0 <DMA1_Channel4_5_IRQHandler+0xc>)
 80029d8:	f001 fa53 	bl	8003e82 <HAL_DMA_IRQHandler>
  /* USER CODE BEGIN DMA1_Channel4_5_IRQn 1 */

  /* USER CODE END DMA1_Channel4_5_IRQn 1 */
}
 80029dc:	bd10      	pop	{r4, pc}
 80029de:	46c0      	nop			; (mov r8, r8)
 80029e0:	200006b8 	.word	0x200006b8

080029e4 <ADC1_IRQHandler>:

/**
  * @brief This function handles ADC interrupt.
  */
void ADC1_IRQHandler(void)
{
 80029e4:	b510      	push	{r4, lr}
  /* USER CODE BEGIN ADC1_IRQn 0 */

  /* USER CODE END ADC1_IRQn 0 */
  HAL_ADC_IRQHandler(&hadc);
 80029e6:	4802      	ldr	r0, [pc, #8]	; (80029f0 <ADC1_IRQHandler+0xc>)
 80029e8:	f000 ff3a 	bl	8003860 <HAL_ADC_IRQHandler>
  /* USER CODE BEGIN ADC1_IRQn 1 */

  /* USER CODE END ADC1_IRQn 1 */
}
 80029ec:	bd10      	pop	{r4, pc}
 80029ee:	46c0      	nop			; (mov r8, r8)
 80029f0:	200003dc 	.word	0x200003dc

080029f4 <TIM1_BRK_UP_TRG_COM_IRQHandler>:

/**
  * @brief This function handles TIM1 break, update, trigger and commutation interrupts.
  */
void TIM1_BRK_UP_TRG_COM_IRQHandler(void)
{
 80029f4:	b510      	push	{r4, lr}
  /* USER CODE BEGIN TIM1_BRK_UP_TRG_COM_IRQn 0 */

  /* USER CODE END TIM1_BRK_UP_TRG_COM_IRQn 0 */
  HAL_TIM_IRQHandler(&htim1);
 80029f6:	4c0f      	ldr	r4, [pc, #60]	; (8002a34 <TIM1_BRK_UP_TRG_COM_IRQHandler+0x40>)
 80029f8:	0020      	movs	r0, r4
 80029fa:	f002 fc16 	bl	800522a <HAL_TIM_IRQHandler>
  /* USER CODE BEGIN TIM1_BRK_UP_TRG_COM_IRQn 1 */

  __HAL_TIM_CLEAR_FLAG(&htim1, TIM_FLAG_UPDATE);
 80029fe:	2202      	movs	r2, #2
 8002a00:	6823      	ldr	r3, [r4, #0]

  sin_step=0;
 8002a02:	2400      	movs	r4, #0
  __HAL_TIM_CLEAR_FLAG(&htim1, TIM_FLAG_UPDATE);
 8002a04:	4252      	negs	r2, r2
 8002a06:	611a      	str	r2, [r3, #16]
  sin_step=0;
 8002a08:	4b0b      	ldr	r3, [pc, #44]	; (8002a38 <TIM1_BRK_UP_TRG_COM_IRQHandler+0x44>)
 8002a0a:	801c      	strh	r4, [r3, #0]

  sinStatus=0;TempBuffer_Flag=0;ReadTempValue();
 8002a0c:	4b0b      	ldr	r3, [pc, #44]	; (8002a3c <TIM1_BRK_UP_TRG_COM_IRQHandler+0x48>)
 8002a0e:	701c      	strb	r4, [r3, #0]
 8002a10:	4b0b      	ldr	r3, [pc, #44]	; (8002a40 <TIM1_BRK_UP_TRG_COM_IRQHandler+0x4c>)
 8002a12:	801c      	strh	r4, [r3, #0]
 8002a14:	f7fe fd9c 	bl	8001550 <ReadTempValue>

  TIM3->CCR2=0;TIM3->CCR1=0;
 8002a18:	4b0a      	ldr	r3, [pc, #40]	; (8002a44 <TIM1_BRK_UP_TRG_COM_IRQHandler+0x50>)
 8002a1a:	639c      	str	r4, [r3, #56]	; 0x38
 8002a1c:	635c      	str	r4, [r3, #52]	; 0x34

  if (SinWave==swStart) {
 8002a1e:	4b0a      	ldr	r3, [pc, #40]	; (8002a48 <TIM1_BRK_UP_TRG_COM_IRQHandler+0x54>)
 8002a20:	781a      	ldrb	r2, [r3, #0]
 8002a22:	2a01      	cmp	r2, #1
 8002a24:	d105      	bne.n	8002a32 <TIM1_BRK_UP_TRG_COM_IRQHandler+0x3e>
	  SinWave=swGEN;
 8002a26:	3201      	adds	r2, #1
 8002a28:	701a      	strb	r2, [r3, #0]
	  TIM1->CCR3=500;
 8002a2a:	32f3      	adds	r2, #243	; 0xf3
 8002a2c:	4b07      	ldr	r3, [pc, #28]	; (8002a4c <TIM1_BRK_UP_TRG_COM_IRQHandler+0x58>)
 8002a2e:	32ff      	adds	r2, #255	; 0xff
 8002a30:	63da      	str	r2, [r3, #60]	; 0x3c
  }


  /* USER CODE END TIM1_BRK_UP_TRG_COM_IRQn 1 */
}
 8002a32:	bd10      	pop	{r4, pc}
 8002a34:	200005f8 	.word	0x200005f8
 8002a38:	2000032a 	.word	0x2000032a
 8002a3c:	20000328 	.word	0x20000328
 8002a40:	200002cc 	.word	0x200002cc
 8002a44:	40000400 	.word	0x40000400
 8002a48:	20000360 	.word	0x20000360
 8002a4c:	40012c00 	.word	0x40012c00

08002a50 <TIM3_IRQHandler>:

/**
  * @brief This function handles TIM3 global interrupt.
  */
void TIM3_IRQHandler(void)
{
 8002a50:	b570      	push	{r4, r5, r6, lr}
  /* USER CODE BEGIN TIM3_IRQn 0 */

  /* USER CODE END TIM3_IRQn 0 */
  HAL_TIM_IRQHandler(&htim3);
 8002a52:	4c2e      	ldr	r4, [pc, #184]	; (8002b0c <TIM3_IRQHandler+0xbc>)
 8002a54:	0020      	movs	r0, r4
 8002a56:	f002 fbe8 	bl	800522a <HAL_TIM_IRQHandler>
  /* USER CODE BEGIN TIM3_IRQn 1 */

  __HAL_TIM_CLEAR_FLAG(&htim3, TIM_FLAG_UPDATE);
 8002a5a:	2202      	movs	r2, #2
 8002a5c:	6823      	ldr	r3, [r4, #0]
 8002a5e:	4252      	negs	r2, r2
 8002a60:	611a      	str	r2, [r3, #16]

	if ((SinWave==swStop) || (SinWave==swStart) || (SinWave==swNOP))  {
 8002a62:	4b2b      	ldr	r3, [pc, #172]	; (8002b10 <TIM3_IRQHandler+0xc0>)
 8002a64:	781a      	ldrb	r2, [r3, #0]
 8002a66:	2a00      	cmp	r2, #0
 8002a68:	d005      	beq.n	8002a76 <TIM3_IRQHandler+0x26>
 8002a6a:	781a      	ldrb	r2, [r3, #0]
 8002a6c:	2a01      	cmp	r2, #1
 8002a6e:	d002      	beq.n	8002a76 <TIM3_IRQHandler+0x26>
 8002a70:	781a      	ldrb	r2, [r3, #0]
 8002a72:	2a03      	cmp	r2, #3
 8002a74:	d105      	bne.n	8002a82 <TIM3_IRQHandler+0x32>
 		TIM3->CCR2=0;
 8002a76:	2200      	movs	r2, #0
 8002a78:	4926      	ldr	r1, [pc, #152]	; (8002b14 <TIM3_IRQHandler+0xc4>)
 8002a7a:	638a      	str	r2, [r1, #56]	; 0x38
 		TIM3->CCR1=0;
 8002a7c:	634a      	str	r2, [r1, #52]	; 0x34
 		//TIM1->CCR3=0;
 		sin_step=0;
 8002a7e:	4926      	ldr	r1, [pc, #152]	; (8002b18 <TIM3_IRQHandler+0xc8>)
 8002a80:	800a      	strh	r2, [r1, #0]
 	}

	if (SinWave==swNOP) {return;}
 8002a82:	781a      	ldrb	r2, [r3, #0]
 8002a84:	2a03      	cmp	r2, #3
 8002a86:	d03d      	beq.n	8002b04 <TIM3_IRQHandler+0xb4>

   	if (SinWave==swStart)  {
 8002a88:	781a      	ldrb	r2, [r3, #0]
 8002a8a:	2a01      	cmp	r2, #1
 8002a8c:	d101      	bne.n	8002a92 <TIM3_IRQHandler+0x42>
   		SinWave=swGEN;
 8002a8e:	3201      	adds	r2, #1
 8002a90:	701a      	strb	r2, [r3, #0]
   	}

    if  ( (TIM1->CNT==498) || (TIM1->CNT==998) )  {
 8002a92:	23f9      	movs	r3, #249	; 0xf9
 8002a94:	4921      	ldr	r1, [pc, #132]	; (8002b1c <TIM3_IRQHandler+0xcc>)
 8002a96:	005b      	lsls	r3, r3, #1
 8002a98:	6a4a      	ldr	r2, [r1, #36]	; 0x24
 8002a9a:	429a      	cmp	r2, r3
 8002a9c:	d003      	beq.n	8002aa6 <TIM3_IRQHandler+0x56>
 8002a9e:	6a4a      	ldr	r2, [r1, #36]	; 0x24
 8002aa0:	4b1f      	ldr	r3, [pc, #124]	; (8002b20 <TIM3_IRQHandler+0xd0>)
 8002aa2:	429a      	cmp	r2, r3
 8002aa4:	d10e      	bne.n	8002ac4 <TIM3_IRQHandler+0x74>
      	    sin_step=0;
 8002aa6:	2300      	movs	r3, #0
      	    TIM3->CCR1=0;
 8002aa8:	4a1a      	ldr	r2, [pc, #104]	; (8002b14 <TIM3_IRQHandler+0xc4>)
      	    sin_step=0;
 8002aaa:	481b      	ldr	r0, [pc, #108]	; (8002b18 <TIM3_IRQHandler+0xc8>)
      	    TIM3->CCR2=0;
      	    if (UpdateAmp_FLAG==0) {
 8002aac:	4c1d      	ldr	r4, [pc, #116]	; (8002b24 <TIM3_IRQHandler+0xd4>)
      	    sin_step=0;
 8002aae:	8003      	strh	r3, [r0, #0]
      	    TIM3->CCR1=0;
 8002ab0:	6353      	str	r3, [r2, #52]	; 0x34
      	    TIM3->CCR2=0;
 8002ab2:	6393      	str	r3, [r2, #56]	; 0x38
      	    if (UpdateAmp_FLAG==0) {
 8002ab4:	8825      	ldrh	r5, [r4, #0]
 8002ab6:	429d      	cmp	r5, r3
 8002ab8:	d101      	bne.n	8002abe <TIM3_IRQHandler+0x6e>
      	    	UpdateAmp_FLAG=1;
 8002aba:	2501      	movs	r5, #1
 8002abc:	8025      	strh	r5, [r4, #0]
      	    }
      	    sin_step=0;
 8002abe:	8003      	strh	r3, [r0, #0]
      	    TIM3->CCR1=0;
 8002ac0:	6353      	str	r3, [r2, #52]	; 0x34
      	    TIM3->CCR2=0;
 8002ac2:	6393      	str	r3, [r2, #56]	; 0x38
      	    //return;
         }

   if  (TIM1->CNT>499) { sinStatus=1;TempBuffer_Flag=0;ReadTempValue();} else { sinStatus=0;TempBuffer_Flag=0;ReadTempValue();}
 8002ac4:	22f4      	movs	r2, #244	; 0xf4
 8002ac6:	6a49      	ldr	r1, [r1, #36]	; 0x24
 8002ac8:	32ff      	adds	r2, #255	; 0xff
 8002aca:	4c17      	ldr	r4, [pc, #92]	; (8002b28 <TIM3_IRQHandler+0xd8>)
 8002acc:	4b17      	ldr	r3, [pc, #92]	; (8002b2c <TIM3_IRQHandler+0xdc>)
 8002ace:	4291      	cmp	r1, r2
 8002ad0:	d919      	bls.n	8002b06 <TIM3_IRQHandler+0xb6>
 8002ad2:	3af3      	subs	r2, #243	; 0xf3
 8002ad4:	3aff      	subs	r2, #255	; 0xff
 8002ad6:	7022      	strb	r2, [r4, #0]
 8002ad8:	2200      	movs	r2, #0
 8002ada:	801a      	strh	r2, [r3, #0]
 8002adc:	f7fe fd38 	bl	8001550 <ReadTempValue>

   if (sinStatus==0) {
 8002ae0:	7823      	ldrb	r3, [r4, #0]
 8002ae2:	b2db      	uxtb	r3, r3
 8002ae4:	2b00      	cmp	r3, #0
 8002ae6:	d104      	bne.n	8002af2 <TIM3_IRQHandler+0xa2>
	   TIM3->CCR2=0;
 8002ae8:	4d0a      	ldr	r5, [pc, #40]	; (8002b14 <TIM3_IRQHandler+0xc4>)
 8002aea:	63ab      	str	r3, [r5, #56]	; 0x38
	   TIM3->CCR1=GetSinus();
 8002aec:	f7ff fba4 	bl	8002238 <GetSinus>
 8002af0:	6368      	str	r0, [r5, #52]	; 0x34
   }
   if (sinStatus==1) {
 8002af2:	7823      	ldrb	r3, [r4, #0]
 8002af4:	2b01      	cmp	r3, #1
 8002af6:	d105      	bne.n	8002b04 <TIM3_IRQHandler+0xb4>
	   TIM3->CCR1=0;
 8002af8:	2300      	movs	r3, #0
 8002afa:	4c06      	ldr	r4, [pc, #24]	; (8002b14 <TIM3_IRQHandler+0xc4>)
 8002afc:	6363      	str	r3, [r4, #52]	; 0x34
	   TIM3->CCR2=GetSinus();
 8002afe:	f7ff fb9b 	bl	8002238 <GetSinus>
 8002b02:	63a0      	str	r0, [r4, #56]	; 0x38




  /* USER CODE END TIM3_IRQn 1 */
}
 8002b04:	bd70      	pop	{r4, r5, r6, pc}
   if  (TIM1->CNT>499) { sinStatus=1;TempBuffer_Flag=0;ReadTempValue();} else { sinStatus=0;TempBuffer_Flag=0;ReadTempValue();}
 8002b06:	2200      	movs	r2, #0
 8002b08:	7022      	strb	r2, [r4, #0]
 8002b0a:	e7e6      	b.n	8002ada <TIM3_IRQHandler+0x8a>
 8002b0c:	200005b8 	.word	0x200005b8
 8002b10:	20000360 	.word	0x20000360
 8002b14:	40000400 	.word	0x40000400
 8002b18:	2000032a 	.word	0x2000032a
 8002b1c:	40012c00 	.word	0x40012c00
 8002b20:	000003e6 	.word	0x000003e6
 8002b24:	20000362 	.word	0x20000362
 8002b28:	20000328 	.word	0x20000328
 8002b2c:	200002cc 	.word	0x200002cc

08002b30 <TIM14_IRQHandler>:

/**
  * @brief This function handles TIM14 global interrupt.
  */
void TIM14_IRQHandler(void)
{
 8002b30:	b5f8      	push	{r3, r4, r5, r6, r7, lr}
  /* USER CODE BEGIN TIM14_IRQn 0 */

  /* USER CODE END TIM14_IRQn 0 */
  HAL_TIM_IRQHandler(&htim14);
 8002b32:	4c40      	ldr	r4, [pc, #256]	; (8002c34 <TIM14_IRQHandler+0x104>)
 8002b34:	0020      	movs	r0, r4
 8002b36:	f002 fb78 	bl	800522a <HAL_TIM_IRQHandler>
  /* USER CODE BEGIN TIM14_IRQn 1 */

  __HAL_TIM_CLEAR_FLAG(&htim14, TIM_FLAG_UPDATE);
 8002b3a:	2202      	movs	r2, #2
 8002b3c:	6823      	ldr	r3, [r4, #0]


  if ((buttonUpdate(&FaultFlag) == isPressed) || (buttonUpdate(&FaultFlag) == isPressedLong)) {
 8002b3e:	4d3e      	ldr	r5, [pc, #248]	; (8002c38 <TIM14_IRQHandler+0x108>)
  __HAL_TIM_CLEAR_FLAG(&htim14, TIM_FLAG_UPDATE);
 8002b40:	4252      	negs	r2, r2
 8002b42:	611a      	str	r2, [r3, #16]
  if ((buttonUpdate(&FaultFlag) == isPressed) || (buttonUpdate(&FaultFlag) == isPressedLong)) {
 8002b44:	0028      	movs	r0, r5
 8002b46:	f7ff fc49 	bl	80023dc <buttonUpdate>
 8002b4a:	4c3c      	ldr	r4, [pc, #240]	; (8002c3c <TIM14_IRQHandler+0x10c>)
 8002b4c:	2802      	cmp	r0, #2
 8002b4e:	d109      	bne.n	8002b64 <TIM14_IRQHandler+0x34>
	  BoardStatus=sFaultFlag;
 8002b50:	2203      	movs	r2, #3
 8002b52:	4b3b      	ldr	r3, [pc, #236]	; (8002c40 <TIM14_IRQHandler+0x110>)
 8002b54:	701a      	strb	r2, [r3, #0]
	  FaultWaitCnt=0;
 8002b56:	2200      	movs	r2, #0
 8002b58:	4b3a      	ldr	r3, [pc, #232]	; (8002c44 <TIM14_IRQHandler+0x114>)
 8002b5a:	601a      	str	r2, [r3, #0]
		  if (SinWave!=swGEN) {
 8002b5c:	7823      	ldrb	r3, [r4, #0]
 8002b5e:	2b02      	cmp	r3, #2
 8002b60:	d134      	bne.n	8002bcc <TIM14_IRQHandler+0x9c>
  	    		sin_step = 0;
  	    	}*/


  /* USER CODE END TIM14_IRQn 1 */
}
 8002b62:	bdf8      	pop	{r3, r4, r5, r6, r7, pc}
  if ((buttonUpdate(&FaultFlag) == isPressed) || (buttonUpdate(&FaultFlag) == isPressedLong)) {
 8002b64:	0028      	movs	r0, r5
 8002b66:	f7ff fc39 	bl	80023dc <buttonUpdate>
 8002b6a:	2803      	cmp	r0, #3
 8002b6c:	d0f0      	beq.n	8002b50 <TIM14_IRQHandler+0x20>
  	  if ((SinWave==swNOP) && (BoardStatus == sGEN) && (AMP_BLOCKED==0)
 8002b6e:	7823      	ldrb	r3, [r4, #0]
 8002b70:	4e35      	ldr	r6, [pc, #212]	; (8002c48 <TIM14_IRQHandler+0x118>)
 8002b72:	2b03      	cmp	r3, #3
 8002b74:	d12d      	bne.n	8002bd2 <TIM14_IRQHandler+0xa2>
 8002b76:	4b32      	ldr	r3, [pc, #200]	; (8002c40 <TIM14_IRQHandler+0x110>)
 8002b78:	781f      	ldrb	r7, [r3, #0]
 8002b7a:	b2ff      	uxtb	r7, r7
 8002b7c:	2f01      	cmp	r7, #1
 8002b7e:	d128      	bne.n	8002bd2 <TIM14_IRQHandler+0xa2>
 8002b80:	4b32      	ldr	r3, [pc, #200]	; (8002c4c <TIM14_IRQHandler+0x11c>)
 8002b82:	681b      	ldr	r3, [r3, #0]
 8002b84:	2b00      	cmp	r3, #0
 8002b86:	d124      	bne.n	8002bd2 <TIM14_IRQHandler+0xa2>
  			  && (DC_BLOCKED==0) && (VOUT_BLOCKED==0)  && (IOUT_BLOCKED==0) && (EEPROM_FLAG==0)) {
 8002b88:	4b31      	ldr	r3, [pc, #196]	; (8002c50 <TIM14_IRQHandler+0x120>)
 8002b8a:	681b      	ldr	r3, [r3, #0]
 8002b8c:	2b00      	cmp	r3, #0
 8002b8e:	d120      	bne.n	8002bd2 <TIM14_IRQHandler+0xa2>
 8002b90:	4b30      	ldr	r3, [pc, #192]	; (8002c54 <TIM14_IRQHandler+0x124>)
 8002b92:	681b      	ldr	r3, [r3, #0]
 8002b94:	2b00      	cmp	r3, #0
 8002b96:	d11c      	bne.n	8002bd2 <TIM14_IRQHandler+0xa2>
 8002b98:	4b2f      	ldr	r3, [pc, #188]	; (8002c58 <TIM14_IRQHandler+0x128>)
 8002b9a:	681b      	ldr	r3, [r3, #0]
 8002b9c:	2b00      	cmp	r3, #0
 8002b9e:	d118      	bne.n	8002bd2 <TIM14_IRQHandler+0xa2>
 8002ba0:	4b2e      	ldr	r3, [pc, #184]	; (8002c5c <TIM14_IRQHandler+0x12c>)
 8002ba2:	681d      	ldr	r5, [r3, #0]
 8002ba4:	2d00      	cmp	r5, #0
 8002ba6:	d114      	bne.n	8002bd2 <TIM14_IRQHandler+0xa2>
  	  	  if  (buttonUpdate(&DevModeKey2) == isPressedLong) {
 8002ba8:	482d      	ldr	r0, [pc, #180]	; (8002c60 <TIM14_IRQHandler+0x130>)
  	  sin_step=0;
 8002baa:	8035      	strh	r5, [r6, #0]
  	  	  if  (buttonUpdate(&DevModeKey2) == isPressedLong) {
 8002bac:	f7ff fc16 	bl	80023dc <buttonUpdate>
 8002bb0:	2803      	cmp	r0, #3
 8002bb2:	d10e      	bne.n	8002bd2 <TIM14_IRQHandler+0xa2>
    		TIM3->CCR2=0;
 8002bb4:	4b2b      	ldr	r3, [pc, #172]	; (8002c64 <TIM14_IRQHandler+0x134>)
    		SinWave=swStart;
 8002bb6:	7027      	strb	r7, [r4, #0]
    		TIM3->CCR2=0;
 8002bb8:	639d      	str	r5, [r3, #56]	; 0x38
    		 		TIM3->CCR1=0;
 8002bba:	635d      	str	r5, [r3, #52]	; 0x34
    		 		TIM1->CCR3=0;
 8002bbc:	4b2a      	ldr	r3, [pc, #168]	; (8002c68 <TIM14_IRQHandler+0x138>)
 8002bbe:	63dd      	str	r5, [r3, #60]	; 0x3c
    		 		sin_step=0;
 8002bc0:	8035      	strh	r5, [r6, #0]
    		PWM_50Hz_ON();
 8002bc2:	f7ff f9f5 	bl	8001fb0 <PWM_50Hz_ON>
    		PWM_Sinus_ON();
 8002bc6:	f7ff fa43 	bl	8002050 <PWM_Sinus_ON>
    		return;
 8002bca:	e7ca      	b.n	8002b62 <TIM14_IRQHandler+0x32>
			  SinWave=swGEN;
 8002bcc:	2302      	movs	r3, #2
 8002bce:	7023      	strb	r3, [r4, #0]
 8002bd0:	e7cd      	b.n	8002b6e <TIM14_IRQHandler+0x3e>
  if (SinWave==swGEN) {
 8002bd2:	7823      	ldrb	r3, [r4, #0]
 8002bd4:	2b02      	cmp	r3, #2
 8002bd6:	d126      	bne.n	8002c26 <TIM14_IRQHandler+0xf6>
				if (  (BoardStatus == sFaultFlag) || (buttonUpdate(&DevModeKey2) == isReleased)
 8002bd8:	4b19      	ldr	r3, [pc, #100]	; (8002c40 <TIM14_IRQHandler+0x110>)
 8002bda:	781b      	ldrb	r3, [r3, #0]
 8002bdc:	2b03      	cmp	r3, #3
 8002bde:	d10d      	bne.n	8002bfc <TIM14_IRQHandler+0xcc>
		  SinWave=swNOP;
 8002be0:	2303      	movs	r3, #3
 8002be2:	7023      	strb	r3, [r4, #0]
		  	  	TIM3->CCR2=0;
 8002be4:	2300      	movs	r3, #0
 8002be6:	4a1f      	ldr	r2, [pc, #124]	; (8002c64 <TIM14_IRQHandler+0x134>)
 8002be8:	6393      	str	r3, [r2, #56]	; 0x38
		   		TIM3->CCR1=0;
 8002bea:	6353      	str	r3, [r2, #52]	; 0x34
		   		TIM1->CCR3=0;
 8002bec:	4a1e      	ldr	r2, [pc, #120]	; (8002c68 <TIM14_IRQHandler+0x138>)
 8002bee:	63d3      	str	r3, [r2, #60]	; 0x3c
		   		sin_step=0;
 8002bf0:	8033      	strh	r3, [r6, #0]
		  PWM_50Hz_OFF();
 8002bf2:	f7ff f9e3 	bl	8001fbc <PWM_50Hz_OFF>
		  PWM_Sinus_OFF();
 8002bf6:	f7ff fa31 	bl	800205c <PWM_Sinus_OFF>
		  return;
 8002bfa:	e7b2      	b.n	8002b62 <TIM14_IRQHandler+0x32>
				if (  (BoardStatus == sFaultFlag) || (buttonUpdate(&DevModeKey2) == isReleased)
 8002bfc:	4818      	ldr	r0, [pc, #96]	; (8002c60 <TIM14_IRQHandler+0x130>)
 8002bfe:	f7ff fbed 	bl	80023dc <buttonUpdate>
 8002c02:	2804      	cmp	r0, #4
 8002c04:	d0ec      	beq.n	8002be0 <TIM14_IRQHandler+0xb0>
						|| (AMP_BLOCKED==1)  || (DC_BLOCKED==1) || (VOUT_BLOCKED==1)  || (IOUT_BLOCKED==1)) {
 8002c06:	4b11      	ldr	r3, [pc, #68]	; (8002c4c <TIM14_IRQHandler+0x11c>)
 8002c08:	681b      	ldr	r3, [r3, #0]
 8002c0a:	2b01      	cmp	r3, #1
 8002c0c:	d0e8      	beq.n	8002be0 <TIM14_IRQHandler+0xb0>
 8002c0e:	4b10      	ldr	r3, [pc, #64]	; (8002c50 <TIM14_IRQHandler+0x120>)
 8002c10:	681b      	ldr	r3, [r3, #0]
 8002c12:	2b01      	cmp	r3, #1
 8002c14:	d0e4      	beq.n	8002be0 <TIM14_IRQHandler+0xb0>
 8002c16:	4b0f      	ldr	r3, [pc, #60]	; (8002c54 <TIM14_IRQHandler+0x124>)
 8002c18:	681b      	ldr	r3, [r3, #0]
 8002c1a:	2b01      	cmp	r3, #1
 8002c1c:	d0e0      	beq.n	8002be0 <TIM14_IRQHandler+0xb0>
 8002c1e:	4b0e      	ldr	r3, [pc, #56]	; (8002c58 <TIM14_IRQHandler+0x128>)
 8002c20:	681b      	ldr	r3, [r3, #0]
 8002c22:	2b01      	cmp	r3, #1
 8002c24:	d0dc      	beq.n	8002be0 <TIM14_IRQHandler+0xb0>
  	  	  	  CheckV_Feedback();
 8002c26:	f7fe fe1f 	bl	8001868 <CheckV_Feedback>
  	  	  	  sin_step++;
 8002c2a:	8833      	ldrh	r3, [r6, #0]
 8002c2c:	3301      	adds	r3, #1
 8002c2e:	b29b      	uxth	r3, r3
 8002c30:	8033      	strh	r3, [r6, #0]
 8002c32:	e796      	b.n	8002b62 <TIM14_IRQHandler+0x32>
 8002c34:	20000638 	.word	0x20000638
 8002c38:	20000548 	.word	0x20000548
 8002c3c:	20000360 	.word	0x20000360
 8002c40:	2000032c 	.word	0x2000032c
 8002c44:	20000350 	.word	0x20000350
 8002c48:	2000032a 	.word	0x2000032a
 8002c4c:	200002d0 	.word	0x200002d0
 8002c50:	200002dc 	.word	0x200002dc
 8002c54:	20000310 	.word	0x20000310
 8002c58:	200002f4 	.word	0x200002f4
 8002c5c:	2000034c 	.word	0x2000034c
 8002c60:	20000564 	.word	0x20000564
 8002c64:	40000400 	.word	0x40000400
 8002c68:	40012c00 	.word	0x40012c00

08002c6c <TIM16_IRQHandler>:

/**
  * @brief This function handles TIM16 global interrupt.
  */
void TIM16_IRQHandler(void)
{
 8002c6c:	b5f8      	push	{r3, r4, r5, r6, r7, lr}
  /* USER CODE BEGIN TIM16_IRQn 0 */

  /* USER CODE END TIM16_IRQn 0 */
  HAL_TIM_IRQHandler(&htim16);
 8002c6e:	4c65      	ldr	r4, [pc, #404]	; (8002e04 <TIM16_IRQHandler+0x198>)
 8002c70:	0020      	movs	r0, r4
 8002c72:	f002 fada 	bl	800522a <HAL_TIM_IRQHandler>
  /* USER CODE BEGIN TIM16_IRQn 1 */

  __HAL_TIM_CLEAR_FLAG(&htim16, TIM_FLAG_UPDATE);
 8002c76:	2202      	movs	r2, #2
 8002c78:	6823      	ldr	r3, [r4, #0]
 8002c7a:	4252      	negs	r2, r2
 8002c7c:	611a      	str	r2, [r3, #16]

    	// Reset IWDG
      ResetWDG();
 8002c7e:	f7fe ff37 	bl	8001af0 <ResetWDG>

        //
        switch(BoardStatus) {
 8002c82:	4c61      	ldr	r4, [pc, #388]	; (8002e08 <TIM16_IRQHandler+0x19c>)
 8002c84:	7820      	ldrb	r0, [r4, #0]
 8002c86:	b2c0      	uxtb	r0, r0
 8002c88:	2803      	cmp	r0, #3
 8002c8a:	d816      	bhi.n	8002cba <TIM16_IRQHandler+0x4e>
 8002c8c:	f7fd fa3c 	bl	8000108 <__gnu_thumb1_case_uqi>
 8002c90:	71021602 	.word	0x71021602
      	  case sBoot:
      	  case sUnknown:
      	  	  //TIM3->ARR=sBoot_Delay;
      	  	  HAL_GPIO_TogglePin(LED1_GPIO_Port, LED1_Pin);
 8002c94:	2108      	movs	r1, #8
 8002c96:	485d      	ldr	r0, [pc, #372]	; (8002e0c <TIM16_IRQHandler+0x1a0>)
 8002c98:	f001 fc5e 	bl	8004558 <HAL_GPIO_TogglePin>
      	  	  HAL_GPIO_TogglePin(LED2_GPIO_Port, LED2_Pin);
 8002c9c:	2101      	movs	r1, #1
 8002c9e:	485b      	ldr	r0, [pc, #364]	; (8002e0c <TIM16_IRQHandler+0x1a0>)
 8002ca0:	f001 fc5a 	bl	8004558 <HAL_GPIO_TogglePin>
      	  	  HAL_GPIO_TogglePin(LED3_GPIO_Port, LED3_Pin);
 8002ca4:	2140      	movs	r1, #64	; 0x40
 8002ca6:	4859      	ldr	r0, [pc, #356]	; (8002e0c <TIM16_IRQHandler+0x1a0>)
 8002ca8:	f001 fc56 	bl	8004558 <HAL_GPIO_TogglePin>
      	  	  HAL_GPIO_TogglePin(LED4_GPIO_Port, LED4_Pin);
 8002cac:	4857      	ldr	r0, [pc, #348]	; (8002e0c <TIM16_IRQHandler+0x1a0>)
 8002cae:	2180      	movs	r1, #128	; 0x80
 8002cb0:	f001 fc52 	bl	8004558 <HAL_GPIO_TogglePin>

      	  	  // when boot check faultflag
      	  	  buttonUpdate(&FaultFlag);
 8002cb4:	4856      	ldr	r0, [pc, #344]	; (8002e10 <TIM16_IRQHandler+0x1a4>)
 8002cb6:	f7ff fb91 	bl	80023dc <buttonUpdate>
					  }
      		  	  break;
        }

  /* USER CODE END TIM16_IRQn 1 */
}
 8002cba:	bdf8      	pop	{r3, r4, r5, r6, r7, pc}
      		  if (CalibMode == 1) {
 8002cbc:	4b55      	ldr	r3, [pc, #340]	; (8002e14 <TIM16_IRQHandler+0x1a8>)
 8002cbe:	681b      	ldr	r3, [r3, #0]
 8002cc0:	2b01      	cmp	r3, #1
 8002cc2:	d02f      	beq.n	8002d24 <TIM16_IRQHandler+0xb8>
      		  	PrintCurrentState();
 8002cc4:	f7fe ff1c 	bl	8001b00 <PrintCurrentState>
      		  	  if (AMP_BLOCKED==1) {
 8002cc8:	4953      	ldr	r1, [pc, #332]	; (8002e18 <TIM16_IRQHandler+0x1ac>)
 8002cca:	680b      	ldr	r3, [r1, #0]
 8002ccc:	2b01      	cmp	r3, #1
 8002cce:	d105      	bne.n	8002cdc <TIM16_IRQHandler+0x70>
      		  		AMP_PROTECTION_CNT_BEFORESTART++;
 8002cd0:	4a52      	ldr	r2, [pc, #328]	; (8002e1c <TIM16_IRQHandler+0x1b0>)
 8002cd2:	6813      	ldr	r3, [r2, #0]
 8002cd4:	3301      	adds	r3, #1
      		  		if (AMP_PROTECTION_CNT_BEFORESTART>=DelaySecBeforeStartAfterAmpProtection) {
 8002cd6:	2b1d      	cmp	r3, #29
 8002cd8:	dc29      	bgt.n	8002d2e <TIM16_IRQHandler+0xc2>
      		  		AMP_PROTECTION_CNT_BEFORESTART++;
 8002cda:	6013      	str	r3, [r2, #0]
      		  	  if (VOUT_BLOCKED==1) {
 8002cdc:	4950      	ldr	r1, [pc, #320]	; (8002e20 <TIM16_IRQHandler+0x1b4>)
 8002cde:	680b      	ldr	r3, [r1, #0]
 8002ce0:	2b01      	cmp	r3, #1
 8002ce2:	d105      	bne.n	8002cf0 <TIM16_IRQHandler+0x84>
      		  		VOUT_PROTECTION_CNT_BEFORESTART++;
 8002ce4:	4a4f      	ldr	r2, [pc, #316]	; (8002e24 <TIM16_IRQHandler+0x1b8>)
 8002ce6:	6813      	ldr	r3, [r2, #0]
 8002ce8:	3301      	adds	r3, #1
      		  		if (VOUT_PROTECTION_CNT_BEFORESTART>=DelaySecBeforeStartAfterVOUTProtection) {
 8002cea:	2b1d      	cmp	r3, #29
 8002cec:	dc27      	bgt.n	8002d3e <TIM16_IRQHandler+0xd2>
      		  		VOUT_PROTECTION_CNT_BEFORESTART++;
 8002cee:	6013      	str	r3, [r2, #0]
      		  	  if (IOUT_BLOCKED==1) {
 8002cf0:	494d      	ldr	r1, [pc, #308]	; (8002e28 <TIM16_IRQHandler+0x1bc>)
 8002cf2:	680b      	ldr	r3, [r1, #0]
 8002cf4:	2b01      	cmp	r3, #1
 8002cf6:	d105      	bne.n	8002d04 <TIM16_IRQHandler+0x98>
      		  		IOUT_PROTECTION_CNT_BEFORESTART++;
 8002cf8:	4a4c      	ldr	r2, [pc, #304]	; (8002e2c <TIM16_IRQHandler+0x1c0>)
 8002cfa:	6813      	ldr	r3, [r2, #0]
 8002cfc:	3301      	adds	r3, #1
      		  		if (IOUT_PROTECTION_CNT_BEFORESTART>=DelaySecBeforeStartAfterIOUTProtection) {
 8002cfe:	2b1d      	cmp	r3, #29
 8002d00:	dc25      	bgt.n	8002d4e <TIM16_IRQHandler+0xe2>
      		  		IOUT_PROTECTION_CNT_BEFORESTART++;
 8002d02:	6013      	str	r3, [r2, #0]
      		  	  if (DC_BLOCKED==1) {
 8002d04:	494a      	ldr	r1, [pc, #296]	; (8002e30 <TIM16_IRQHandler+0x1c4>)
 8002d06:	680b      	ldr	r3, [r1, #0]
 8002d08:	2b01      	cmp	r3, #1
 8002d0a:	d1d6      	bne.n	8002cba <TIM16_IRQHandler+0x4e>
					  if (DC_DataAverage<DC_PROTECTION_ROLLBACK) {
 8002d0c:	4b49      	ldr	r3, [pc, #292]	; (8002e34 <TIM16_IRQHandler+0x1c8>)
 8002d0e:	4a4a      	ldr	r2, [pc, #296]	; (8002e38 <TIM16_IRQHandler+0x1cc>)
 8002d10:	6818      	ldr	r0, [r3, #0]
 8002d12:	4b4a      	ldr	r3, [pc, #296]	; (8002e3c <TIM16_IRQHandler+0x1d0>)
 8002d14:	4290      	cmp	r0, r2
 8002d16:	d82a      	bhi.n	8002d6e <TIM16_IRQHandler+0x102>
						DC_PROTECTION_CNT_BEFORESTART++;
 8002d18:	681a      	ldr	r2, [r3, #0]
 8002d1a:	3201      	adds	r2, #1
						if (DC_PROTECTION_CNT_BEFORESTART>=DelaySecBeforeStartAfterDCProtection) {
 8002d1c:	2a09      	cmp	r2, #9
 8002d1e:	dc1e      	bgt.n	8002d5e <TIM16_IRQHandler+0xf2>
						  DC_PROTECTION_CNT_BEFORESTART=0;
 8002d20:	601a      	str	r2, [r3, #0]
 8002d22:	e7ca      	b.n	8002cba <TIM16_IRQHandler+0x4e>
      			  if (CalibCmdCheck()==1) {
 8002d24:	f7ff f826 	bl	8001d74 <CalibCmdCheck>
 8002d28:	2801      	cmp	r0, #1
 8002d2a:	d1cb      	bne.n	8002cc4 <TIM16_IRQHandler+0x58>
 8002d2c:	e7c5      	b.n	8002cba <TIM16_IRQHandler+0x4e>
      		  			AMP_PROTECTION_CNT_BEFORESTART=0;
 8002d2e:	2300      	movs	r3, #0
 8002d30:	6013      	str	r3, [r2, #0]
      		  			AMP_PROTECTION_CNT=0;
 8002d32:	4a43      	ldr	r2, [pc, #268]	; (8002e40 <TIM16_IRQHandler+0x1d4>)
      		  			AMP_BLOCKED=0;
 8002d34:	600b      	str	r3, [r1, #0]
      		  			AMP_PROTECTION_CNT=0;
 8002d36:	6013      	str	r3, [r2, #0]
      		  			SetSoftstart();
 8002d38:	f7ff fa28 	bl	800218c <SetSoftstart>
 8002d3c:	e7ce      	b.n	8002cdc <TIM16_IRQHandler+0x70>
      		  			VOUT_PROTECTION_CNT_BEFORESTART=0;
 8002d3e:	2300      	movs	r3, #0
 8002d40:	6013      	str	r3, [r2, #0]
      		  			VOUT_PROTECTION_CNT=0;
 8002d42:	4a40      	ldr	r2, [pc, #256]	; (8002e44 <TIM16_IRQHandler+0x1d8>)
      		  			VOUT_BLOCKED=0;
 8002d44:	600b      	str	r3, [r1, #0]
      		  			VOUT_PROTECTION_CNT=0;
 8002d46:	6013      	str	r3, [r2, #0]
      		  			SetSoftstart();
 8002d48:	f7ff fa20 	bl	800218c <SetSoftstart>
 8002d4c:	e7d0      	b.n	8002cf0 <TIM16_IRQHandler+0x84>
      		  			IOUT_PROTECTION_CNT_BEFORESTART=0;
 8002d4e:	2300      	movs	r3, #0
 8002d50:	6013      	str	r3, [r2, #0]
      		  			IOUT_PROTECTION_CNT=0;
 8002d52:	4a3d      	ldr	r2, [pc, #244]	; (8002e48 <TIM16_IRQHandler+0x1dc>)
      		  			IOUT_BLOCKED=0;
 8002d54:	600b      	str	r3, [r1, #0]
      		  			IOUT_PROTECTION_CNT=0;
 8002d56:	6013      	str	r3, [r2, #0]
      		  			SetSoftstart();
 8002d58:	f7ff fa18 	bl	800218c <SetSoftstart>
 8002d5c:	e7d2      	b.n	8002d04 <TIM16_IRQHandler+0x98>
							DC_PROTECTION_CNT_BEFORESTART=0;
 8002d5e:	2200      	movs	r2, #0
 8002d60:	601a      	str	r2, [r3, #0]
							DC_PROTECTION_CNT=0;
 8002d62:	4b3a      	ldr	r3, [pc, #232]	; (8002e4c <TIM16_IRQHandler+0x1e0>)
							DC_BLOCKED=0;
 8002d64:	600a      	str	r2, [r1, #0]
							DC_PROTECTION_CNT=0;
 8002d66:	601a      	str	r2, [r3, #0]
							SetSoftstart();
 8002d68:	f7ff fa10 	bl	800218c <SetSoftstart>
 8002d6c:	e7a5      	b.n	8002cba <TIM16_IRQHandler+0x4e>
						  DC_PROTECTION_CNT_BEFORESTART=0;
 8002d6e:	2200      	movs	r2, #0
 8002d70:	e7d6      	b.n	8002d20 <TIM16_IRQHandler+0xb4>
      		  	  	PrintCurrentState();
 8002d72:	f7fe fec5 	bl	8001b00 <PrintCurrentState>
					if ((buttonUpdate(&FaultFlag) == isPressed) || (buttonUpdate(&FaultFlag) == isPressedLong)
 8002d76:	4f26      	ldr	r7, [pc, #152]	; (8002e10 <TIM16_IRQHandler+0x1a4>)
 8002d78:	0038      	movs	r0, r7
 8002d7a:	f7ff fb2f 	bl	80023dc <buttonUpdate>
 8002d7e:	4d34      	ldr	r5, [pc, #208]	; (8002e50 <TIM16_IRQHandler+0x1e4>)
 8002d80:	4e34      	ldr	r6, [pc, #208]	; (8002e54 <TIM16_IRQHandler+0x1e8>)
 8002d82:	2802      	cmp	r0, #2
 8002d84:	d11a      	bne.n	8002dbc <TIM16_IRQHandler+0x150>
						RstCnt++;
 8002d86:	682b      	ldr	r3, [r5, #0]
 8002d88:	4f33      	ldr	r7, [pc, #204]	; (8002e58 <TIM16_IRQHandler+0x1ec>)
 8002d8a:	3301      	adds	r3, #1
 8002d8c:	602b      	str	r3, [r5, #0]
						if (RstCnt==DelaySecBeforeAttemRst) {
 8002d8e:	2b0a      	cmp	r3, #10
 8002d90:	d12a      	bne.n	8002de8 <TIM16_IRQHandler+0x17c>
							RstCnt=0;
 8002d92:	2300      	movs	r3, #0
							HAL_GPIO_WritePin(RST_GPIO_Port, RST_Pin,GPIO_PIN_SET);
 8002d94:	2201      	movs	r2, #1
 8002d96:	2120      	movs	r1, #32
 8002d98:	481c      	ldr	r0, [pc, #112]	; (8002e0c <TIM16_IRQHandler+0x1a0>)
							RstCnt=0;
 8002d9a:	602b      	str	r3, [r5, #0]
							HAL_GPIO_WritePin(RST_GPIO_Port, RST_Pin,GPIO_PIN_SET);
 8002d9c:	f001 fbc2 	bl	8004524 <HAL_GPIO_WritePin>
							TIM16->ARR=sRST_Delay;
 8002da0:	23fa      	movs	r3, #250	; 0xfa
 8002da2:	005b      	lsls	r3, r3, #1
							TIM16->ARR=sDEF_Delay;
 8002da4:	62fb      	str	r3, [r7, #44]	; 0x2c
						HAL_GPIO_TogglePin(LED4_GPIO_Port, LED4_Pin);
 8002da6:	2180      	movs	r1, #128	; 0x80
 8002da8:	4818      	ldr	r0, [pc, #96]	; (8002e0c <TIM16_IRQHandler+0x1a0>)
 8002daa:	f001 fbd5 	bl	8004558 <HAL_GPIO_TogglePin>
						BoardStatus=sFaultFlag;
 8002dae:	2303      	movs	r3, #3
						SinWave=swNOP;
 8002db0:	4a2a      	ldr	r2, [pc, #168]	; (8002e5c <TIM16_IRQHandler+0x1f0>)
						BoardStatus=sFaultFlag;
 8002db2:	7023      	strb	r3, [r4, #0]
						SinWave=swNOP;
 8002db4:	7013      	strb	r3, [r2, #0]
						FaultWaitCnt=0;
 8002db6:	2300      	movs	r3, #0
 8002db8:	6033      	str	r3, [r6, #0]
 8002dba:	e77e      	b.n	8002cba <TIM16_IRQHandler+0x4e>
					if ((buttonUpdate(&FaultFlag) == isPressed) || (buttonUpdate(&FaultFlag) == isPressedLong)
 8002dbc:	0038      	movs	r0, r7
 8002dbe:	f7ff fb0d 	bl	80023dc <buttonUpdate>
 8002dc2:	2803      	cmp	r0, #3
 8002dc4:	d0df      	beq.n	8002d86 <TIM16_IRQHandler+0x11a>
						  SinWave=swNOP;
 8002dc6:	2103      	movs	r1, #3
						  RstCnt=0;
 8002dc8:	2200      	movs	r2, #0
						  SinWave=swNOP;
 8002dca:	4b24      	ldr	r3, [pc, #144]	; (8002e5c <TIM16_IRQHandler+0x1f0>)
						  RstCnt=0;
 8002dcc:	602a      	str	r2, [r5, #0]
						  SinWave=swNOP;
 8002dce:	7019      	strb	r1, [r3, #0]
						  FaultWaitCnt++;
 8002dd0:	6833      	ldr	r3, [r6, #0]
 8002dd2:	3301      	adds	r3, #1
 8002dd4:	6033      	str	r3, [r6, #0]
						  if (FaultWaitCnt>=DelaySecBeforeStartAfterFault) {
 8002dd6:	2b09      	cmp	r3, #9
 8002dd8:	dd0e      	ble.n	8002df8 <TIM16_IRQHandler+0x18c>
							  HAL_GPIO_WritePin(LED4_GPIO_Port, LED4_Pin,GPIO_PIN_RESET);
 8002dda:	317d      	adds	r1, #125	; 0x7d
 8002ddc:	480b      	ldr	r0, [pc, #44]	; (8002e0c <TIM16_IRQHandler+0x1a0>)
 8002dde:	f001 fba1 	bl	8004524 <HAL_GPIO_WritePin>
							  BoardStatus=sGEN;
 8002de2:	2301      	movs	r3, #1
 8002de4:	7023      	strb	r3, [r4, #0]
 8002de6:	e768      	b.n	8002cba <TIM16_IRQHandler+0x4e>
							HAL_GPIO_WritePin(RST_GPIO_Port, RST_Pin,GPIO_PIN_RESET);
 8002de8:	2200      	movs	r2, #0
 8002dea:	2120      	movs	r1, #32
 8002dec:	4807      	ldr	r0, [pc, #28]	; (8002e0c <TIM16_IRQHandler+0x1a0>)
 8002dee:	f001 fb99 	bl	8004524 <HAL_GPIO_WritePin>
							TIM16->ARR=sDEF_Delay;
 8002df2:	23fa      	movs	r3, #250	; 0xfa
 8002df4:	009b      	lsls	r3, r3, #2
 8002df6:	e7d5      	b.n	8002da4 <TIM16_IRQHandler+0x138>
							  BoardStatus=sFaultFlag;
 8002df8:	7021      	strb	r1, [r4, #0]
							  HAL_GPIO_TogglePin(LED4_GPIO_Port, LED4_Pin);
 8002dfa:	4804      	ldr	r0, [pc, #16]	; (8002e0c <TIM16_IRQHandler+0x1a0>)
 8002dfc:	2180      	movs	r1, #128	; 0x80
 8002dfe:	f001 fbab 	bl	8004558 <HAL_GPIO_TogglePin>
 8002e02:	e75a      	b.n	8002cba <TIM16_IRQHandler+0x4e>
 8002e04:	20000678 	.word	0x20000678
 8002e08:	2000032c 	.word	0x2000032c
 8002e0c:	48000400 	.word	0x48000400
 8002e10:	20000548 	.word	0x20000548
 8002e14:	20000330 	.word	0x20000330
 8002e18:	200002d0 	.word	0x200002d0
 8002e1c:	200002d8 	.word	0x200002d8
 8002e20:	20000310 	.word	0x20000310
 8002e24:	20000318 	.word	0x20000318
 8002e28:	200002f4 	.word	0x200002f4
 8002e2c:	200002fc 	.word	0x200002fc
 8002e30:	200002dc 	.word	0x200002dc
 8002e34:	200002e4 	.word	0x200002e4
 8002e38:	00000bb7 	.word	0x00000bb7
 8002e3c:	200002f0 	.word	0x200002f0
 8002e40:	200002d4 	.word	0x200002d4
 8002e44:	20000314 	.word	0x20000314
 8002e48:	200002f8 	.word	0x200002f8
 8002e4c:	200002ec 	.word	0x200002ec
 8002e50:	2000035c 	.word	0x2000035c
 8002e54:	20000350 	.word	0x20000350
 8002e58:	40014400 	.word	0x40014400
 8002e5c:	20000360 	.word	0x20000360

08002e60 <USART1_IRQHandler>:

/**
  * @brief This function handles USART1 global interrupt.
  */
void USART1_IRQHandler(void)
{
 8002e60:	b510      	push	{r4, lr}
  /* USER CODE BEGIN USART1_IRQn 0 */

  /* USER CODE END USART1_IRQn 0 */
  HAL_UART_IRQHandler(&huart1);
 8002e62:	4802      	ldr	r0, [pc, #8]	; (8002e6c <USART1_IRQHandler+0xc>)
 8002e64:	f003 fc20 	bl	80066a8 <HAL_UART_IRQHandler>
  /* USER CODE BEGIN USART1_IRQn 1 */


  /* USER CODE END USART1_IRQn 1 */
}
 8002e68:	bd10      	pop	{r4, pc}
 8002e6a:	46c0      	nop			; (mov r8, r8)
 8002e6c:	20000740 	.word	0x20000740

08002e70 <SystemInit>:
  */
void SystemInit(void)
{
  /* Reset the RCC clock configuration to the default reset state ------------*/
  /* Set HSION bit */
  RCC->CR |= (uint32_t)0x00000001U;
 8002e70:	2101      	movs	r1, #1
 8002e72:	4b11      	ldr	r3, [pc, #68]	; (8002eb8 <SystemInit+0x48>)
#if defined (STM32F051x8) || defined (STM32F058x8)
  /* Reset SW[1:0], HPRE[3:0], PPRE[2:0], ADCPRE and MCOSEL[2:0] bits */
  RCC->CFGR &= (uint32_t)0xF8FFB80CU;
#else
  /* Reset SW[1:0], HPRE[3:0], PPRE[2:0], ADCPRE, MCOSEL[2:0], MCOPRE[2:0] and PLLNODIV bits */
  RCC->CFGR &= (uint32_t)0x08FFB80CU;
 8002e74:	4811      	ldr	r0, [pc, #68]	; (8002ebc <SystemInit+0x4c>)
  RCC->CR |= (uint32_t)0x00000001U;
 8002e76:	681a      	ldr	r2, [r3, #0]
 8002e78:	430a      	orrs	r2, r1
 8002e7a:	601a      	str	r2, [r3, #0]
  RCC->CFGR &= (uint32_t)0x08FFB80CU;
 8002e7c:	685a      	ldr	r2, [r3, #4]
 8002e7e:	4002      	ands	r2, r0
 8002e80:	605a      	str	r2, [r3, #4]
#endif /* STM32F051x8 or STM32F058x8 */
  
  /* Reset HSEON, CSSON and PLLON bits */
  RCC->CR &= (uint32_t)0xFEF6FFFFU;
 8002e82:	681a      	ldr	r2, [r3, #0]
 8002e84:	480e      	ldr	r0, [pc, #56]	; (8002ec0 <SystemInit+0x50>)
 8002e86:	4002      	ands	r2, r0
 8002e88:	601a      	str	r2, [r3, #0]

  /* Reset HSEBYP bit */
  RCC->CR &= (uint32_t)0xFFFBFFFFU;
 8002e8a:	681a      	ldr	r2, [r3, #0]
 8002e8c:	480d      	ldr	r0, [pc, #52]	; (8002ec4 <SystemInit+0x54>)
 8002e8e:	4002      	ands	r2, r0
 8002e90:	601a      	str	r2, [r3, #0]

  /* Reset PLLSRC, PLLXTPRE and PLLMUL[3:0] bits */
  RCC->CFGR &= (uint32_t)0xFFC0FFFFU;
 8002e92:	685a      	ldr	r2, [r3, #4]
 8002e94:	480c      	ldr	r0, [pc, #48]	; (8002ec8 <SystemInit+0x58>)
 8002e96:	4002      	ands	r2, r0

  /* Reset PREDIV[3:0] bits */
  RCC->CFGR2 &= (uint32_t)0xFFFFFFF0U;
 8002e98:	200f      	movs	r0, #15
  RCC->CFGR &= (uint32_t)0xFFC0FFFFU;
 8002e9a:	605a      	str	r2, [r3, #4]
  RCC->CFGR2 &= (uint32_t)0xFFFFFFF0U;
 8002e9c:	6ada      	ldr	r2, [r3, #44]	; 0x2c
 8002e9e:	4382      	bics	r2, r0
 8002ea0:	62da      	str	r2, [r3, #44]	; 0x2c
#elif defined (STM32F091xC) || defined (STM32F098xx)
  /* Reset USART3SW[1:0], USART2SW[1:0], USART1SW[1:0], I2C1SW, CECSW and ADCSW bits */
  RCC->CFGR3 &= (uint32_t)0xFFF0FEACU;
#elif defined (STM32F030x6) || defined (STM32F030x8) || defined (STM32F031x6) || defined (STM32F038xx) || defined (STM32F030xC)
  /* Reset USART1SW[1:0], I2C1SW and ADCSW bits */
  RCC->CFGR3 &= (uint32_t)0xFFFFFEECU;
 8002ea2:	6b1a      	ldr	r2, [r3, #48]	; 0x30
 8002ea4:	4809      	ldr	r0, [pc, #36]	; (8002ecc <SystemInit+0x5c>)
 8002ea6:	4002      	ands	r2, r0
 8002ea8:	631a      	str	r2, [r3, #48]	; 0x30
#else
 #warning "No target selected"
#endif

  /* Reset HSI14 bit */
  RCC->CR2 &= (uint32_t)0xFFFFFFFEU;
 8002eaa:	6b5a      	ldr	r2, [r3, #52]	; 0x34
 8002eac:	438a      	bics	r2, r1
 8002eae:	635a      	str	r2, [r3, #52]	; 0x34

  /* Disable all interrupts */
  RCC->CIR = 0x00000000U;
 8002eb0:	2200      	movs	r2, #0
 8002eb2:	609a      	str	r2, [r3, #8]

}
 8002eb4:	4770      	bx	lr
 8002eb6:	46c0      	nop			; (mov r8, r8)
 8002eb8:	40021000 	.word	0x40021000
 8002ebc:	08ffb80c 	.word	0x08ffb80c
 8002ec0:	fef6ffff 	.word	0xfef6ffff
 8002ec4:	fffbffff 	.word	0xfffbffff
 8002ec8:	ffc0ffff 	.word	0xffc0ffff
 8002ecc:	fffffeec 	.word	0xfffffeec

08002ed0 <MX_TIM14_Init>:
}
/* TIM14 init function */
void MX_TIM14_Init(void)
{

  htim14.Instance = TIM14;
 8002ed0:	480a      	ldr	r0, [pc, #40]	; (8002efc <MX_TIM14_Init+0x2c>)
 8002ed2:	4b0b      	ldr	r3, [pc, #44]	; (8002f00 <MX_TIM14_Init+0x30>)
{
 8002ed4:	b510      	push	{r4, lr}
  htim14.Instance = TIM14;
 8002ed6:	6003      	str	r3, [r0, #0]
  htim14.Init.Prescaler = 1;
 8002ed8:	2301      	movs	r3, #1
  htim14.Init.CounterMode = TIM_COUNTERMODE_UP;
  htim14.Init.Period = 1000;
 8002eda:	22fa      	movs	r2, #250	; 0xfa
  htim14.Init.Prescaler = 1;
 8002edc:	6043      	str	r3, [r0, #4]
  htim14.Init.CounterMode = TIM_COUNTERMODE_UP;
 8002ede:	2300      	movs	r3, #0
  htim14.Init.Period = 1000;
 8002ee0:	0092      	lsls	r2, r2, #2
  htim14.Init.CounterMode = TIM_COUNTERMODE_UP;
 8002ee2:	6083      	str	r3, [r0, #8]
  htim14.Init.ClockDivision = TIM_CLOCKDIVISION_DIV1;
 8002ee4:	6103      	str	r3, [r0, #16]
  htim14.Init.AutoReloadPreload = TIM_AUTORELOAD_PRELOAD_ENABLE;
 8002ee6:	3380      	adds	r3, #128	; 0x80
  htim14.Init.Period = 1000;
 8002ee8:	60c2      	str	r2, [r0, #12]
  htim14.Init.AutoReloadPreload = TIM_AUTORELOAD_PRELOAD_ENABLE;
 8002eea:	6183      	str	r3, [r0, #24]
  if (HAL_TIM_Base_Init(&htim14) != HAL_OK)
 8002eec:	f002 fa82 	bl	80053f4 <HAL_TIM_Base_Init>
 8002ef0:	2800      	cmp	r0, #0
 8002ef2:	d001      	beq.n	8002ef8 <MX_TIM14_Init+0x28>
  {
    Error_Handler();
 8002ef4:	f7ff fd3a 	bl	800296c <Error_Handler>
  }

}
 8002ef8:	bd10      	pop	{r4, pc}
 8002efa:	46c0      	nop			; (mov r8, r8)
 8002efc:	20000638 	.word	0x20000638
 8002f00:	40002000 	.word	0x40002000

08002f04 <MX_TIM16_Init>:
/* TIM16 init function */
void MX_TIM16_Init(void)
{

  htim16.Instance = TIM16;
 8002f04:	480a      	ldr	r0, [pc, #40]	; (8002f30 <MX_TIM16_Init+0x2c>)
 8002f06:	4b0b      	ldr	r3, [pc, #44]	; (8002f34 <MX_TIM16_Init+0x30>)
{
 8002f08:	b510      	push	{r4, lr}
  htim16.Instance = TIM16;
 8002f0a:	6003      	str	r3, [r0, #0]
  htim16.Init.Prescaler = 47999;
 8002f0c:	4b0a      	ldr	r3, [pc, #40]	; (8002f38 <MX_TIM16_Init+0x34>)
  htim16.Init.CounterMode = TIM_COUNTERMODE_UP;
  htim16.Init.Period = 1000;
 8002f0e:	22fa      	movs	r2, #250	; 0xfa
  htim16.Init.Prescaler = 47999;
 8002f10:	6043      	str	r3, [r0, #4]
  htim16.Init.CounterMode = TIM_COUNTERMODE_UP;
 8002f12:	2300      	movs	r3, #0
  htim16.Init.Period = 1000;
 8002f14:	0092      	lsls	r2, r2, #2
  htim16.Init.CounterMode = TIM_COUNTERMODE_UP;
 8002f16:	6083      	str	r3, [r0, #8]
  htim16.Init.ClockDivision = TIM_CLOCKDIVISION_DIV1;
 8002f18:	6103      	str	r3, [r0, #16]
  htim16.Init.RepetitionCounter = 0;
 8002f1a:	6143      	str	r3, [r0, #20]
  htim16.Init.AutoReloadPreload = TIM_AUTORELOAD_PRELOAD_ENABLE;
 8002f1c:	3380      	adds	r3, #128	; 0x80
  htim16.Init.Period = 1000;
 8002f1e:	60c2      	str	r2, [r0, #12]
  htim16.Init.AutoReloadPreload = TIM_AUTORELOAD_PRELOAD_ENABLE;
 8002f20:	6183      	str	r3, [r0, #24]
  if (HAL_TIM_Base_Init(&htim16) != HAL_OK)
 8002f22:	f002 fa67 	bl	80053f4 <HAL_TIM_Base_Init>
 8002f26:	2800      	cmp	r0, #0
 8002f28:	d001      	beq.n	8002f2e <MX_TIM16_Init+0x2a>
  {
    Error_Handler();
 8002f2a:	f7ff fd1f 	bl	800296c <Error_Handler>
  }

}
 8002f2e:	bd10      	pop	{r4, pc}
 8002f30:	20000678 	.word	0x20000678
 8002f34:	40014400 	.word	0x40014400
 8002f38:	0000bb7f 	.word	0x0000bb7f

08002f3c <HAL_TIM_Base_MspInit>:

void HAL_TIM_Base_MspInit(TIM_HandleTypeDef* tim_baseHandle)
{
 8002f3c:	b51f      	push	{r0, r1, r2, r3, r4, lr}

  if(tim_baseHandle->Instance==TIM1)
 8002f3e:	6803      	ldr	r3, [r0, #0]
 8002f40:	4a28      	ldr	r2, [pc, #160]	; (8002fe4 <HAL_TIM_Base_MspInit+0xa8>)
 8002f42:	4293      	cmp	r3, r2
 8002f44:	d113      	bne.n	8002f6e <HAL_TIM_Base_MspInit+0x32>
  {
  /* USER CODE BEGIN TIM1_MspInit 0 */

  /* USER CODE END TIM1_MspInit 0 */
    /* TIM1 clock enable */
    __HAL_RCC_TIM1_CLK_ENABLE();
 8002f46:	2080      	movs	r0, #128	; 0x80
 8002f48:	4a27      	ldr	r2, [pc, #156]	; (8002fe8 <HAL_TIM_Base_MspInit+0xac>)
 8002f4a:	0100      	lsls	r0, r0, #4
 8002f4c:	6991      	ldr	r1, [r2, #24]
 8002f4e:	4301      	orrs	r1, r0
 8002f50:	6191      	str	r1, [r2, #24]
 8002f52:	6993      	ldr	r3, [r2, #24]

    /* TIM1 interrupt Init */
    HAL_NVIC_SetPriority(TIM1_BRK_UP_TRG_COM_IRQn, 0, 0);
 8002f54:	2200      	movs	r2, #0
    __HAL_RCC_TIM1_CLK_ENABLE();
 8002f56:	4003      	ands	r3, r0
 8002f58:	9300      	str	r3, [sp, #0]
    HAL_NVIC_SetPriority(TIM1_BRK_UP_TRG_COM_IRQn, 0, 0);
 8002f5a:	200d      	movs	r0, #13
 8002f5c:	0011      	movs	r1, r2
    __HAL_RCC_TIM1_CLK_ENABLE();
 8002f5e:	9b00      	ldr	r3, [sp, #0]
    HAL_NVIC_SetPriority(TIM1_BRK_UP_TRG_COM_IRQn, 0, 0);
 8002f60:	f000 fdbc 	bl	8003adc <HAL_NVIC_SetPriority>
    HAL_NVIC_EnableIRQ(TIM1_BRK_UP_TRG_COM_IRQn);
 8002f64:	200d      	movs	r0, #13
    /* TIM16 clock enable */
    __HAL_RCC_TIM16_CLK_ENABLE();

    /* TIM16 interrupt Init */
    HAL_NVIC_SetPriority(TIM16_IRQn, 0, 0);
    HAL_NVIC_EnableIRQ(TIM16_IRQn);
 8002f66:	f000 fdf3 	bl	8003b50 <HAL_NVIC_EnableIRQ>
  /* USER CODE BEGIN TIM16_MspInit 1 */

  /* USER CODE END TIM16_MspInit 1 */
  }
}
 8002f6a:	b005      	add	sp, #20
 8002f6c:	bd00      	pop	{pc}
  else if(tim_baseHandle->Instance==TIM3)
 8002f6e:	4a1f      	ldr	r2, [pc, #124]	; (8002fec <HAL_TIM_Base_MspInit+0xb0>)
 8002f70:	4293      	cmp	r3, r2
 8002f72:	d10f      	bne.n	8002f94 <HAL_TIM_Base_MspInit+0x58>
    __HAL_RCC_TIM3_CLK_ENABLE();
 8002f74:	2002      	movs	r0, #2
 8002f76:	4a1c      	ldr	r2, [pc, #112]	; (8002fe8 <HAL_TIM_Base_MspInit+0xac>)
 8002f78:	69d1      	ldr	r1, [r2, #28]
 8002f7a:	4301      	orrs	r1, r0
 8002f7c:	61d1      	str	r1, [r2, #28]
 8002f7e:	69d3      	ldr	r3, [r2, #28]
    HAL_NVIC_SetPriority(TIM3_IRQn, 0, 0);
 8002f80:	2200      	movs	r2, #0
    __HAL_RCC_TIM3_CLK_ENABLE();
 8002f82:	4003      	ands	r3, r0
 8002f84:	9301      	str	r3, [sp, #4]
    HAL_NVIC_SetPriority(TIM3_IRQn, 0, 0);
 8002f86:	300e      	adds	r0, #14
 8002f88:	0011      	movs	r1, r2
    __HAL_RCC_TIM3_CLK_ENABLE();
 8002f8a:	9b01      	ldr	r3, [sp, #4]
    HAL_NVIC_SetPriority(TIM3_IRQn, 0, 0);
 8002f8c:	f000 fda6 	bl	8003adc <HAL_NVIC_SetPriority>
    HAL_NVIC_EnableIRQ(TIM3_IRQn);
 8002f90:	2010      	movs	r0, #16
 8002f92:	e7e8      	b.n	8002f66 <HAL_TIM_Base_MspInit+0x2a>
  else if(tim_baseHandle->Instance==TIM14)
 8002f94:	4a16      	ldr	r2, [pc, #88]	; (8002ff0 <HAL_TIM_Base_MspInit+0xb4>)
 8002f96:	4293      	cmp	r3, r2
 8002f98:	d110      	bne.n	8002fbc <HAL_TIM_Base_MspInit+0x80>
    __HAL_RCC_TIM14_CLK_ENABLE();
 8002f9a:	2080      	movs	r0, #128	; 0x80
 8002f9c:	4a12      	ldr	r2, [pc, #72]	; (8002fe8 <HAL_TIM_Base_MspInit+0xac>)
 8002f9e:	0040      	lsls	r0, r0, #1
 8002fa0:	69d1      	ldr	r1, [r2, #28]
 8002fa2:	4301      	orrs	r1, r0
 8002fa4:	61d1      	str	r1, [r2, #28]
 8002fa6:	69d3      	ldr	r3, [r2, #28]
    HAL_NVIC_SetPriority(TIM14_IRQn, 0, 0);
 8002fa8:	2200      	movs	r2, #0
    __HAL_RCC_TIM14_CLK_ENABLE();
 8002faa:	4003      	ands	r3, r0
 8002fac:	9302      	str	r3, [sp, #8]
    HAL_NVIC_SetPriority(TIM14_IRQn, 0, 0);
 8002fae:	38ed      	subs	r0, #237	; 0xed
 8002fb0:	0011      	movs	r1, r2
    __HAL_RCC_TIM14_CLK_ENABLE();
 8002fb2:	9b02      	ldr	r3, [sp, #8]
    HAL_NVIC_SetPriority(TIM14_IRQn, 0, 0);
 8002fb4:	f000 fd92 	bl	8003adc <HAL_NVIC_SetPriority>
    HAL_NVIC_EnableIRQ(TIM14_IRQn);
 8002fb8:	2013      	movs	r0, #19
 8002fba:	e7d4      	b.n	8002f66 <HAL_TIM_Base_MspInit+0x2a>
  else if(tim_baseHandle->Instance==TIM16)
 8002fbc:	4a0d      	ldr	r2, [pc, #52]	; (8002ff4 <HAL_TIM_Base_MspInit+0xb8>)
 8002fbe:	4293      	cmp	r3, r2
 8002fc0:	d1d3      	bne.n	8002f6a <HAL_TIM_Base_MspInit+0x2e>
    __HAL_RCC_TIM16_CLK_ENABLE();
 8002fc2:	2080      	movs	r0, #128	; 0x80
 8002fc4:	4a08      	ldr	r2, [pc, #32]	; (8002fe8 <HAL_TIM_Base_MspInit+0xac>)
 8002fc6:	0280      	lsls	r0, r0, #10
 8002fc8:	6991      	ldr	r1, [r2, #24]
 8002fca:	4301      	orrs	r1, r0
 8002fcc:	6191      	str	r1, [r2, #24]
 8002fce:	6993      	ldr	r3, [r2, #24]
    HAL_NVIC_SetPriority(TIM16_IRQn, 0, 0);
 8002fd0:	2200      	movs	r2, #0
    __HAL_RCC_TIM16_CLK_ENABLE();
 8002fd2:	4003      	ands	r3, r0
 8002fd4:	9303      	str	r3, [sp, #12]
    HAL_NVIC_SetPriority(TIM16_IRQn, 0, 0);
 8002fd6:	2015      	movs	r0, #21
 8002fd8:	0011      	movs	r1, r2
    __HAL_RCC_TIM16_CLK_ENABLE();
 8002fda:	9b03      	ldr	r3, [sp, #12]
    HAL_NVIC_SetPriority(TIM16_IRQn, 0, 0);
 8002fdc:	f000 fd7e 	bl	8003adc <HAL_NVIC_SetPriority>
    HAL_NVIC_EnableIRQ(TIM16_IRQn);
 8002fe0:	2015      	movs	r0, #21
 8002fe2:	e7c0      	b.n	8002f66 <HAL_TIM_Base_MspInit+0x2a>
 8002fe4:	40012c00 	.word	0x40012c00
 8002fe8:	40021000 	.word	0x40021000
 8002fec:	40000400 	.word	0x40000400
 8002ff0:	40002000 	.word	0x40002000
 8002ff4:	40014400 	.word	0x40014400

08002ff8 <HAL_TIM_MspPostInit>:
void HAL_TIM_MspPostInit(TIM_HandleTypeDef* timHandle)
{
 8002ff8:	b530      	push	{r4, r5, lr}
 8002ffa:	0004      	movs	r4, r0
 8002ffc:	b089      	sub	sp, #36	; 0x24

  GPIO_InitTypeDef GPIO_InitStruct = {0};
 8002ffe:	2214      	movs	r2, #20
 8003000:	2100      	movs	r1, #0
 8003002:	a803      	add	r0, sp, #12
 8003004:	f003 fc33 	bl	800686e <memset>
  if(timHandle->Instance==TIM1)
 8003008:	6823      	ldr	r3, [r4, #0]
 800300a:	4a27      	ldr	r2, [pc, #156]	; (80030a8 <HAL_TIM_MspPostInit+0xb0>)
 800300c:	4293      	cmp	r3, r2
 800300e:	d12f      	bne.n	8003070 <HAL_TIM_MspPostInit+0x78>
  {
  /* USER CODE BEGIN TIM1_MspPostInit 0 */

  /* USER CODE END TIM1_MspPostInit 0 */
    __HAL_RCC_GPIOB_CLK_ENABLE();
 8003010:	2080      	movs	r0, #128	; 0x80
 8003012:	4b26      	ldr	r3, [pc, #152]	; (80030ac <HAL_TIM_MspPostInit+0xb4>)
 8003014:	02c0      	lsls	r0, r0, #11
 8003016:	6959      	ldr	r1, [r3, #20]
    __HAL_RCC_GPIOA_CLK_ENABLE();
    /**TIM1 GPIO Configuration    
    PB1     ------> TIM1_CH3N
    PA10     ------> TIM1_CH3 
    */
    GPIO_InitStruct.Pin = CH4_Pin;
 8003018:	2402      	movs	r4, #2
    __HAL_RCC_GPIOB_CLK_ENABLE();
 800301a:	4301      	orrs	r1, r0
 800301c:	6159      	str	r1, [r3, #20]
    __HAL_RCC_GPIOA_CLK_ENABLE();
 800301e:	2180      	movs	r1, #128	; 0x80
    GPIO_InitStruct.Mode = GPIO_MODE_AF_PP;
    GPIO_InitStruct.Pull = GPIO_NOPULL;
    GPIO_InitStruct.Speed = GPIO_SPEED_FREQ_HIGH;
 8003020:	2503      	movs	r5, #3
    __HAL_RCC_GPIOB_CLK_ENABLE();
 8003022:	695a      	ldr	r2, [r3, #20]
    __HAL_RCC_GPIOA_CLK_ENABLE();
 8003024:	0289      	lsls	r1, r1, #10
    __HAL_RCC_GPIOB_CLK_ENABLE();
 8003026:	4002      	ands	r2, r0
 8003028:	9200      	str	r2, [sp, #0]
 800302a:	9a00      	ldr	r2, [sp, #0]
    __HAL_RCC_GPIOA_CLK_ENABLE();
 800302c:	695a      	ldr	r2, [r3, #20]
    GPIO_InitStruct.Alternate = GPIO_AF2_TIM1;
    HAL_GPIO_Init(CH4_GPIO_Port, &GPIO_InitStruct);
 800302e:	4820      	ldr	r0, [pc, #128]	; (80030b0 <HAL_TIM_MspPostInit+0xb8>)
    __HAL_RCC_GPIOA_CLK_ENABLE();
 8003030:	430a      	orrs	r2, r1
 8003032:	615a      	str	r2, [r3, #20]
 8003034:	695b      	ldr	r3, [r3, #20]
    GPIO_InitStruct.Pin = CH4_Pin;
 8003036:	9403      	str	r4, [sp, #12]
    __HAL_RCC_GPIOA_CLK_ENABLE();
 8003038:	400b      	ands	r3, r1
 800303a:	9301      	str	r3, [sp, #4]
    HAL_GPIO_Init(CH4_GPIO_Port, &GPIO_InitStruct);
 800303c:	a903      	add	r1, sp, #12
    __HAL_RCC_GPIOA_CLK_ENABLE();
 800303e:	9b01      	ldr	r3, [sp, #4]
    GPIO_InitStruct.Mode = GPIO_MODE_AF_PP;
 8003040:	9404      	str	r4, [sp, #16]
    GPIO_InitStruct.Speed = GPIO_SPEED_FREQ_HIGH;
 8003042:	9506      	str	r5, [sp, #24]
    GPIO_InitStruct.Alternate = GPIO_AF2_TIM1;
 8003044:	9407      	str	r4, [sp, #28]
    HAL_GPIO_Init(CH4_GPIO_Port, &GPIO_InitStruct);
 8003046:	f001 f943 	bl	80042d0 <HAL_GPIO_Init>

    GPIO_InitStruct.Pin = CH3_Pin;
 800304a:	2380      	movs	r3, #128	; 0x80
    GPIO_InitStruct.Mode = GPIO_MODE_AF_PP;
    GPIO_InitStruct.Pull = GPIO_NOPULL;
    GPIO_InitStruct.Speed = GPIO_SPEED_FREQ_HIGH;
    GPIO_InitStruct.Alternate = GPIO_AF2_TIM1;
    HAL_GPIO_Init(CH3_GPIO_Port, &GPIO_InitStruct);
 800304c:	2090      	movs	r0, #144	; 0x90
    GPIO_InitStruct.Pin = CH3_Pin;
 800304e:	00db      	lsls	r3, r3, #3
 8003050:	9303      	str	r3, [sp, #12]
    GPIO_InitStruct.Pull = GPIO_NOPULL;
 8003052:	2300      	movs	r3, #0
    HAL_GPIO_Init(CH3_GPIO_Port, &GPIO_InitStruct);
 8003054:	05c0      	lsls	r0, r0, #23
 8003056:	a903      	add	r1, sp, #12
    GPIO_InitStruct.Mode = GPIO_MODE_AF_PP;
 8003058:	9404      	str	r4, [sp, #16]
    GPIO_InitStruct.Pull = GPIO_NOPULL;
 800305a:	9305      	str	r3, [sp, #20]
    GPIO_InitStruct.Speed = GPIO_SPEED_FREQ_HIGH;
 800305c:	9506      	str	r5, [sp, #24]
    GPIO_InitStruct.Alternate = GPIO_AF2_TIM1;
 800305e:	9407      	str	r4, [sp, #28]
    HAL_GPIO_Init(CH3_GPIO_Port, &GPIO_InitStruct);
 8003060:	f001 f936 	bl	80042d0 <HAL_GPIO_Init>

    HAL_I2CEx_EnableFastModePlus(SYSCFG_CFGR1_I2C_FMP_PA10);
 8003064:	2080      	movs	r0, #128	; 0x80
 8003066:	0400      	lsls	r0, r0, #16
 8003068:	f001 fa86 	bl	8004578 <HAL_I2CEx_EnableFastModePlus>
  /* USER CODE BEGIN TIM3_MspPostInit 1 */

  /* USER CODE END TIM3_MspPostInit 1 */
  }

}
 800306c:	b009      	add	sp, #36	; 0x24
 800306e:	bd30      	pop	{r4, r5, pc}
  else if(timHandle->Instance==TIM3)
 8003070:	4a10      	ldr	r2, [pc, #64]	; (80030b4 <HAL_TIM_MspPostInit+0xbc>)
 8003072:	4293      	cmp	r3, r2
 8003074:	d1fa      	bne.n	800306c <HAL_TIM_MspPostInit+0x74>
    __HAL_RCC_GPIOA_CLK_ENABLE();
 8003076:	2080      	movs	r0, #128	; 0x80
 8003078:	4a0c      	ldr	r2, [pc, #48]	; (80030ac <HAL_TIM_MspPostInit+0xb4>)
 800307a:	0280      	lsls	r0, r0, #10
 800307c:	6951      	ldr	r1, [r2, #20]
 800307e:	4301      	orrs	r1, r0
 8003080:	6151      	str	r1, [r2, #20]
 8003082:	6953      	ldr	r3, [r2, #20]
    HAL_GPIO_Init(GPIOA, &GPIO_InitStruct);
 8003084:	a903      	add	r1, sp, #12
    __HAL_RCC_GPIOA_CLK_ENABLE();
 8003086:	4003      	ands	r3, r0
 8003088:	9302      	str	r3, [sp, #8]
 800308a:	9b02      	ldr	r3, [sp, #8]
    GPIO_InitStruct.Pin = CH1_Pin|CH2_Pin;
 800308c:	23c0      	movs	r3, #192	; 0xc0
    HAL_GPIO_Init(GPIOA, &GPIO_InitStruct);
 800308e:	2090      	movs	r0, #144	; 0x90
    GPIO_InitStruct.Pin = CH1_Pin|CH2_Pin;
 8003090:	9303      	str	r3, [sp, #12]
    GPIO_InitStruct.Mode = GPIO_MODE_AF_PP;
 8003092:	3bbe      	subs	r3, #190	; 0xbe
 8003094:	9304      	str	r3, [sp, #16]
    GPIO_InitStruct.Speed = GPIO_SPEED_FREQ_HIGH;
 8003096:	3301      	adds	r3, #1
 8003098:	9306      	str	r3, [sp, #24]
    HAL_GPIO_Init(GPIOA, &GPIO_InitStruct);
 800309a:	05c0      	lsls	r0, r0, #23
    GPIO_InitStruct.Alternate = GPIO_AF1_TIM3;
 800309c:	3b02      	subs	r3, #2
 800309e:	9307      	str	r3, [sp, #28]
    HAL_GPIO_Init(GPIOA, &GPIO_InitStruct);
 80030a0:	f001 f916 	bl	80042d0 <HAL_GPIO_Init>
}
 80030a4:	e7e2      	b.n	800306c <HAL_TIM_MspPostInit+0x74>
 80030a6:	46c0      	nop			; (mov r8, r8)
 80030a8:	40012c00 	.word	0x40012c00
 80030ac:	40021000 	.word	0x40021000
 80030b0:	48000400 	.word	0x48000400
 80030b4:	40000400 	.word	0x40000400

080030b8 <MX_TIM1_Init>:
{
 80030b8:	b530      	push	{r4, r5, lr}
 80030ba:	b095      	sub	sp, #84	; 0x54
  TIM_ClockConfigTypeDef sClockSourceConfig = {0};
 80030bc:	2210      	movs	r2, #16
 80030be:	2100      	movs	r1, #0
 80030c0:	a802      	add	r0, sp, #8
 80030c2:	f003 fbd4 	bl	800686e <memset>
  TIM_MasterConfigTypeDef sMasterConfig = {0};
 80030c6:	2208      	movs	r2, #8
 80030c8:	2100      	movs	r1, #0
 80030ca:	4668      	mov	r0, sp
 80030cc:	f003 fbcf 	bl	800686e <memset>
  TIM_OC_InitTypeDef sConfigOC = {0};
 80030d0:	221c      	movs	r2, #28
 80030d2:	2100      	movs	r1, #0
 80030d4:	a806      	add	r0, sp, #24
 80030d6:	f003 fbca 	bl	800686e <memset>
  TIM_BreakDeadTimeConfigTypeDef sBreakDeadTimeConfig = {0};
 80030da:	221c      	movs	r2, #28
 80030dc:	2100      	movs	r1, #0
 80030de:	a80d      	add	r0, sp, #52	; 0x34
 80030e0:	f003 fbc5 	bl	800686e <memset>
  htim1.Instance = TIM1;
 80030e4:	4c2e      	ldr	r4, [pc, #184]	; (80031a0 <MX_TIM1_Init+0xe8>)
 80030e6:	4b2f      	ldr	r3, [pc, #188]	; (80031a4 <MX_TIM1_Init+0xec>)
  htim1.Init.Period = 1000;
 80030e8:	22fa      	movs	r2, #250	; 0xfa
  htim1.Instance = TIM1;
 80030ea:	6023      	str	r3, [r4, #0]
  htim1.Init.Prescaler = 960;
 80030ec:	23f0      	movs	r3, #240	; 0xf0
 80030ee:	009b      	lsls	r3, r3, #2
 80030f0:	6063      	str	r3, [r4, #4]
  htim1.Init.CounterMode = TIM_COUNTERMODE_UP;
 80030f2:	2300      	movs	r3, #0
  htim1.Init.Period = 1000;
 80030f4:	0092      	lsls	r2, r2, #2
  htim1.Init.CounterMode = TIM_COUNTERMODE_UP;
 80030f6:	60a3      	str	r3, [r4, #8]
  htim1.Init.ClockDivision = TIM_CLOCKDIVISION_DIV1;
 80030f8:	6123      	str	r3, [r4, #16]
  htim1.Init.RepetitionCounter = 0;
 80030fa:	6163      	str	r3, [r4, #20]
  if (HAL_TIM_Base_Init(&htim1) != HAL_OK)
 80030fc:	0020      	movs	r0, r4
  htim1.Init.AutoReloadPreload = TIM_AUTORELOAD_PRELOAD_ENABLE;
 80030fe:	3380      	adds	r3, #128	; 0x80
  htim1.Init.Period = 1000;
 8003100:	60e2      	str	r2, [r4, #12]
  htim1.Init.AutoReloadPreload = TIM_AUTORELOAD_PRELOAD_ENABLE;
 8003102:	61a3      	str	r3, [r4, #24]
  if (HAL_TIM_Base_Init(&htim1) != HAL_OK)
 8003104:	f002 f976 	bl	80053f4 <HAL_TIM_Base_Init>
 8003108:	2800      	cmp	r0, #0
 800310a:	d001      	beq.n	8003110 <MX_TIM1_Init+0x58>
    Error_Handler();
 800310c:	f7ff fc2e 	bl	800296c <Error_Handler>
  sClockSourceConfig.ClockSource = TIM_CLOCKSOURCE_INTERNAL;
 8003110:	2380      	movs	r3, #128	; 0x80
  if (HAL_TIM_ConfigClockSource(&htim1, &sClockSourceConfig) != HAL_OK)
 8003112:	a902      	add	r1, sp, #8
  sClockSourceConfig.ClockSource = TIM_CLOCKSOURCE_INTERNAL;
 8003114:	015b      	lsls	r3, r3, #5
  if (HAL_TIM_ConfigClockSource(&htim1, &sClockSourceConfig) != HAL_OK)
 8003116:	0020      	movs	r0, r4
  sClockSourceConfig.ClockSource = TIM_CLOCKSOURCE_INTERNAL;
 8003118:	9302      	str	r3, [sp, #8]
  if (HAL_TIM_ConfigClockSource(&htim1, &sClockSourceConfig) != HAL_OK)
 800311a:	f002 fc95 	bl	8005a48 <HAL_TIM_ConfigClockSource>
 800311e:	2800      	cmp	r0, #0
 8003120:	d001      	beq.n	8003126 <MX_TIM1_Init+0x6e>
    Error_Handler();
 8003122:	f7ff fc23 	bl	800296c <Error_Handler>
  if (HAL_TIM_OC_Init(&htim1) != HAL_OK)
 8003126:	0020      	movs	r0, r4
 8003128:	f002 f9c6 	bl	80054b8 <HAL_TIM_OC_Init>
 800312c:	2800      	cmp	r0, #0
 800312e:	d001      	beq.n	8003134 <MX_TIM1_Init+0x7c>
    Error_Handler();
 8003130:	f7ff fc1c 	bl	800296c <Error_Handler>
  sMasterConfig.MasterOutputTrigger = TIM_TRGO_RESET;
 8003134:	2500      	movs	r5, #0
  if (HAL_TIMEx_MasterConfigSynchronization(&htim1, &sMasterConfig) != HAL_OK)
 8003136:	4669      	mov	r1, sp
 8003138:	0020      	movs	r0, r4
  sMasterConfig.MasterOutputTrigger = TIM_TRGO_RESET;
 800313a:	9500      	str	r5, [sp, #0]
  sMasterConfig.MasterSlaveMode = TIM_MASTERSLAVEMODE_DISABLE;
 800313c:	9501      	str	r5, [sp, #4]
  if (HAL_TIMEx_MasterConfigSynchronization(&htim1, &sMasterConfig) != HAL_OK)
 800313e:	f002 fe87 	bl	8005e50 <HAL_TIMEx_MasterConfigSynchronization>
 8003142:	42a8      	cmp	r0, r5
 8003144:	d001      	beq.n	800314a <MX_TIM1_Init+0x92>
    Error_Handler();
 8003146:	f7ff fc11 	bl	800296c <Error_Handler>
  sConfigOC.Pulse = 500;
 800314a:	23fa      	movs	r3, #250	; 0xfa
 800314c:	005b      	lsls	r3, r3, #1
 800314e:	9307      	str	r3, [sp, #28]
  if (HAL_TIM_OC_ConfigChannel(&htim1, &sConfigOC, TIM_CHANNEL_3) != HAL_OK)
 8003150:	2208      	movs	r2, #8
  sConfigOC.OCIdleState = TIM_OCIDLESTATE_SET;
 8003152:	3bf4      	subs	r3, #244	; 0xf4
  if (HAL_TIM_OC_ConfigChannel(&htim1, &sConfigOC, TIM_CHANNEL_3) != HAL_OK)
 8003154:	a906      	add	r1, sp, #24
 8003156:	0020      	movs	r0, r4
  sConfigOC.OCMode = TIM_OCMODE_TIMING;
 8003158:	9506      	str	r5, [sp, #24]
  sConfigOC.OCPolarity = TIM_OCPOLARITY_HIGH;
 800315a:	9508      	str	r5, [sp, #32]
  sConfigOC.OCNPolarity = TIM_OCNPOLARITY_HIGH;
 800315c:	9509      	str	r5, [sp, #36]	; 0x24
  sConfigOC.OCFastMode = TIM_OCFAST_DISABLE;
 800315e:	950a      	str	r5, [sp, #40]	; 0x28
  sConfigOC.OCIdleState = TIM_OCIDLESTATE_SET;
 8003160:	930b      	str	r3, [sp, #44]	; 0x2c
  sConfigOC.OCNIdleState = TIM_OCIDLESTATE_SET;
 8003162:	930c      	str	r3, [sp, #48]	; 0x30
  if (HAL_TIM_OC_ConfigChannel(&htim1, &sConfigOC, TIM_CHANNEL_3) != HAL_OK)
 8003164:	f002 fada 	bl	800571c <HAL_TIM_OC_ConfigChannel>
 8003168:	2800      	cmp	r0, #0
 800316a:	d001      	beq.n	8003170 <MX_TIM1_Init+0xb8>
    Error_Handler();
 800316c:	f7ff fbfe 	bl	800296c <Error_Handler>
  sBreakDeadTimeConfig.DeadTime = 0b01011111;
 8003170:	225f      	movs	r2, #95	; 0x5f
 8003172:	9210      	str	r2, [sp, #64]	; 0x40
  sBreakDeadTimeConfig.BreakPolarity = TIM_BREAKPOLARITY_HIGH;
 8003174:	2280      	movs	r2, #128	; 0x80
  sBreakDeadTimeConfig.OffStateRunMode = TIM_OSSR_DISABLE;
 8003176:	2300      	movs	r3, #0
  sBreakDeadTimeConfig.BreakPolarity = TIM_BREAKPOLARITY_HIGH;
 8003178:	0192      	lsls	r2, r2, #6
  if (HAL_TIMEx_ConfigBreakDeadTime(&htim1, &sBreakDeadTimeConfig) != HAL_OK)
 800317a:	a90d      	add	r1, sp, #52	; 0x34
 800317c:	0020      	movs	r0, r4
  sBreakDeadTimeConfig.OffStateRunMode = TIM_OSSR_DISABLE;
 800317e:	930d      	str	r3, [sp, #52]	; 0x34
  sBreakDeadTimeConfig.OffStateIDLEMode = TIM_OSSI_DISABLE;
 8003180:	930e      	str	r3, [sp, #56]	; 0x38
  sBreakDeadTimeConfig.LockLevel = TIM_LOCKLEVEL_OFF;
 8003182:	930f      	str	r3, [sp, #60]	; 0x3c
  sBreakDeadTimeConfig.BreakState = TIM_BREAK_DISABLE;
 8003184:	9311      	str	r3, [sp, #68]	; 0x44
  sBreakDeadTimeConfig.BreakPolarity = TIM_BREAKPOLARITY_HIGH;
 8003186:	9212      	str	r2, [sp, #72]	; 0x48
  sBreakDeadTimeConfig.AutomaticOutput = TIM_AUTOMATICOUTPUT_DISABLE;
 8003188:	9313      	str	r3, [sp, #76]	; 0x4c
  if (HAL_TIMEx_ConfigBreakDeadTime(&htim1, &sBreakDeadTimeConfig) != HAL_OK)
 800318a:	f002 fead 	bl	8005ee8 <HAL_TIMEx_ConfigBreakDeadTime>
 800318e:	2800      	cmp	r0, #0
 8003190:	d001      	beq.n	8003196 <MX_TIM1_Init+0xde>
    Error_Handler();
 8003192:	f7ff fbeb 	bl	800296c <Error_Handler>
  HAL_TIM_MspPostInit(&htim1);
 8003196:	0020      	movs	r0, r4
 8003198:	f7ff ff2e 	bl	8002ff8 <HAL_TIM_MspPostInit>
}
 800319c:	b015      	add	sp, #84	; 0x54
 800319e:	bd30      	pop	{r4, r5, pc}
 80031a0:	200005f8 	.word	0x200005f8
 80031a4:	40012c00 	.word	0x40012c00

080031a8 <MX_TIM3_Init>:
{
 80031a8:	b510      	push	{r4, lr}
 80031aa:	b08e      	sub	sp, #56	; 0x38
  TIM_ClockConfigTypeDef sClockSourceConfig = {0};
 80031ac:	2210      	movs	r2, #16
 80031ae:	2100      	movs	r1, #0
 80031b0:	a803      	add	r0, sp, #12
 80031b2:	f003 fb5c 	bl	800686e <memset>
  TIM_MasterConfigTypeDef sMasterConfig = {0};
 80031b6:	2208      	movs	r2, #8
 80031b8:	2100      	movs	r1, #0
 80031ba:	a801      	add	r0, sp, #4
 80031bc:	f003 fb57 	bl	800686e <memset>
  TIM_OC_InitTypeDef sConfigOC = {0};
 80031c0:	221c      	movs	r2, #28
 80031c2:	2100      	movs	r1, #0
 80031c4:	a807      	add	r0, sp, #28
 80031c6:	f003 fb52 	bl	800686e <memset>
  htim3.Instance = TIM3;
 80031ca:	4c26      	ldr	r4, [pc, #152]	; (8003264 <MX_TIM3_Init+0xbc>)
 80031cc:	4b26      	ldr	r3, [pc, #152]	; (8003268 <MX_TIM3_Init+0xc0>)
  htim3.Init.Period = 1000;
 80031ce:	22fa      	movs	r2, #250	; 0xfa
  htim3.Instance = TIM3;
 80031d0:	6023      	str	r3, [r4, #0]
  htim3.Init.Prescaler = 1;
 80031d2:	2301      	movs	r3, #1
 80031d4:	6063      	str	r3, [r4, #4]
  htim3.Init.CounterMode = TIM_COUNTERMODE_UP;
 80031d6:	2300      	movs	r3, #0
  htim3.Init.Period = 1000;
 80031d8:	0092      	lsls	r2, r2, #2
  htim3.Init.CounterMode = TIM_COUNTERMODE_UP;
 80031da:	60a3      	str	r3, [r4, #8]
  htim3.Init.ClockDivision = TIM_CLOCKDIVISION_DIV1;
 80031dc:	6123      	str	r3, [r4, #16]
  if (HAL_TIM_Base_Init(&htim3) != HAL_OK)
 80031de:	0020      	movs	r0, r4
  htim3.Init.AutoReloadPreload = TIM_AUTORELOAD_PRELOAD_ENABLE;
 80031e0:	3380      	adds	r3, #128	; 0x80
  htim3.Init.Period = 1000;
 80031e2:	60e2      	str	r2, [r4, #12]
  htim3.Init.AutoReloadPreload = TIM_AUTORELOAD_PRELOAD_ENABLE;
 80031e4:	61a3      	str	r3, [r4, #24]
  if (HAL_TIM_Base_Init(&htim3) != HAL_OK)
 80031e6:	f002 f905 	bl	80053f4 <HAL_TIM_Base_Init>
 80031ea:	2800      	cmp	r0, #0
 80031ec:	d001      	beq.n	80031f2 <MX_TIM3_Init+0x4a>
    Error_Handler();
 80031ee:	f7ff fbbd 	bl	800296c <Error_Handler>
  sClockSourceConfig.ClockSource = TIM_CLOCKSOURCE_INTERNAL;
 80031f2:	2380      	movs	r3, #128	; 0x80
  if (HAL_TIM_ConfigClockSource(&htim3, &sClockSourceConfig) != HAL_OK)
 80031f4:	a903      	add	r1, sp, #12
  sClockSourceConfig.ClockSource = TIM_CLOCKSOURCE_INTERNAL;
 80031f6:	015b      	lsls	r3, r3, #5
  if (HAL_TIM_ConfigClockSource(&htim3, &sClockSourceConfig) != HAL_OK)
 80031f8:	0020      	movs	r0, r4
  sClockSourceConfig.ClockSource = TIM_CLOCKSOURCE_INTERNAL;
 80031fa:	9303      	str	r3, [sp, #12]
  if (HAL_TIM_ConfigClockSource(&htim3, &sClockSourceConfig) != HAL_OK)
 80031fc:	f002 fc24 	bl	8005a48 <HAL_TIM_ConfigClockSource>
 8003200:	2800      	cmp	r0, #0
 8003202:	d001      	beq.n	8003208 <MX_TIM3_Init+0x60>
    Error_Handler();
 8003204:	f7ff fbb2 	bl	800296c <Error_Handler>
  if (HAL_TIM_PWM_Init(&htim3) != HAL_OK)
 8003208:	0020      	movs	r0, r4
 800320a:	f002 f9bb 	bl	8005584 <HAL_TIM_PWM_Init>
 800320e:	2800      	cmp	r0, #0
 8003210:	d001      	beq.n	8003216 <MX_TIM3_Init+0x6e>
    Error_Handler();
 8003212:	f7ff fbab 	bl	800296c <Error_Handler>
  sMasterConfig.MasterOutputTrigger = TIM_TRGO_RESET;
 8003216:	2300      	movs	r3, #0
  if (HAL_TIMEx_MasterConfigSynchronization(&htim3, &sMasterConfig) != HAL_OK)
 8003218:	a901      	add	r1, sp, #4
 800321a:	0020      	movs	r0, r4
  sMasterConfig.MasterOutputTrigger = TIM_TRGO_RESET;
 800321c:	9301      	str	r3, [sp, #4]
  sMasterConfig.MasterSlaveMode = TIM_MASTERSLAVEMODE_DISABLE;
 800321e:	9302      	str	r3, [sp, #8]
  if (HAL_TIMEx_MasterConfigSynchronization(&htim3, &sMasterConfig) != HAL_OK)
 8003220:	f002 fe16 	bl	8005e50 <HAL_TIMEx_MasterConfigSynchronization>
 8003224:	2800      	cmp	r0, #0
 8003226:	d001      	beq.n	800322c <MX_TIM3_Init+0x84>
    Error_Handler();
 8003228:	f7ff fba0 	bl	800296c <Error_Handler>
  sConfigOC.Pulse = 0;
 800322c:	2200      	movs	r2, #0
  sConfigOC.OCMode = TIM_OCMODE_PWM1;
 800322e:	2360      	movs	r3, #96	; 0x60
  if (HAL_TIM_PWM_ConfigChannel(&htim3, &sConfigOC, TIM_CHANNEL_1) != HAL_OK)
 8003230:	a907      	add	r1, sp, #28
 8003232:	0020      	movs	r0, r4
  sConfigOC.OCMode = TIM_OCMODE_PWM1;
 8003234:	9307      	str	r3, [sp, #28]
  sConfigOC.Pulse = 0;
 8003236:	9208      	str	r2, [sp, #32]
  sConfigOC.OCPolarity = TIM_OCPOLARITY_HIGH;
 8003238:	9209      	str	r2, [sp, #36]	; 0x24
  sConfigOC.OCFastMode = TIM_OCFAST_DISABLE;
 800323a:	920b      	str	r2, [sp, #44]	; 0x2c
  if (HAL_TIM_PWM_ConfigChannel(&htim3, &sConfigOC, TIM_CHANNEL_1) != HAL_OK)
 800323c:	f002 fb16 	bl	800586c <HAL_TIM_PWM_ConfigChannel>
 8003240:	2800      	cmp	r0, #0
 8003242:	d001      	beq.n	8003248 <MX_TIM3_Init+0xa0>
    Error_Handler();
 8003244:	f7ff fb92 	bl	800296c <Error_Handler>
  if (HAL_TIM_PWM_ConfigChannel(&htim3, &sConfigOC, TIM_CHANNEL_2) != HAL_OK)
 8003248:	2204      	movs	r2, #4
 800324a:	a907      	add	r1, sp, #28
 800324c:	0020      	movs	r0, r4
 800324e:	f002 fb0d 	bl	800586c <HAL_TIM_PWM_ConfigChannel>
 8003252:	2800      	cmp	r0, #0
 8003254:	d001      	beq.n	800325a <MX_TIM3_Init+0xb2>
    Error_Handler();
 8003256:	f7ff fb89 	bl	800296c <Error_Handler>
  HAL_TIM_MspPostInit(&htim3);
 800325a:	0020      	movs	r0, r4
 800325c:	f7ff fecc 	bl	8002ff8 <HAL_TIM_MspPostInit>
}
 8003260:	b00e      	add	sp, #56	; 0x38
 8003262:	bd10      	pop	{r4, pc}
 8003264:	200005b8 	.word	0x200005b8
 8003268:	40000400 	.word	0x40000400

0800326c <MX_USART1_UART_Init>:
/* USART1 init function */

void MX_USART1_UART_Init(void)
{

  huart1.Instance = USART1;
 800326c:	480b      	ldr	r0, [pc, #44]	; (800329c <MX_USART1_UART_Init+0x30>)
 800326e:	4b0c      	ldr	r3, [pc, #48]	; (80032a0 <MX_USART1_UART_Init+0x34>)
{
 8003270:	b510      	push	{r4, lr}
  huart1.Instance = USART1;
 8003272:	6003      	str	r3, [r0, #0]
  huart1.Init.BaudRate = 115200;
 8003274:	23e1      	movs	r3, #225	; 0xe1
 8003276:	025b      	lsls	r3, r3, #9
 8003278:	6043      	str	r3, [r0, #4]
  huart1.Init.WordLength = UART_WORDLENGTH_8B;
  huart1.Init.StopBits = UART_STOPBITS_1;
  huart1.Init.Parity = UART_PARITY_NONE;
  huart1.Init.Mode = UART_MODE_TX_RX;
 800327a:	220c      	movs	r2, #12
  huart1.Init.WordLength = UART_WORDLENGTH_8B;
 800327c:	2300      	movs	r3, #0
  huart1.Init.Mode = UART_MODE_TX_RX;
 800327e:	6142      	str	r2, [r0, #20]
  huart1.Init.WordLength = UART_WORDLENGTH_8B;
 8003280:	6083      	str	r3, [r0, #8]
  huart1.Init.StopBits = UART_STOPBITS_1;
 8003282:	60c3      	str	r3, [r0, #12]
  huart1.Init.Parity = UART_PARITY_NONE;
 8003284:	6103      	str	r3, [r0, #16]
  huart1.Init.HwFlowCtl = UART_HWCONTROL_NONE;
 8003286:	6183      	str	r3, [r0, #24]
  huart1.Init.OverSampling = UART_OVERSAMPLING_16;
 8003288:	61c3      	str	r3, [r0, #28]
  huart1.Init.OneBitSampling = UART_ONE_BIT_SAMPLE_DISABLE;
 800328a:	6203      	str	r3, [r0, #32]
  huart1.AdvancedInit.AdvFeatureInit = UART_ADVFEATURE_NO_INIT;
 800328c:	6243      	str	r3, [r0, #36]	; 0x24
  if (HAL_UART_Init(&huart1) != HAL_OK)
 800328e:	f003 f93b 	bl	8006508 <HAL_UART_Init>
 8003292:	2800      	cmp	r0, #0
 8003294:	d001      	beq.n	800329a <MX_USART1_UART_Init+0x2e>
  {
    Error_Handler();
 8003296:	f7ff fb69 	bl	800296c <Error_Handler>
  }

}
 800329a:	bd10      	pop	{r4, pc}
 800329c:	20000740 	.word	0x20000740
 80032a0:	40013800 	.word	0x40013800

080032a4 <HAL_UART_MspInit>:

void HAL_UART_MspInit(UART_HandleTypeDef* uartHandle)
{
 80032a4:	b530      	push	{r4, r5, lr}
 80032a6:	0005      	movs	r5, r0
 80032a8:	b089      	sub	sp, #36	; 0x24

  GPIO_InitTypeDef GPIO_InitStruct = {0};
 80032aa:	2214      	movs	r2, #20
 80032ac:	2100      	movs	r1, #0
 80032ae:	a803      	add	r0, sp, #12
 80032b0:	f003 fadd 	bl	800686e <memset>
  if(uartHandle->Instance==USART1)
 80032b4:	4b2f      	ldr	r3, [pc, #188]	; (8003374 <HAL_UART_MspInit+0xd0>)
 80032b6:	682a      	ldr	r2, [r5, #0]
 80032b8:	429a      	cmp	r2, r3
 80032ba:	d159      	bne.n	8003370 <HAL_UART_MspInit+0xcc>
  {
  /* USER CODE BEGIN USART1_MspInit 0 */

  /* USER CODE END USART1_MspInit 0 */
    /* USART1 clock enable */
    __HAL_RCC_USART1_CLK_ENABLE();
 80032bc:	2080      	movs	r0, #128	; 0x80
 80032be:	4b2e      	ldr	r3, [pc, #184]	; (8003378 <HAL_UART_MspInit+0xd4>)
 80032c0:	01c0      	lsls	r0, r0, #7
 80032c2:	6999      	ldr	r1, [r3, #24]
 80032c4:	4301      	orrs	r1, r0
 80032c6:	6199      	str	r1, [r3, #24]
  
    __HAL_RCC_GPIOA_CLK_ENABLE();
 80032c8:	2180      	movs	r1, #128	; 0x80
    __HAL_RCC_USART1_CLK_ENABLE();
 80032ca:	699a      	ldr	r2, [r3, #24]
    __HAL_RCC_GPIOA_CLK_ENABLE();
 80032cc:	0289      	lsls	r1, r1, #10
    __HAL_RCC_USART1_CLK_ENABLE();
 80032ce:	4002      	ands	r2, r0
 80032d0:	9201      	str	r2, [sp, #4]
 80032d2:	9a01      	ldr	r2, [sp, #4]
    __HAL_RCC_GPIOA_CLK_ENABLE();
 80032d4:	695a      	ldr	r2, [r3, #20]
    GPIO_InitStruct.Pin = TX_Pin|RX_Pin;
    GPIO_InitStruct.Mode = GPIO_MODE_AF_PP;
    GPIO_InitStruct.Pull = GPIO_NOPULL;
    GPIO_InitStruct.Speed = GPIO_SPEED_FREQ_HIGH;
    GPIO_InitStruct.Alternate = GPIO_AF1_USART1;
    HAL_GPIO_Init(GPIOA, &GPIO_InitStruct);
 80032d6:	2090      	movs	r0, #144	; 0x90
    __HAL_RCC_GPIOA_CLK_ENABLE();
 80032d8:	430a      	orrs	r2, r1
 80032da:	615a      	str	r2, [r3, #20]
 80032dc:	695b      	ldr	r3, [r3, #20]
    HAL_GPIO_Init(GPIOA, &GPIO_InitStruct);
 80032de:	05c0      	lsls	r0, r0, #23
    __HAL_RCC_GPIOA_CLK_ENABLE();
 80032e0:	400b      	ands	r3, r1
 80032e2:	9302      	str	r3, [sp, #8]
 80032e4:	9b02      	ldr	r3, [sp, #8]
    GPIO_InitStruct.Pin = TX_Pin|RX_Pin;
 80032e6:	2382      	movs	r3, #130	; 0x82
 80032e8:	021b      	lsls	r3, r3, #8
 80032ea:	9303      	str	r3, [sp, #12]
    GPIO_InitStruct.Mode = GPIO_MODE_AF_PP;
 80032ec:	2302      	movs	r3, #2
 80032ee:	9304      	str	r3, [sp, #16]
    GPIO_InitStruct.Speed = GPIO_SPEED_FREQ_HIGH;
 80032f0:	3301      	adds	r3, #1
 80032f2:	9306      	str	r3, [sp, #24]
    HAL_GPIO_Init(GPIOA, &GPIO_InitStruct);
 80032f4:	a903      	add	r1, sp, #12
    GPIO_InitStruct.Alternate = GPIO_AF1_USART1;
 80032f6:	3b02      	subs	r3, #2
 80032f8:	9307      	str	r3, [sp, #28]
    HAL_GPIO_Init(GPIOA, &GPIO_InitStruct);
 80032fa:	f000 ffe9 	bl	80042d0 <HAL_GPIO_Init>

    /* USART1 DMA Init */
    /* USART1_RX Init */
    hdma_usart1_rx.Instance = DMA1_Channel3;
 80032fe:	4c1f      	ldr	r4, [pc, #124]	; (800337c <HAL_UART_MspInit+0xd8>)
 8003300:	4b1f      	ldr	r3, [pc, #124]	; (8003380 <HAL_UART_MspInit+0xdc>)
    hdma_usart1_rx.Init.Direction = DMA_PERIPH_TO_MEMORY;
    hdma_usart1_rx.Init.PeriphInc = DMA_PINC_DISABLE;
    hdma_usart1_rx.Init.MemInc = DMA_MINC_ENABLE;
 8003302:	2280      	movs	r2, #128	; 0x80
    hdma_usart1_rx.Instance = DMA1_Channel3;
 8003304:	6023      	str	r3, [r4, #0]
    hdma_usart1_rx.Init.Direction = DMA_PERIPH_TO_MEMORY;
 8003306:	2300      	movs	r3, #0
    hdma_usart1_rx.Init.PeriphDataAlignment = DMA_PDATAALIGN_BYTE;
    hdma_usart1_rx.Init.MemDataAlignment = DMA_MDATAALIGN_BYTE;
    hdma_usart1_rx.Init.Mode = DMA_NORMAL;
    hdma_usart1_rx.Init.Priority = DMA_PRIORITY_LOW;
    if (HAL_DMA_Init(&hdma_usart1_rx) != HAL_OK)
 8003308:	0020      	movs	r0, r4
    hdma_usart1_rx.Init.Direction = DMA_PERIPH_TO_MEMORY;
 800330a:	6063      	str	r3, [r4, #4]
    hdma_usart1_rx.Init.PeriphInc = DMA_PINC_DISABLE;
 800330c:	60a3      	str	r3, [r4, #8]
    hdma_usart1_rx.Init.MemInc = DMA_MINC_ENABLE;
 800330e:	60e2      	str	r2, [r4, #12]
    hdma_usart1_rx.Init.PeriphDataAlignment = DMA_PDATAALIGN_BYTE;
 8003310:	6123      	str	r3, [r4, #16]
    hdma_usart1_rx.Init.MemDataAlignment = DMA_MDATAALIGN_BYTE;
 8003312:	6163      	str	r3, [r4, #20]
    hdma_usart1_rx.Init.Mode = DMA_NORMAL;
 8003314:	61a3      	str	r3, [r4, #24]
    hdma_usart1_rx.Init.Priority = DMA_PRIORITY_LOW;
 8003316:	61e3      	str	r3, [r4, #28]
    if (HAL_DMA_Init(&hdma_usart1_rx) != HAL_OK)
 8003318:	f000 fca2 	bl	8003c60 <HAL_DMA_Init>
 800331c:	2800      	cmp	r0, #0
 800331e:	d001      	beq.n	8003324 <HAL_UART_MspInit+0x80>
    {
      Error_Handler();
 8003320:	f7ff fb24 	bl	800296c <Error_Handler>
    }

    __HAL_LINKDMA(uartHandle,hdmarx,hdma_usart1_rx);

    /* USART1_TX Init */
    hdma_usart1_tx.Instance = DMA1_Channel4;
 8003324:	4b17      	ldr	r3, [pc, #92]	; (8003384 <HAL_UART_MspInit+0xe0>)
    __HAL_LINKDMA(uartHandle,hdmarx,hdma_usart1_rx);
 8003326:	666c      	str	r4, [r5, #100]	; 0x64
 8003328:	6265      	str	r5, [r4, #36]	; 0x24
    hdma_usart1_tx.Instance = DMA1_Channel4;
 800332a:	4c17      	ldr	r4, [pc, #92]	; (8003388 <HAL_UART_MspInit+0xe4>)
    hdma_usart1_tx.Init.Direction = DMA_MEMORY_TO_PERIPH;
    hdma_usart1_tx.Init.PeriphInc = DMA_PINC_DISABLE;
    hdma_usart1_tx.Init.MemInc = DMA_MINC_ENABLE;
 800332c:	2280      	movs	r2, #128	; 0x80
    hdma_usart1_tx.Instance = DMA1_Channel4;
 800332e:	6023      	str	r3, [r4, #0]
    hdma_usart1_tx.Init.Direction = DMA_MEMORY_TO_PERIPH;
 8003330:	2310      	movs	r3, #16
 8003332:	6063      	str	r3, [r4, #4]
    hdma_usart1_tx.Init.PeriphInc = DMA_PINC_DISABLE;
 8003334:	2300      	movs	r3, #0
    hdma_usart1_tx.Init.PeriphDataAlignment = DMA_PDATAALIGN_BYTE;
    hdma_usart1_tx.Init.MemDataAlignment = DMA_MDATAALIGN_BYTE;
    hdma_usart1_tx.Init.Mode = DMA_NORMAL;
    hdma_usart1_tx.Init.Priority = DMA_PRIORITY_LOW;
    if (HAL_DMA_Init(&hdma_usart1_tx) != HAL_OK)
 8003336:	0020      	movs	r0, r4
    hdma_usart1_tx.Init.PeriphInc = DMA_PINC_DISABLE;
 8003338:	60a3      	str	r3, [r4, #8]
    hdma_usart1_tx.Init.MemInc = DMA_MINC_ENABLE;
 800333a:	60e2      	str	r2, [r4, #12]
    hdma_usart1_tx.Init.PeriphDataAlignment = DMA_PDATAALIGN_BYTE;
 800333c:	6123      	str	r3, [r4, #16]
    hdma_usart1_tx.Init.MemDataAlignment = DMA_MDATAALIGN_BYTE;
 800333e:	6163      	str	r3, [r4, #20]
    hdma_usart1_tx.Init.Mode = DMA_NORMAL;
 8003340:	61a3      	str	r3, [r4, #24]
    hdma_usart1_tx.Init.Priority = DMA_PRIORITY_LOW;
 8003342:	61e3      	str	r3, [r4, #28]
    if (HAL_DMA_Init(&hdma_usart1_tx) != HAL_OK)
 8003344:	f000 fc8c 	bl	8003c60 <HAL_DMA_Init>
 8003348:	2800      	cmp	r0, #0
 800334a:	d001      	beq.n	8003350 <HAL_UART_MspInit+0xac>
    {
      Error_Handler();
 800334c:	f7ff fb0e 	bl	800296c <Error_Handler>
    }

    __HAL_DMA_REMAP_CHANNEL_ENABLE(DMA_REMAP_USART1_TX_DMA_CH4);
 8003350:	2380      	movs	r3, #128	; 0x80
 8003352:	4a0e      	ldr	r2, [pc, #56]	; (800338c <HAL_UART_MspInit+0xe8>)
 8003354:	009b      	lsls	r3, r3, #2
 8003356:	6811      	ldr	r1, [r2, #0]

    __HAL_LINKDMA(uartHandle,hdmatx,hdma_usart1_tx);

    /* USART1 interrupt Init */
    HAL_NVIC_SetPriority(USART1_IRQn, 0, 0);
 8003358:	201b      	movs	r0, #27
    __HAL_DMA_REMAP_CHANNEL_ENABLE(DMA_REMAP_USART1_TX_DMA_CH4);
 800335a:	430b      	orrs	r3, r1
 800335c:	6013      	str	r3, [r2, #0]
    HAL_NVIC_SetPriority(USART1_IRQn, 0, 0);
 800335e:	2200      	movs	r2, #0
    __HAL_LINKDMA(uartHandle,hdmatx,hdma_usart1_tx);
 8003360:	662c      	str	r4, [r5, #96]	; 0x60
    HAL_NVIC_SetPriority(USART1_IRQn, 0, 0);
 8003362:	0011      	movs	r1, r2
    __HAL_LINKDMA(uartHandle,hdmatx,hdma_usart1_tx);
 8003364:	6265      	str	r5, [r4, #36]	; 0x24
    HAL_NVIC_SetPriority(USART1_IRQn, 0, 0);
 8003366:	f000 fbb9 	bl	8003adc <HAL_NVIC_SetPriority>
    HAL_NVIC_EnableIRQ(USART1_IRQn);
 800336a:	201b      	movs	r0, #27
 800336c:	f000 fbf0 	bl	8003b50 <HAL_NVIC_EnableIRQ>
  /* USER CODE BEGIN USART1_MspInit 1 */

  /* USER CODE END USART1_MspInit 1 */
  }
}
 8003370:	b009      	add	sp, #36	; 0x24
 8003372:	bd30      	pop	{r4, r5, pc}
 8003374:	40013800 	.word	0x40013800
 8003378:	40021000 	.word	0x40021000
 800337c:	200006fc 	.word	0x200006fc
 8003380:	40020030 	.word	0x40020030
 8003384:	40020044 	.word	0x40020044
 8003388:	200006b8 	.word	0x200006b8
 800338c:	40010000 	.word	0x40010000

08003390 <HAL_InitTick>:
  *       implementation  in user file.
  * @param TickPriority Tick interrupt priority.
  * @retval HAL status
  */
__weak HAL_StatusTypeDef HAL_InitTick(uint32_t TickPriority)
{
 8003390:	b510      	push	{r4, lr}
 8003392:	0004      	movs	r4, r0
  /*Configure the SysTick to have interrupt in 1ms time basis*/
  HAL_SYSTICK_Config(HAL_RCC_GetHCLKFreq()/1000U);
 8003394:	f001 fd12 	bl	8004dbc <HAL_RCC_GetHCLKFreq>
 8003398:	21fa      	movs	r1, #250	; 0xfa
 800339a:	0089      	lsls	r1, r1, #2
 800339c:	f7fc febe 	bl	800011c <__udivsi3>
 80033a0:	f000 fbe8 	bl	8003b74 <HAL_SYSTICK_Config>

  /*Configure the SysTick IRQ priority */
  HAL_NVIC_SetPriority(SysTick_IRQn, TickPriority ,0U);
 80033a4:	2001      	movs	r0, #1
 80033a6:	2200      	movs	r2, #0
 80033a8:	0021      	movs	r1, r4
 80033aa:	4240      	negs	r0, r0
 80033ac:	f000 fb96 	bl	8003adc <HAL_NVIC_SetPriority>

   /* Return function status */
  return HAL_OK;
}
 80033b0:	2000      	movs	r0, #0
 80033b2:	bd10      	pop	{r4, pc}

080033b4 <HAL_Init>:
  __HAL_FLASH_PREFETCH_BUFFER_ENABLE();
 80033b4:	2310      	movs	r3, #16
 80033b6:	4a06      	ldr	r2, [pc, #24]	; (80033d0 <HAL_Init+0x1c>)
{
 80033b8:	b510      	push	{r4, lr}
  __HAL_FLASH_PREFETCH_BUFFER_ENABLE();
 80033ba:	6811      	ldr	r1, [r2, #0]
  HAL_InitTick(TICK_INT_PRIORITY);
 80033bc:	2000      	movs	r0, #0
  __HAL_FLASH_PREFETCH_BUFFER_ENABLE();
 80033be:	430b      	orrs	r3, r1
 80033c0:	6013      	str	r3, [r2, #0]
  HAL_InitTick(TICK_INT_PRIORITY);
 80033c2:	f7ff ffe5 	bl	8003390 <HAL_InitTick>
  HAL_MspInit();
 80033c6:	f7ff fad3 	bl	8002970 <HAL_MspInit>
}
 80033ca:	2000      	movs	r0, #0
 80033cc:	bd10      	pop	{r4, pc}
 80033ce:	46c0      	nop			; (mov r8, r8)
 80033d0:	40022000 	.word	0x40022000

080033d4 <HAL_IncTick>:
  *       implementations in user file.
  * @retval None
  */
__weak void HAL_IncTick(void)
{
  uwTick++;
 80033d4:	4a02      	ldr	r2, [pc, #8]	; (80033e0 <HAL_IncTick+0xc>)
 80033d6:	6813      	ldr	r3, [r2, #0]
 80033d8:	3301      	adds	r3, #1
 80033da:	6013      	str	r3, [r2, #0]
}
 80033dc:	4770      	bx	lr
 80033de:	46c0      	nop			; (mov r8, r8)
 80033e0:	200007b0 	.word	0x200007b0

080033e4 <HAL_GetTick>:
  *       implementations in user file.
  * @retval tick value
  */
__weak uint32_t HAL_GetTick(void)
{
  return uwTick;
 80033e4:	4b01      	ldr	r3, [pc, #4]	; (80033ec <HAL_GetTick+0x8>)
 80033e6:	6818      	ldr	r0, [r3, #0]
}
 80033e8:	4770      	bx	lr
 80033ea:	46c0      	nop			; (mov r8, r8)
 80033ec:	200007b0 	.word	0x200007b0

080033f0 <HAL_Delay>:
  *       implementations in user file.
  * @param Delay specifies the delay time length, in milliseconds.
  * @retval None
  */
__weak void HAL_Delay(__IO uint32_t Delay)
{
 80033f0:	b537      	push	{r0, r1, r2, r4, r5, lr}
 80033f2:	9001      	str	r0, [sp, #4]
  uint32_t tickstart = HAL_GetTick();
 80033f4:	f7ff fff6 	bl	80033e4 <HAL_GetTick>
  uint32_t wait = Delay;
 80033f8:	9c01      	ldr	r4, [sp, #4]
  uint32_t tickstart = HAL_GetTick();
 80033fa:	0005      	movs	r5, r0
  
  /* Add a period to guarantee minimum wait */
  if (wait < HAL_MAX_DELAY)
  {
     wait++;
 80033fc:	1c63      	adds	r3, r4, #1
 80033fe:	1e5a      	subs	r2, r3, #1
 8003400:	4193      	sbcs	r3, r2
 8003402:	18e4      	adds	r4, r4, r3
  }
  
  while((HAL_GetTick() - tickstart) < wait)
 8003404:	f7ff ffee 	bl	80033e4 <HAL_GetTick>
 8003408:	1b40      	subs	r0, r0, r5
 800340a:	42a0      	cmp	r0, r4
 800340c:	d3fa      	bcc.n	8003404 <HAL_Delay+0x14>
  {
  }
}
 800340e:	bd37      	pop	{r0, r1, r2, r4, r5, pc}

08003410 <ADC_Enable>:
  * @retval HAL status.
  */
static HAL_StatusTypeDef ADC_Enable(ADC_HandleTypeDef* hadc)
{
  uint32_t tickstart = 0U;
  __IO uint32_t wait_loop_index = 0U;
 8003410:	2300      	movs	r3, #0
{
 8003412:	b573      	push	{r0, r1, r4, r5, r6, lr}
  
  /* ADC enable and wait for ADC ready (in case of ADC is disabled or         */
  /* enabling phase not yet completed: flag ADC ready not yet set).           */
  /* Timeout implemented to not be stuck if ADC cannot be enabled (possible   */
  /* causes: ADC clock not running, ...).                                     */
  if (ADC_IS_ENABLE(hadc) == RESET)
 8003414:	2103      	movs	r1, #3
  __IO uint32_t wait_loop_index = 0U;
 8003416:	9301      	str	r3, [sp, #4]
  if (ADC_IS_ENABLE(hadc) == RESET)
 8003418:	6803      	ldr	r3, [r0, #0]
{
 800341a:	0004      	movs	r4, r0
  if (ADC_IS_ENABLE(hadc) == RESET)
 800341c:	689a      	ldr	r2, [r3, #8]
 800341e:	400a      	ands	r2, r1
 8003420:	2a01      	cmp	r2, #1
 8003422:	d107      	bne.n	8003434 <ADC_Enable+0x24>
 8003424:	6819      	ldr	r1, [r3, #0]
 8003426:	4211      	tst	r1, r2
 8003428:	d001      	beq.n	800342e <ADC_Enable+0x1e>
    }   
    
  }
   
  /* Return HAL status */
  return HAL_OK;
 800342a:	2000      	movs	r0, #0
}
 800342c:	bd76      	pop	{r1, r2, r4, r5, r6, pc}
  if (ADC_IS_ENABLE(hadc) == RESET)
 800342e:	68da      	ldr	r2, [r3, #12]
 8003430:	0412      	lsls	r2, r2, #16
 8003432:	d4fa      	bmi.n	800342a <ADC_Enable+0x1a>
    if (ADC_ENABLING_CONDITIONS(hadc) == RESET)
 8003434:	6899      	ldr	r1, [r3, #8]
 8003436:	4a19      	ldr	r2, [pc, #100]	; (800349c <ADC_Enable+0x8c>)
 8003438:	4211      	tst	r1, r2
 800343a:	d008      	beq.n	800344e <ADC_Enable+0x3e>
      SET_BIT(hadc->State, HAL_ADC_STATE_ERROR_INTERNAL);
 800343c:	2310      	movs	r3, #16
      SET_BIT(hadc->ErrorCode, HAL_ADC_ERROR_INTERNAL);
 800343e:	2001      	movs	r0, #1
      SET_BIT(hadc->State, HAL_ADC_STATE_ERROR_INTERNAL);
 8003440:	6c62      	ldr	r2, [r4, #68]	; 0x44
 8003442:	4313      	orrs	r3, r2
 8003444:	6463      	str	r3, [r4, #68]	; 0x44
      SET_BIT(hadc->ErrorCode, HAL_ADC_ERROR_INTERNAL);
 8003446:	6ca3      	ldr	r3, [r4, #72]	; 0x48
 8003448:	4303      	orrs	r3, r0
 800344a:	64a3      	str	r3, [r4, #72]	; 0x48
      return HAL_ERROR;
 800344c:	e7ee      	b.n	800342c <ADC_Enable+0x1c>
    __HAL_ADC_ENABLE(hadc);
 800344e:	2201      	movs	r2, #1
 8003450:	6899      	ldr	r1, [r3, #8]
 8003452:	430a      	orrs	r2, r1
 8003454:	609a      	str	r2, [r3, #8]
    wait_loop_index = (ADC_STAB_DELAY_US * (SystemCoreClock / 1000000U));
 8003456:	4b12      	ldr	r3, [pc, #72]	; (80034a0 <ADC_Enable+0x90>)
 8003458:	4912      	ldr	r1, [pc, #72]	; (80034a4 <ADC_Enable+0x94>)
 800345a:	6818      	ldr	r0, [r3, #0]
 800345c:	f7fc fe5e 	bl	800011c <__udivsi3>
 8003460:	9001      	str	r0, [sp, #4]
    while(wait_loop_index != 0U)
 8003462:	9b01      	ldr	r3, [sp, #4]
 8003464:	2b00      	cmp	r3, #0
 8003466:	d115      	bne.n	8003494 <ADC_Enable+0x84>
    tickstart = HAL_GetTick();
 8003468:	f7ff ffbc 	bl	80033e4 <HAL_GetTick>
    while(__HAL_ADC_GET_FLAG(hadc, ADC_FLAG_RDY) == RESET)
 800346c:	2501      	movs	r5, #1
    tickstart = HAL_GetTick();
 800346e:	0006      	movs	r6, r0
    while(__HAL_ADC_GET_FLAG(hadc, ADC_FLAG_RDY) == RESET)
 8003470:	6823      	ldr	r3, [r4, #0]
 8003472:	681b      	ldr	r3, [r3, #0]
 8003474:	422b      	tst	r3, r5
 8003476:	d1d8      	bne.n	800342a <ADC_Enable+0x1a>
      if((HAL_GetTick() - tickstart) > ADC_ENABLE_TIMEOUT)
 8003478:	f7ff ffb4 	bl	80033e4 <HAL_GetTick>
 800347c:	1b80      	subs	r0, r0, r6
 800347e:	2802      	cmp	r0, #2
 8003480:	d9f6      	bls.n	8003470 <ADC_Enable+0x60>
        SET_BIT(hadc->State, HAL_ADC_STATE_ERROR_INTERNAL);
 8003482:	2310      	movs	r3, #16
 8003484:	6c62      	ldr	r2, [r4, #68]	; 0x44
        return HAL_ERROR;
 8003486:	2001      	movs	r0, #1
        SET_BIT(hadc->State, HAL_ADC_STATE_ERROR_INTERNAL);
 8003488:	4313      	orrs	r3, r2
 800348a:	6463      	str	r3, [r4, #68]	; 0x44
        SET_BIT(hadc->ErrorCode, HAL_ADC_ERROR_INTERNAL);
 800348c:	6ca3      	ldr	r3, [r4, #72]	; 0x48
 800348e:	432b      	orrs	r3, r5
 8003490:	64a3      	str	r3, [r4, #72]	; 0x48
        return HAL_ERROR;
 8003492:	e7cb      	b.n	800342c <ADC_Enable+0x1c>
      wait_loop_index--;
 8003494:	9b01      	ldr	r3, [sp, #4]
 8003496:	3b01      	subs	r3, #1
 8003498:	9301      	str	r3, [sp, #4]
 800349a:	e7e2      	b.n	8003462 <ADC_Enable+0x52>
 800349c:	80000017 	.word	0x80000017
 80034a0:	20000248 	.word	0x20000248
 80034a4:	000f4240 	.word	0x000f4240

080034a8 <HAL_ADC_Init>:
{
 80034a8:	b5f8      	push	{r3, r4, r5, r6, r7, lr}
 80034aa:	0004      	movs	r4, r0
    return HAL_ERROR;
 80034ac:	2001      	movs	r0, #1
  if(hadc == NULL)
 80034ae:	2c00      	cmp	r4, #0
 80034b0:	d100      	bne.n	80034b4 <HAL_ADC_Init+0xc>
 80034b2:	e0f6      	b.n	80036a2 <HAL_ADC_Init+0x1fa>
  assert_param(IS_ADC_ALL_INSTANCE(hadc->Instance));
 80034b4:	4b8f      	ldr	r3, [pc, #572]	; (80036f4 <HAL_ADC_Init+0x24c>)
 80034b6:	6822      	ldr	r2, [r4, #0]
 80034b8:	429a      	cmp	r2, r3
 80034ba:	d004      	beq.n	80034c6 <HAL_ADC_Init+0x1e>
 80034bc:	2174      	movs	r1, #116	; 0x74
 80034be:	488e      	ldr	r0, [pc, #568]	; (80036f8 <HAL_ADC_Init+0x250>)
 80034c0:	31ff      	adds	r1, #255	; 0xff
 80034c2:	f7ff fa54 	bl	800296e <assert_failed>
  assert_param(IS_ADC_CLOCKPRESCALER(hadc->Init.ClockPrescaler));
 80034c6:	6863      	ldr	r3, [r4, #4]
 80034c8:	4a8c      	ldr	r2, [pc, #560]	; (80036fc <HAL_ADC_Init+0x254>)
 80034ca:	4213      	tst	r3, r2
 80034cc:	d008      	beq.n	80034e0 <HAL_ADC_Init+0x38>
 80034ce:	2280      	movs	r2, #128	; 0x80
 80034d0:	0612      	lsls	r2, r2, #24
 80034d2:	4293      	cmp	r3, r2
 80034d4:	d004      	beq.n	80034e0 <HAL_ADC_Init+0x38>
 80034d6:	21ba      	movs	r1, #186	; 0xba
 80034d8:	4887      	ldr	r0, [pc, #540]	; (80036f8 <HAL_ADC_Init+0x250>)
 80034da:	0049      	lsls	r1, r1, #1
 80034dc:	f7ff fa47 	bl	800296e <assert_failed>
  assert_param(IS_ADC_RESOLUTION(hadc->Init.Resolution));
 80034e0:	2318      	movs	r3, #24
 80034e2:	68a2      	ldr	r2, [r4, #8]
 80034e4:	439a      	bics	r2, r3
 80034e6:	d004      	beq.n	80034f2 <HAL_ADC_Init+0x4a>
 80034e8:	2176      	movs	r1, #118	; 0x76
 80034ea:	4883      	ldr	r0, [pc, #524]	; (80036f8 <HAL_ADC_Init+0x250>)
 80034ec:	31ff      	adds	r1, #255	; 0xff
 80034ee:	f7ff fa3e 	bl	800296e <assert_failed>
  assert_param(IS_ADC_DATA_ALIGN(hadc->Init.DataAlign)); 
 80034f2:	2320      	movs	r3, #32
 80034f4:	68e2      	ldr	r2, [r4, #12]
 80034f6:	439a      	bics	r2, r3
 80034f8:	d004      	beq.n	8003504 <HAL_ADC_Init+0x5c>
 80034fa:	21bb      	movs	r1, #187	; 0xbb
 80034fc:	487e      	ldr	r0, [pc, #504]	; (80036f8 <HAL_ADC_Init+0x250>)
 80034fe:	0049      	lsls	r1, r1, #1
 8003500:	f7ff fa35 	bl	800296e <assert_failed>
  assert_param(IS_ADC_SCAN_MODE(hadc->Init.ScanConvMode));
 8003504:	6923      	ldr	r3, [r4, #16]
 8003506:	3b01      	subs	r3, #1
 8003508:	2b01      	cmp	r3, #1
 800350a:	d904      	bls.n	8003516 <HAL_ADC_Init+0x6e>
 800350c:	2178      	movs	r1, #120	; 0x78
 800350e:	487a      	ldr	r0, [pc, #488]	; (80036f8 <HAL_ADC_Init+0x250>)
 8003510:	31ff      	adds	r1, #255	; 0xff
 8003512:	f7ff fa2c 	bl	800296e <assert_failed>
  assert_param(IS_FUNCTIONAL_STATE(hadc->Init.ContinuousConvMode));
 8003516:	6a23      	ldr	r3, [r4, #32]
 8003518:	2b01      	cmp	r3, #1
 800351a:	d904      	bls.n	8003526 <HAL_ADC_Init+0x7e>
 800351c:	21bc      	movs	r1, #188	; 0xbc
 800351e:	4876      	ldr	r0, [pc, #472]	; (80036f8 <HAL_ADC_Init+0x250>)
 8003520:	0049      	lsls	r1, r1, #1
 8003522:	f7ff fa24 	bl	800296e <assert_failed>
  assert_param(IS_FUNCTIONAL_STATE(hadc->Init.DiscontinuousConvMode));
 8003526:	6a63      	ldr	r3, [r4, #36]	; 0x24
 8003528:	2b01      	cmp	r3, #1
 800352a:	d904      	bls.n	8003536 <HAL_ADC_Init+0x8e>
 800352c:	217a      	movs	r1, #122	; 0x7a
 800352e:	4872      	ldr	r0, [pc, #456]	; (80036f8 <HAL_ADC_Init+0x250>)
 8003530:	31ff      	adds	r1, #255	; 0xff
 8003532:	f7ff fa1c 	bl	800296e <assert_failed>
  assert_param(IS_ADC_EXTTRIG_EDGE(hadc->Init.ExternalTrigConvEdge));   
 8003536:	4b72      	ldr	r3, [pc, #456]	; (8003700 <HAL_ADC_Init+0x258>)
 8003538:	6ae2      	ldr	r2, [r4, #44]	; 0x2c
 800353a:	421a      	tst	r2, r3
 800353c:	d004      	beq.n	8003548 <HAL_ADC_Init+0xa0>
 800353e:	21bd      	movs	r1, #189	; 0xbd
 8003540:	486d      	ldr	r0, [pc, #436]	; (80036f8 <HAL_ADC_Init+0x250>)
 8003542:	0049      	lsls	r1, r1, #1
 8003544:	f7ff fa13 	bl	800296e <assert_failed>
  assert_param(IS_ADC_EXTTRIG(hadc->Init.ExternalTrigConv));   
 8003548:	6aa3      	ldr	r3, [r4, #40]	; 0x28
 800354a:	2240      	movs	r2, #64	; 0x40
 800354c:	0019      	movs	r1, r3
 800354e:	4391      	bics	r1, r2
 8003550:	d00a      	beq.n	8003568 <HAL_ADC_Init+0xc0>
 8003552:	2bc0      	cmp	r3, #192	; 0xc0
 8003554:	d008      	beq.n	8003568 <HAL_ADC_Init+0xc0>
 8003556:	22c2      	movs	r2, #194	; 0xc2
 8003558:	32ff      	adds	r2, #255	; 0xff
 800355a:	4293      	cmp	r3, r2
 800355c:	d004      	beq.n	8003568 <HAL_ADC_Init+0xc0>
 800355e:	217c      	movs	r1, #124	; 0x7c
 8003560:	4865      	ldr	r0, [pc, #404]	; (80036f8 <HAL_ADC_Init+0x250>)
 8003562:	31ff      	adds	r1, #255	; 0xff
 8003564:	f7ff fa03 	bl	800296e <assert_failed>
  assert_param(IS_FUNCTIONAL_STATE(hadc->Init.DMAContinuousRequests));
 8003568:	6b23      	ldr	r3, [r4, #48]	; 0x30
 800356a:	2b01      	cmp	r3, #1
 800356c:	d904      	bls.n	8003578 <HAL_ADC_Init+0xd0>
 800356e:	21be      	movs	r1, #190	; 0xbe
 8003570:	4861      	ldr	r0, [pc, #388]	; (80036f8 <HAL_ADC_Init+0x250>)
 8003572:	0049      	lsls	r1, r1, #1
 8003574:	f7ff f9fb 	bl	800296e <assert_failed>
  assert_param(IS_ADC_EOC_SELECTION(hadc->Init.EOCSelection));
 8003578:	2204      	movs	r2, #4
 800357a:	6963      	ldr	r3, [r4, #20]
 800357c:	3b04      	subs	r3, #4
 800357e:	4393      	bics	r3, r2
 8003580:	d004      	beq.n	800358c <HAL_ADC_Init+0xe4>
 8003582:	217e      	movs	r1, #126	; 0x7e
 8003584:	485c      	ldr	r0, [pc, #368]	; (80036f8 <HAL_ADC_Init+0x250>)
 8003586:	31ff      	adds	r1, #255	; 0xff
 8003588:	f7ff f9f1 	bl	800296e <assert_failed>
  assert_param(IS_ADC_OVERRUN(hadc->Init.Overrun));
 800358c:	6b63      	ldr	r3, [r4, #52]	; 0x34
 800358e:	2b01      	cmp	r3, #1
 8003590:	d904      	bls.n	800359c <HAL_ADC_Init+0xf4>
 8003592:	21bf      	movs	r1, #191	; 0xbf
 8003594:	4858      	ldr	r0, [pc, #352]	; (80036f8 <HAL_ADC_Init+0x250>)
 8003596:	0049      	lsls	r1, r1, #1
 8003598:	f7ff f9e9 	bl	800296e <assert_failed>
  assert_param(IS_FUNCTIONAL_STATE(hadc->Init.LowPowerAutoWait));
 800359c:	69a3      	ldr	r3, [r4, #24]
 800359e:	2b01      	cmp	r3, #1
 80035a0:	d904      	bls.n	80035ac <HAL_ADC_Init+0x104>
 80035a2:	2180      	movs	r1, #128	; 0x80
 80035a4:	4854      	ldr	r0, [pc, #336]	; (80036f8 <HAL_ADC_Init+0x250>)
 80035a6:	31ff      	adds	r1, #255	; 0xff
 80035a8:	f7ff f9e1 	bl	800296e <assert_failed>
  assert_param(IS_FUNCTIONAL_STATE(hadc->Init.LowPowerAutoPowerOff));
 80035ac:	69e3      	ldr	r3, [r4, #28]
 80035ae:	2b01      	cmp	r3, #1
 80035b0:	d904      	bls.n	80035bc <HAL_ADC_Init+0x114>
 80035b2:	21c0      	movs	r1, #192	; 0xc0
 80035b4:	4850      	ldr	r0, [pc, #320]	; (80036f8 <HAL_ADC_Init+0x250>)
 80035b6:	0049      	lsls	r1, r1, #1
 80035b8:	f7ff f9d9 	bl	800296e <assert_failed>
  if (hadc->State == HAL_ADC_STATE_RESET)
 80035bc:	6c63      	ldr	r3, [r4, #68]	; 0x44
 80035be:	2b00      	cmp	r3, #0
 80035c0:	d106      	bne.n	80035d0 <HAL_ADC_Init+0x128>
    hadc->Lock = HAL_UNLOCKED;
 80035c2:	0022      	movs	r2, r4
 80035c4:	3240      	adds	r2, #64	; 0x40
    ADC_CLEAR_ERRORCODE(hadc);
 80035c6:	64a3      	str	r3, [r4, #72]	; 0x48
    HAL_ADC_MspInit(hadc);
 80035c8:	0020      	movs	r0, r4
    hadc->Lock = HAL_UNLOCKED;
 80035ca:	7013      	strb	r3, [r2, #0]
    HAL_ADC_MspInit(hadc);
 80035cc:	f7fd fdee 	bl	80011ac <HAL_ADC_MspInit>
  if (HAL_IS_BIT_CLR(hadc->State, HAL_ADC_STATE_ERROR_INTERNAL) &&
 80035d0:	6c63      	ldr	r3, [r4, #68]	; 0x44
 80035d2:	06db      	lsls	r3, r3, #27
 80035d4:	d500      	bpl.n	80035d8 <HAL_ADC_Init+0x130>
 80035d6:	e079      	b.n	80036cc <HAL_ADC_Init+0x224>
      (ADC_IS_CONVERSION_ONGOING_REGULAR(hadc) == RESET)          )
 80035d8:	2204      	movs	r2, #4
 80035da:	6823      	ldr	r3, [r4, #0]
 80035dc:	6898      	ldr	r0, [r3, #8]
 80035de:	4010      	ands	r0, r2
      (tmp_hal_status == HAL_OK)                                &&
 80035e0:	d000      	beq.n	80035e4 <HAL_ADC_Init+0x13c>
 80035e2:	e073      	b.n	80036cc <HAL_ADC_Init+0x224>
    ADC_STATE_CLR_SET(hadc->State,
 80035e4:	6c62      	ldr	r2, [r4, #68]	; 0x44
 80035e6:	4947      	ldr	r1, [pc, #284]	; (8003704 <HAL_ADC_Init+0x25c>)
 80035e8:	4011      	ands	r1, r2
 80035ea:	2202      	movs	r2, #2
 80035ec:	430a      	orrs	r2, r1
    if (ADC_IS_ENABLE(hadc) == RESET)
 80035ee:	2103      	movs	r1, #3
    ADC_STATE_CLR_SET(hadc->State,
 80035f0:	6462      	str	r2, [r4, #68]	; 0x44
    if (ADC_IS_ENABLE(hadc) == RESET)
 80035f2:	689a      	ldr	r2, [r3, #8]
 80035f4:	400a      	ands	r2, r1
 80035f6:	2a01      	cmp	r2, #1
 80035f8:	d000      	beq.n	80035fc <HAL_ADC_Init+0x154>
 80035fa:	e06d      	b.n	80036d8 <HAL_ADC_Init+0x230>
 80035fc:	6819      	ldr	r1, [r3, #0]
 80035fe:	4211      	tst	r1, r2
 8003600:	d102      	bne.n	8003608 <HAL_ADC_Init+0x160>
 8003602:	68da      	ldr	r2, [r3, #12]
 8003604:	0412      	lsls	r2, r2, #16
 8003606:	d567      	bpl.n	80036d8 <HAL_ADC_Init+0x230>
    hadc->Instance->CFGR1 &= ~( ADC_CFGR1_DISCEN  |
 8003608:	68da      	ldr	r2, [r3, #12]
 800360a:	493f      	ldr	r1, [pc, #252]	; (8003708 <HAL_ADC_Init+0x260>)
                 ADC_CFGR1_CONTINUOUS(hadc->Init.ContinuousConvMode)    |
 800360c:	6a25      	ldr	r5, [r4, #32]
    hadc->Instance->CFGR1 &= ~( ADC_CFGR1_DISCEN  |
 800360e:	400a      	ands	r2, r1
 8003610:	60da      	str	r2, [r3, #12]
    tmpCFGR1 |= (ADC_CFGR1_AUTOWAIT(hadc->Init.LowPowerAutoWait)        |
 8003612:	69a2      	ldr	r2, [r4, #24]
                 ADC_CFGR1_CONTINUOUS(hadc->Init.ContinuousConvMode)    |
 8003614:	036f      	lsls	r7, r5, #13
    tmpCFGR1 |= (ADC_CFGR1_AUTOWAIT(hadc->Init.LowPowerAutoWait)        |
 8003616:	0391      	lsls	r1, r2, #14
                 ADC_CFGR1_AUTOOFF(hadc->Init.LowPowerAutoPowerOff)     |
 8003618:	69e2      	ldr	r2, [r4, #28]
 800361a:	03d2      	lsls	r2, r2, #15
    tmpCFGR1 |= (ADC_CFGR1_AUTOWAIT(hadc->Init.LowPowerAutoWait)        |
 800361c:	4311      	orrs	r1, r2
                 ADC_CFGR1_OVERRUN(hadc->Init.Overrun)                  |
 800361e:	6b62      	ldr	r2, [r4, #52]	; 0x34
 8003620:	3a01      	subs	r2, #1
 8003622:	1e56      	subs	r6, r2, #1
 8003624:	41b2      	sbcs	r2, r6
 8003626:	0316      	lsls	r6, r2, #12
 8003628:	68e2      	ldr	r2, [r4, #12]
 800362a:	4311      	orrs	r1, r2
                 ADC_SCANDIR(hadc->Init.ScanConvMode)                   |
 800362c:	6922      	ldr	r2, [r4, #16]
 800362e:	430f      	orrs	r7, r1
 8003630:	2a02      	cmp	r2, #2
 8003632:	d100      	bne.n	8003636 <HAL_ADC_Init+0x18e>
 8003634:	2004      	movs	r0, #4
                 ADC_CFGR1_DMACONTREQ(hadc->Init.DMAContinuousRequests)  );
 8003636:	6b22      	ldr	r2, [r4, #48]	; 0x30
    if (hadc->Init.DiscontinuousConvMode == ENABLE)
 8003638:	6a61      	ldr	r1, [r4, #36]	; 0x24
                 ADC_CFGR1_DMACONTREQ(hadc->Init.DMAContinuousRequests)  );
 800363a:	0052      	lsls	r2, r2, #1
                 ADC_SCANDIR(hadc->Init.ScanConvMode)                   |
 800363c:	433a      	orrs	r2, r7
 800363e:	4332      	orrs	r2, r6
 8003640:	4302      	orrs	r2, r0
    if (hadc->Init.DiscontinuousConvMode == ENABLE)
 8003642:	2901      	cmp	r1, #1
 8003644:	d104      	bne.n	8003650 <HAL_ADC_Init+0x1a8>
      if (hadc->Init.ContinuousConvMode == DISABLE)
 8003646:	2d00      	cmp	r5, #0
 8003648:	d12c      	bne.n	80036a4 <HAL_ADC_Init+0x1fc>
        tmpCFGR1 |= ADC_CFGR1_DISCEN;
 800364a:	2180      	movs	r1, #128	; 0x80
 800364c:	0249      	lsls	r1, r1, #9
 800364e:	430a      	orrs	r2, r1
    if (hadc->Init.ExternalTrigConv != ADC_SOFTWARE_START)
 8003650:	20c2      	movs	r0, #194	; 0xc2
 8003652:	6aa1      	ldr	r1, [r4, #40]	; 0x28
 8003654:	30ff      	adds	r0, #255	; 0xff
 8003656:	4281      	cmp	r1, r0
 8003658:	d002      	beq.n	8003660 <HAL_ADC_Init+0x1b8>
      tmpCFGR1 |= ( hadc->Init.ExternalTrigConv    |
 800365a:	6ae0      	ldr	r0, [r4, #44]	; 0x2c
 800365c:	4301      	orrs	r1, r0
 800365e:	430a      	orrs	r2, r1
    if (IS_ADC_SAMPLE_TIME(hadc->Init.SamplingTimeCommon))
 8003660:	2080      	movs	r0, #128	; 0x80
    hadc->Instance->CFGR1 |= tmpCFGR1;
 8003662:	68d9      	ldr	r1, [r3, #12]
    if (IS_ADC_SAMPLE_TIME(hadc->Init.SamplingTimeCommon))
 8003664:	0540      	lsls	r0, r0, #21
    hadc->Instance->CFGR1 |= tmpCFGR1;
 8003666:	4311      	orrs	r1, r2
 8003668:	60d9      	str	r1, [r3, #12]
    if (IS_ADC_SAMPLE_TIME(hadc->Init.SamplingTimeCommon))
 800366a:	6ba1      	ldr	r1, [r4, #56]	; 0x38
 800366c:	4281      	cmp	r1, r0
 800366e:	d002      	beq.n	8003676 <HAL_ADC_Init+0x1ce>
 8003670:	1e48      	subs	r0, r1, #1
 8003672:	2806      	cmp	r0, #6
 8003674:	d807      	bhi.n	8003686 <HAL_ADC_Init+0x1de>
      hadc->Instance->SMPR &= ~(ADC_SMPR_SMP);
 8003676:	2507      	movs	r5, #7
 8003678:	6958      	ldr	r0, [r3, #20]
      hadc->Instance->SMPR |= ADC_SMPR_SET(hadc->Init.SamplingTimeCommon);
 800367a:	4029      	ands	r1, r5
      hadc->Instance->SMPR &= ~(ADC_SMPR_SMP);
 800367c:	43a8      	bics	r0, r5
 800367e:	6158      	str	r0, [r3, #20]
      hadc->Instance->SMPR |= ADC_SMPR_SET(hadc->Init.SamplingTimeCommon);
 8003680:	6958      	ldr	r0, [r3, #20]
 8003682:	4301      	orrs	r1, r0
 8003684:	6159      	str	r1, [r3, #20]
    if ((hadc->Instance->CFGR1 & ~(ADC_CFGR1_AWDCH | ADC_CFGR1_AWDEN | ADC_CFGR1_AWDSGL | ADC_CFGR1_RES))
 8003686:	68db      	ldr	r3, [r3, #12]
 8003688:	4920      	ldr	r1, [pc, #128]	; (800370c <HAL_ADC_Init+0x264>)
 800368a:	400b      	ands	r3, r1
 800368c:	429a      	cmp	r2, r3
 800368e:	d111      	bne.n	80036b4 <HAL_ADC_Init+0x20c>
      ADC_CLEAR_ERRORCODE(hadc);
 8003690:	2000      	movs	r0, #0
      ADC_STATE_CLR_SET(hadc->State,
 8003692:	2203      	movs	r2, #3
      ADC_CLEAR_ERRORCODE(hadc);
 8003694:	64a0      	str	r0, [r4, #72]	; 0x48
      ADC_STATE_CLR_SET(hadc->State,
 8003696:	6c63      	ldr	r3, [r4, #68]	; 0x44
 8003698:	4393      	bics	r3, r2
 800369a:	001a      	movs	r2, r3
 800369c:	2301      	movs	r3, #1
 800369e:	4313      	orrs	r3, r2
 80036a0:	6463      	str	r3, [r4, #68]	; 0x44
}
 80036a2:	bdf8      	pop	{r3, r4, r5, r6, r7, pc}
        SET_BIT(hadc->State, HAL_ADC_STATE_ERROR_CONFIG);
 80036a4:	2020      	movs	r0, #32
 80036a6:	6c65      	ldr	r5, [r4, #68]	; 0x44
 80036a8:	4328      	orrs	r0, r5
 80036aa:	6460      	str	r0, [r4, #68]	; 0x44
        SET_BIT(hadc->ErrorCode, HAL_ADC_ERROR_INTERNAL);
 80036ac:	6ca0      	ldr	r0, [r4, #72]	; 0x48
 80036ae:	4301      	orrs	r1, r0
 80036b0:	64a1      	str	r1, [r4, #72]	; 0x48
 80036b2:	e7cd      	b.n	8003650 <HAL_ADC_Init+0x1a8>
      ADC_STATE_CLR_SET(hadc->State,
 80036b4:	2212      	movs	r2, #18
 80036b6:	6c63      	ldr	r3, [r4, #68]	; 0x44
      SET_BIT(hadc->ErrorCode, HAL_ADC_ERROR_INTERNAL);
 80036b8:	2001      	movs	r0, #1
      ADC_STATE_CLR_SET(hadc->State,
 80036ba:	4393      	bics	r3, r2
 80036bc:	001a      	movs	r2, r3
 80036be:	2310      	movs	r3, #16
 80036c0:	4313      	orrs	r3, r2
 80036c2:	6463      	str	r3, [r4, #68]	; 0x44
      SET_BIT(hadc->ErrorCode, HAL_ADC_ERROR_INTERNAL);
 80036c4:	6ca3      	ldr	r3, [r4, #72]	; 0x48
 80036c6:	4303      	orrs	r3, r0
 80036c8:	64a3      	str	r3, [r4, #72]	; 0x48
 80036ca:	e7ea      	b.n	80036a2 <HAL_ADC_Init+0x1fa>
    SET_BIT(hadc->State, HAL_ADC_STATE_ERROR_INTERNAL);
 80036cc:	2310      	movs	r3, #16
 80036ce:	6c62      	ldr	r2, [r4, #68]	; 0x44
    tmp_hal_status = HAL_ERROR;
 80036d0:	2001      	movs	r0, #1
    SET_BIT(hadc->State, HAL_ADC_STATE_ERROR_INTERNAL);
 80036d2:	4313      	orrs	r3, r2
 80036d4:	6463      	str	r3, [r4, #68]	; 0x44
 80036d6:	e7e4      	b.n	80036a2 <HAL_ADC_Init+0x1fa>
      MODIFY_REG(hadc->Instance->CFGR1,
 80036d8:	2118      	movs	r1, #24
 80036da:	68da      	ldr	r2, [r3, #12]
 80036dc:	438a      	bics	r2, r1
 80036de:	68a1      	ldr	r1, [r4, #8]
 80036e0:	430a      	orrs	r2, r1
 80036e2:	60da      	str	r2, [r3, #12]
      MODIFY_REG(hadc->Instance->CFGR2    ,
 80036e4:	6919      	ldr	r1, [r3, #16]
 80036e6:	6862      	ldr	r2, [r4, #4]
 80036e8:	0089      	lsls	r1, r1, #2
 80036ea:	0889      	lsrs	r1, r1, #2
 80036ec:	4311      	orrs	r1, r2
 80036ee:	6119      	str	r1, [r3, #16]
 80036f0:	e78a      	b.n	8003608 <HAL_ADC_Init+0x160>
 80036f2:	46c0      	nop			; (mov r8, r8)
 80036f4:	40012400 	.word	0x40012400
 80036f8:	0800734a 	.word	0x0800734a
 80036fc:	bfffffff 	.word	0xbfffffff
 8003700:	fffff3ff 	.word	0xfffff3ff
 8003704:	fffffefd 	.word	0xfffffefd
 8003708:	fffe0219 	.word	0xfffe0219
 800370c:	833fffe7 	.word	0x833fffe7

08003710 <HAL_ADC_Start_DMA>:
{
 8003710:	b5f7      	push	{r0, r1, r2, r4, r5, r6, r7, lr}
  assert_param(IS_ADC_ALL_INSTANCE(hadc->Instance));
 8003712:	4b24      	ldr	r3, [pc, #144]	; (80037a4 <HAL_ADC_Start_DMA+0x94>)
{
 8003714:	9201      	str	r2, [sp, #4]
  assert_param(IS_ADC_ALL_INSTANCE(hadc->Instance));
 8003716:	6802      	ldr	r2, [r0, #0]
{
 8003718:	0004      	movs	r4, r0
 800371a:	000f      	movs	r7, r1
  assert_param(IS_ADC_ALL_INSTANCE(hadc->Instance));
 800371c:	429a      	cmp	r2, r3
 800371e:	d003      	beq.n	8003728 <HAL_ADC_Start_DMA+0x18>
 8003720:	4921      	ldr	r1, [pc, #132]	; (80037a8 <HAL_ADC_Start_DMA+0x98>)
 8003722:	4822      	ldr	r0, [pc, #136]	; (80037ac <HAL_ADC_Start_DMA+0x9c>)
 8003724:	f7ff f923 	bl	800296e <assert_failed>
  if (ADC_IS_CONVERSION_ONGOING_REGULAR(hadc) == RESET)
 8003728:	6823      	ldr	r3, [r4, #0]
    tmp_hal_status = HAL_BUSY;
 800372a:	2002      	movs	r0, #2
  if (ADC_IS_CONVERSION_ONGOING_REGULAR(hadc) == RESET)
 800372c:	689b      	ldr	r3, [r3, #8]
 800372e:	075b      	lsls	r3, r3, #29
 8003730:	d430      	bmi.n	8003794 <HAL_ADC_Start_DMA+0x84>
    __HAL_LOCK(hadc);
 8003732:	0026      	movs	r6, r4
 8003734:	3640      	adds	r6, #64	; 0x40
 8003736:	7833      	ldrb	r3, [r6, #0]
 8003738:	2b01      	cmp	r3, #1
 800373a:	d02b      	beq.n	8003794 <HAL_ADC_Start_DMA+0x84>
 800373c:	2301      	movs	r3, #1
 800373e:	7033      	strb	r3, [r6, #0]
    if (hadc->Init.LowPowerAutoPowerOff != ENABLE)
 8003740:	69e3      	ldr	r3, [r4, #28]
 8003742:	2b01      	cmp	r3, #1
 8003744:	d127      	bne.n	8003796 <HAL_ADC_Start_DMA+0x86>
      ADC_STATE_CLR_SET(hadc->State,
 8003746:	6c63      	ldr	r3, [r4, #68]	; 0x44
 8003748:	4a19      	ldr	r2, [pc, #100]	; (80037b0 <HAL_ADC_Start_DMA+0xa0>)
      ADC_CLEAR_ERRORCODE(hadc);
 800374a:	2500      	movs	r5, #0
      ADC_STATE_CLR_SET(hadc->State,
 800374c:	401a      	ands	r2, r3
 800374e:	2380      	movs	r3, #128	; 0x80
 8003750:	005b      	lsls	r3, r3, #1
 8003752:	4313      	orrs	r3, r2
 8003754:	6463      	str	r3, [r4, #68]	; 0x44
      hadc->DMA_Handle->XferCpltCallback = ADC_DMAConvCplt;
 8003756:	6be0      	ldr	r0, [r4, #60]	; 0x3c
 8003758:	4b16      	ldr	r3, [pc, #88]	; (80037b4 <HAL_ADC_Start_DMA+0xa4>)
      ADC_CLEAR_ERRORCODE(hadc);
 800375a:	64a5      	str	r5, [r4, #72]	; 0x48
      __HAL_UNLOCK(hadc);
 800375c:	7035      	strb	r5, [r6, #0]
      hadc->DMA_Handle->XferCpltCallback = ADC_DMAConvCplt;
 800375e:	6283      	str	r3, [r0, #40]	; 0x28
      hadc->DMA_Handle->XferHalfCpltCallback = ADC_DMAHalfConvCplt;
 8003760:	4b15      	ldr	r3, [pc, #84]	; (80037b8 <HAL_ADC_Start_DMA+0xa8>)
      __HAL_ADC_CLEAR_FLAG(hadc, (ADC_FLAG_EOC | ADC_FLAG_EOS | ADC_FLAG_OVR));
 8003762:	6821      	ldr	r1, [r4, #0]
      hadc->DMA_Handle->XferHalfCpltCallback = ADC_DMAHalfConvCplt;
 8003764:	62c3      	str	r3, [r0, #44]	; 0x2c
      hadc->DMA_Handle->XferErrorCallback = ADC_DMAError;
 8003766:	4b15      	ldr	r3, [pc, #84]	; (80037bc <HAL_ADC_Start_DMA+0xac>)
 8003768:	6303      	str	r3, [r0, #48]	; 0x30
      __HAL_ADC_CLEAR_FLAG(hadc, (ADC_FLAG_EOC | ADC_FLAG_EOS | ADC_FLAG_OVR));
 800376a:	231c      	movs	r3, #28
 800376c:	600b      	str	r3, [r1, #0]
      __HAL_ADC_ENABLE_IT(hadc, ADC_IT_OVR);
 800376e:	684a      	ldr	r2, [r1, #4]
 8003770:	3b0c      	subs	r3, #12
 8003772:	4313      	orrs	r3, r2
 8003774:	604b      	str	r3, [r1, #4]
      hadc->Instance->CFGR1 |= ADC_CFGR1_DMAEN;
 8003776:	2301      	movs	r3, #1
 8003778:	68ca      	ldr	r2, [r1, #12]
 800377a:	4313      	orrs	r3, r2
 800377c:	60cb      	str	r3, [r1, #12]
      HAL_DMA_Start_IT(hadc->DMA_Handle, (uint32_t)&hadc->Instance->DR, (uint32_t)pData, Length);
 800377e:	003a      	movs	r2, r7
 8003780:	3140      	adds	r1, #64	; 0x40
 8003782:	9b01      	ldr	r3, [sp, #4]
 8003784:	f000 fb0e 	bl	8003da4 <HAL_DMA_Start_IT>
      hadc->Instance->CR |= ADC_CR_ADSTART;
 8003788:	2304      	movs	r3, #4
 800378a:	0028      	movs	r0, r5
 800378c:	6822      	ldr	r2, [r4, #0]
 800378e:	6891      	ldr	r1, [r2, #8]
 8003790:	430b      	orrs	r3, r1
 8003792:	6093      	str	r3, [r2, #8]
}
 8003794:	bdfe      	pop	{r1, r2, r3, r4, r5, r6, r7, pc}
      tmp_hal_status = ADC_Enable(hadc);
 8003796:	0020      	movs	r0, r4
 8003798:	f7ff fe3a 	bl	8003410 <ADC_Enable>
    if (tmp_hal_status == HAL_OK)
 800379c:	2800      	cmp	r0, #0
 800379e:	d1f9      	bne.n	8003794 <HAL_ADC_Start_DMA+0x84>
 80037a0:	e7d1      	b.n	8003746 <HAL_ADC_Start_DMA+0x36>
 80037a2:	46c0      	nop			; (mov r8, r8)
 80037a4:	40012400 	.word	0x40012400
 80037a8:	000004bc 	.word	0x000004bc
 80037ac:	0800734a 	.word	0x0800734a
 80037b0:	fffff0fe 	.word	0xfffff0fe
 80037b4:	080037c5 	.word	0x080037c5
 80037b8:	08003837 	.word	0x08003837
 80037bc:	08003845 	.word	0x08003845

080037c0 <HAL_ADC_ConvCpltCallback>:
 80037c0:	4770      	bx	lr
	...

080037c4 <ADC_DMAConvCplt>:
{
  /* Retrieve ADC handle corresponding to current DMA handle */
  ADC_HandleTypeDef* hadc = ( ADC_HandleTypeDef* )((DMA_HandleTypeDef* )hdma)->Parent;
  
  /* Update state machine on conversion status if not in error state */
  if (HAL_IS_BIT_CLR(hadc->State, HAL_ADC_STATE_ERROR_INTERNAL | HAL_ADC_STATE_ERROR_DMA))
 80037c4:	2250      	movs	r2, #80	; 0x50
  ADC_HandleTypeDef* hadc = ( ADC_HandleTypeDef* )((DMA_HandleTypeDef* )hdma)->Parent;
 80037c6:	6a43      	ldr	r3, [r0, #36]	; 0x24
{
 80037c8:	b510      	push	{r4, lr}
  if (HAL_IS_BIT_CLR(hadc->State, HAL_ADC_STATE_ERROR_INTERNAL | HAL_ADC_STATE_ERROR_DMA))
 80037ca:	6c59      	ldr	r1, [r3, #68]	; 0x44
 80037cc:	4211      	tst	r1, r2
 80037ce:	d12a      	bne.n	8003826 <ADC_DMAConvCplt+0x62>
  {
    /* Set ADC state */
    SET_BIT(hadc->State, HAL_ADC_STATE_REG_EOC); 
 80037d0:	6c59      	ldr	r1, [r3, #68]	; 0x44
 80037d2:	32b1      	adds	r2, #177	; 0xb1
 80037d4:	32ff      	adds	r2, #255	; 0xff
 80037d6:	430a      	orrs	r2, r1
    
    /* Determine whether any further conversion upcoming on group regular     */
    /* by external trigger, continuous mode or scan sequence on going.        */
    if(ADC_IS_SOFTWARE_START_REGULAR(hadc)        && 
 80037d8:	21c0      	movs	r1, #192	; 0xc0
    SET_BIT(hadc->State, HAL_ADC_STATE_REG_EOC); 
 80037da:	645a      	str	r2, [r3, #68]	; 0x44
    if(ADC_IS_SOFTWARE_START_REGULAR(hadc)        && 
 80037dc:	681a      	ldr	r2, [r3, #0]
 80037de:	0109      	lsls	r1, r1, #4
 80037e0:	68d0      	ldr	r0, [r2, #12]
 80037e2:	4208      	tst	r0, r1
 80037e4:	d112      	bne.n	800380c <ADC_DMAConvCplt+0x48>
 80037e6:	6a19      	ldr	r1, [r3, #32]
 80037e8:	2900      	cmp	r1, #0
 80037ea:	d10f      	bne.n	800380c <ADC_DMAConvCplt+0x48>
       (hadc->Init.ContinuousConvMode == DISABLE)   )
    {
      /* If End of Sequence is reached, disable interrupts */
      if( __HAL_ADC_GET_FLAG(hadc, ADC_FLAG_EOS) )
 80037ec:	6811      	ldr	r1, [r2, #0]
 80037ee:	0709      	lsls	r1, r1, #28
 80037f0:	d50c      	bpl.n	800380c <ADC_DMAConvCplt+0x48>
      {
        /* Allowed to modify bits ADC_IT_EOC/ADC_IT_EOS only if bit           */
        /* ADSTART==0 (no conversion on going)                                */
        if (ADC_IS_CONVERSION_ONGOING_REGULAR(hadc) == RESET)
 80037f2:	6891      	ldr	r1, [r2, #8]
 80037f4:	0749      	lsls	r1, r1, #29
 80037f6:	d40d      	bmi.n	8003814 <ADC_DMAConvCplt+0x50>
        {
          /* Disable ADC end of single conversion interrupt on group regular */
          /* Note: Overrun interrupt was enabled with EOC interrupt in        */
          /* HAL_Start_IT(), but is not disabled here because can be used     */
          /* by overrun IRQ process below.                                    */
          __HAL_ADC_DISABLE_IT(hadc, ADC_IT_EOC | ADC_IT_EOS);
 80037f8:	200c      	movs	r0, #12
 80037fa:	6851      	ldr	r1, [r2, #4]
 80037fc:	4381      	bics	r1, r0
 80037fe:	6051      	str	r1, [r2, #4]
          
          /* Set ADC state */
          ADC_STATE_CLR_SET(hadc->State,
 8003800:	6c5a      	ldr	r2, [r3, #68]	; 0x44
 8003802:	490b      	ldr	r1, [pc, #44]	; (8003830 <ADC_DMAConvCplt+0x6c>)
 8003804:	4011      	ands	r1, r2
 8003806:	2201      	movs	r2, #1
 8003808:	430a      	orrs	r2, r1
 800380a:	645a      	str	r2, [r3, #68]	; 0x44
        }
      }
    }

    /* Conversion complete callback */
    HAL_ADC_ConvCpltCallback(hadc); 
 800380c:	0018      	movs	r0, r3
 800380e:	f7ff ffd7 	bl	80037c0 <HAL_ADC_ConvCpltCallback>
  {
    /* Call DMA error callback */
    hadc->DMA_Handle->XferErrorCallback(hdma);
  }

}
 8003812:	bd10      	pop	{r4, pc}
          SET_BIT(hadc->State, HAL_ADC_STATE_ERROR_CONFIG);
 8003814:	2220      	movs	r2, #32
 8003816:	6c59      	ldr	r1, [r3, #68]	; 0x44
 8003818:	430a      	orrs	r2, r1
 800381a:	645a      	str	r2, [r3, #68]	; 0x44
          SET_BIT(hadc->ErrorCode, HAL_ADC_ERROR_INTERNAL);
 800381c:	2201      	movs	r2, #1
 800381e:	6c99      	ldr	r1, [r3, #72]	; 0x48
 8003820:	430a      	orrs	r2, r1
 8003822:	649a      	str	r2, [r3, #72]	; 0x48
 8003824:	e7f2      	b.n	800380c <ADC_DMAConvCplt+0x48>
    hadc->DMA_Handle->XferErrorCallback(hdma);
 8003826:	6bdb      	ldr	r3, [r3, #60]	; 0x3c
 8003828:	6b1b      	ldr	r3, [r3, #48]	; 0x30
 800382a:	4798      	blx	r3
}
 800382c:	e7f1      	b.n	8003812 <ADC_DMAConvCplt+0x4e>
 800382e:	46c0      	nop			; (mov r8, r8)
 8003830:	fffffefe 	.word	0xfffffefe

08003834 <HAL_ADC_ConvHalfCpltCallback>:
 8003834:	4770      	bx	lr

08003836 <ADC_DMAHalfConvCplt>:
  * @brief  DMA half transfer complete callback. 
  * @param  hdma pointer to DMA handle.
  * @retval None
  */
static void ADC_DMAHalfConvCplt(DMA_HandleTypeDef *hdma)   
{
 8003836:	b510      	push	{r4, lr}
  /* Retrieve ADC handle corresponding to current DMA handle */
  ADC_HandleTypeDef* hadc = ( ADC_HandleTypeDef* )((DMA_HandleTypeDef* )hdma)->Parent;
  
  /* Half conversion callback */
  HAL_ADC_ConvHalfCpltCallback(hadc); 
 8003838:	6a40      	ldr	r0, [r0, #36]	; 0x24
 800383a:	f7ff fffb 	bl	8003834 <HAL_ADC_ConvHalfCpltCallback>
}
 800383e:	bd10      	pop	{r4, pc}

08003840 <HAL_ADC_LevelOutOfWindowCallback>:
 8003840:	4770      	bx	lr

08003842 <HAL_ADC_ErrorCallback>:
}
 8003842:	4770      	bx	lr

08003844 <ADC_DMAError>:
{
  /* Retrieve ADC handle corresponding to current DMA handle */
  ADC_HandleTypeDef* hadc = ( ADC_HandleTypeDef* )((DMA_HandleTypeDef* )hdma)->Parent;
  
  /* Set ADC state */
  SET_BIT(hadc->State, HAL_ADC_STATE_ERROR_DMA);
 8003844:	2340      	movs	r3, #64	; 0x40
  ADC_HandleTypeDef* hadc = ( ADC_HandleTypeDef* )((DMA_HandleTypeDef* )hdma)->Parent;
 8003846:	6a40      	ldr	r0, [r0, #36]	; 0x24
{
 8003848:	b510      	push	{r4, lr}
  SET_BIT(hadc->State, HAL_ADC_STATE_ERROR_DMA);
 800384a:	6c42      	ldr	r2, [r0, #68]	; 0x44
 800384c:	4313      	orrs	r3, r2
 800384e:	6443      	str	r3, [r0, #68]	; 0x44
  
  /* Set ADC error code to DMA error */
  SET_BIT(hadc->ErrorCode, HAL_ADC_ERROR_DMA);
 8003850:	2304      	movs	r3, #4
 8003852:	6c82      	ldr	r2, [r0, #72]	; 0x48
 8003854:	4313      	orrs	r3, r2
 8003856:	6483      	str	r3, [r0, #72]	; 0x48
  
  /* Error callback */
  HAL_ADC_ErrorCallback(hadc); 
 8003858:	f7ff fff3 	bl	8003842 <HAL_ADC_ErrorCallback>
}
 800385c:	bd10      	pop	{r4, pc}
	...

08003860 <HAL_ADC_IRQHandler>:
  assert_param(IS_ADC_ALL_INSTANCE(hadc->Instance));
 8003860:	4b42      	ldr	r3, [pc, #264]	; (800396c <HAL_ADC_IRQHandler+0x10c>)
 8003862:	6802      	ldr	r2, [r0, #0]
{
 8003864:	b570      	push	{r4, r5, r6, lr}
 8003866:	0004      	movs	r4, r0
  assert_param(IS_ADC_ALL_INSTANCE(hadc->Instance));
 8003868:	429a      	cmp	r2, r3
 800386a:	d003      	beq.n	8003874 <HAL_ADC_IRQHandler+0x14>
 800386c:	4940      	ldr	r1, [pc, #256]	; (8003970 <HAL_ADC_IRQHandler+0x110>)
 800386e:	4841      	ldr	r0, [pc, #260]	; (8003974 <HAL_ADC_IRQHandler+0x114>)
 8003870:	f7ff f87d 	bl	800296e <assert_failed>
  assert_param(IS_FUNCTIONAL_STATE(hadc->Init.ContinuousConvMode));
 8003874:	6a23      	ldr	r3, [r4, #32]
 8003876:	2b01      	cmp	r3, #1
 8003878:	d903      	bls.n	8003882 <HAL_ADC_IRQHandler+0x22>
 800387a:	493f      	ldr	r1, [pc, #252]	; (8003978 <HAL_ADC_IRQHandler+0x118>)
 800387c:	483d      	ldr	r0, [pc, #244]	; (8003974 <HAL_ADC_IRQHandler+0x114>)
 800387e:	f7ff f876 	bl	800296e <assert_failed>
  assert_param(IS_ADC_EOC_SELECTION(hadc->Init.EOCSelection));
 8003882:	2204      	movs	r2, #4
 8003884:	6963      	ldr	r3, [r4, #20]
 8003886:	3b04      	subs	r3, #4
 8003888:	4393      	bics	r3, r2
 800388a:	d004      	beq.n	8003896 <HAL_ADC_IRQHandler+0x36>
 800388c:	21af      	movs	r1, #175	; 0xaf
 800388e:	4839      	ldr	r0, [pc, #228]	; (8003974 <HAL_ADC_IRQHandler+0x114>)
 8003890:	00c9      	lsls	r1, r1, #3
 8003892:	f7ff f86c 	bl	800296e <assert_failed>
  if( (__HAL_ADC_GET_FLAG(hadc, ADC_FLAG_EOC) && __HAL_ADC_GET_IT_SOURCE(hadc, ADC_IT_EOC)) || 
 8003896:	2204      	movs	r2, #4
 8003898:	6823      	ldr	r3, [r4, #0]
 800389a:	6819      	ldr	r1, [r3, #0]
 800389c:	4211      	tst	r1, r2
 800389e:	d002      	beq.n	80038a6 <HAL_ADC_IRQHandler+0x46>
 80038a0:	6859      	ldr	r1, [r3, #4]
 80038a2:	4211      	tst	r1, r2
 80038a4:	d106      	bne.n	80038b4 <HAL_ADC_IRQHandler+0x54>
      (__HAL_ADC_GET_FLAG(hadc, ADC_FLAG_EOS) && __HAL_ADC_GET_IT_SOURCE(hadc, ADC_IT_EOS))   )
 80038a6:	2208      	movs	r2, #8
 80038a8:	6819      	ldr	r1, [r3, #0]
  if( (__HAL_ADC_GET_FLAG(hadc, ADC_FLAG_EOC) && __HAL_ADC_GET_IT_SOURCE(hadc, ADC_IT_EOC)) || 
 80038aa:	4211      	tst	r1, r2
 80038ac:	d028      	beq.n	8003900 <HAL_ADC_IRQHandler+0xa0>
      (__HAL_ADC_GET_FLAG(hadc, ADC_FLAG_EOS) && __HAL_ADC_GET_IT_SOURCE(hadc, ADC_IT_EOS))   )
 80038ae:	6859      	ldr	r1, [r3, #4]
 80038b0:	4211      	tst	r1, r2
 80038b2:	d025      	beq.n	8003900 <HAL_ADC_IRQHandler+0xa0>
    if (HAL_IS_BIT_CLR(hadc->State, HAL_ADC_STATE_ERROR_INTERNAL))
 80038b4:	6c62      	ldr	r2, [r4, #68]	; 0x44
 80038b6:	06d2      	lsls	r2, r2, #27
 80038b8:	d404      	bmi.n	80038c4 <HAL_ADC_IRQHandler+0x64>
      SET_BIT(hadc->State, HAL_ADC_STATE_REG_EOC); 
 80038ba:	2280      	movs	r2, #128	; 0x80
 80038bc:	6c61      	ldr	r1, [r4, #68]	; 0x44
 80038be:	0092      	lsls	r2, r2, #2
 80038c0:	430a      	orrs	r2, r1
 80038c2:	6462      	str	r2, [r4, #68]	; 0x44
    if(ADC_IS_SOFTWARE_START_REGULAR(hadc)        && 
 80038c4:	22c0      	movs	r2, #192	; 0xc0
 80038c6:	68d9      	ldr	r1, [r3, #12]
 80038c8:	0112      	lsls	r2, r2, #4
 80038ca:	4211      	tst	r1, r2
 80038cc:	d112      	bne.n	80038f4 <HAL_ADC_IRQHandler+0x94>
 80038ce:	6a22      	ldr	r2, [r4, #32]
 80038d0:	2a00      	cmp	r2, #0
 80038d2:	d10f      	bne.n	80038f4 <HAL_ADC_IRQHandler+0x94>
      if( __HAL_ADC_GET_FLAG(hadc, ADC_FLAG_EOS) )
 80038d4:	681a      	ldr	r2, [r3, #0]
 80038d6:	0712      	lsls	r2, r2, #28
 80038d8:	d50c      	bpl.n	80038f4 <HAL_ADC_IRQHandler+0x94>
        if (ADC_IS_CONVERSION_ONGOING_REGULAR(hadc) == RESET)
 80038da:	689a      	ldr	r2, [r3, #8]
 80038dc:	0752      	lsls	r2, r2, #29
 80038de:	d43c      	bmi.n	800395a <HAL_ADC_IRQHandler+0xfa>
          __HAL_ADC_DISABLE_IT(hadc, ADC_IT_EOC | ADC_IT_EOS);
 80038e0:	210c      	movs	r1, #12
 80038e2:	685a      	ldr	r2, [r3, #4]
 80038e4:	438a      	bics	r2, r1
 80038e6:	605a      	str	r2, [r3, #4]
          ADC_STATE_CLR_SET(hadc->State,
 80038e8:	6c63      	ldr	r3, [r4, #68]	; 0x44
 80038ea:	4a24      	ldr	r2, [pc, #144]	; (800397c <HAL_ADC_IRQHandler+0x11c>)
 80038ec:	401a      	ands	r2, r3
 80038ee:	2301      	movs	r3, #1
 80038f0:	4313      	orrs	r3, r2
 80038f2:	6463      	str	r3, [r4, #68]	; 0x44
      HAL_ADC_ConvCpltCallback(hadc);
 80038f4:	0020      	movs	r0, r4
 80038f6:	f7ff ff63 	bl	80037c0 <HAL_ADC_ConvCpltCallback>
    __HAL_ADC_CLEAR_FLAG(hadc, (ADC_FLAG_EOC | ADC_FLAG_EOS) );
 80038fa:	220c      	movs	r2, #12
 80038fc:	6823      	ldr	r3, [r4, #0]
 80038fe:	601a      	str	r2, [r3, #0]
  if(__HAL_ADC_GET_FLAG(hadc, ADC_FLAG_AWD) && __HAL_ADC_GET_IT_SOURCE(hadc, ADC_IT_AWD))
 8003900:	2580      	movs	r5, #128	; 0x80
 8003902:	6823      	ldr	r3, [r4, #0]
 8003904:	681a      	ldr	r2, [r3, #0]
 8003906:	422a      	tst	r2, r5
 8003908:	d00c      	beq.n	8003924 <HAL_ADC_IRQHandler+0xc4>
 800390a:	685b      	ldr	r3, [r3, #4]
 800390c:	422b      	tst	r3, r5
 800390e:	d009      	beq.n	8003924 <HAL_ADC_IRQHandler+0xc4>
      SET_BIT(hadc->State, HAL_ADC_STATE_AWD1);
 8003910:	2380      	movs	r3, #128	; 0x80
 8003912:	6c62      	ldr	r2, [r4, #68]	; 0x44
 8003914:	025b      	lsls	r3, r3, #9
 8003916:	4313      	orrs	r3, r2
 8003918:	6463      	str	r3, [r4, #68]	; 0x44
    HAL_ADC_LevelOutOfWindowCallback(hadc);
 800391a:	0020      	movs	r0, r4
 800391c:	f7ff ff90 	bl	8003840 <HAL_ADC_LevelOutOfWindowCallback>
    __HAL_ADC_CLEAR_FLAG(hadc, ADC_FLAG_AWD);
 8003920:	6823      	ldr	r3, [r4, #0]
 8003922:	601d      	str	r5, [r3, #0]
  if(__HAL_ADC_GET_FLAG(hadc, ADC_FLAG_OVR) && __HAL_ADC_GET_IT_SOURCE(hadc, ADC_IT_OVR))
 8003924:	2210      	movs	r2, #16
 8003926:	6823      	ldr	r3, [r4, #0]
 8003928:	6819      	ldr	r1, [r3, #0]
 800392a:	4211      	tst	r1, r2
 800392c:	d014      	beq.n	8003958 <HAL_ADC_IRQHandler+0xf8>
 800392e:	6859      	ldr	r1, [r3, #4]
 8003930:	4211      	tst	r1, r2
 8003932:	d011      	beq.n	8003958 <HAL_ADC_IRQHandler+0xf8>
    if ((hadc->Init.Overrun == ADC_OVR_DATA_PRESERVED)            ||
 8003934:	6b62      	ldr	r2, [r4, #52]	; 0x34
 8003936:	2a01      	cmp	r2, #1
 8003938:	d002      	beq.n	8003940 <HAL_ADC_IRQHandler+0xe0>
        HAL_IS_BIT_SET(hadc->Instance->CFGR1, ADC_CFGR1_DMAEN)  )
 800393a:	68da      	ldr	r2, [r3, #12]
    if ((hadc->Init.Overrun == ADC_OVR_DATA_PRESERVED)            ||
 800393c:	07d2      	lsls	r2, r2, #31
 800393e:	d508      	bpl.n	8003952 <HAL_ADC_IRQHandler+0xf2>
      SET_BIT(hadc->ErrorCode, HAL_ADC_ERROR_OVR);
 8003940:	2202      	movs	r2, #2
 8003942:	6ca1      	ldr	r1, [r4, #72]	; 0x48
      HAL_ADC_ErrorCallback(hadc);
 8003944:	0020      	movs	r0, r4
      SET_BIT(hadc->ErrorCode, HAL_ADC_ERROR_OVR);
 8003946:	430a      	orrs	r2, r1
 8003948:	64a2      	str	r2, [r4, #72]	; 0x48
      __HAL_ADC_CLEAR_FLAG(hadc, ADC_FLAG_OVR);
 800394a:	2210      	movs	r2, #16
 800394c:	601a      	str	r2, [r3, #0]
      HAL_ADC_ErrorCallback(hadc);
 800394e:	f7ff ff78 	bl	8003842 <HAL_ADC_ErrorCallback>
    __HAL_ADC_CLEAR_FLAG(hadc, ADC_FLAG_OVR);
 8003952:	2210      	movs	r2, #16
 8003954:	6823      	ldr	r3, [r4, #0]
 8003956:	601a      	str	r2, [r3, #0]
}
 8003958:	bd70      	pop	{r4, r5, r6, pc}
          SET_BIT(hadc->State, HAL_ADC_STATE_ERROR_CONFIG);
 800395a:	2320      	movs	r3, #32
 800395c:	6c62      	ldr	r2, [r4, #68]	; 0x44
 800395e:	4313      	orrs	r3, r2
 8003960:	6463      	str	r3, [r4, #68]	; 0x44
          SET_BIT(hadc->ErrorCode, HAL_ADC_ERROR_INTERNAL);
 8003962:	2301      	movs	r3, #1
 8003964:	6ca2      	ldr	r2, [r4, #72]	; 0x48
 8003966:	4313      	orrs	r3, r2
 8003968:	64a3      	str	r3, [r4, #72]	; 0x48
 800396a:	e7c3      	b.n	80038f4 <HAL_ADC_IRQHandler+0x94>
 800396c:	40012400 	.word	0x40012400
 8003970:	00000576 	.word	0x00000576
 8003974:	0800734a 	.word	0x0800734a
 8003978:	00000577 	.word	0x00000577
 800397c:	fffffefe 	.word	0xfffffefe

08003980 <HAL_ADC_ConfigChannel>:
  __IO uint32_t wait_loop_index = 0U;
 8003980:	2300      	movs	r3, #0
{
 8003982:	b5f7      	push	{r0, r1, r2, r4, r5, r6, r7, lr}
  assert_param(IS_ADC_ALL_INSTANCE(hadc->Instance));
 8003984:	6802      	ldr	r2, [r0, #0]
  __IO uint32_t wait_loop_index = 0U;
 8003986:	9301      	str	r3, [sp, #4]
  assert_param(IS_ADC_ALL_INSTANCE(hadc->Instance));
 8003988:	4b47      	ldr	r3, [pc, #284]	; (8003aa8 <HAL_ADC_ConfigChannel+0x128>)
{
 800398a:	0004      	movs	r4, r0
 800398c:	000d      	movs	r5, r1
  assert_param(IS_ADC_ALL_INSTANCE(hadc->Instance));
 800398e:	429a      	cmp	r2, r3
 8003990:	d003      	beq.n	800399a <HAL_ADC_ConfigChannel+0x1a>
 8003992:	4946      	ldr	r1, [pc, #280]	; (8003aac <HAL_ADC_ConfigChannel+0x12c>)
 8003994:	4846      	ldr	r0, [pc, #280]	; (8003ab0 <HAL_ADC_ConfigChannel+0x130>)
 8003996:	f7fe ffea 	bl	800296e <assert_failed>
  assert_param(IS_ADC_CHANNEL(sConfig->Channel));
 800399a:	682b      	ldr	r3, [r5, #0]
 800399c:	2b11      	cmp	r3, #17
 800399e:	d903      	bls.n	80039a8 <HAL_ADC_ConfigChannel+0x28>
 80039a0:	4944      	ldr	r1, [pc, #272]	; (8003ab4 <HAL_ADC_ConfigChannel+0x134>)
 80039a2:	4843      	ldr	r0, [pc, #268]	; (8003ab0 <HAL_ADC_ConfigChannel+0x130>)
 80039a4:	f7fe ffe3 	bl	800296e <assert_failed>
  assert_param(IS_ADC_RANK(sConfig->Rank));
 80039a8:	686b      	ldr	r3, [r5, #4]
 80039aa:	4a43      	ldr	r2, [pc, #268]	; (8003ab8 <HAL_ADC_ConfigChannel+0x138>)
 80039ac:	189b      	adds	r3, r3, r2
 80039ae:	2b01      	cmp	r3, #1
 80039b0:	d903      	bls.n	80039ba <HAL_ADC_ConfigChannel+0x3a>
 80039b2:	4942      	ldr	r1, [pc, #264]	; (8003abc <HAL_ADC_ConfigChannel+0x13c>)
 80039b4:	483e      	ldr	r0, [pc, #248]	; (8003ab0 <HAL_ADC_ConfigChannel+0x130>)
 80039b6:	f7fe ffda 	bl	800296e <assert_failed>
  if (! IS_ADC_SAMPLE_TIME(hadc->Init.SamplingTimeCommon))
 80039ba:	2280      	movs	r2, #128	; 0x80
 80039bc:	6ba3      	ldr	r3, [r4, #56]	; 0x38
 80039be:	0552      	lsls	r2, r2, #21
 80039c0:	4293      	cmp	r3, r2
 80039c2:	d00c      	beq.n	80039de <HAL_ADC_ConfigChannel+0x5e>
 80039c4:	3b01      	subs	r3, #1
 80039c6:	2b06      	cmp	r3, #6
 80039c8:	d909      	bls.n	80039de <HAL_ADC_ConfigChannel+0x5e>
    assert_param(IS_ADC_SAMPLE_TIME(sConfig->SamplingTime));
 80039ca:	68ab      	ldr	r3, [r5, #8]
 80039cc:	4293      	cmp	r3, r2
 80039ce:	d006      	beq.n	80039de <HAL_ADC_ConfigChannel+0x5e>
 80039d0:	3b01      	subs	r3, #1
 80039d2:	2b06      	cmp	r3, #6
 80039d4:	d903      	bls.n	80039de <HAL_ADC_ConfigChannel+0x5e>
 80039d6:	493a      	ldr	r1, [pc, #232]	; (8003ac0 <HAL_ADC_ConfigChannel+0x140>)
 80039d8:	4835      	ldr	r0, [pc, #212]	; (8003ab0 <HAL_ADC_ConfigChannel+0x130>)
 80039da:	f7fe ffc8 	bl	800296e <assert_failed>
  __HAL_LOCK(hadc);
 80039de:	0026      	movs	r6, r4
 80039e0:	3640      	adds	r6, #64	; 0x40
 80039e2:	7833      	ldrb	r3, [r6, #0]
 80039e4:	2002      	movs	r0, #2
 80039e6:	2b01      	cmp	r3, #1
 80039e8:	d02a      	beq.n	8003a40 <HAL_ADC_ConfigChannel+0xc0>
  if (ADC_IS_CONVERSION_ONGOING_REGULAR(hadc) == RESET)
 80039ea:	6823      	ldr	r3, [r4, #0]
  __HAL_LOCK(hadc);
 80039ec:	3801      	subs	r0, #1
  if (ADC_IS_CONVERSION_ONGOING_REGULAR(hadc) == RESET)
 80039ee:	689a      	ldr	r2, [r3, #8]
  __HAL_LOCK(hadc);
 80039f0:	7030      	strb	r0, [r6, #0]
  if (ADC_IS_CONVERSION_ONGOING_REGULAR(hadc) == RESET)
 80039f2:	0752      	lsls	r2, r2, #29
 80039f4:	d452      	bmi.n	8003a9c <HAL_ADC_ConfigChannel+0x11c>
    if (sConfig->Rank != ADC_RANK_NONE)
 80039f6:	4933      	ldr	r1, [pc, #204]	; (8003ac4 <HAL_ADC_ConfigChannel+0x144>)
 80039f8:	686f      	ldr	r7, [r5, #4]
 80039fa:	682a      	ldr	r2, [r5, #0]
 80039fc:	428f      	cmp	r7, r1
 80039fe:	d03b      	beq.n	8003a78 <HAL_ADC_ConfigChannel+0xf8>
      hadc->Instance->CHSELR |= ADC_CHSELR_CHANNEL(sConfig->Channel);
 8003a00:	4090      	lsls	r0, r2
 8003a02:	6a99      	ldr	r1, [r3, #40]	; 0x28
 8003a04:	4308      	orrs	r0, r1
 8003a06:	6298      	str	r0, [r3, #40]	; 0x28
      if (! IS_ADC_SAMPLE_TIME(hadc->Init.SamplingTimeCommon))
 8003a08:	2080      	movs	r0, #128	; 0x80
 8003a0a:	6ba1      	ldr	r1, [r4, #56]	; 0x38
 8003a0c:	0540      	lsls	r0, r0, #21
 8003a0e:	4281      	cmp	r1, r0
 8003a10:	d00f      	beq.n	8003a32 <HAL_ADC_ConfigChannel+0xb2>
 8003a12:	3901      	subs	r1, #1
 8003a14:	2906      	cmp	r1, #6
 8003a16:	d90c      	bls.n	8003a32 <HAL_ADC_ConfigChannel+0xb2>
        if (sConfig->SamplingTime != ADC_GET_SAMPLINGTIME(hadc))
 8003a18:	2007      	movs	r0, #7
 8003a1a:	695c      	ldr	r4, [r3, #20]
 8003a1c:	68a9      	ldr	r1, [r5, #8]
 8003a1e:	4004      	ands	r4, r0
 8003a20:	42a1      	cmp	r1, r4
 8003a22:	d006      	beq.n	8003a32 <HAL_ADC_ConfigChannel+0xb2>
          hadc->Instance->SMPR &= ~(ADC_SMPR_SMP);
 8003a24:	695c      	ldr	r4, [r3, #20]
          hadc->Instance->SMPR |= ADC_SMPR_SET(sConfig->SamplingTime);
 8003a26:	4001      	ands	r1, r0
          hadc->Instance->SMPR &= ~(ADC_SMPR_SMP);
 8003a28:	4384      	bics	r4, r0
 8003a2a:	615c      	str	r4, [r3, #20]
          hadc->Instance->SMPR |= ADC_SMPR_SET(sConfig->SamplingTime);
 8003a2c:	695c      	ldr	r4, [r3, #20]
 8003a2e:	4321      	orrs	r1, r4
 8003a30:	6159      	str	r1, [r3, #20]
      if(ADC_IS_CHANNEL_INTERNAL(sConfig->Channel))
 8003a32:	0013      	movs	r3, r2
 8003a34:	3b10      	subs	r3, #16
 8003a36:	2b01      	cmp	r3, #1
 8003a38:	d903      	bls.n	8003a42 <HAL_ADC_ConfigChannel+0xc2>
  HAL_StatusTypeDef tmp_hal_status = HAL_OK;
 8003a3a:	2000      	movs	r0, #0
  __HAL_UNLOCK(hadc);
 8003a3c:	2300      	movs	r3, #0
 8003a3e:	7033      	strb	r3, [r6, #0]
}
 8003a40:	bdfe      	pop	{r1, r2, r3, r4, r5, r6, r7, pc}
        ADC->CCR |= ADC_CHANNEL_INTERNAL_PATH(sConfig->Channel);
 8003a42:	4b21      	ldr	r3, [pc, #132]	; (8003ac8 <HAL_ADC_ConfigChannel+0x148>)
 8003a44:	2180      	movs	r1, #128	; 0x80
 8003a46:	6818      	ldr	r0, [r3, #0]
 8003a48:	2a10      	cmp	r2, #16
 8003a4a:	d013      	beq.n	8003a74 <HAL_ADC_ConfigChannel+0xf4>
 8003a4c:	03c9      	lsls	r1, r1, #15
 8003a4e:	4301      	orrs	r1, r0
 8003a50:	6019      	str	r1, [r3, #0]
        if (sConfig->Channel == ADC_CHANNEL_TEMPSENSOR)
 8003a52:	2a10      	cmp	r2, #16
 8003a54:	d1f1      	bne.n	8003a3a <HAL_ADC_ConfigChannel+0xba>
          wait_loop_index = (ADC_TEMPSENSOR_DELAY_US * (SystemCoreClock / 1000000U));
 8003a56:	4b1d      	ldr	r3, [pc, #116]	; (8003acc <HAL_ADC_ConfigChannel+0x14c>)
 8003a58:	491d      	ldr	r1, [pc, #116]	; (8003ad0 <HAL_ADC_ConfigChannel+0x150>)
 8003a5a:	6818      	ldr	r0, [r3, #0]
 8003a5c:	f7fc fb5e 	bl	800011c <__udivsi3>
 8003a60:	230a      	movs	r3, #10
 8003a62:	4358      	muls	r0, r3
 8003a64:	9001      	str	r0, [sp, #4]
          while(wait_loop_index != 0U)
 8003a66:	9b01      	ldr	r3, [sp, #4]
 8003a68:	2b00      	cmp	r3, #0
 8003a6a:	d0e6      	beq.n	8003a3a <HAL_ADC_ConfigChannel+0xba>
            wait_loop_index--;
 8003a6c:	9b01      	ldr	r3, [sp, #4]
 8003a6e:	3b01      	subs	r3, #1
 8003a70:	9301      	str	r3, [sp, #4]
 8003a72:	e7f8      	b.n	8003a66 <HAL_ADC_ConfigChannel+0xe6>
        ADC->CCR |= ADC_CHANNEL_INTERNAL_PATH(sConfig->Channel);
 8003a74:	0409      	lsls	r1, r1, #16
 8003a76:	e7ea      	b.n	8003a4e <HAL_ADC_ConfigChannel+0xce>
      hadc->Instance->CHSELR &= ~ADC_CHSELR_CHANNEL(sConfig->Channel);
 8003a78:	4090      	lsls	r0, r2
 8003a7a:	6a99      	ldr	r1, [r3, #40]	; 0x28
 8003a7c:	4381      	bics	r1, r0
 8003a7e:	6299      	str	r1, [r3, #40]	; 0x28
      if(ADC_IS_CHANNEL_INTERNAL(sConfig->Channel))
 8003a80:	0013      	movs	r3, r2
 8003a82:	3b10      	subs	r3, #16
 8003a84:	2b01      	cmp	r3, #1
 8003a86:	d8d8      	bhi.n	8003a3a <HAL_ADC_ConfigChannel+0xba>
        ADC->CCR &= ~ADC_CHANNEL_INTERNAL_PATH(sConfig->Channel);
 8003a88:	4b0f      	ldr	r3, [pc, #60]	; (8003ac8 <HAL_ADC_ConfigChannel+0x148>)
 8003a8a:	6819      	ldr	r1, [r3, #0]
 8003a8c:	2a10      	cmp	r2, #16
 8003a8e:	d003      	beq.n	8003a98 <HAL_ADC_ConfigChannel+0x118>
 8003a90:	4a10      	ldr	r2, [pc, #64]	; (8003ad4 <HAL_ADC_ConfigChannel+0x154>)
 8003a92:	400a      	ands	r2, r1
 8003a94:	601a      	str	r2, [r3, #0]
 8003a96:	e7d0      	b.n	8003a3a <HAL_ADC_ConfigChannel+0xba>
 8003a98:	4a0f      	ldr	r2, [pc, #60]	; (8003ad8 <HAL_ADC_ConfigChannel+0x158>)
 8003a9a:	e7fa      	b.n	8003a92 <HAL_ADC_ConfigChannel+0x112>
    SET_BIT(hadc->State, HAL_ADC_STATE_ERROR_CONFIG);
 8003a9c:	2320      	movs	r3, #32
 8003a9e:	6c62      	ldr	r2, [r4, #68]	; 0x44
 8003aa0:	4313      	orrs	r3, r2
 8003aa2:	6463      	str	r3, [r4, #68]	; 0x44
 8003aa4:	e7ca      	b.n	8003a3c <HAL_ADC_ConfigChannel+0xbc>
 8003aa6:	46c0      	nop			; (mov r8, r8)
 8003aa8:	40012400 	.word	0x40012400
 8003aac:	00000651 	.word	0x00000651
 8003ab0:	0800734a 	.word	0x0800734a
 8003ab4:	00000652 	.word	0x00000652
 8003ab8:	fffff000 	.word	0xfffff000
 8003abc:	00000653 	.word	0x00000653
 8003ac0:	00000657 	.word	0x00000657
 8003ac4:	00001001 	.word	0x00001001
 8003ac8:	40012708 	.word	0x40012708
 8003acc:	20000248 	.word	0x20000248
 8003ad0:	000f4240 	.word	0x000f4240
 8003ad4:	ffbfffff 	.word	0xffbfffff
 8003ad8:	ff7fffff 	.word	0xff7fffff

08003adc <HAL_NVIC_SetPriority>:
  *         with stm32f0xx devices, this parameter is a dummy value and it is ignored, because 
  *         no subpriority supported in Cortex M0 based products.   
  * @retval None
  */
void HAL_NVIC_SetPriority(IRQn_Type IRQn, uint32_t PreemptPriority, uint32_t SubPriority)
{ 
 8003adc:	b570      	push	{r4, r5, r6, lr}
 8003ade:	0004      	movs	r4, r0
 8003ae0:	000d      	movs	r5, r1
  /* Check the parameters */
  assert_param(IS_NVIC_PREEMPTION_PRIORITY(PreemptPriority));
 8003ae2:	2903      	cmp	r1, #3
 8003ae4:	d903      	bls.n	8003aee <HAL_NVIC_SetPriority+0x12>
 8003ae6:	219b      	movs	r1, #155	; 0x9b
 8003ae8:	4816      	ldr	r0, [pc, #88]	; (8003b44 <HAL_NVIC_SetPriority+0x68>)
 8003aea:	f7fe ff40 	bl	800296e <assert_failed>
 8003aee:	01a9      	lsls	r1, r5, #6
  \param [in]      IRQn  Interrupt number.
  \param [in]  priority  Priority to set.
 */
__STATIC_INLINE void NVIC_SetPriority(IRQn_Type IRQn, uint32_t priority)
{
  if ((int32_t)(IRQn) < 0)
 8003af0:	2c00      	cmp	r4, #0
 8003af2:	da14      	bge.n	8003b1e <HAL_NVIC_SetPriority+0x42>
  {
    SCB->SHP[_SHP_IDX(IRQn)] = ((uint32_t)(SCB->SHP[_SHP_IDX(IRQn)] & ~(0xFFUL << _BIT_SHIFT(IRQn))) |
 8003af4:	230f      	movs	r3, #15
 8003af6:	b2e4      	uxtb	r4, r4
 8003af8:	4023      	ands	r3, r4
 8003afa:	3b08      	subs	r3, #8
 8003afc:	4a12      	ldr	r2, [pc, #72]	; (8003b48 <HAL_NVIC_SetPriority+0x6c>)
 8003afe:	089b      	lsrs	r3, r3, #2
 8003b00:	009b      	lsls	r3, r3, #2
 8003b02:	189b      	adds	r3, r3, r2
 8003b04:	2203      	movs	r2, #3
 8003b06:	4014      	ands	r4, r2
 8003b08:	4094      	lsls	r4, r2
 8003b0a:	32fc      	adds	r2, #252	; 0xfc
 8003b0c:	0015      	movs	r5, r2
       (((priority << (8U - __NVIC_PRIO_BITS)) & (uint32_t)0xFFUL) << _BIT_SHIFT(IRQn)));
 8003b0e:	400a      	ands	r2, r1
    SCB->SHP[_SHP_IDX(IRQn)] = ((uint32_t)(SCB->SHP[_SHP_IDX(IRQn)] & ~(0xFFUL << _BIT_SHIFT(IRQn))) |
 8003b10:	40a5      	lsls	r5, r4
       (((priority << (8U - __NVIC_PRIO_BITS)) & (uint32_t)0xFFUL) << _BIT_SHIFT(IRQn)));
 8003b12:	40a2      	lsls	r2, r4
    SCB->SHP[_SHP_IDX(IRQn)] = ((uint32_t)(SCB->SHP[_SHP_IDX(IRQn)] & ~(0xFFUL << _BIT_SHIFT(IRQn))) |
 8003b14:	69d8      	ldr	r0, [r3, #28]
 8003b16:	43a8      	bics	r0, r5
 8003b18:	4302      	orrs	r2, r0
 8003b1a:	61da      	str	r2, [r3, #28]
  NVIC_SetPriority(IRQn,PreemptPriority);
}
 8003b1c:	bd70      	pop	{r4, r5, r6, pc}
  }
  else
  {
    NVIC->IP[_IP_IDX(IRQn)]  = ((uint32_t)(NVIC->IP[_IP_IDX(IRQn)]  & ~(0xFFUL << _BIT_SHIFT(IRQn))) |
 8003b1e:	2503      	movs	r5, #3
 8003b20:	08a3      	lsrs	r3, r4, #2
 8003b22:	402c      	ands	r4, r5
 8003b24:	40ac      	lsls	r4, r5
 8003b26:	35fc      	adds	r5, #252	; 0xfc
 8003b28:	002e      	movs	r6, r5
 8003b2a:	4a08      	ldr	r2, [pc, #32]	; (8003b4c <HAL_NVIC_SetPriority+0x70>)
 8003b2c:	009b      	lsls	r3, r3, #2
 8003b2e:	189b      	adds	r3, r3, r2
 8003b30:	22c0      	movs	r2, #192	; 0xc0
 8003b32:	40a6      	lsls	r6, r4
       (((priority << (8U - __NVIC_PRIO_BITS)) & (uint32_t)0xFFUL) << _BIT_SHIFT(IRQn)));
 8003b34:	4029      	ands	r1, r5
 8003b36:	40a1      	lsls	r1, r4
    NVIC->IP[_IP_IDX(IRQn)]  = ((uint32_t)(NVIC->IP[_IP_IDX(IRQn)]  & ~(0xFFUL << _BIT_SHIFT(IRQn))) |
 8003b38:	0092      	lsls	r2, r2, #2
 8003b3a:	5898      	ldr	r0, [r3, r2]
 8003b3c:	43b0      	bics	r0, r6
 8003b3e:	4301      	orrs	r1, r0
 8003b40:	5099      	str	r1, [r3, r2]
 8003b42:	e7eb      	b.n	8003b1c <HAL_NVIC_SetPriority+0x40>
 8003b44:	08007382 	.word	0x08007382
 8003b48:	e000ed00 	.word	0xe000ed00
 8003b4c:	e000e100 	.word	0xe000e100

08003b50 <HAL_NVIC_EnableIRQ>:
  *         This parameter can be an enumerator of IRQn_Type enumeration
  *         (For the complete STM32 Devices IRQ Channels list, please refer to the appropriate CMSIS device file (stm32f0xxxx.h))
  * @retval None
  */
void HAL_NVIC_EnableIRQ(IRQn_Type IRQn)
{
 8003b50:	b510      	push	{r4, lr}
 8003b52:	1e04      	subs	r4, r0, #0
  /* Check the parameters */
  assert_param(IS_NVIC_DEVICE_IRQ(IRQn));
 8003b54:	da03      	bge.n	8003b5e <HAL_NVIC_EnableIRQ+0xe>
 8003b56:	21ab      	movs	r1, #171	; 0xab
 8003b58:	4804      	ldr	r0, [pc, #16]	; (8003b6c <HAL_NVIC_EnableIRQ+0x1c>)
 8003b5a:	f7fe ff08 	bl	800296e <assert_failed>
  NVIC->ISER[0U] = (uint32_t)(1UL << (((uint32_t)(int32_t)IRQn) & 0x1FUL));
 8003b5e:	231f      	movs	r3, #31
 8003b60:	401c      	ands	r4, r3
 8003b62:	3b1e      	subs	r3, #30
 8003b64:	40a3      	lsls	r3, r4
 8003b66:	4a02      	ldr	r2, [pc, #8]	; (8003b70 <HAL_NVIC_EnableIRQ+0x20>)
 8003b68:	6013      	str	r3, [r2, #0]
  
  /* Enable interrupt */
  NVIC_EnableIRQ(IRQn);
}
 8003b6a:	bd10      	pop	{r4, pc}
 8003b6c:	08007382 	.word	0x08007382
 8003b70:	e000e100 	.word	0xe000e100

08003b74 <HAL_SYSTICK_Config>:
           function <b>SysTick_Config</b> is not included. In this case, the file <b><i>device</i>.h</b>
           must contain a vendor-specific implementation of this function.
 */
__STATIC_INLINE uint32_t SysTick_Config(uint32_t ticks)
{
  if ((ticks - 1UL) > SysTick_LOAD_RELOAD_Msk)
 8003b74:	4a09      	ldr	r2, [pc, #36]	; (8003b9c <HAL_SYSTICK_Config+0x28>)
 8003b76:	1e43      	subs	r3, r0, #1
  {
    return (1UL);                                                   /* Reload value impossible */
 8003b78:	2001      	movs	r0, #1
  if ((ticks - 1UL) > SysTick_LOAD_RELOAD_Msk)
 8003b7a:	4293      	cmp	r3, r2
 8003b7c:	d80d      	bhi.n	8003b9a <HAL_SYSTICK_Config+0x26>
    SCB->SHP[_SHP_IDX(IRQn)] = ((uint32_t)(SCB->SHP[_SHP_IDX(IRQn)] & ~(0xFFUL << _BIT_SHIFT(IRQn))) |
 8003b7e:	21c0      	movs	r1, #192	; 0xc0
  }

  SysTick->LOAD  = (uint32_t)(ticks - 1UL);                         /* set reload register */
 8003b80:	4a07      	ldr	r2, [pc, #28]	; (8003ba0 <HAL_SYSTICK_Config+0x2c>)
    SCB->SHP[_SHP_IDX(IRQn)] = ((uint32_t)(SCB->SHP[_SHP_IDX(IRQn)] & ~(0xFFUL << _BIT_SHIFT(IRQn))) |
 8003b82:	4808      	ldr	r0, [pc, #32]	; (8003ba4 <HAL_SYSTICK_Config+0x30>)
  SysTick->LOAD  = (uint32_t)(ticks - 1UL);                         /* set reload register */
 8003b84:	6053      	str	r3, [r2, #4]
    SCB->SHP[_SHP_IDX(IRQn)] = ((uint32_t)(SCB->SHP[_SHP_IDX(IRQn)] & ~(0xFFUL << _BIT_SHIFT(IRQn))) |
 8003b86:	6a03      	ldr	r3, [r0, #32]
 8003b88:	0609      	lsls	r1, r1, #24
 8003b8a:	021b      	lsls	r3, r3, #8
 8003b8c:	0a1b      	lsrs	r3, r3, #8
 8003b8e:	430b      	orrs	r3, r1
 8003b90:	6203      	str	r3, [r0, #32]
  NVIC_SetPriority (SysTick_IRQn, (1UL << __NVIC_PRIO_BITS) - 1UL); /* set Priority for Systick Interrupt */
  SysTick->VAL   = 0UL;                                             /* Load the SysTick Counter Value */
 8003b92:	2000      	movs	r0, #0
  SysTick->CTRL  = SysTick_CTRL_CLKSOURCE_Msk |
 8003b94:	2307      	movs	r3, #7
  SysTick->VAL   = 0UL;                                             /* Load the SysTick Counter Value */
 8003b96:	6090      	str	r0, [r2, #8]
  SysTick->CTRL  = SysTick_CTRL_CLKSOURCE_Msk |
 8003b98:	6013      	str	r3, [r2, #0]
  *                  - 1  Function failed.
  */
uint32_t HAL_SYSTICK_Config(uint32_t TicksNumb)
{
   return SysTick_Config(TicksNumb);
}
 8003b9a:	4770      	bx	lr
 8003b9c:	00ffffff 	.word	0x00ffffff
 8003ba0:	e000e010 	.word	0xe000e010
 8003ba4:	e000ed00 	.word	0xe000ed00

08003ba8 <HAL_CRC_Init>:
  *         parameters in the CRC_InitTypeDef and initialize the associated handle.
  * @param  hcrc CRC handle
  * @retval HAL status
  */
HAL_StatusTypeDef HAL_CRC_Init(CRC_HandleTypeDef *hcrc)
{
 8003ba8:	b570      	push	{r4, r5, r6, lr}
 8003baa:	1e04      	subs	r4, r0, #0
  /* Check the CRC handle allocation */
  if(hcrc == NULL)
 8003bac:	d102      	bne.n	8003bb4 <HAL_CRC_Init+0xc>
  {
    return HAL_ERROR;
 8003bae:	2501      	movs	r5, #1
  /* Change CRC peripheral state */
  hcrc->State = HAL_CRC_STATE_READY;
  
  /* Return function status */
  return HAL_OK;
}
 8003bb0:	0028      	movs	r0, r5
 8003bb2:	bd70      	pop	{r4, r5, r6, pc}
  assert_param(IS_CRC_ALL_INSTANCE(hcrc->Instance));
 8003bb4:	4b27      	ldr	r3, [pc, #156]	; (8003c54 <HAL_CRC_Init+0xac>)
 8003bb6:	6802      	ldr	r2, [r0, #0]
 8003bb8:	429a      	cmp	r2, r3
 8003bba:	d003      	beq.n	8003bc4 <HAL_CRC_Init+0x1c>
 8003bbc:	2180      	movs	r1, #128	; 0x80
 8003bbe:	4826      	ldr	r0, [pc, #152]	; (8003c58 <HAL_CRC_Init+0xb0>)
 8003bc0:	f7fe fed5 	bl	800296e <assert_failed>
  if(hcrc->State == HAL_CRC_STATE_RESET)
 8003bc4:	7f63      	ldrb	r3, [r4, #29]
 8003bc6:	b2db      	uxtb	r3, r3
 8003bc8:	2b00      	cmp	r3, #0
 8003bca:	d103      	bne.n	8003bd4 <HAL_CRC_Init+0x2c>
    hcrc->Lock = HAL_UNLOCKED;
 8003bcc:	7723      	strb	r3, [r4, #28]
    HAL_CRC_MspInit(hcrc);
 8003bce:	0020      	movs	r0, r4
 8003bd0:	f7fd fb5e 	bl	8001290 <HAL_CRC_MspInit>
  hcrc->State = HAL_CRC_STATE_BUSY; 
 8003bd4:	2302      	movs	r3, #2
  if (HAL_CRCEx_Init(hcrc) != HAL_OK)
 8003bd6:	0020      	movs	r0, r4
  hcrc->State = HAL_CRC_STATE_BUSY; 
 8003bd8:	7763      	strb	r3, [r4, #29]
  if (HAL_CRCEx_Init(hcrc) != HAL_OK)
 8003bda:	f000 f83f 	bl	8003c5c <HAL_CRCEx_Init>
 8003bde:	1e05      	subs	r5, r0, #0
 8003be0:	d1e5      	bne.n	8003bae <HAL_CRC_Init+0x6>
  assert_param(IS_DEFAULT_INIT_VALUE(hcrc->Init.DefaultInitValueUse));
 8003be2:	7963      	ldrb	r3, [r4, #5]
 8003be4:	2b01      	cmp	r3, #1
 8003be6:	d903      	bls.n	8003bf0 <HAL_CRC_Init+0x48>
 8003be8:	2199      	movs	r1, #153	; 0x99
 8003bea:	481b      	ldr	r0, [pc, #108]	; (8003c58 <HAL_CRC_Init+0xb0>)
 8003bec:	f7fe febf 	bl	800296e <assert_failed>
  if (hcrc->Init.DefaultInitValueUse == DEFAULT_INIT_VALUE_ENABLE)
 8003bf0:	7962      	ldrb	r2, [r4, #5]
 8003bf2:	6823      	ldr	r3, [r4, #0]
 8003bf4:	2a00      	cmp	r2, #0
 8003bf6:	d12a      	bne.n	8003c4e <HAL_CRC_Init+0xa6>
    WRITE_REG(hcrc->Instance->INIT, DEFAULT_CRC_INITVALUE);  
 8003bf8:	3a01      	subs	r2, #1
    WRITE_REG(hcrc->Instance->INIT, hcrc->Init.InitValue);
 8003bfa:	611a      	str	r2, [r3, #16]
  assert_param(IS_CRC_INPUTDATA_INVERSION_MODE(hcrc->Init.InputDataInversionMode)); 
 8003bfc:	2360      	movs	r3, #96	; 0x60
 8003bfe:	6962      	ldr	r2, [r4, #20]
 8003c00:	439a      	bics	r2, r3
 8003c02:	d003      	beq.n	8003c0c <HAL_CRC_Init+0x64>
 8003c04:	21a5      	movs	r1, #165	; 0xa5
 8003c06:	4814      	ldr	r0, [pc, #80]	; (8003c58 <HAL_CRC_Init+0xb0>)
 8003c08:	f7fe feb1 	bl	800296e <assert_failed>
  MODIFY_REG(hcrc->Instance->CR, CRC_CR_REV_IN, hcrc->Init.InputDataInversionMode); 
 8003c0c:	2160      	movs	r1, #96	; 0x60
 8003c0e:	6822      	ldr	r2, [r4, #0]
 8003c10:	6893      	ldr	r3, [r2, #8]
 8003c12:	438b      	bics	r3, r1
 8003c14:	6961      	ldr	r1, [r4, #20]
 8003c16:	430b      	orrs	r3, r1
 8003c18:	6093      	str	r3, [r2, #8]
  assert_param(IS_CRC_OUTPUTDATA_INVERSION_MODE(hcrc->Init.OutputDataInversionMode)); 
 8003c1a:	2380      	movs	r3, #128	; 0x80
 8003c1c:	69a2      	ldr	r2, [r4, #24]
 8003c1e:	439a      	bics	r2, r3
 8003c20:	d003      	beq.n	8003c2a <HAL_CRC_Init+0x82>
 8003c22:	21a9      	movs	r1, #169	; 0xa9
 8003c24:	480c      	ldr	r0, [pc, #48]	; (8003c58 <HAL_CRC_Init+0xb0>)
 8003c26:	f7fe fea2 	bl	800296e <assert_failed>
  MODIFY_REG(hcrc->Instance->CR, CRC_CR_REV_OUT, hcrc->Init.OutputDataInversionMode);  
 8003c2a:	2180      	movs	r1, #128	; 0x80
 8003c2c:	6822      	ldr	r2, [r4, #0]
 8003c2e:	6893      	ldr	r3, [r2, #8]
 8003c30:	438b      	bics	r3, r1
 8003c32:	69a1      	ldr	r1, [r4, #24]
 8003c34:	430b      	orrs	r3, r1
 8003c36:	6093      	str	r3, [r2, #8]
  assert_param(IS_CRC_INPUTDATA_FORMAT(hcrc->InputDataFormat));
 8003c38:	6a23      	ldr	r3, [r4, #32]
 8003c3a:	3b01      	subs	r3, #1
 8003c3c:	2b02      	cmp	r3, #2
 8003c3e:	d903      	bls.n	8003c48 <HAL_CRC_Init+0xa0>
 8003c40:	21ae      	movs	r1, #174	; 0xae
 8003c42:	4805      	ldr	r0, [pc, #20]	; (8003c58 <HAL_CRC_Init+0xb0>)
 8003c44:	f7fe fe93 	bl	800296e <assert_failed>
  hcrc->State = HAL_CRC_STATE_READY;
 8003c48:	2301      	movs	r3, #1
 8003c4a:	7763      	strb	r3, [r4, #29]
  return HAL_OK;
 8003c4c:	e7b0      	b.n	8003bb0 <HAL_CRC_Init+0x8>
    WRITE_REG(hcrc->Instance->INIT, hcrc->Init.InitValue);
 8003c4e:	6922      	ldr	r2, [r4, #16]
 8003c50:	e7d3      	b.n	8003bfa <HAL_CRC_Init+0x52>
 8003c52:	46c0      	nop			; (mov r8, r8)
 8003c54:	40023000 	.word	0x40023000
 8003c58:	080073bd 	.word	0x080073bd

08003c5c <HAL_CRCEx_Init>:
    }
  }
#endif /* defined(STM32F071xB) || defined(STM32F072xB) || defined(STM32F078xx) || defined(STM32F091xC) || defined (STM32F098xx) */    

   return HAL_OK;
}
 8003c5c:	2000      	movs	r0, #0
 8003c5e:	4770      	bx	lr

08003c60 <HAL_DMA_Init>:
  * @param  hdma Pointer to a DMA_HandleTypeDef structure that contains
  *               the configuration information for the specified DMA Channel.  
  * @retval HAL status
  */
HAL_StatusTypeDef HAL_DMA_Init(DMA_HandleTypeDef *hdma)
{ 
 8003c60:	b570      	push	{r4, r5, r6, lr}
 8003c62:	0004      	movs	r4, r0
  uint32_t tmp = 0U;
  
  /* Check the DMA handle allocation */
  if(NULL == hdma)
  {
    return HAL_ERROR;
 8003c64:	2001      	movs	r0, #1
  if(NULL == hdma)
 8003c66:	2c00      	cmp	r4, #0
 8003c68:	d100      	bne.n	8003c6c <HAL_DMA_Init+0xc>
 8003c6a:	e081      	b.n	8003d70 <HAL_DMA_Init+0x110>
  }
  
  /* Check the parameters */
  assert_param(IS_DMA_ALL_INSTANCE(hdma->Instance));
 8003c6c:	6823      	ldr	r3, [r4, #0]
 8003c6e:	4a41      	ldr	r2, [pc, #260]	; (8003d74 <HAL_DMA_Init+0x114>)
 8003c70:	4293      	cmp	r3, r2
 8003c72:	d00f      	beq.n	8003c94 <HAL_DMA_Init+0x34>
 8003c74:	4a40      	ldr	r2, [pc, #256]	; (8003d78 <HAL_DMA_Init+0x118>)
 8003c76:	4293      	cmp	r3, r2
 8003c78:	d00c      	beq.n	8003c94 <HAL_DMA_Init+0x34>
 8003c7a:	4a40      	ldr	r2, [pc, #256]	; (8003d7c <HAL_DMA_Init+0x11c>)
 8003c7c:	4293      	cmp	r3, r2
 8003c7e:	d009      	beq.n	8003c94 <HAL_DMA_Init+0x34>
 8003c80:	4a3f      	ldr	r2, [pc, #252]	; (8003d80 <HAL_DMA_Init+0x120>)
 8003c82:	4293      	cmp	r3, r2
 8003c84:	d006      	beq.n	8003c94 <HAL_DMA_Init+0x34>
 8003c86:	4a3f      	ldr	r2, [pc, #252]	; (8003d84 <HAL_DMA_Init+0x124>)
 8003c88:	4293      	cmp	r3, r2
 8003c8a:	d003      	beq.n	8003c94 <HAL_DMA_Init+0x34>
 8003c8c:	21a5      	movs	r1, #165	; 0xa5
 8003c8e:	483e      	ldr	r0, [pc, #248]	; (8003d88 <HAL_DMA_Init+0x128>)
 8003c90:	f7fe fe6d 	bl	800296e <assert_failed>
  assert_param(IS_DMA_DIRECTION(hdma->Init.Direction));
 8003c94:	6863      	ldr	r3, [r4, #4]
 8003c96:	2210      	movs	r2, #16
 8003c98:	0019      	movs	r1, r3
 8003c9a:	4391      	bics	r1, r2
 8003c9c:	d007      	beq.n	8003cae <HAL_DMA_Init+0x4e>
 8003c9e:	2280      	movs	r2, #128	; 0x80
 8003ca0:	01d2      	lsls	r2, r2, #7
 8003ca2:	4293      	cmp	r3, r2
 8003ca4:	d003      	beq.n	8003cae <HAL_DMA_Init+0x4e>
 8003ca6:	21a6      	movs	r1, #166	; 0xa6
 8003ca8:	4837      	ldr	r0, [pc, #220]	; (8003d88 <HAL_DMA_Init+0x128>)
 8003caa:	f7fe fe60 	bl	800296e <assert_failed>
  assert_param(IS_DMA_PERIPHERAL_INC_STATE(hdma->Init.PeriphInc));
 8003cae:	2340      	movs	r3, #64	; 0x40
 8003cb0:	68a2      	ldr	r2, [r4, #8]
 8003cb2:	439a      	bics	r2, r3
 8003cb4:	d003      	beq.n	8003cbe <HAL_DMA_Init+0x5e>
 8003cb6:	21a7      	movs	r1, #167	; 0xa7
 8003cb8:	4833      	ldr	r0, [pc, #204]	; (8003d88 <HAL_DMA_Init+0x128>)
 8003cba:	f7fe fe58 	bl	800296e <assert_failed>
  assert_param(IS_DMA_MEMORY_INC_STATE(hdma->Init.MemInc));
 8003cbe:	2380      	movs	r3, #128	; 0x80
 8003cc0:	68e2      	ldr	r2, [r4, #12]
 8003cc2:	439a      	bics	r2, r3
 8003cc4:	d003      	beq.n	8003cce <HAL_DMA_Init+0x6e>
 8003cc6:	21a8      	movs	r1, #168	; 0xa8
 8003cc8:	482f      	ldr	r0, [pc, #188]	; (8003d88 <HAL_DMA_Init+0x128>)
 8003cca:	f7fe fe50 	bl	800296e <assert_failed>
  assert_param(IS_DMA_PERIPHERAL_DATA_SIZE(hdma->Init.PeriphDataAlignment));
 8003cce:	6923      	ldr	r3, [r4, #16]
 8003cd0:	4a2e      	ldr	r2, [pc, #184]	; (8003d8c <HAL_DMA_Init+0x12c>)
 8003cd2:	4213      	tst	r3, r2
 8003cd4:	d007      	beq.n	8003ce6 <HAL_DMA_Init+0x86>
 8003cd6:	2280      	movs	r2, #128	; 0x80
 8003cd8:	0092      	lsls	r2, r2, #2
 8003cda:	4293      	cmp	r3, r2
 8003cdc:	d003      	beq.n	8003ce6 <HAL_DMA_Init+0x86>
 8003cde:	21a9      	movs	r1, #169	; 0xa9
 8003ce0:	4829      	ldr	r0, [pc, #164]	; (8003d88 <HAL_DMA_Init+0x128>)
 8003ce2:	f7fe fe44 	bl	800296e <assert_failed>
  assert_param(IS_DMA_MEMORY_DATA_SIZE(hdma->Init.MemDataAlignment));
 8003ce6:	6963      	ldr	r3, [r4, #20]
 8003ce8:	4a29      	ldr	r2, [pc, #164]	; (8003d90 <HAL_DMA_Init+0x130>)
 8003cea:	4213      	tst	r3, r2
 8003cec:	d007      	beq.n	8003cfe <HAL_DMA_Init+0x9e>
 8003cee:	2280      	movs	r2, #128	; 0x80
 8003cf0:	0112      	lsls	r2, r2, #4
 8003cf2:	4293      	cmp	r3, r2
 8003cf4:	d003      	beq.n	8003cfe <HAL_DMA_Init+0x9e>
 8003cf6:	21aa      	movs	r1, #170	; 0xaa
 8003cf8:	4823      	ldr	r0, [pc, #140]	; (8003d88 <HAL_DMA_Init+0x128>)
 8003cfa:	f7fe fe38 	bl	800296e <assert_failed>
  assert_param(IS_DMA_MODE(hdma->Init.Mode));
 8003cfe:	2320      	movs	r3, #32
 8003d00:	69a2      	ldr	r2, [r4, #24]
 8003d02:	439a      	bics	r2, r3
 8003d04:	d003      	beq.n	8003d0e <HAL_DMA_Init+0xae>
 8003d06:	21ab      	movs	r1, #171	; 0xab
 8003d08:	481f      	ldr	r0, [pc, #124]	; (8003d88 <HAL_DMA_Init+0x128>)
 8003d0a:	f7fe fe30 	bl	800296e <assert_failed>
  assert_param(IS_DMA_PRIORITY(hdma->Init.Priority));
 8003d0e:	4b21      	ldr	r3, [pc, #132]	; (8003d94 <HAL_DMA_Init+0x134>)
 8003d10:	69e2      	ldr	r2, [r4, #28]
 8003d12:	421a      	tst	r2, r3
 8003d14:	d003      	beq.n	8003d1e <HAL_DMA_Init+0xbe>
 8003d16:	21ac      	movs	r1, #172	; 0xac
 8003d18:	481b      	ldr	r0, [pc, #108]	; (8003d88 <HAL_DMA_Init+0x128>)
 8003d1a:	f7fe fe28 	bl	800296e <assert_failed>
  
  /* Change DMA peripheral state */
  hdma->State = HAL_DMA_STATE_BUSY;
 8003d1e:	2302      	movs	r3, #2

  /* Get the CR register value */
  tmp = hdma->Instance->CCR;
 8003d20:	6820      	ldr	r0, [r4, #0]
  hdma->State = HAL_DMA_STATE_BUSY;
 8003d22:	1ca5      	adds	r5, r4, #2
 8003d24:	77eb      	strb	r3, [r5, #31]
  tmp = hdma->Instance->CCR;
 8003d26:	6802      	ldr	r2, [r0, #0]
  
  /* Clear PL, MSIZE, PSIZE, MINC, PINC, CIRC, DIR bits */
  tmp &= ((uint32_t)~(DMA_CCR_PL    | DMA_CCR_MSIZE  | DMA_CCR_PSIZE  | \
 8003d28:	4b1b      	ldr	r3, [pc, #108]	; (8003d98 <HAL_DMA_Init+0x138>)
                      DMA_CCR_MINC  | DMA_CCR_PINC   | DMA_CCR_CIRC   | \
                      DMA_CCR_DIR));
  
  /* Prepare the DMA Channel configuration */
  tmp |=  hdma->Init.Direction        |
 8003d2a:	68a1      	ldr	r1, [r4, #8]
  tmp &= ((uint32_t)~(DMA_CCR_PL    | DMA_CCR_MSIZE  | DMA_CCR_PSIZE  | \
 8003d2c:	401a      	ands	r2, r3
  tmp |=  hdma->Init.Direction        |
 8003d2e:	6863      	ldr	r3, [r4, #4]
 8003d30:	430b      	orrs	r3, r1
          hdma->Init.PeriphInc           | hdma->Init.MemInc           |
 8003d32:	68e1      	ldr	r1, [r4, #12]
 8003d34:	430b      	orrs	r3, r1
 8003d36:	6921      	ldr	r1, [r4, #16]
 8003d38:	430b      	orrs	r3, r1
          hdma->Init.PeriphDataAlignment | hdma->Init.MemDataAlignment |
 8003d3a:	6961      	ldr	r1, [r4, #20]
 8003d3c:	430b      	orrs	r3, r1
 8003d3e:	69a1      	ldr	r1, [r4, #24]
 8003d40:	430b      	orrs	r3, r1
          hdma->Init.Mode                | hdma->Init.Priority;
 8003d42:	69e1      	ldr	r1, [r4, #28]
 8003d44:	430b      	orrs	r3, r1
  tmp |=  hdma->Init.Direction        |
 8003d46:	4313      	orrs	r3, r2

  /* Write to DMA Channel CR register */
  hdma->Instance->CCR = tmp;  
 8003d48:	6003      	str	r3, [r0, #0]
    hdma->DmaBaseAddress = DMA2;
  }
#else
  /* calculation of the channel index */
  /* DMA1 */
  hdma->ChannelIndex = (((uint32_t)hdma->Instance - (uint32_t)DMA1_Channel1) / ((uint32_t)DMA1_Channel2 - (uint32_t)DMA1_Channel1)) << 2U;
 8003d4a:	4b14      	ldr	r3, [pc, #80]	; (8003d9c <HAL_DMA_Init+0x13c>)
 8003d4c:	2114      	movs	r1, #20
 8003d4e:	18c0      	adds	r0, r0, r3
 8003d50:	f7fc f9e4 	bl	800011c <__udivsi3>
  hdma->DmaBaseAddress = DMA1;
 8003d54:	4b12      	ldr	r3, [pc, #72]	; (8003da0 <HAL_DMA_Init+0x140>)
  hdma->ChannelIndex = (((uint32_t)hdma->Instance - (uint32_t)DMA1_Channel1) / ((uint32_t)DMA1_Channel2 - (uint32_t)DMA1_Channel1)) << 2U;
 8003d56:	0080      	lsls	r0, r0, #2
 8003d58:	6420      	str	r0, [r4, #64]	; 0x40
  hdma->DmaBaseAddress = DMA1;
 8003d5a:	63e3      	str	r3, [r4, #60]	; 0x3c
  hdma->XferCpltCallback = NULL;
 8003d5c:	2000      	movs	r0, #0
  hdma->State = HAL_DMA_STATE_READY;
 8003d5e:	2301      	movs	r3, #1
  hdma->XferCpltCallback = NULL;
 8003d60:	62a0      	str	r0, [r4, #40]	; 0x28
  hdma->XferHalfCpltCallback = NULL;
 8003d62:	62e0      	str	r0, [r4, #44]	; 0x2c
  hdma->XferErrorCallback = NULL;
 8003d64:	6320      	str	r0, [r4, #48]	; 0x30
  hdma->XferAbortCallback = NULL;
 8003d66:	6360      	str	r0, [r4, #52]	; 0x34
  hdma->ErrorCode = HAL_DMA_ERROR_NONE;
 8003d68:	63a0      	str	r0, [r4, #56]	; 0x38
  hdma->Lock = HAL_UNLOCKED;
 8003d6a:	18e4      	adds	r4, r4, r3
  hdma->State = HAL_DMA_STATE_READY;
 8003d6c:	77eb      	strb	r3, [r5, #31]
  hdma->Lock = HAL_UNLOCKED;
 8003d6e:	77e0      	strb	r0, [r4, #31]
}  
 8003d70:	bd70      	pop	{r4, r5, r6, pc}
 8003d72:	46c0      	nop			; (mov r8, r8)
 8003d74:	40020008 	.word	0x40020008
 8003d78:	4002001c 	.word	0x4002001c
 8003d7c:	40020030 	.word	0x40020030
 8003d80:	40020044 	.word	0x40020044
 8003d84:	40020058 	.word	0x40020058
 8003d88:	080073f5 	.word	0x080073f5
 8003d8c:	fffffeff 	.word	0xfffffeff
 8003d90:	fffffbff 	.word	0xfffffbff
 8003d94:	ffffcfff 	.word	0xffffcfff
 8003d98:	ffffc00f 	.word	0xffffc00f
 8003d9c:	bffdfff8 	.word	0xbffdfff8
 8003da0:	40020000 	.word	0x40020000

08003da4 <HAL_DMA_Start_IT>:
{
 8003da4:	b5f8      	push	{r3, r4, r5, r6, r7, lr}
 8003da6:	0015      	movs	r5, r2
 8003da8:	001f      	movs	r7, r3
  assert_param(IS_DMA_BUFFER_SIZE(DataLength));
 8003daa:	1e5a      	subs	r2, r3, #1
 8003dac:	4b21      	ldr	r3, [pc, #132]	; (8003e34 <HAL_DMA_Start_IT+0x90>)
{
 8003dae:	0004      	movs	r4, r0
 8003db0:	000e      	movs	r6, r1
  assert_param(IS_DMA_BUFFER_SIZE(DataLength));
 8003db2:	429a      	cmp	r2, r3
 8003db4:	d904      	bls.n	8003dc0 <HAL_DMA_Start_IT+0x1c>
 8003db6:	21af      	movs	r1, #175	; 0xaf
 8003db8:	481f      	ldr	r0, [pc, #124]	; (8003e38 <HAL_DMA_Start_IT+0x94>)
 8003dba:	0049      	lsls	r1, r1, #1
 8003dbc:	f7fe fdd7 	bl	800296e <assert_failed>
  __HAL_LOCK(hdma);
 8003dc0:	1c63      	adds	r3, r4, #1
 8003dc2:	7fda      	ldrb	r2, [r3, #31]
 8003dc4:	2002      	movs	r0, #2
 8003dc6:	2a01      	cmp	r2, #1
 8003dc8:	d026      	beq.n	8003e18 <HAL_DMA_Start_IT+0x74>
 8003dca:	2201      	movs	r2, #1
 8003dcc:	77da      	strb	r2, [r3, #31]
  if(HAL_DMA_STATE_READY == hdma->State)
 8003dce:	1822      	adds	r2, r4, r0
 8003dd0:	4694      	mov	ip, r2
 8003dd2:	7fd2      	ldrb	r2, [r2, #31]
 8003dd4:	2100      	movs	r1, #0
 8003dd6:	b2d2      	uxtb	r2, r2
 8003dd8:	2a01      	cmp	r2, #1
 8003dda:	d128      	bne.n	8003e2e <HAL_DMA_Start_IT+0x8a>
  	hdma->State = HAL_DMA_STATE_BUSY;
 8003ddc:	4663      	mov	r3, ip
 8003dde:	77d8      	strb	r0, [r3, #31]
  	hdma->Instance->CCR &= ~DMA_CCR_EN;
 8003de0:	6823      	ldr	r3, [r4, #0]
  	hdma->ErrorCode = HAL_DMA_ERROR_NONE;
 8003de2:	63a1      	str	r1, [r4, #56]	; 0x38
  	hdma->Instance->CCR &= ~DMA_CCR_EN;
 8003de4:	6819      	ldr	r1, [r3, #0]
  hdma->DmaBaseAddress->IFCR  = (DMA_FLAG_GL1 << hdma->ChannelIndex);
 8003de6:	6c20      	ldr	r0, [r4, #64]	; 0x40
  	hdma->Instance->CCR &= ~DMA_CCR_EN;
 8003de8:	4391      	bics	r1, r2
  hdma->DmaBaseAddress->IFCR  = (DMA_FLAG_GL1 << hdma->ChannelIndex);
 8003dea:	4082      	lsls	r2, r0
  	hdma->Instance->CCR &= ~DMA_CCR_EN;
 8003dec:	6019      	str	r1, [r3, #0]
  hdma->DmaBaseAddress->IFCR  = (DMA_FLAG_GL1 << hdma->ChannelIndex);
 8003dee:	6be1      	ldr	r1, [r4, #60]	; 0x3c
 8003df0:	604a      	str	r2, [r1, #4]
  if((hdma->Init.Direction) == DMA_MEMORY_TO_PERIPH)
 8003df2:	6862      	ldr	r2, [r4, #4]
  hdma->Instance->CNDTR = DataLength;
 8003df4:	605f      	str	r7, [r3, #4]
 8003df6:	6821      	ldr	r1, [r4, #0]
  if((hdma->Init.Direction) == DMA_MEMORY_TO_PERIPH)
 8003df8:	2a10      	cmp	r2, #16
 8003dfa:	d10e      	bne.n	8003e1a <HAL_DMA_Start_IT+0x76>
    hdma->Instance->CPAR = DstAddress;
 8003dfc:	609d      	str	r5, [r3, #8]
    hdma->Instance->CMAR = SrcAddress;
 8003dfe:	60de      	str	r6, [r3, #12]
    if(NULL != hdma->XferHalfCpltCallback )
 8003e00:	6ae2      	ldr	r2, [r4, #44]	; 0x2c
      hdma->Instance->CCR |= (DMA_IT_TC | DMA_IT_HT | DMA_IT_TE);
 8003e02:	6818      	ldr	r0, [r3, #0]
    if(NULL != hdma->XferHalfCpltCallback )
 8003e04:	2a00      	cmp	r2, #0
 8003e06:	d00b      	beq.n	8003e20 <HAL_DMA_Start_IT+0x7c>
      hdma->Instance->CCR |= (DMA_IT_TC | DMA_IT_HT | DMA_IT_TE);
 8003e08:	220e      	movs	r2, #14
 8003e0a:	4302      	orrs	r2, r0
  		hdma->Instance->CCR &= ~DMA_IT_HT;
 8003e0c:	601a      	str	r2, [r3, #0]
  	hdma->Instance->CCR |= DMA_CCR_EN;
 8003e0e:	2301      	movs	r3, #1
	HAL_StatusTypeDef status = HAL_OK;
 8003e10:	2000      	movs	r0, #0
  	hdma->Instance->CCR |= DMA_CCR_EN;
 8003e12:	680a      	ldr	r2, [r1, #0]
 8003e14:	4313      	orrs	r3, r2
 8003e16:	600b      	str	r3, [r1, #0]
} 
 8003e18:	bdf8      	pop	{r3, r4, r5, r6, r7, pc}
    hdma->Instance->CPAR = SrcAddress;
 8003e1a:	609e      	str	r6, [r3, #8]
    hdma->Instance->CMAR = DstAddress;
 8003e1c:	60dd      	str	r5, [r3, #12]
 8003e1e:	e7ef      	b.n	8003e00 <HAL_DMA_Start_IT+0x5c>
  		hdma->Instance->CCR |= (DMA_IT_TC | DMA_IT_TE);
 8003e20:	220a      	movs	r2, #10
 8003e22:	4302      	orrs	r2, r0
  		hdma->Instance->CCR &= ~DMA_IT_HT;
 8003e24:	2004      	movs	r0, #4
  		hdma->Instance->CCR |= (DMA_IT_TC | DMA_IT_TE);
 8003e26:	601a      	str	r2, [r3, #0]
  		hdma->Instance->CCR &= ~DMA_IT_HT;
 8003e28:	681a      	ldr	r2, [r3, #0]
 8003e2a:	4382      	bics	r2, r0
 8003e2c:	e7ee      	b.n	8003e0c <HAL_DMA_Start_IT+0x68>
    __HAL_UNLOCK(hdma); 
 8003e2e:	77d9      	strb	r1, [r3, #31]
 8003e30:	e7f2      	b.n	8003e18 <HAL_DMA_Start_IT+0x74>
 8003e32:	46c0      	nop			; (mov r8, r8)
 8003e34:	0000fffe 	.word	0x0000fffe
 8003e38:	080073f5 	.word	0x080073f5

08003e3c <HAL_DMA_Abort_IT>:
{  
 8003e3c:	b570      	push	{r4, r5, r6, lr}
  if(HAL_DMA_STATE_BUSY != hdma->State)
 8003e3e:	1c84      	adds	r4, r0, #2
 8003e40:	7fe3      	ldrb	r3, [r4, #31]
 8003e42:	2b02      	cmp	r3, #2
 8003e44:	d004      	beq.n	8003e50 <HAL_DMA_Abort_IT+0x14>
    hdma->ErrorCode = HAL_DMA_ERROR_NO_XFER;
 8003e46:	2304      	movs	r3, #4
 8003e48:	6383      	str	r3, [r0, #56]	; 0x38
    status = HAL_ERROR;
 8003e4a:	3b03      	subs	r3, #3
}
 8003e4c:	0018      	movs	r0, r3
 8003e4e:	bd70      	pop	{r4, r5, r6, pc}
    hdma->Instance->CCR &= ~(DMA_IT_TC | DMA_IT_HT | DMA_IT_TE);
 8003e50:	210e      	movs	r1, #14
 8003e52:	6803      	ldr	r3, [r0, #0]
    hdma->DmaBaseAddress->IFCR = DMA_FLAG_GL1 << hdma->ChannelIndex;
 8003e54:	6c05      	ldr	r5, [r0, #64]	; 0x40
    hdma->Instance->CCR &= ~(DMA_IT_TC | DMA_IT_HT | DMA_IT_TE);
 8003e56:	681a      	ldr	r2, [r3, #0]
 8003e58:	438a      	bics	r2, r1
 8003e5a:	601a      	str	r2, [r3, #0]
    hdma->Instance->CCR &= ~DMA_CCR_EN;
 8003e5c:	2201      	movs	r2, #1
 8003e5e:	6819      	ldr	r1, [r3, #0]
 8003e60:	4391      	bics	r1, r2
 8003e62:	6019      	str	r1, [r3, #0]
    hdma->DmaBaseAddress->IFCR = DMA_FLAG_GL1 << hdma->ChannelIndex;
 8003e64:	0011      	movs	r1, r2
 8003e66:	40a9      	lsls	r1, r5
 8003e68:	6bc3      	ldr	r3, [r0, #60]	; 0x3c
 8003e6a:	6059      	str	r1, [r3, #4]
    hdma->State = HAL_DMA_STATE_READY;
 8003e6c:	77e2      	strb	r2, [r4, #31]
    __HAL_UNLOCK(hdma);
 8003e6e:	2400      	movs	r4, #0
 8003e70:	1883      	adds	r3, r0, r2
    if(hdma->XferAbortCallback != NULL)
 8003e72:	6b42      	ldr	r2, [r0, #52]	; 0x34
    __HAL_UNLOCK(hdma);
 8003e74:	77dc      	strb	r4, [r3, #31]
  HAL_StatusTypeDef status = HAL_OK;
 8003e76:	0013      	movs	r3, r2
    if(hdma->XferAbortCallback != NULL)
 8003e78:	42a2      	cmp	r2, r4
 8003e7a:	d0e7      	beq.n	8003e4c <HAL_DMA_Abort_IT+0x10>
      hdma->XferAbortCallback(hdma);
 8003e7c:	4790      	blx	r2
  HAL_StatusTypeDef status = HAL_OK;
 8003e7e:	0023      	movs	r3, r4
 8003e80:	e7e4      	b.n	8003e4c <HAL_DMA_Abort_IT+0x10>

08003e82 <HAL_DMA_IRQHandler>:
{
 8003e82:	b5f8      	push	{r3, r4, r5, r6, r7, lr}
  if ((RESET != (flag_it & (DMA_FLAG_HT1 << hdma->ChannelIndex))) && (RESET != (source_it & DMA_IT_HT)))
 8003e84:	2704      	movs	r7, #4
 8003e86:	003e      	movs	r6, r7
 8003e88:	6c01      	ldr	r1, [r0, #64]	; 0x40
	uint32_t flag_it = hdma->DmaBaseAddress->ISR;
 8003e8a:	6bc2      	ldr	r2, [r0, #60]	; 0x3c
  if ((RESET != (flag_it & (DMA_FLAG_HT1 << hdma->ChannelIndex))) && (RESET != (source_it & DMA_IT_HT)))
 8003e8c:	408e      	lsls	r6, r1
	uint32_t flag_it = hdma->DmaBaseAddress->ISR;
 8003e8e:	6815      	ldr	r5, [r2, #0]
  uint32_t source_it = hdma->Instance->CCR;
 8003e90:	6803      	ldr	r3, [r0, #0]
 8003e92:	681c      	ldr	r4, [r3, #0]
  if ((RESET != (flag_it & (DMA_FLAG_HT1 << hdma->ChannelIndex))) && (RESET != (source_it & DMA_IT_HT)))
 8003e94:	422e      	tst	r6, r5
 8003e96:	d00d      	beq.n	8003eb4 <HAL_DMA_IRQHandler+0x32>
 8003e98:	423c      	tst	r4, r7
 8003e9a:	d00b      	beq.n	8003eb4 <HAL_DMA_IRQHandler+0x32>
  	if((hdma->Instance->CCR & DMA_CCR_CIRC) == 0U)
 8003e9c:	6819      	ldr	r1, [r3, #0]
 8003e9e:	0689      	lsls	r1, r1, #26
 8003ea0:	d402      	bmi.n	8003ea8 <HAL_DMA_IRQHandler+0x26>
  		hdma->Instance->CCR &= ~DMA_IT_HT;
 8003ea2:	6819      	ldr	r1, [r3, #0]
 8003ea4:	43b9      	bics	r1, r7
 8003ea6:	6019      	str	r1, [r3, #0]
  	if(hdma->XferHalfCpltCallback != NULL)
 8003ea8:	6ac3      	ldr	r3, [r0, #44]	; 0x2c
  	hdma->DmaBaseAddress->IFCR = DMA_FLAG_HT1 << hdma->ChannelIndex;
 8003eaa:	6056      	str	r6, [r2, #4]
  	if(hdma->XferHalfCpltCallback != NULL)
 8003eac:	2b00      	cmp	r3, #0
 8003eae:	d019      	beq.n	8003ee4 <HAL_DMA_IRQHandler+0x62>
    	hdma->XferErrorCallback(hdma);
 8003eb0:	4798      	blx	r3
}  
 8003eb2:	e017      	b.n	8003ee4 <HAL_DMA_IRQHandler+0x62>
  else if ((RESET != (flag_it & (DMA_FLAG_TC1 << hdma->ChannelIndex))) && (RESET != (source_it & DMA_IT_TC)))
 8003eb4:	2702      	movs	r7, #2
 8003eb6:	003e      	movs	r6, r7
 8003eb8:	408e      	lsls	r6, r1
 8003eba:	422e      	tst	r6, r5
 8003ebc:	d013      	beq.n	8003ee6 <HAL_DMA_IRQHandler+0x64>
 8003ebe:	423c      	tst	r4, r7
 8003ec0:	d011      	beq.n	8003ee6 <HAL_DMA_IRQHandler+0x64>
  	if((hdma->Instance->CCR & DMA_CCR_CIRC) == 0U)
 8003ec2:	6819      	ldr	r1, [r3, #0]
 8003ec4:	0689      	lsls	r1, r1, #26
 8003ec6:	d406      	bmi.n	8003ed6 <HAL_DMA_IRQHandler+0x54>
  		hdma->Instance->CCR &= ~(DMA_IT_TC | DMA_IT_TE);
 8003ec8:	240a      	movs	r4, #10
 8003eca:	6819      	ldr	r1, [r3, #0]
 8003ecc:	43a1      	bics	r1, r4
 8003ece:	6019      	str	r1, [r3, #0]
  		hdma->State = HAL_DMA_STATE_READY;
 8003ed0:	2101      	movs	r1, #1
 8003ed2:	19c3      	adds	r3, r0, r7
 8003ed4:	77d9      	strb	r1, [r3, #31]
  	hdma->DmaBaseAddress->IFCR = DMA_FLAG_TC1 << hdma->ChannelIndex;
 8003ed6:	6056      	str	r6, [r2, #4]
  	__HAL_UNLOCK(hdma);
 8003ed8:	2200      	movs	r2, #0
 8003eda:	1c43      	adds	r3, r0, #1
 8003edc:	77da      	strb	r2, [r3, #31]
  	if(hdma->XferCpltCallback != NULL)
 8003ede:	6a83      	ldr	r3, [r0, #40]	; 0x28
    if(hdma->XferErrorCallback != NULL)
 8003ee0:	4293      	cmp	r3, r2
 8003ee2:	d1e5      	bne.n	8003eb0 <HAL_DMA_IRQHandler+0x2e>
}  
 8003ee4:	bdf8      	pop	{r3, r4, r5, r6, r7, pc}
  else if (( RESET != (flag_it & (DMA_FLAG_TE1 << hdma->ChannelIndex))) && (RESET != (source_it & DMA_IT_TE)))
 8003ee6:	2608      	movs	r6, #8
 8003ee8:	0037      	movs	r7, r6
 8003eea:	408f      	lsls	r7, r1
 8003eec:	423d      	tst	r5, r7
 8003eee:	d0f9      	beq.n	8003ee4 <HAL_DMA_IRQHandler+0x62>
 8003ef0:	4234      	tst	r4, r6
 8003ef2:	d0f7      	beq.n	8003ee4 <HAL_DMA_IRQHandler+0x62>
    hdma->Instance->CCR &= ~(DMA_IT_TC | DMA_IT_HT | DMA_IT_TE);
 8003ef4:	250e      	movs	r5, #14
 8003ef6:	681c      	ldr	r4, [r3, #0]
 8003ef8:	43ac      	bics	r4, r5
 8003efa:	601c      	str	r4, [r3, #0]
    hdma->DmaBaseAddress->IFCR = DMA_FLAG_GL1 << hdma->ChannelIndex;
 8003efc:	2301      	movs	r3, #1
 8003efe:	001c      	movs	r4, r3
 8003f00:	408c      	lsls	r4, r1
 8003f02:	6054      	str	r4, [r2, #4]
    hdma->State = HAL_DMA_STATE_READY;    
 8003f04:	1c82      	adds	r2, r0, #2
    hdma->ErrorCode = HAL_DMA_ERROR_TE;
 8003f06:	6383      	str	r3, [r0, #56]	; 0x38
    hdma->State = HAL_DMA_STATE_READY;    
 8003f08:	77d3      	strb	r3, [r2, #31]
    __HAL_UNLOCK(hdma); 
 8003f0a:	2200      	movs	r2, #0
 8003f0c:	18c3      	adds	r3, r0, r3
 8003f0e:	77da      	strb	r2, [r3, #31]
    if(hdma->XferErrorCallback != NULL)
 8003f10:	6b03      	ldr	r3, [r0, #48]	; 0x30
 8003f12:	e7e5      	b.n	8003ee0 <HAL_DMA_IRQHandler+0x5e>

08003f14 <FLASH_SetErrorCode>:
  */
static void FLASH_SetErrorCode(void)
{
  uint32_t flags = 0U;
  
  if(__HAL_FLASH_GET_FLAG(FLASH_FLAG_WRPERR))
 8003f14:	2110      	movs	r1, #16
 8003f16:	4b0c      	ldr	r3, [pc, #48]	; (8003f48 <FLASH_SetErrorCode+0x34>)
{
 8003f18:	b530      	push	{r4, r5, lr}
  if(__HAL_FLASH_GET_FLAG(FLASH_FLAG_WRPERR))
 8003f1a:	68d8      	ldr	r0, [r3, #12]
  uint32_t flags = 0U;
 8003f1c:	2200      	movs	r2, #0
  if(__HAL_FLASH_GET_FLAG(FLASH_FLAG_WRPERR))
 8003f1e:	4208      	tst	r0, r1
 8003f20:	d005      	beq.n	8003f2e <FLASH_SetErrorCode+0x1a>
  {
    pFlash.ErrorCode |= HAL_FLASH_ERROR_WRP;
 8003f22:	480a      	ldr	r0, [pc, #40]	; (8003f4c <FLASH_SetErrorCode+0x38>)
 8003f24:	3202      	adds	r2, #2
 8003f26:	69c4      	ldr	r4, [r0, #28]
 8003f28:	4322      	orrs	r2, r4
 8003f2a:	61c2      	str	r2, [r0, #28]
    flags |= FLASH_FLAG_WRPERR;
 8003f2c:	000a      	movs	r2, r1
  }
  if(__HAL_FLASH_GET_FLAG(FLASH_FLAG_PGERR))
 8003f2e:	2004      	movs	r0, #4
 8003f30:	68d9      	ldr	r1, [r3, #12]
 8003f32:	4201      	tst	r1, r0
 8003f34:	d005      	beq.n	8003f42 <FLASH_SetErrorCode+0x2e>
  {
    pFlash.ErrorCode |= HAL_FLASH_ERROR_PROG;
 8003f36:	2101      	movs	r1, #1
 8003f38:	4c04      	ldr	r4, [pc, #16]	; (8003f4c <FLASH_SetErrorCode+0x38>)
    flags |= FLASH_FLAG_PGERR;
 8003f3a:	4302      	orrs	r2, r0
    pFlash.ErrorCode |= HAL_FLASH_ERROR_PROG;
 8003f3c:	69e5      	ldr	r5, [r4, #28]
 8003f3e:	4329      	orrs	r1, r5
 8003f40:	61e1      	str	r1, [r4, #28]
  }
  /* Clear FLASH error pending bits */
  __HAL_FLASH_CLEAR_FLAG(flags);
 8003f42:	60da      	str	r2, [r3, #12]
}  
 8003f44:	bd30      	pop	{r4, r5, pc}
 8003f46:	46c0      	nop			; (mov r8, r8)
 8003f48:	40022000 	.word	0x40022000
 8003f4c:	200007b8 	.word	0x200007b8

08003f50 <HAL_FLASH_EndOfOperationCallback>:
 8003f50:	4770      	bx	lr

08003f52 <HAL_FLASH_OperationErrorCallback>:
}
 8003f52:	4770      	bx	lr

08003f54 <HAL_FLASH_IRQHandler>:
{
 8003f54:	b5f8      	push	{r3, r4, r5, r6, r7, lr}
  if(__HAL_FLASH_GET_FLAG(FLASH_FLAG_WRPERR) ||__HAL_FLASH_GET_FLAG(FLASH_FLAG_PGERR))
 8003f56:	4d43      	ldr	r5, [pc, #268]	; (8004064 <HAL_FLASH_IRQHandler+0x110>)
 8003f58:	4c43      	ldr	r4, [pc, #268]	; (8004068 <HAL_FLASH_IRQHandler+0x114>)
 8003f5a:	68eb      	ldr	r3, [r5, #12]
 8003f5c:	06db      	lsls	r3, r3, #27
 8003f5e:	d402      	bmi.n	8003f66 <HAL_FLASH_IRQHandler+0x12>
 8003f60:	68eb      	ldr	r3, [r5, #12]
 8003f62:	075b      	lsls	r3, r3, #29
 8003f64:	d50a      	bpl.n	8003f7c <HAL_FLASH_IRQHandler+0x28>
    pFlash.Address = 0xFFFFFFFFU;
 8003f66:	2301      	movs	r3, #1
    addresstmp = pFlash.Address;
 8003f68:	68a6      	ldr	r6, [r4, #8]
    pFlash.Address = 0xFFFFFFFFU;
 8003f6a:	425b      	negs	r3, r3
 8003f6c:	60a3      	str	r3, [r4, #8]
    FLASH_SetErrorCode();
 8003f6e:	f7ff ffd1 	bl	8003f14 <FLASH_SetErrorCode>
    HAL_FLASH_OperationErrorCallback(addresstmp);
 8003f72:	0030      	movs	r0, r6
 8003f74:	f7ff ffed 	bl	8003f52 <HAL_FLASH_OperationErrorCallback>
    pFlash.ProcedureOnGoing = FLASH_PROC_NONE;
 8003f78:	2300      	movs	r3, #0
 8003f7a:	7023      	strb	r3, [r4, #0]
  if(__HAL_FLASH_GET_FLAG(FLASH_FLAG_EOP))
 8003f7c:	2320      	movs	r3, #32
 8003f7e:	68ea      	ldr	r2, [r5, #12]
 8003f80:	421a      	tst	r2, r3
 8003f82:	d01a      	beq.n	8003fba <HAL_FLASH_IRQHandler+0x66>
    __HAL_FLASH_CLEAR_FLAG(FLASH_FLAG_EOP);
 8003f84:	60eb      	str	r3, [r5, #12]
    if(pFlash.ProcedureOnGoing != FLASH_PROC_NONE)
 8003f86:	7823      	ldrb	r3, [r4, #0]
 8003f88:	2b00      	cmp	r3, #0
 8003f8a:	d016      	beq.n	8003fba <HAL_FLASH_IRQHandler+0x66>
      if(pFlash.ProcedureOnGoing == FLASH_PROC_PAGEERASE)
 8003f8c:	7823      	ldrb	r3, [r4, #0]
 8003f8e:	2b01      	cmp	r3, #1
 8003f90:	d128      	bne.n	8003fe4 <HAL_FLASH_IRQHandler+0x90>
        pFlash.DataRemaining--;
 8003f92:	6863      	ldr	r3, [r4, #4]
 8003f94:	3b01      	subs	r3, #1
 8003f96:	6063      	str	r3, [r4, #4]
        if(pFlash.DataRemaining != 0U)
 8003f98:	6863      	ldr	r3, [r4, #4]
 8003f9a:	2b00      	cmp	r3, #0
 8003f9c:	d01b      	beq.n	8003fd6 <HAL_FLASH_IRQHandler+0x82>
          addresstmp = pFlash.Address;
 8003f9e:	68a0      	ldr	r0, [r4, #8]
          HAL_FLASH_EndOfOperationCallback(addresstmp);
 8003fa0:	f7ff ffd6 	bl	8003f50 <HAL_FLASH_EndOfOperationCallback>
          addresstmp = pFlash.Address + FLASH_PAGE_SIZE;
 8003fa4:	2380      	movs	r3, #128	; 0x80
          CLEAR_BIT(FLASH->CR, FLASH_CR_PER);
 8003fa6:	2202      	movs	r2, #2
          addresstmp = pFlash.Address + FLASH_PAGE_SIZE;
 8003fa8:	68a0      	ldr	r0, [r4, #8]
 8003faa:	00db      	lsls	r3, r3, #3
 8003fac:	18c0      	adds	r0, r0, r3
          pFlash.Address = addresstmp;
 8003fae:	60a0      	str	r0, [r4, #8]
          CLEAR_BIT(FLASH->CR, FLASH_CR_PER);
 8003fb0:	692b      	ldr	r3, [r5, #16]
 8003fb2:	4393      	bics	r3, r2
 8003fb4:	612b      	str	r3, [r5, #16]
          FLASH_PageErase(addresstmp);
 8003fb6:	f000 f90b 	bl	80041d0 <FLASH_PageErase>
  if(pFlash.ProcedureOnGoing == FLASH_PROC_NONE)
 8003fba:	7823      	ldrb	r3, [r4, #0]
 8003fbc:	b2db      	uxtb	r3, r3
 8003fbe:	2b00      	cmp	r3, #0
 8003fc0:	d108      	bne.n	8003fd4 <HAL_FLASH_IRQHandler+0x80>
    CLEAR_BIT(FLASH->CR, (FLASH_CR_PG | FLASH_CR_PER | FLASH_CR_MER));
 8003fc2:	2107      	movs	r1, #7
 8003fc4:	692a      	ldr	r2, [r5, #16]
 8003fc6:	438a      	bics	r2, r1
 8003fc8:	612a      	str	r2, [r5, #16]
    __HAL_FLASH_DISABLE_IT(FLASH_IT_EOP | FLASH_IT_ERR);
 8003fca:	692a      	ldr	r2, [r5, #16]
 8003fcc:	4927      	ldr	r1, [pc, #156]	; (800406c <HAL_FLASH_IRQHandler+0x118>)
 8003fce:	400a      	ands	r2, r1
 8003fd0:	612a      	str	r2, [r5, #16]
    __HAL_UNLOCK(&pFlash);
 8003fd2:	7623      	strb	r3, [r4, #24]
}
 8003fd4:	bdf8      	pop	{r3, r4, r5, r6, r7, pc}
          pFlash.Address = addresstmp = 0xFFFFFFFFU;
 8003fd6:	2001      	movs	r0, #1
 8003fd8:	4240      	negs	r0, r0
 8003fda:	60a0      	str	r0, [r4, #8]
          pFlash.ProcedureOnGoing = FLASH_PROC_NONE;
 8003fdc:	7023      	strb	r3, [r4, #0]
          HAL_FLASH_EndOfOperationCallback(addresstmp);
 8003fde:	f7ff ffb7 	bl	8003f50 <HAL_FLASH_EndOfOperationCallback>
 8003fe2:	e7ea      	b.n	8003fba <HAL_FLASH_IRQHandler+0x66>
      else if(pFlash.ProcedureOnGoing == FLASH_PROC_MASSERASE)
 8003fe4:	7823      	ldrb	r3, [r4, #0]
 8003fe6:	2b02      	cmp	r3, #2
 8003fe8:	d109      	bne.n	8003ffe <HAL_FLASH_IRQHandler+0xaa>
        CLEAR_BIT(FLASH->CR, FLASH_CR_MER);
 8003fea:	2204      	movs	r2, #4
 8003fec:	692b      	ldr	r3, [r5, #16]
          HAL_FLASH_EndOfOperationCallback(0);
 8003fee:	2000      	movs	r0, #0
        CLEAR_BIT(FLASH->CR, FLASH_CR_MER);
 8003ff0:	4393      	bics	r3, r2
 8003ff2:	612b      	str	r3, [r5, #16]
          HAL_FLASH_EndOfOperationCallback(0);
 8003ff4:	f7ff ffac 	bl	8003f50 <HAL_FLASH_EndOfOperationCallback>
          pFlash.ProcedureOnGoing = FLASH_PROC_NONE;
 8003ff8:	2300      	movs	r3, #0
 8003ffa:	7023      	strb	r3, [r4, #0]
 8003ffc:	e7dd      	b.n	8003fba <HAL_FLASH_IRQHandler+0x66>
        pFlash.DataRemaining--;
 8003ffe:	6863      	ldr	r3, [r4, #4]
 8004000:	3b01      	subs	r3, #1
 8004002:	6063      	str	r3, [r4, #4]
        if(pFlash.DataRemaining != 0U)
 8004004:	6863      	ldr	r3, [r4, #4]
 8004006:	2b00      	cmp	r3, #0
 8004008:	d019      	beq.n	800403e <HAL_FLASH_IRQHandler+0xea>
          pFlash.Address += 2;
 800400a:	68a3      	ldr	r3, [r4, #8]
 800400c:	3302      	adds	r3, #2
 800400e:	60a3      	str	r3, [r4, #8]
          addresstmp = pFlash.Address;
 8004010:	68a6      	ldr	r6, [r4, #8]
          pFlash.Data = (pFlash.Data >> 16U);
 8004012:	6920      	ldr	r0, [r4, #16]
 8004014:	6961      	ldr	r1, [r4, #20]
 8004016:	0c0b      	lsrs	r3, r1, #16
 8004018:	040f      	lsls	r7, r1, #16
          CLEAR_BIT(FLASH->CR, FLASH_CR_PG);
 800401a:	2101      	movs	r1, #1
          pFlash.Data = (pFlash.Data >> 16U);
 800401c:	0c02      	lsrs	r2, r0, #16
 800401e:	433a      	orrs	r2, r7
 8004020:	6122      	str	r2, [r4, #16]
 8004022:	6163      	str	r3, [r4, #20]
          CLEAR_BIT(FLASH->CR, FLASH_CR_PG);
 8004024:	692b      	ldr	r3, [r5, #16]
 8004026:	438b      	bics	r3, r1
 8004028:	612b      	str	r3, [r5, #16]
          FLASH_Program_HalfWord(addresstmp, (uint16_t)pFlash.Data);
 800402a:	6922      	ldr	r2, [r4, #16]
 800402c:	6963      	ldr	r3, [r4, #20]
  pFlash.ErrorCode = HAL_FLASH_ERROR_NONE;
 800402e:	2300      	movs	r3, #0
 8004030:	61e3      	str	r3, [r4, #28]
    SET_BIT(FLASH->CR, FLASH_CR_PG);
 8004032:	692b      	ldr	r3, [r5, #16]
          FLASH_Program_HalfWord(addresstmp, (uint16_t)pFlash.Data);
 8004034:	b292      	uxth	r2, r2
    SET_BIT(FLASH->CR, FLASH_CR_PG);
 8004036:	4319      	orrs	r1, r3
 8004038:	6129      	str	r1, [r5, #16]
  *(__IO uint16_t*)Address = Data;
 800403a:	8032      	strh	r2, [r6, #0]
 800403c:	e7bd      	b.n	8003fba <HAL_FLASH_IRQHandler+0x66>
          if (pFlash.ProcedureOnGoing == FLASH_PROC_PROGRAMHALFWORD)
 800403e:	7823      	ldrb	r3, [r4, #0]
 8004040:	2b03      	cmp	r3, #3
 8004042:	d106      	bne.n	8004052 <HAL_FLASH_IRQHandler+0xfe>
            HAL_FLASH_EndOfOperationCallback(pFlash.Address);
 8004044:	68a0      	ldr	r0, [r4, #8]
            HAL_FLASH_EndOfOperationCallback(pFlash.Address - 6U);
 8004046:	f7ff ff83 	bl	8003f50 <HAL_FLASH_EndOfOperationCallback>
          pFlash.Address = 0xFFFFFFFFU;
 800404a:	2301      	movs	r3, #1
 800404c:	425b      	negs	r3, r3
 800404e:	60a3      	str	r3, [r4, #8]
 8004050:	e7d2      	b.n	8003ff8 <HAL_FLASH_IRQHandler+0xa4>
          else if (pFlash.ProcedureOnGoing == FLASH_PROC_PROGRAMWORD)
 8004052:	7823      	ldrb	r3, [r4, #0]
            HAL_FLASH_EndOfOperationCallback(pFlash.Address - 2U);
 8004054:	68a0      	ldr	r0, [r4, #8]
          else if (pFlash.ProcedureOnGoing == FLASH_PROC_PROGRAMWORD)
 8004056:	2b04      	cmp	r3, #4
 8004058:	d101      	bne.n	800405e <HAL_FLASH_IRQHandler+0x10a>
            HAL_FLASH_EndOfOperationCallback(pFlash.Address - 2U);
 800405a:	3802      	subs	r0, #2
 800405c:	e7f3      	b.n	8004046 <HAL_FLASH_IRQHandler+0xf2>
            HAL_FLASH_EndOfOperationCallback(pFlash.Address - 6U);
 800405e:	3806      	subs	r0, #6
 8004060:	e7f1      	b.n	8004046 <HAL_FLASH_IRQHandler+0xf2>
 8004062:	46c0      	nop			; (mov r8, r8)
 8004064:	40022000 	.word	0x40022000
 8004068:	200007b8 	.word	0x200007b8
 800406c:	ffffebff 	.word	0xffffebff

08004070 <HAL_FLASH_Unlock>:
  if (HAL_IS_BIT_SET(FLASH->CR, FLASH_CR_LOCK))
 8004070:	4b05      	ldr	r3, [pc, #20]	; (8004088 <HAL_FLASH_Unlock+0x18>)
    return HAL_ERROR;
 8004072:	2001      	movs	r0, #1
  if (HAL_IS_BIT_SET(FLASH->CR, FLASH_CR_LOCK))
 8004074:	691a      	ldr	r2, [r3, #16]
 8004076:	0612      	lsls	r2, r2, #24
 8004078:	d504      	bpl.n	8004084 <HAL_FLASH_Unlock+0x14>
  return HAL_OK; 
 800407a:	2000      	movs	r0, #0
    WRITE_REG(FLASH->KEYR, FLASH_KEY1);
 800407c:	4a03      	ldr	r2, [pc, #12]	; (800408c <HAL_FLASH_Unlock+0x1c>)
 800407e:	605a      	str	r2, [r3, #4]
    WRITE_REG(FLASH->KEYR, FLASH_KEY2);
 8004080:	4a03      	ldr	r2, [pc, #12]	; (8004090 <HAL_FLASH_Unlock+0x20>)
 8004082:	605a      	str	r2, [r3, #4]
}
 8004084:	4770      	bx	lr
 8004086:	46c0      	nop			; (mov r8, r8)
 8004088:	40022000 	.word	0x40022000
 800408c:	45670123 	.word	0x45670123
 8004090:	cdef89ab 	.word	0xcdef89ab

08004094 <HAL_FLASH_Lock>:
  SET_BIT(FLASH->CR, FLASH_CR_LOCK);
 8004094:	2380      	movs	r3, #128	; 0x80
 8004096:	4a03      	ldr	r2, [pc, #12]	; (80040a4 <HAL_FLASH_Lock+0x10>)
}
 8004098:	2000      	movs	r0, #0
  SET_BIT(FLASH->CR, FLASH_CR_LOCK);
 800409a:	6911      	ldr	r1, [r2, #16]
 800409c:	430b      	orrs	r3, r1
 800409e:	6113      	str	r3, [r2, #16]
}
 80040a0:	4770      	bx	lr
 80040a2:	46c0      	nop			; (mov r8, r8)
 80040a4:	40022000 	.word	0x40022000

080040a8 <FLASH_WaitForLastOperation>:
{
 80040a8:	b570      	push	{r4, r5, r6, lr}
 80040aa:	0004      	movs	r4, r0
  uint32_t tickstart = HAL_GetTick();
 80040ac:	f7ff f99a 	bl	80033e4 <HAL_GetTick>
  while(__HAL_FLASH_GET_FLAG(FLASH_FLAG_BSY)) 
 80040b0:	2501      	movs	r5, #1
  uint32_t tickstart = HAL_GetTick();
 80040b2:	0006      	movs	r6, r0
  while(__HAL_FLASH_GET_FLAG(FLASH_FLAG_BSY)) 
 80040b4:	4b10      	ldr	r3, [pc, #64]	; (80040f8 <FLASH_WaitForLastOperation+0x50>)
 80040b6:	001a      	movs	r2, r3
 80040b8:	68d9      	ldr	r1, [r3, #12]
 80040ba:	4229      	tst	r1, r5
 80040bc:	d10f      	bne.n	80040de <FLASH_WaitForLastOperation+0x36>
  if (__HAL_FLASH_GET_FLAG(FLASH_FLAG_EOP))
 80040be:	2120      	movs	r1, #32
 80040c0:	68d8      	ldr	r0, [r3, #12]
 80040c2:	4208      	tst	r0, r1
 80040c4:	d000      	beq.n	80040c8 <FLASH_WaitForLastOperation+0x20>
    __HAL_FLASH_CLEAR_FLAG(FLASH_FLAG_EOP);
 80040c6:	60d9      	str	r1, [r3, #12]
  if(__HAL_FLASH_GET_FLAG(FLASH_FLAG_WRPERR)  || 
 80040c8:	2310      	movs	r3, #16
 80040ca:	68d0      	ldr	r0, [r2, #12]
 80040cc:	4018      	ands	r0, r3
 80040ce:	d102      	bne.n	80040d6 <FLASH_WaitForLastOperation+0x2e>
     __HAL_FLASH_GET_FLAG(FLASH_FLAG_PGERR))
 80040d0:	68d3      	ldr	r3, [r2, #12]
  if(__HAL_FLASH_GET_FLAG(FLASH_FLAG_WRPERR)  || 
 80040d2:	075b      	lsls	r3, r3, #29
 80040d4:	d508      	bpl.n	80040e8 <FLASH_WaitForLastOperation+0x40>
    FLASH_SetErrorCode();
 80040d6:	f7ff ff1d 	bl	8003f14 <FLASH_SetErrorCode>
    return HAL_ERROR;
 80040da:	2001      	movs	r0, #1
 80040dc:	e004      	b.n	80040e8 <FLASH_WaitForLastOperation+0x40>
    if (Timeout != HAL_MAX_DELAY)
 80040de:	1c61      	adds	r1, r4, #1
 80040e0:	d0ea      	beq.n	80040b8 <FLASH_WaitForLastOperation+0x10>
      if((Timeout == 0U) || ((HAL_GetTick()-tickstart) > Timeout))
 80040e2:	2c00      	cmp	r4, #0
 80040e4:	d101      	bne.n	80040ea <FLASH_WaitForLastOperation+0x42>
        return HAL_TIMEOUT;
 80040e6:	2003      	movs	r0, #3
}
 80040e8:	bd70      	pop	{r4, r5, r6, pc}
      if((Timeout == 0U) || ((HAL_GetTick()-tickstart) > Timeout))
 80040ea:	f7ff f97b 	bl	80033e4 <HAL_GetTick>
 80040ee:	1b80      	subs	r0, r0, r6
 80040f0:	4284      	cmp	r4, r0
 80040f2:	d2df      	bcs.n	80040b4 <FLASH_WaitForLastOperation+0xc>
 80040f4:	e7f7      	b.n	80040e6 <FLASH_WaitForLastOperation+0x3e>
 80040f6:	46c0      	nop			; (mov r8, r8)
 80040f8:	40022000 	.word	0x40022000

080040fc <HAL_FLASH_Program>:
{
 80040fc:	b5f0      	push	{r4, r5, r6, r7, lr}
 80040fe:	b085      	sub	sp, #20
 8004100:	9202      	str	r2, [sp, #8]
 8004102:	9303      	str	r3, [sp, #12]
  __HAL_LOCK(&pFlash);
 8004104:	4b24      	ldr	r3, [pc, #144]	; (8004198 <HAL_FLASH_Program+0x9c>)
{
 8004106:	9101      	str	r1, [sp, #4]
  __HAL_LOCK(&pFlash);
 8004108:	7e1a      	ldrb	r2, [r3, #24]
{
 800410a:	0004      	movs	r4, r0
  __HAL_LOCK(&pFlash);
 800410c:	2002      	movs	r0, #2
 800410e:	2a01      	cmp	r2, #1
 8004110:	d040      	beq.n	8004194 <HAL_FLASH_Program+0x98>
 8004112:	2201      	movs	r2, #1
 8004114:	761a      	strb	r2, [r3, #24]
  assert_param(IS_FLASH_TYPEPROGRAM(TypeProgram));
 8004116:	1e63      	subs	r3, r4, #1
 8004118:	4283      	cmp	r3, r0
 800411a:	d903      	bls.n	8004124 <HAL_FLASH_Program+0x28>
 800411c:	21c1      	movs	r1, #193	; 0xc1
 800411e:	481f      	ldr	r0, [pc, #124]	; (800419c <HAL_FLASH_Program+0xa0>)
 8004120:	f7fe fc25 	bl	800296e <assert_failed>
  assert_param(IS_FLASH_PROGRAM_ADDRESS(Address));
 8004124:	21f8      	movs	r1, #248	; 0xf8
 8004126:	9b01      	ldr	r3, [sp, #4]
 8004128:	0609      	lsls	r1, r1, #24
 800412a:	4a1d      	ldr	r2, [pc, #116]	; (80041a0 <HAL_FLASH_Program+0xa4>)
 800412c:	185b      	adds	r3, r3, r1
 800412e:	4293      	cmp	r3, r2
 8004130:	d903      	bls.n	800413a <HAL_FLASH_Program+0x3e>
 8004132:	21c2      	movs	r1, #194	; 0xc2
 8004134:	4819      	ldr	r0, [pc, #100]	; (800419c <HAL_FLASH_Program+0xa0>)
 8004136:	f7fe fc1a 	bl	800296e <assert_failed>
    status = FLASH_WaitForLastOperation(FLASH_TIMEOUT_VALUE);
 800413a:	481a      	ldr	r0, [pc, #104]	; (80041a4 <HAL_FLASH_Program+0xa8>)
 800413c:	f7ff ffb4 	bl	80040a8 <FLASH_WaitForLastOperation>
  if(status == HAL_OK)
 8004140:	2800      	cmp	r0, #0
 8004142:	d124      	bne.n	800418e <HAL_FLASH_Program+0x92>
      nbiterations = 1U;
 8004144:	0026      	movs	r6, r4
    if(TypeProgram == FLASH_TYPEPROGRAM_HALFWORD)
 8004146:	2c01      	cmp	r4, #1
 8004148:	d002      	beq.n	8004150 <HAL_FLASH_Program+0x54>
    else if(TypeProgram == FLASH_TYPEPROGRAM_WORD)
 800414a:	2c02      	cmp	r4, #2
 800414c:	d000      	beq.n	8004150 <HAL_FLASH_Program+0x54>
      nbiterations = 4U;
 800414e:	2604      	movs	r6, #4
 8004150:	2400      	movs	r4, #0
      FLASH_Program_HalfWord((Address + (2U*index)), (uint16_t)(Data >> (16U*index)));
 8004152:	9802      	ldr	r0, [sp, #8]
 8004154:	9903      	ldr	r1, [sp, #12]
 8004156:	0122      	lsls	r2, r4, #4
 8004158:	f7fc f86c 	bl	8000234 <__aeabi_llsr>
  pFlash.ErrorCode = HAL_FLASH_ERROR_NONE;
 800415c:	2200      	movs	r2, #0
    SET_BIT(FLASH->CR, FLASH_CR_PG);
 800415e:	2701      	movs	r7, #1
  pFlash.ErrorCode = HAL_FLASH_ERROR_NONE;
 8004160:	4b0d      	ldr	r3, [pc, #52]	; (8004198 <HAL_FLASH_Program+0x9c>)
    SET_BIT(FLASH->CR, FLASH_CR_PG);
 8004162:	4d11      	ldr	r5, [pc, #68]	; (80041a8 <HAL_FLASH_Program+0xac>)
  pFlash.ErrorCode = HAL_FLASH_ERROR_NONE;
 8004164:	61da      	str	r2, [r3, #28]
    SET_BIT(FLASH->CR, FLASH_CR_PG);
 8004166:	692b      	ldr	r3, [r5, #16]
 8004168:	9a01      	ldr	r2, [sp, #4]
 800416a:	433b      	orrs	r3, r7
 800416c:	612b      	str	r3, [r5, #16]
 800416e:	0063      	lsls	r3, r4, #1
 8004170:	189b      	adds	r3, r3, r2
      FLASH_Program_HalfWord((Address + (2U*index)), (uint16_t)(Data >> (16U*index)));
 8004172:	b280      	uxth	r0, r0
  *(__IO uint16_t*)Address = Data;
 8004174:	8018      	strh	r0, [r3, #0]
        status = FLASH_WaitForLastOperation(FLASH_TIMEOUT_VALUE);
 8004176:	480b      	ldr	r0, [pc, #44]	; (80041a4 <HAL_FLASH_Program+0xa8>)
 8004178:	f7ff ff96 	bl	80040a8 <FLASH_WaitForLastOperation>
        CLEAR_BIT(FLASH->CR, FLASH_CR_PG);
 800417c:	692b      	ldr	r3, [r5, #16]
 800417e:	43bb      	bics	r3, r7
 8004180:	612b      	str	r3, [r5, #16]
      if (status != HAL_OK)
 8004182:	2800      	cmp	r0, #0
 8004184:	d103      	bne.n	800418e <HAL_FLASH_Program+0x92>
 8004186:	19e4      	adds	r4, r4, r7
    for (index = 0U; index < nbiterations; index++)
 8004188:	b2e3      	uxtb	r3, r4
 800418a:	429e      	cmp	r6, r3
 800418c:	d8e1      	bhi.n	8004152 <HAL_FLASH_Program+0x56>
  __HAL_UNLOCK(&pFlash);
 800418e:	2200      	movs	r2, #0
 8004190:	4b01      	ldr	r3, [pc, #4]	; (8004198 <HAL_FLASH_Program+0x9c>)
 8004192:	761a      	strb	r2, [r3, #24]
}
 8004194:	b005      	add	sp, #20
 8004196:	bdf0      	pop	{r4, r5, r6, r7, pc}
 8004198:	200007b8 	.word	0x200007b8
 800419c:	0800742d 	.word	0x0800742d
 80041a0:	00007fff 	.word	0x00007fff
 80041a4:	0000c350 	.word	0x0000c350
 80041a8:	40022000 	.word	0x40022000

080041ac <FLASH_MassErase>:
  * @retval None
  */
static void FLASH_MassErase(void)
{
  /* Clean the error context */
  pFlash.ErrorCode = HAL_FLASH_ERROR_NONE;
 80041ac:	2200      	movs	r2, #0
 80041ae:	4b06      	ldr	r3, [pc, #24]	; (80041c8 <FLASH_MassErase+0x1c>)
 80041b0:	61da      	str	r2, [r3, #28]

    /* Only bank1 will be erased*/
    SET_BIT(FLASH->CR, FLASH_CR_MER);
 80041b2:	4b06      	ldr	r3, [pc, #24]	; (80041cc <FLASH_MassErase+0x20>)
 80041b4:	3204      	adds	r2, #4
 80041b6:	6919      	ldr	r1, [r3, #16]
 80041b8:	430a      	orrs	r2, r1
 80041ba:	611a      	str	r2, [r3, #16]
    SET_BIT(FLASH->CR, FLASH_CR_STRT);
 80041bc:	2240      	movs	r2, #64	; 0x40
 80041be:	6919      	ldr	r1, [r3, #16]
 80041c0:	430a      	orrs	r2, r1
 80041c2:	611a      	str	r2, [r3, #16]
}
 80041c4:	4770      	bx	lr
 80041c6:	46c0      	nop			; (mov r8, r8)
 80041c8:	200007b8 	.word	0x200007b8
 80041cc:	40022000 	.word	0x40022000

080041d0 <FLASH_PageErase>:
  * @retval None
  */
void FLASH_PageErase(uint32_t PageAddress)
{
  /* Clean the error context */
  pFlash.ErrorCode = HAL_FLASH_ERROR_NONE;
 80041d0:	2200      	movs	r2, #0
 80041d2:	4b06      	ldr	r3, [pc, #24]	; (80041ec <FLASH_PageErase+0x1c>)
 80041d4:	61da      	str	r2, [r3, #28]

    /* Proceed to erase the page */
    SET_BIT(FLASH->CR, FLASH_CR_PER);
 80041d6:	4b06      	ldr	r3, [pc, #24]	; (80041f0 <FLASH_PageErase+0x20>)
 80041d8:	3202      	adds	r2, #2
 80041da:	6919      	ldr	r1, [r3, #16]
 80041dc:	430a      	orrs	r2, r1
 80041de:	611a      	str	r2, [r3, #16]
    WRITE_REG(FLASH->AR, PageAddress);
    SET_BIT(FLASH->CR, FLASH_CR_STRT);
 80041e0:	2240      	movs	r2, #64	; 0x40
    WRITE_REG(FLASH->AR, PageAddress);
 80041e2:	6158      	str	r0, [r3, #20]
    SET_BIT(FLASH->CR, FLASH_CR_STRT);
 80041e4:	6919      	ldr	r1, [r3, #16]
 80041e6:	430a      	orrs	r2, r1
 80041e8:	611a      	str	r2, [r3, #16]
}
 80041ea:	4770      	bx	lr
 80041ec:	200007b8 	.word	0x200007b8
 80041f0:	40022000 	.word	0x40022000

080041f4 <HAL_FLASHEx_Erase>:
{
 80041f4:	b5f8      	push	{r3, r4, r5, r6, r7, lr}
  __HAL_LOCK(&pFlash);
 80041f6:	4e30      	ldr	r6, [pc, #192]	; (80042b8 <HAL_FLASHEx_Erase+0xc4>)
{
 80041f8:	0004      	movs	r4, r0
  __HAL_LOCK(&pFlash);
 80041fa:	7e33      	ldrb	r3, [r6, #24]
{
 80041fc:	000f      	movs	r7, r1
  __HAL_LOCK(&pFlash);
 80041fe:	2002      	movs	r0, #2
 8004200:	2b01      	cmp	r3, #1
 8004202:	d013      	beq.n	800422c <HAL_FLASHEx_Erase+0x38>
 8004204:	2301      	movs	r3, #1
 8004206:	7633      	strb	r3, [r6, #24]
  assert_param(IS_FLASH_TYPEERASE(pEraseInit->TypeErase));
 8004208:	6823      	ldr	r3, [r4, #0]
 800420a:	2b01      	cmp	r3, #1
 800420c:	d903      	bls.n	8004216 <HAL_FLASHEx_Erase+0x22>
 800420e:	21b8      	movs	r1, #184	; 0xb8
 8004210:	482a      	ldr	r0, [pc, #168]	; (80042bc <HAL_FLASHEx_Erase+0xc8>)
 8004212:	f7fe fbac 	bl	800296e <assert_failed>
  if (pEraseInit->TypeErase == FLASH_TYPEERASE_MASSERASE)
 8004216:	6823      	ldr	r3, [r4, #0]
 8004218:	2b01      	cmp	r3, #1
 800421a:	d113      	bne.n	8004244 <HAL_FLASHEx_Erase+0x50>
      if (FLASH_WaitForLastOperation((uint32_t)FLASH_TIMEOUT_VALUE) == HAL_OK)
 800421c:	4828      	ldr	r0, [pc, #160]	; (80042c0 <HAL_FLASHEx_Erase+0xcc>)
 800421e:	f7ff ff43 	bl	80040a8 <FLASH_WaitForLastOperation>
 8004222:	2800      	cmp	r0, #0
 8004224:	d003      	beq.n	800422e <HAL_FLASHEx_Erase+0x3a>
  HAL_StatusTypeDef status = HAL_ERROR;
 8004226:	2001      	movs	r0, #1
  __HAL_UNLOCK(&pFlash);
 8004228:	2300      	movs	r3, #0
 800422a:	7633      	strb	r3, [r6, #24]
}
 800422c:	bdf8      	pop	{r3, r4, r5, r6, r7, pc}
        FLASH_MassErase();
 800422e:	f7ff ffbd 	bl	80041ac <FLASH_MassErase>
        status = FLASH_WaitForLastOperation((uint32_t)FLASH_TIMEOUT_VALUE);
 8004232:	4823      	ldr	r0, [pc, #140]	; (80042c0 <HAL_FLASHEx_Erase+0xcc>)
 8004234:	f7ff ff38 	bl	80040a8 <FLASH_WaitForLastOperation>
        CLEAR_BIT(FLASH->CR, FLASH_CR_MER);
 8004238:	2104      	movs	r1, #4
 800423a:	4a22      	ldr	r2, [pc, #136]	; (80042c4 <HAL_FLASHEx_Erase+0xd0>)
 800423c:	6913      	ldr	r3, [r2, #16]
 800423e:	438b      	bics	r3, r1
 8004240:	6113      	str	r3, [r2, #16]
 8004242:	e7f1      	b.n	8004228 <HAL_FLASHEx_Erase+0x34>
    assert_param(IS_FLASH_PROGRAM_ADDRESS(pEraseInit->PageAddress));
 8004244:	22f8      	movs	r2, #248	; 0xf8
 8004246:	6863      	ldr	r3, [r4, #4]
 8004248:	0612      	lsls	r2, r2, #24
 800424a:	189b      	adds	r3, r3, r2
 800424c:	4a1e      	ldr	r2, [pc, #120]	; (80042c8 <HAL_FLASHEx_Erase+0xd4>)
 800424e:	4293      	cmp	r3, r2
 8004250:	d903      	bls.n	800425a <HAL_FLASHEx_Erase+0x66>
 8004252:	21ce      	movs	r1, #206	; 0xce
 8004254:	4819      	ldr	r0, [pc, #100]	; (80042bc <HAL_FLASHEx_Erase+0xc8>)
 8004256:	f7fe fb8a 	bl	800296e <assert_failed>
    assert_param(IS_FLASH_NB_PAGES(pEraseInit->PageAddress, pEraseInit->NbPages));
 800425a:	68a3      	ldr	r3, [r4, #8]
 800425c:	6862      	ldr	r2, [r4, #4]
 800425e:	029b      	lsls	r3, r3, #10
 8004260:	3a01      	subs	r2, #1
 8004262:	189b      	adds	r3, r3, r2
 8004264:	4a19      	ldr	r2, [pc, #100]	; (80042cc <HAL_FLASHEx_Erase+0xd8>)
 8004266:	4293      	cmp	r3, r2
 8004268:	d903      	bls.n	8004272 <HAL_FLASHEx_Erase+0x7e>
 800426a:	21cf      	movs	r1, #207	; 0xcf
 800426c:	4813      	ldr	r0, [pc, #76]	; (80042bc <HAL_FLASHEx_Erase+0xc8>)
 800426e:	f7fe fb7e 	bl	800296e <assert_failed>
      if (FLASH_WaitForLastOperation((uint32_t)FLASH_TIMEOUT_VALUE) == HAL_OK)
 8004272:	4813      	ldr	r0, [pc, #76]	; (80042c0 <HAL_FLASHEx_Erase+0xcc>)
 8004274:	f7ff ff18 	bl	80040a8 <FLASH_WaitForLastOperation>
 8004278:	2800      	cmp	r0, #0
 800427a:	d1d4      	bne.n	8004226 <HAL_FLASHEx_Erase+0x32>
        *PageError = 0xFFFFFFFFU;
 800427c:	2301      	movs	r3, #1
 800427e:	425b      	negs	r3, r3
 8004280:	603b      	str	r3, [r7, #0]
        for(address = pEraseInit->PageAddress;
 8004282:	6865      	ldr	r5, [r4, #4]
  HAL_StatusTypeDef status = HAL_ERROR;
 8004284:	3001      	adds	r0, #1
            address < ((pEraseInit->NbPages * FLASH_PAGE_SIZE) + pEraseInit->PageAddress);
 8004286:	68a3      	ldr	r3, [r4, #8]
 8004288:	6862      	ldr	r2, [r4, #4]
 800428a:	029b      	lsls	r3, r3, #10
 800428c:	189b      	adds	r3, r3, r2
        for(address = pEraseInit->PageAddress;
 800428e:	429d      	cmp	r5, r3
 8004290:	d2ca      	bcs.n	8004228 <HAL_FLASHEx_Erase+0x34>
          FLASH_PageErase(address);
 8004292:	0028      	movs	r0, r5
 8004294:	f7ff ff9c 	bl	80041d0 <FLASH_PageErase>
          status = FLASH_WaitForLastOperation((uint32_t)FLASH_TIMEOUT_VALUE);
 8004298:	4809      	ldr	r0, [pc, #36]	; (80042c0 <HAL_FLASHEx_Erase+0xcc>)
 800429a:	f7ff ff05 	bl	80040a8 <FLASH_WaitForLastOperation>
          CLEAR_BIT(FLASH->CR, FLASH_CR_PER);
 800429e:	2102      	movs	r1, #2
 80042a0:	4a08      	ldr	r2, [pc, #32]	; (80042c4 <HAL_FLASHEx_Erase+0xd0>)
 80042a2:	6913      	ldr	r3, [r2, #16]
 80042a4:	438b      	bics	r3, r1
 80042a6:	6113      	str	r3, [r2, #16]
          if (status != HAL_OK)
 80042a8:	2800      	cmp	r0, #0
 80042aa:	d001      	beq.n	80042b0 <HAL_FLASHEx_Erase+0xbc>
            *PageError = address;
 80042ac:	603d      	str	r5, [r7, #0]
            break;
 80042ae:	e7bb      	b.n	8004228 <HAL_FLASHEx_Erase+0x34>
            address += FLASH_PAGE_SIZE)
 80042b0:	2380      	movs	r3, #128	; 0x80
 80042b2:	00db      	lsls	r3, r3, #3
 80042b4:	18ed      	adds	r5, r5, r3
 80042b6:	e7e6      	b.n	8004286 <HAL_FLASHEx_Erase+0x92>
 80042b8:	200007b8 	.word	0x200007b8
 80042bc:	08007467 	.word	0x08007467
 80042c0:	0000c350 	.word	0x0000c350
 80042c4:	40022000 	.word	0x40022000
 80042c8:	00007fff 	.word	0x00007fff
 80042cc:	08007fff 	.word	0x08007fff

080042d0 <HAL_GPIO_Init>:
  uint32_t position = 0x00U;
  uint32_t iocurrent = 0x00U;
  uint32_t temp = 0x00U;

  /* Check the parameters */
  assert_param(IS_GPIO_ALL_INSTANCE(GPIOx));
 80042d0:	2390      	movs	r3, #144	; 0x90
{ 
 80042d2:	b5f0      	push	{r4, r5, r6, r7, lr}
  assert_param(IS_GPIO_ALL_INSTANCE(GPIOx));
 80042d4:	05db      	lsls	r3, r3, #23
{ 
 80042d6:	b087      	sub	sp, #28
 80042d8:	0004      	movs	r4, r0
 80042da:	000d      	movs	r5, r1
  assert_param(IS_GPIO_ALL_INSTANCE(GPIOx));
 80042dc:	4298      	cmp	r0, r3
 80042de:	d00f      	beq.n	8004300 <HAL_GPIO_Init+0x30>
 80042e0:	4b7b      	ldr	r3, [pc, #492]	; (80044d0 <HAL_GPIO_Init+0x200>)
 80042e2:	4298      	cmp	r0, r3
 80042e4:	d00c      	beq.n	8004300 <HAL_GPIO_Init+0x30>
 80042e6:	4b7b      	ldr	r3, [pc, #492]	; (80044d4 <HAL_GPIO_Init+0x204>)
 80042e8:	4298      	cmp	r0, r3
 80042ea:	d009      	beq.n	8004300 <HAL_GPIO_Init+0x30>
 80042ec:	4b7a      	ldr	r3, [pc, #488]	; (80044d8 <HAL_GPIO_Init+0x208>)
 80042ee:	4298      	cmp	r0, r3
 80042f0:	d006      	beq.n	8004300 <HAL_GPIO_Init+0x30>
 80042f2:	4b7a      	ldr	r3, [pc, #488]	; (80044dc <HAL_GPIO_Init+0x20c>)
 80042f4:	4298      	cmp	r0, r3
 80042f6:	d003      	beq.n	8004300 <HAL_GPIO_Init+0x30>
 80042f8:	21c1      	movs	r1, #193	; 0xc1
 80042fa:	4879      	ldr	r0, [pc, #484]	; (80044e0 <HAL_GPIO_Init+0x210>)
 80042fc:	f7fe fb37 	bl	800296e <assert_failed>
  assert_param(IS_GPIO_PIN(GPIO_Init->Pin));
 8004300:	682b      	ldr	r3, [r5, #0]
 8004302:	b29a      	uxth	r2, r3
 8004304:	2a00      	cmp	r2, #0
 8004306:	d001      	beq.n	800430c <HAL_GPIO_Init+0x3c>
 8004308:	0c1b      	lsrs	r3, r3, #16
 800430a:	d003      	beq.n	8004314 <HAL_GPIO_Init+0x44>
 800430c:	21c2      	movs	r1, #194	; 0xc2
 800430e:	4874      	ldr	r0, [pc, #464]	; (80044e0 <HAL_GPIO_Init+0x210>)
 8004310:	f7fe fb2d 	bl	800296e <assert_failed>
  assert_param(IS_GPIO_MODE(GPIO_Init->Mode));
 8004314:	686b      	ldr	r3, [r5, #4]
 8004316:	2b03      	cmp	r3, #3
 8004318:	d912      	bls.n	8004340 <HAL_GPIO_Init+0x70>
 800431a:	001a      	movs	r2, r3
 800431c:	3a11      	subs	r2, #17
 800431e:	2a01      	cmp	r2, #1
 8004320:	d90e      	bls.n	8004340 <HAL_GPIO_Init+0x70>
 8004322:	4a70      	ldr	r2, [pc, #448]	; (80044e4 <HAL_GPIO_Init+0x214>)
 8004324:	4970      	ldr	r1, [pc, #448]	; (80044e8 <HAL_GPIO_Init+0x218>)
 8004326:	401a      	ands	r2, r3
 8004328:	1852      	adds	r2, r2, r1
 800432a:	4970      	ldr	r1, [pc, #448]	; (80044ec <HAL_GPIO_Init+0x21c>)
 800432c:	420a      	tst	r2, r1
 800432e:	d007      	beq.n	8004340 <HAL_GPIO_Init+0x70>
 8004330:	4a6f      	ldr	r2, [pc, #444]	; (80044f0 <HAL_GPIO_Init+0x220>)
 8004332:	189b      	adds	r3, r3, r2
 8004334:	420b      	tst	r3, r1
 8004336:	d003      	beq.n	8004340 <HAL_GPIO_Init+0x70>
 8004338:	21c3      	movs	r1, #195	; 0xc3
 800433a:	4869      	ldr	r0, [pc, #420]	; (80044e0 <HAL_GPIO_Init+0x210>)
 800433c:	f7fe fb17 	bl	800296e <assert_failed>
  assert_param(IS_GPIO_PULL(GPIO_Init->Pull)); 
 8004340:	68ab      	ldr	r3, [r5, #8]
 8004342:	2b02      	cmp	r3, #2
 8004344:	d903      	bls.n	800434e <HAL_GPIO_Init+0x7e>
 8004346:	21c4      	movs	r1, #196	; 0xc4
 8004348:	4865      	ldr	r0, [pc, #404]	; (80044e0 <HAL_GPIO_Init+0x210>)
 800434a:	f7fe fb10 	bl	800296e <assert_failed>
        /* Enable SYSCFG Clock */
        __HAL_RCC_SYSCFG_CLK_ENABLE();
  
        temp = SYSCFG->EXTICR[position >> 2];
        CLEAR_BIT(temp, (0x0FU) << (4U * (position & 0x03U)));
        SET_BIT(temp, (GPIO_GET_INDEX(GPIOx)) << (4U * (position & 0x03U)));
 800434e:	2300      	movs	r3, #0
        }
        EXTI->FTSR = temp;
      }
    }
    
    position++;
 8004350:	9301      	str	r3, [sp, #4]
  while (((GPIO_Init->Pin) >> position) != RESET)
 8004352:	682b      	ldr	r3, [r5, #0]
 8004354:	9901      	ldr	r1, [sp, #4]
 8004356:	001a      	movs	r2, r3
 8004358:	40ca      	lsrs	r2, r1
 800435a:	d101      	bne.n	8004360 <HAL_GPIO_Init+0x90>
  } 
}
 800435c:	b007      	add	sp, #28
 800435e:	bdf0      	pop	{r4, r5, r6, r7, pc}
    iocurrent = (GPIO_Init->Pin) & (1U << position);
 8004360:	2201      	movs	r2, #1
 8004362:	9901      	ldr	r1, [sp, #4]
 8004364:	408a      	lsls	r2, r1
 8004366:	9203      	str	r2, [sp, #12]
 8004368:	401a      	ands	r2, r3
 800436a:	9202      	str	r2, [sp, #8]
    if(iocurrent)
 800436c:	d100      	bne.n	8004370 <HAL_GPIO_Init+0xa0>
 800436e:	e0ab      	b.n	80044c8 <HAL_GPIO_Init+0x1f8>
      if((GPIO_Init->Mode == GPIO_MODE_AF_PP) || (GPIO_Init->Mode == GPIO_MODE_AF_OD)) 
 8004370:	2210      	movs	r2, #16
 8004372:	686b      	ldr	r3, [r5, #4]
 8004374:	4393      	bics	r3, r2
 8004376:	2b02      	cmp	r3, #2
 8004378:	d122      	bne.n	80043c0 <HAL_GPIO_Init+0xf0>
        assert_param(IS_GPIO_AF_INSTANCE(GPIOx));
 800437a:	2390      	movs	r3, #144	; 0x90
 800437c:	05db      	lsls	r3, r3, #23
 800437e:	429c      	cmp	r4, r3
 8004380:	d006      	beq.n	8004390 <HAL_GPIO_Init+0xc0>
 8004382:	4b53      	ldr	r3, [pc, #332]	; (80044d0 <HAL_GPIO_Init+0x200>)
 8004384:	429c      	cmp	r4, r3
 8004386:	d003      	beq.n	8004390 <HAL_GPIO_Init+0xc0>
 8004388:	21d3      	movs	r1, #211	; 0xd3
 800438a:	4855      	ldr	r0, [pc, #340]	; (80044e0 <HAL_GPIO_Init+0x210>)
 800438c:	f7fe faef 	bl	800296e <assert_failed>
        assert_param(IS_GPIO_AF(GPIO_Init->Alternate));
 8004390:	692b      	ldr	r3, [r5, #16]
 8004392:	2b06      	cmp	r3, #6
 8004394:	d903      	bls.n	800439e <HAL_GPIO_Init+0xce>
 8004396:	21d4      	movs	r1, #212	; 0xd4
 8004398:	4851      	ldr	r0, [pc, #324]	; (80044e0 <HAL_GPIO_Init+0x210>)
 800439a:	f7fe fae8 	bl	800296e <assert_failed>
        CLEAR_BIT(temp, 0xFU << ((uint32_t)(position & 0x07U) * 4U)) ;      
 800439e:	2207      	movs	r2, #7
 80043a0:	9801      	ldr	r0, [sp, #4]
        temp = GPIOx->AFR[position >> 3];
 80043a2:	9b01      	ldr	r3, [sp, #4]
        CLEAR_BIT(temp, 0xFU << ((uint32_t)(position & 0x07U) * 4U)) ;      
 80043a4:	4002      	ands	r2, r0
 80043a6:	200f      	movs	r0, #15
 80043a8:	0092      	lsls	r2, r2, #2
 80043aa:	4090      	lsls	r0, r2
        temp = GPIOx->AFR[position >> 3];
 80043ac:	08db      	lsrs	r3, r3, #3
 80043ae:	009b      	lsls	r3, r3, #2
 80043b0:	18e3      	adds	r3, r4, r3
 80043b2:	6a19      	ldr	r1, [r3, #32]
        CLEAR_BIT(temp, 0xFU << ((uint32_t)(position & 0x07U) * 4U)) ;      
 80043b4:	4381      	bics	r1, r0
        SET_BIT(temp, (uint32_t)(GPIO_Init->Alternate) << (((uint32_t)position & 0x07U) * 4U));       
 80043b6:	6928      	ldr	r0, [r5, #16]
 80043b8:	4090      	lsls	r0, r2
 80043ba:	0002      	movs	r2, r0
 80043bc:	430a      	orrs	r2, r1
        GPIOx->AFR[position >> 3U] = temp;
 80043be:	621a      	str	r2, [r3, #32]
 80043c0:	9b01      	ldr	r3, [sp, #4]
      SET_BIT(temp, (GPIO_Init->Mode & GPIO_MODE) << (position * 2U));
 80043c2:	686a      	ldr	r2, [r5, #4]
 80043c4:	005f      	lsls	r7, r3, #1
      CLEAR_BIT(temp, GPIO_MODER_MODER0 << (position * 2U));   
 80043c6:	2303      	movs	r3, #3
 80043c8:	001e      	movs	r6, r3
 80043ca:	40be      	lsls	r6, r7
      SET_BIT(temp, (GPIO_Init->Mode & GPIO_MODE) << (position * 2U));
 80043cc:	4013      	ands	r3, r2
      CLEAR_BIT(temp, GPIO_MODER_MODER0 << (position * 2U));   
 80043ce:	43f6      	mvns	r6, r6
      SET_BIT(temp, (GPIO_Init->Mode & GPIO_MODE) << (position * 2U));
 80043d0:	40bb      	lsls	r3, r7
      temp = GPIOx->MODER;
 80043d2:	6821      	ldr	r1, [r4, #0]
      CLEAR_BIT(temp, GPIO_MODER_MODER0 << (position * 2U));   
 80043d4:	4031      	ands	r1, r6
      SET_BIT(temp, (GPIO_Init->Mode & GPIO_MODE) << (position * 2U));
 80043d6:	430b      	orrs	r3, r1
      GPIOx->MODER = temp;
 80043d8:	6023      	str	r3, [r4, #0]
      if ((GPIO_Init->Mode == GPIO_MODE_OUTPUT_PP) || (GPIO_Init->Mode == GPIO_MODE_AF_PP) ||
 80043da:	2310      	movs	r3, #16
 80043dc:	439a      	bics	r2, r3
 80043de:	3a01      	subs	r2, #1
 80043e0:	2a01      	cmp	r2, #1
 80043e2:	d819      	bhi.n	8004418 <HAL_GPIO_Init+0x148>
        assert_param(IS_GPIO_SPEED(GPIO_Init->Speed));
 80043e4:	68eb      	ldr	r3, [r5, #12]
 80043e6:	2b01      	cmp	r3, #1
 80043e8:	d905      	bls.n	80043f6 <HAL_GPIO_Init+0x126>
 80043ea:	2b03      	cmp	r3, #3
 80043ec:	d003      	beq.n	80043f6 <HAL_GPIO_Init+0x126>
 80043ee:	21e8      	movs	r1, #232	; 0xe8
 80043f0:	483b      	ldr	r0, [pc, #236]	; (80044e0 <HAL_GPIO_Init+0x210>)
 80043f2:	f7fe fabc 	bl	800296e <assert_failed>
        SET_BIT(temp, GPIO_Init->Speed << (position * 2U));
 80043f6:	68eb      	ldr	r3, [r5, #12]
        SET_BIT(temp, ((GPIO_Init->Mode & GPIO_OUTPUT_TYPE) >> 4U) << position);
 80043f8:	2101      	movs	r1, #1
        SET_BIT(temp, GPIO_Init->Speed << (position * 2U));
 80043fa:	40bb      	lsls	r3, r7
        temp = GPIOx->OSPEEDR; 
 80043fc:	68a2      	ldr	r2, [r4, #8]
        CLEAR_BIT(temp, GPIO_OSPEEDER_OSPEEDR0 << (position * 2U));
 80043fe:	4032      	ands	r2, r6
        SET_BIT(temp, GPIO_Init->Speed << (position * 2U));
 8004400:	4313      	orrs	r3, r2
        GPIOx->OSPEEDR = temp;
 8004402:	60a3      	str	r3, [r4, #8]
        temp = GPIOx->OTYPER;
 8004404:	6862      	ldr	r2, [r4, #4]
        CLEAR_BIT(temp, GPIO_OTYPER_OT_0 << position) ;
 8004406:	9b03      	ldr	r3, [sp, #12]
 8004408:	439a      	bics	r2, r3
        SET_BIT(temp, ((GPIO_Init->Mode & GPIO_OUTPUT_TYPE) >> 4U) << position);
 800440a:	686b      	ldr	r3, [r5, #4]
 800440c:	091b      	lsrs	r3, r3, #4
 800440e:	400b      	ands	r3, r1
 8004410:	9901      	ldr	r1, [sp, #4]
 8004412:	408b      	lsls	r3, r1
 8004414:	4313      	orrs	r3, r2
        GPIOx->OTYPER = temp;
 8004416:	6063      	str	r3, [r4, #4]
      temp = GPIOx->PUPDR;
 8004418:	68e3      	ldr	r3, [r4, #12]
      if((GPIO_Init->Mode & EXTI_MODE) == EXTI_MODE) 
 800441a:	6869      	ldr	r1, [r5, #4]
      CLEAR_BIT(temp, GPIO_PUPDR_PUPDR0 << (position * 2U));
 800441c:	4033      	ands	r3, r6
      SET_BIT(temp, (GPIO_Init->Pull) << (position * 2U));
 800441e:	68ae      	ldr	r6, [r5, #8]
 8004420:	40be      	lsls	r6, r7
 8004422:	431e      	orrs	r6, r3
      GPIOx->PUPDR = temp;
 8004424:	60e6      	str	r6, [r4, #12]
      if((GPIO_Init->Mode & EXTI_MODE) == EXTI_MODE) 
 8004426:	00cb      	lsls	r3, r1, #3
 8004428:	d54e      	bpl.n	80044c8 <HAL_GPIO_Init+0x1f8>
        __HAL_RCC_SYSCFG_CLK_ENABLE();
 800442a:	2001      	movs	r0, #1
        CLEAR_BIT(temp, (0x0FU) << (4U * (position & 0x03U)));
 800442c:	2603      	movs	r6, #3
 800442e:	270f      	movs	r7, #15
        __HAL_RCC_SYSCFG_CLK_ENABLE();
 8004430:	4b30      	ldr	r3, [pc, #192]	; (80044f4 <HAL_GPIO_Init+0x224>)
 8004432:	699a      	ldr	r2, [r3, #24]
 8004434:	4302      	orrs	r2, r0
 8004436:	619a      	str	r2, [r3, #24]
 8004438:	699b      	ldr	r3, [r3, #24]
 800443a:	4003      	ands	r3, r0
        CLEAR_BIT(temp, (0x0FU) << (4U * (position & 0x03U)));
 800443c:	9801      	ldr	r0, [sp, #4]
        __HAL_RCC_SYSCFG_CLK_ENABLE();
 800443e:	9305      	str	r3, [sp, #20]
        CLEAR_BIT(temp, (0x0FU) << (4U * (position & 0x03U)));
 8004440:	4030      	ands	r0, r6
 8004442:	0080      	lsls	r0, r0, #2
 8004444:	4087      	lsls	r7, r0
        __HAL_RCC_SYSCFG_CLK_ENABLE();
 8004446:	9b05      	ldr	r3, [sp, #20]
        temp = SYSCFG->EXTICR[position >> 2];
 8004448:	9b01      	ldr	r3, [sp, #4]
 800444a:	089a      	lsrs	r2, r3, #2
 800444c:	4b2a      	ldr	r3, [pc, #168]	; (80044f8 <HAL_GPIO_Init+0x228>)
 800444e:	0092      	lsls	r2, r2, #2
 8004450:	18d2      	adds	r2, r2, r3
 8004452:	6893      	ldr	r3, [r2, #8]
        CLEAR_BIT(temp, (0x0FU) << (4U * (position & 0x03U)));
 8004454:	43bb      	bics	r3, r7
        SET_BIT(temp, (GPIO_GET_INDEX(GPIOx)) << (4U * (position & 0x03U)));
 8004456:	2790      	movs	r7, #144	; 0x90
        CLEAR_BIT(temp, (0x0FU) << (4U * (position & 0x03U)));
 8004458:	469c      	mov	ip, r3
        SET_BIT(temp, (GPIO_GET_INDEX(GPIOx)) << (4U * (position & 0x03U)));
 800445a:	05ff      	lsls	r7, r7, #23
 800445c:	2300      	movs	r3, #0
 800445e:	42bc      	cmp	r4, r7
 8004460:	d00c      	beq.n	800447c <HAL_GPIO_Init+0x1ac>
 8004462:	4f1b      	ldr	r7, [pc, #108]	; (80044d0 <HAL_GPIO_Init+0x200>)
 8004464:	3301      	adds	r3, #1
 8004466:	42bc      	cmp	r4, r7
 8004468:	d008      	beq.n	800447c <HAL_GPIO_Init+0x1ac>
 800446a:	4f1a      	ldr	r7, [pc, #104]	; (80044d4 <HAL_GPIO_Init+0x204>)
 800446c:	3301      	adds	r3, #1
 800446e:	42bc      	cmp	r4, r7
 8004470:	d004      	beq.n	800447c <HAL_GPIO_Init+0x1ac>
 8004472:	4f19      	ldr	r7, [pc, #100]	; (80044d8 <HAL_GPIO_Init+0x208>)
 8004474:	199b      	adds	r3, r3, r6
 8004476:	42bc      	cmp	r4, r7
 8004478:	d100      	bne.n	800447c <HAL_GPIO_Init+0x1ac>
 800447a:	0033      	movs	r3, r6
 800447c:	4083      	lsls	r3, r0
 800447e:	4660      	mov	r0, ip
 8004480:	4303      	orrs	r3, r0
        SYSCFG->EXTICR[position >> 2] = temp;
 8004482:	6093      	str	r3, [r2, #8]
        temp = EXTI->IMR;
 8004484:	4a1d      	ldr	r2, [pc, #116]	; (80044fc <HAL_GPIO_Init+0x22c>)
        CLEAR_BIT(temp, (uint32_t)iocurrent);
 8004486:	9b02      	ldr	r3, [sp, #8]
        temp = EXTI->IMR;
 8004488:	6816      	ldr	r6, [r2, #0]
        CLEAR_BIT(temp, (uint32_t)iocurrent);
 800448a:	43d8      	mvns	r0, r3
          SET_BIT(temp, iocurrent); 
 800448c:	4333      	orrs	r3, r6
        if((GPIO_Init->Mode & GPIO_MODE_IT) == GPIO_MODE_IT)
 800448e:	03cf      	lsls	r7, r1, #15
 8004490:	d401      	bmi.n	8004496 <HAL_GPIO_Init+0x1c6>
        CLEAR_BIT(temp, (uint32_t)iocurrent);
 8004492:	0033      	movs	r3, r6
 8004494:	4003      	ands	r3, r0
        EXTI->IMR = temp;
 8004496:	6013      	str	r3, [r2, #0]
        temp = EXTI->EMR;
 8004498:	6856      	ldr	r6, [r2, #4]
          SET_BIT(temp, iocurrent); 
 800449a:	9b02      	ldr	r3, [sp, #8]
 800449c:	4333      	orrs	r3, r6
        if((GPIO_Init->Mode & GPIO_MODE_EVT) == GPIO_MODE_EVT)
 800449e:	038f      	lsls	r7, r1, #14
 80044a0:	d401      	bmi.n	80044a6 <HAL_GPIO_Init+0x1d6>
        CLEAR_BIT(temp, (uint32_t)iocurrent);      
 80044a2:	0033      	movs	r3, r6
 80044a4:	4003      	ands	r3, r0
        EXTI->EMR = temp;
 80044a6:	6053      	str	r3, [r2, #4]
        temp = EXTI->RTSR;
 80044a8:	6896      	ldr	r6, [r2, #8]
          SET_BIT(temp, iocurrent); 
 80044aa:	9b02      	ldr	r3, [sp, #8]
 80044ac:	4333      	orrs	r3, r6
        if((GPIO_Init->Mode & RISING_EDGE) == RISING_EDGE)
 80044ae:	02cf      	lsls	r7, r1, #11
 80044b0:	d401      	bmi.n	80044b6 <HAL_GPIO_Init+0x1e6>
        CLEAR_BIT(temp, (uint32_t)iocurrent); 
 80044b2:	0033      	movs	r3, r6
 80044b4:	4003      	ands	r3, r0
        EXTI->RTSR = temp;
 80044b6:	6093      	str	r3, [r2, #8]
        temp = EXTI->FTSR;
 80044b8:	68d6      	ldr	r6, [r2, #12]
          SET_BIT(temp, iocurrent); 
 80044ba:	9b02      	ldr	r3, [sp, #8]
 80044bc:	4333      	orrs	r3, r6
        if((GPIO_Init->Mode & FALLING_EDGE) == FALLING_EDGE)
 80044be:	0289      	lsls	r1, r1, #10
 80044c0:	d401      	bmi.n	80044c6 <HAL_GPIO_Init+0x1f6>
        CLEAR_BIT(temp, (uint32_t)iocurrent); 
 80044c2:	0033      	movs	r3, r6
 80044c4:	4003      	ands	r3, r0
        EXTI->FTSR = temp;
 80044c6:	60d3      	str	r3, [r2, #12]
    position++;
 80044c8:	9b01      	ldr	r3, [sp, #4]
 80044ca:	3301      	adds	r3, #1
 80044cc:	e740      	b.n	8004350 <HAL_GPIO_Init+0x80>
 80044ce:	46c0      	nop			; (mov r8, r8)
 80044d0:	48000400 	.word	0x48000400
 80044d4:	48000800 	.word	0x48000800
 80044d8:	48000c00 	.word	0x48000c00
 80044dc:	48001400 	.word	0x48001400
 80044e0:	080074a4 	.word	0x080074a4
 80044e4:	ffdfffff 	.word	0xffdfffff
 80044e8:	efef0000 	.word	0xefef0000
 80044ec:	fffeffff 	.word	0xfffeffff
 80044f0:	efdf0000 	.word	0xefdf0000
 80044f4:	40021000 	.word	0x40021000
 80044f8:	40010000 	.word	0x40010000
 80044fc:	40010400 	.word	0x40010400

08004500 <HAL_GPIO_ReadPin>:
  * @param  GPIO_Pin specifies the port bit to read.
  *         This parameter can be GPIO_PIN_x where x can be (0..15).
  * @retval The input port pin value.
  */
GPIO_PinState HAL_GPIO_ReadPin(GPIO_TypeDef* GPIOx, uint16_t GPIO_Pin)
{
 8004500:	b570      	push	{r4, r5, r6, lr}
 8004502:	0005      	movs	r5, r0
 8004504:	1e0c      	subs	r4, r1, #0
  GPIO_PinState bitstatus;

  /* Check the parameters */
  assert_param(IS_GPIO_PIN(GPIO_Pin));
 8004506:	d104      	bne.n	8004512 <HAL_GPIO_ReadPin+0x12>
 8004508:	218e      	movs	r1, #142	; 0x8e
 800450a:	4805      	ldr	r0, [pc, #20]	; (8004520 <HAL_GPIO_ReadPin+0x20>)
 800450c:	31ff      	adds	r1, #255	; 0xff
 800450e:	f7fe fa2e 	bl	800296e <assert_failed>

  if ((GPIOx->IDR & GPIO_Pin) != (uint32_t)GPIO_PIN_RESET)
 8004512:	6928      	ldr	r0, [r5, #16]
 8004514:	4020      	ands	r0, r4
 8004516:	1e43      	subs	r3, r0, #1
 8004518:	4198      	sbcs	r0, r3
  }
  else
  {
    bitstatus = GPIO_PIN_RESET;
  }
  return bitstatus;
 800451a:	b2c0      	uxtb	r0, r0
  }
 800451c:	bd70      	pop	{r4, r5, r6, pc}
 800451e:	46c0      	nop			; (mov r8, r8)
 8004520:	080074a4 	.word	0x080074a4

08004524 <HAL_GPIO_WritePin>:
  *            @arg GPIO_PIN_RESET: to clear the port pin
  *            @arg GPIO_PIN_SET: to set the port pin
  * @retval None
  */
void HAL_GPIO_WritePin(GPIO_TypeDef* GPIOx, uint16_t GPIO_Pin, GPIO_PinState PinState)
{
 8004524:	b570      	push	{r4, r5, r6, lr}
 8004526:	0005      	movs	r5, r0
 8004528:	000c      	movs	r4, r1
 800452a:	0016      	movs	r6, r2
  /* Check the parameters */
  assert_param(IS_GPIO_PIN(GPIO_Pin));
 800452c:	2900      	cmp	r1, #0
 800452e:	d104      	bne.n	800453a <HAL_GPIO_WritePin+0x16>
 8004530:	21d6      	movs	r1, #214	; 0xd6
 8004532:	4808      	ldr	r0, [pc, #32]	; (8004554 <HAL_GPIO_WritePin+0x30>)
 8004534:	0049      	lsls	r1, r1, #1
 8004536:	f7fe fa1a 	bl	800296e <assert_failed>
  assert_param(IS_GPIO_PIN_ACTION(PinState));
 800453a:	2e01      	cmp	r6, #1
 800453c:	d906      	bls.n	800454c <HAL_GPIO_WritePin+0x28>
 800453e:	21ae      	movs	r1, #174	; 0xae
 8004540:	4804      	ldr	r0, [pc, #16]	; (8004554 <HAL_GPIO_WritePin+0x30>)
 8004542:	31ff      	adds	r1, #255	; 0xff
 8004544:	f7fe fa13 	bl	800296e <assert_failed>

  if (PinState != GPIO_PIN_RESET)
  {
    GPIOx->BSRR = (uint32_t)GPIO_Pin;
 8004548:	61ac      	str	r4, [r5, #24]
  }
  else
  {
    GPIOx->BRR = (uint32_t)GPIO_Pin;
  }
}
 800454a:	bd70      	pop	{r4, r5, r6, pc}
  if (PinState != GPIO_PIN_RESET)
 800454c:	2e00      	cmp	r6, #0
 800454e:	d1fb      	bne.n	8004548 <HAL_GPIO_WritePin+0x24>
    GPIOx->BRR = (uint32_t)GPIO_Pin;
 8004550:	62ac      	str	r4, [r5, #40]	; 0x28
}
 8004552:	e7fa      	b.n	800454a <HAL_GPIO_WritePin+0x26>
 8004554:	080074a4 	.word	0x080074a4

08004558 <HAL_GPIO_TogglePin>:
  * @param  GPIOx where x can be (A..F) to select the GPIO peripheral for STM32F0 family
  * @param  GPIO_Pin specifies the pin to be toggled.
  * @retval None
  */
void HAL_GPIO_TogglePin(GPIO_TypeDef* GPIOx, uint16_t GPIO_Pin)
{
 8004558:	b570      	push	{r4, r5, r6, lr}
 800455a:	0005      	movs	r5, r0
 800455c:	1e0c      	subs	r4, r1, #0
  /* Check the parameters */
  assert_param(IS_GPIO_PIN(GPIO_Pin));
 800455e:	d104      	bne.n	800456a <HAL_GPIO_TogglePin+0x12>
 8004560:	21e1      	movs	r1, #225	; 0xe1
 8004562:	4804      	ldr	r0, [pc, #16]	; (8004574 <HAL_GPIO_TogglePin+0x1c>)
 8004564:	0049      	lsls	r1, r1, #1
 8004566:	f7fe fa02 	bl	800296e <assert_failed>

  GPIOx->ODR ^= GPIO_Pin;
 800456a:	696b      	ldr	r3, [r5, #20]
 800456c:	405c      	eors	r4, r3
 800456e:	616c      	str	r4, [r5, #20]
}
 8004570:	bd70      	pop	{r4, r5, r6, pc}
 8004572:	46c0      	nop			; (mov r8, r8)
 8004574:	080074a4 	.word	0x080074a4

08004578 <HAL_I2CEx_EnableFastModePlus>:
  * @retval None
  */
void HAL_I2CEx_EnableFastModePlus(uint32_t ConfigFastModePlus)
{
  /* Check the parameter */
  assert_param(IS_I2C_FASTMODEPLUS(ConfigFastModePlus));
 8004578:	0002      	movs	r2, r0
 800457a:	4b11      	ldr	r3, [pc, #68]	; (80045c0 <HAL_I2CEx_EnableFastModePlus+0x48>)
{
 800457c:	b513      	push	{r0, r1, r4, lr}
  assert_param(IS_I2C_FASTMODEPLUS(ConfigFastModePlus));
 800457e:	401a      	ands	r2, r3
{
 8004580:	0004      	movs	r4, r0
  assert_param(IS_I2C_FASTMODEPLUS(ConfigFastModePlus));
 8004582:	429a      	cmp	r2, r3
 8004584:	d008      	beq.n	8004598 <HAL_I2CEx_EnableFastModePlus+0x20>
 8004586:	23df      	movs	r3, #223	; 0xdf
 8004588:	041b      	lsls	r3, r3, #16
 800458a:	4218      	tst	r0, r3
 800458c:	d109      	bne.n	80045a2 <HAL_I2CEx_EnableFastModePlus+0x2a>
 800458e:	0002      	movs	r2, r0
 8004590:	4b0c      	ldr	r3, [pc, #48]	; (80045c4 <HAL_I2CEx_EnableFastModePlus+0x4c>)
 8004592:	401a      	ands	r2, r3
 8004594:	429a      	cmp	r2, r3
 8004596:	d004      	beq.n	80045a2 <HAL_I2CEx_EnableFastModePlus+0x2a>
 8004598:	2194      	movs	r1, #148	; 0x94
 800459a:	480b      	ldr	r0, [pc, #44]	; (80045c8 <HAL_I2CEx_EnableFastModePlus+0x50>)
 800459c:	0049      	lsls	r1, r1, #1
 800459e:	f7fe f9e6 	bl	800296e <assert_failed>

  /* Enable SYSCFG clock */
  __HAL_RCC_SYSCFG_CLK_ENABLE();
 80045a2:	2001      	movs	r0, #1
 80045a4:	4a09      	ldr	r2, [pc, #36]	; (80045cc <HAL_I2CEx_EnableFastModePlus+0x54>)
 80045a6:	6991      	ldr	r1, [r2, #24]
 80045a8:	4301      	orrs	r1, r0
 80045aa:	6191      	str	r1, [r2, #24]
 80045ac:	6993      	ldr	r3, [r2, #24]
 80045ae:	4003      	ands	r3, r0
 80045b0:	9301      	str	r3, [sp, #4]
 80045b2:	9b01      	ldr	r3, [sp, #4]

  /* Enable fast mode plus driving capability for selected pin */
  SET_BIT(SYSCFG->CFGR1, (uint32_t)ConfigFastModePlus);
 80045b4:	4b06      	ldr	r3, [pc, #24]	; (80045d0 <HAL_I2CEx_EnableFastModePlus+0x58>)
 80045b6:	681a      	ldr	r2, [r3, #0]
 80045b8:	4314      	orrs	r4, r2
 80045ba:	601c      	str	r4, [r3, #0]
}
 80045bc:	bd13      	pop	{r0, r1, r4, pc}
 80045be:	46c0      	nop			; (mov r8, r8)
 80045c0:	aaaa0000 	.word	0xaaaa0000
 80045c4:	aaaa0200 	.word	0xaaaa0200
 80045c8:	080074dd 	.word	0x080074dd
 80045cc:	40021000 	.word	0x40021000
 80045d0:	40010000 	.word	0x40010000

080045d4 <HAL_IWDG_Init>:
  * @param  hiwdg  pointer to a IWDG_HandleTypeDef structure that contains
  *                the configuration information for the specified IWDG module.
  * @retval HAL status
  */
HAL_StatusTypeDef HAL_IWDG_Init(IWDG_HandleTypeDef *hiwdg)
{
 80045d4:	b570      	push	{r4, r5, r6, lr}
 80045d6:	0004      	movs	r4, r0
  uint32_t tickstart;

  /* Check the IWDG handle allocation */
  if(hiwdg == NULL)
  {
    return HAL_ERROR;
 80045d8:	2001      	movs	r0, #1
  if(hiwdg == NULL)
 80045da:	2c00      	cmp	r4, #0
 80045dc:	d032      	beq.n	8004644 <HAL_IWDG_Init+0x70>
  }

  /* Check the parameters */
  assert_param(IS_IWDG_ALL_INSTANCE(hiwdg->Instance));
 80045de:	4b1f      	ldr	r3, [pc, #124]	; (800465c <HAL_IWDG_Init+0x88>)
 80045e0:	6822      	ldr	r2, [r4, #0]
 80045e2:	429a      	cmp	r2, r3
 80045e4:	d003      	beq.n	80045ee <HAL_IWDG_Init+0x1a>
 80045e6:	21b5      	movs	r1, #181	; 0xb5
 80045e8:	481d      	ldr	r0, [pc, #116]	; (8004660 <HAL_IWDG_Init+0x8c>)
 80045ea:	f7fe f9c0 	bl	800296e <assert_failed>
  assert_param(IS_IWDG_PRESCALER(hiwdg->Init.Prescaler));
 80045ee:	6863      	ldr	r3, [r4, #4]
 80045f0:	2b06      	cmp	r3, #6
 80045f2:	d903      	bls.n	80045fc <HAL_IWDG_Init+0x28>
 80045f4:	21b6      	movs	r1, #182	; 0xb6
 80045f6:	481a      	ldr	r0, [pc, #104]	; (8004660 <HAL_IWDG_Init+0x8c>)
 80045f8:	f7fe f9b9 	bl	800296e <assert_failed>
 80045fc:	4d19      	ldr	r5, [pc, #100]	; (8004664 <HAL_IWDG_Init+0x90>)
  assert_param(IS_IWDG_RELOAD(hiwdg->Init.Reload));
 80045fe:	68a3      	ldr	r3, [r4, #8]
 8004600:	42ab      	cmp	r3, r5
 8004602:	d903      	bls.n	800460c <HAL_IWDG_Init+0x38>
 8004604:	21b7      	movs	r1, #183	; 0xb7
 8004606:	4816      	ldr	r0, [pc, #88]	; (8004660 <HAL_IWDG_Init+0x8c>)
 8004608:	f7fe f9b1 	bl	800296e <assert_failed>
  assert_param(IS_IWDG_WINDOW(hiwdg->Init.Window));
 800460c:	68e3      	ldr	r3, [r4, #12]
 800460e:	42ab      	cmp	r3, r5
 8004610:	d903      	bls.n	800461a <HAL_IWDG_Init+0x46>
 8004612:	21b8      	movs	r1, #184	; 0xb8
 8004614:	4812      	ldr	r0, [pc, #72]	; (8004660 <HAL_IWDG_Init+0x8c>)
 8004616:	f7fe f9aa 	bl	800296e <assert_failed>

  /* Enable IWDG. LSI is turned on automaticaly */
  __HAL_IWDG_START(hiwdg);
 800461a:	6823      	ldr	r3, [r4, #0]
 800461c:	4a12      	ldr	r2, [pc, #72]	; (8004668 <HAL_IWDG_Init+0x94>)
 800461e:	601a      	str	r2, [r3, #0]

  /* Enable write access to IWDG_PR, IWDG_RLR and IWDG_WINR registers by writing
  0x5555 in KR */
  IWDG_ENABLE_WRITE_ACCESS(hiwdg);
 8004620:	4a12      	ldr	r2, [pc, #72]	; (800466c <HAL_IWDG_Init+0x98>)
 8004622:	601a      	str	r2, [r3, #0]

  /* Write to IWDG registers the Prescaler & Reload values to work with */
  hiwdg->Instance->PR = hiwdg->Init.Prescaler;
 8004624:	6862      	ldr	r2, [r4, #4]
 8004626:	605a      	str	r2, [r3, #4]
  hiwdg->Instance->RLR = hiwdg->Init.Reload;
 8004628:	68a2      	ldr	r2, [r4, #8]
 800462a:	609a      	str	r2, [r3, #8]

  /* Check pending flag, if previous update not done, return timeout */
  tickstart = HAL_GetTick();
 800462c:	f7fe feda 	bl	80033e4 <HAL_GetTick>
 8004630:	0005      	movs	r5, r0

   /* Wait for register to be updated */
  while(hiwdg->Instance->SR != RESET)
 8004632:	6823      	ldr	r3, [r4, #0]
 8004634:	68d8      	ldr	r0, [r3, #12]
 8004636:	2800      	cmp	r0, #0
 8004638:	d105      	bne.n	8004646 <HAL_IWDG_Init+0x72>
    }
  }

  /* If window parameter is different than current value, modify window 
  register */
  if(hiwdg->Instance->WINR != hiwdg->Init.Window)
 800463a:	6919      	ldr	r1, [r3, #16]
 800463c:	68e2      	ldr	r2, [r4, #12]
 800463e:	4291      	cmp	r1, r2
 8004640:	d008      	beq.n	8004654 <HAL_IWDG_Init+0x80>
  {
    /* Write to IWDG WINR the IWDG_Window value to compare with. In any case,
    even if window feature is disabled, Watchdog will be reloaded by writing 
    windows register */
    hiwdg->Instance->WINR = hiwdg->Init.Window;
 8004642:	611a      	str	r2, [r3, #16]
    __HAL_IWDG_RELOAD_COUNTER(hiwdg);
  }

  /* Return function status */
  return HAL_OK;
}
 8004644:	bd70      	pop	{r4, r5, r6, pc}
    if((HAL_GetTick() - tickstart ) > HAL_IWDG_DEFAULT_TIMEOUT)
 8004646:	f7fe fecd 	bl	80033e4 <HAL_GetTick>
 800464a:	1b40      	subs	r0, r0, r5
 800464c:	2827      	cmp	r0, #39	; 0x27
 800464e:	d9f0      	bls.n	8004632 <HAL_IWDG_Init+0x5e>
      return HAL_TIMEOUT;
 8004650:	2003      	movs	r0, #3
 8004652:	e7f7      	b.n	8004644 <HAL_IWDG_Init+0x70>
    __HAL_IWDG_RELOAD_COUNTER(hiwdg);
 8004654:	4a06      	ldr	r2, [pc, #24]	; (8004670 <HAL_IWDG_Init+0x9c>)
 8004656:	601a      	str	r2, [r3, #0]
 8004658:	e7f4      	b.n	8004644 <HAL_IWDG_Init+0x70>
 800465a:	46c0      	nop			; (mov r8, r8)
 800465c:	40003000 	.word	0x40003000
 8004660:	08007518 	.word	0x08007518
 8004664:	00000fff 	.word	0x00000fff
 8004668:	0000cccc 	.word	0x0000cccc
 800466c:	00005555 	.word	0x00005555
 8004670:	0000aaaa 	.word	0x0000aaaa

08004674 <HAL_IWDG_Refresh>:
  * @retval HAL status
  */
HAL_StatusTypeDef HAL_IWDG_Refresh(IWDG_HandleTypeDef *hiwdg)
{
  /* Reload IWDG counter with value defined in the reload register */
  __HAL_IWDG_RELOAD_COUNTER(hiwdg);
 8004674:	6803      	ldr	r3, [r0, #0]
 8004676:	4a02      	ldr	r2, [pc, #8]	; (8004680 <HAL_IWDG_Refresh+0xc>)

  /* Return function status */
  return HAL_OK;
}
 8004678:	2000      	movs	r0, #0
  __HAL_IWDG_RELOAD_COUNTER(hiwdg);
 800467a:	601a      	str	r2, [r3, #0]
}
 800467c:	4770      	bx	lr
 800467e:	46c0      	nop			; (mov r8, r8)
 8004680:	0000aaaa 	.word	0x0000aaaa

08004684 <HAL_RCC_OscConfig>:
  *         supported by this macro. User should request a transition to HSE Off
  *         first and then HSE On or HSE Bypass.
  * @retval HAL status
  */
HAL_StatusTypeDef HAL_RCC_OscConfig(RCC_OscInitTypeDef  *RCC_OscInitStruct)
{
 8004684:	b5f0      	push	{r4, r5, r6, r7, lr}
 8004686:	0004      	movs	r4, r0
 8004688:	b085      	sub	sp, #20
   uint32_t tickstart = 0U;
  
  /* Check the parameters */
  assert_param(RCC_OscInitStruct != NULL);
 800468a:	2800      	cmp	r0, #0
 800468c:	d104      	bne.n	8004698 <HAL_RCC_OscConfig+0x14>
 800468e:	2189      	movs	r1, #137	; 0x89
 8004690:	48b8      	ldr	r0, [pc, #736]	; (8004974 <HAL_RCC_OscConfig+0x2f0>)
 8004692:	0049      	lsls	r1, r1, #1
 8004694:	f7fe f96b 	bl	800296e <assert_failed>
  assert_param(IS_RCC_OSCILLATORTYPE(RCC_OscInitStruct->OscillatorType));
 8004698:	6823      	ldr	r3, [r4, #0]
 800469a:	2b00      	cmp	r3, #0
 800469c:	d006      	beq.n	80046ac <HAL_RCC_OscConfig+0x28>
 800469e:	06db      	lsls	r3, r3, #27
 80046a0:	d104      	bne.n	80046ac <HAL_RCC_OscConfig+0x28>
 80046a2:	2114      	movs	r1, #20
 80046a4:	48b3      	ldr	r0, [pc, #716]	; (8004974 <HAL_RCC_OscConfig+0x2f0>)
 80046a6:	31ff      	adds	r1, #255	; 0xff
 80046a8:	f7fe f961 	bl	800296e <assert_failed>

  /*------------------------------- HSE Configuration ------------------------*/ 
  if(((RCC_OscInitStruct->OscillatorType) & RCC_OSCILLATORTYPE_HSE) == RCC_OSCILLATORTYPE_HSE)
 80046ac:	6823      	ldr	r3, [r4, #0]
 80046ae:	07db      	lsls	r3, r3, #31
 80046b0:	d448      	bmi.n	8004744 <HAL_RCC_OscConfig+0xc0>
        }
      }
    }
  }
  /*----------------------------- HSI Configuration --------------------------*/ 
  if(((RCC_OscInitStruct->OscillatorType) & RCC_OSCILLATORTYPE_HSI) == RCC_OSCILLATORTYPE_HSI)
 80046b2:	6823      	ldr	r3, [r4, #0]
 80046b4:	079b      	lsls	r3, r3, #30
 80046b6:	d500      	bpl.n	80046ba <HAL_RCC_OscConfig+0x36>
 80046b8:	e0a5      	b.n	8004806 <HAL_RCC_OscConfig+0x182>
        }
      }
    }
  }
  /*------------------------------ LSI Configuration -------------------------*/ 
  if(((RCC_OscInitStruct->OscillatorType) & RCC_OSCILLATORTYPE_LSI) == RCC_OSCILLATORTYPE_LSI)
 80046ba:	6823      	ldr	r3, [r4, #0]
 80046bc:	071b      	lsls	r3, r3, #28
 80046be:	d500      	bpl.n	80046c2 <HAL_RCC_OscConfig+0x3e>
 80046c0:	e0f0      	b.n	80048a4 <HAL_RCC_OscConfig+0x220>
        }
      }
    }
  }
  /*------------------------------ LSE Configuration -------------------------*/ 
  if(((RCC_OscInitStruct->OscillatorType) & RCC_OSCILLATORTYPE_LSE) == RCC_OSCILLATORTYPE_LSE)
 80046c2:	6823      	ldr	r3, [r4, #0]
 80046c4:	075b      	lsls	r3, r3, #29
 80046c6:	d500      	bpl.n	80046ca <HAL_RCC_OscConfig+0x46>
 80046c8:	e11b      	b.n	8004902 <HAL_RCC_OscConfig+0x27e>
      __HAL_RCC_PWR_CLK_DISABLE();
    }
  }

  /*----------------------------- HSI14 Configuration --------------------------*/
  if(((RCC_OscInitStruct->OscillatorType) & RCC_OSCILLATORTYPE_HSI14) == RCC_OSCILLATORTYPE_HSI14)
 80046ca:	6823      	ldr	r3, [r4, #0]
 80046cc:	06db      	lsls	r3, r3, #27
 80046ce:	d52b      	bpl.n	8004728 <HAL_RCC_OscConfig+0xa4>
  {
    /* Check the parameters */
    assert_param(IS_RCC_HSI14(RCC_OscInitStruct->HSI14State));
 80046d0:	6963      	ldr	r3, [r4, #20]
 80046d2:	2b01      	cmp	r3, #1
 80046d4:	d906      	bls.n	80046e4 <HAL_RCC_OscConfig+0x60>
 80046d6:	3305      	adds	r3, #5
 80046d8:	d004      	beq.n	80046e4 <HAL_RCC_OscConfig+0x60>
 80046da:	2180      	movs	r1, #128	; 0x80
 80046dc:	48a5      	ldr	r0, [pc, #660]	; (8004974 <HAL_RCC_OscConfig+0x2f0>)
 80046de:	0089      	lsls	r1, r1, #2
 80046e0:	f7fe f945 	bl	800296e <assert_failed>
    assert_param(IS_RCC_CALIBRATION_VALUE(RCC_OscInitStruct->HSI14CalibrationValue));
 80046e4:	69a3      	ldr	r3, [r4, #24]
 80046e6:	2b1f      	cmp	r3, #31
 80046e8:	d903      	bls.n	80046f2 <HAL_RCC_OscConfig+0x6e>
 80046ea:	49a3      	ldr	r1, [pc, #652]	; (8004978 <HAL_RCC_OscConfig+0x2f4>)
 80046ec:	48a1      	ldr	r0, [pc, #644]	; (8004974 <HAL_RCC_OscConfig+0x2f0>)
 80046ee:	f7fe f93e 	bl	800296e <assert_failed>

    /* Check the HSI14 State */
    if(RCC_OscInitStruct->HSI14State == RCC_HSI14_ON)
 80046f2:	6962      	ldr	r2, [r4, #20]
 80046f4:	4da1      	ldr	r5, [pc, #644]	; (800497c <HAL_RCC_OscConfig+0x2f8>)
 80046f6:	2304      	movs	r3, #4
 80046f8:	2a01      	cmp	r2, #1
 80046fa:	d000      	beq.n	80046fe <HAL_RCC_OscConfig+0x7a>
 80046fc:	e18d      	b.n	8004a1a <HAL_RCC_OscConfig+0x396>
    {
      /* Disable ADC control of the Internal High Speed oscillator HSI14 */
      __HAL_RCC_HSI14ADC_DISABLE();
 80046fe:	6b69      	ldr	r1, [r5, #52]	; 0x34

      /* Get Start Tick */
      tickstart = HAL_GetTick();
      
      /* Wait till HSI is ready */  
      while(__HAL_RCC_GET_FLAG(RCC_FLAG_HSI14RDY) == RESET)
 8004700:	2602      	movs	r6, #2
      __HAL_RCC_HSI14ADC_DISABLE();
 8004702:	430b      	orrs	r3, r1
 8004704:	636b      	str	r3, [r5, #52]	; 0x34
      __HAL_RCC_HSI14_ENABLE();
 8004706:	6b6b      	ldr	r3, [r5, #52]	; 0x34
 8004708:	431a      	orrs	r2, r3
 800470a:	636a      	str	r2, [r5, #52]	; 0x34
      tickstart = HAL_GetTick();
 800470c:	f7fe fe6a 	bl	80033e4 <HAL_GetTick>
 8004710:	0007      	movs	r7, r0
      while(__HAL_RCC_GET_FLAG(RCC_FLAG_HSI14RDY) == RESET)
 8004712:	6b6b      	ldr	r3, [r5, #52]	; 0x34
 8004714:	4233      	tst	r3, r6
 8004716:	d100      	bne.n	800471a <HAL_RCC_OscConfig+0x96>
 8004718:	e178      	b.n	8004a0c <HAL_RCC_OscConfig+0x388>
    {
      /* Enable ADC control of the Internal High Speed oscillator HSI14 */
      __HAL_RCC_HSI14ADC_ENABLE();

      /* Adjusts the Internal High Speed oscillator 14Mhz (HSI14) calibration value. */
      __HAL_RCC_HSI14_CALIBRATIONVALUE_ADJUST(RCC_OscInitStruct->HSI14CalibrationValue);
 800471a:	21f8      	movs	r1, #248	; 0xf8
 800471c:	6b6a      	ldr	r2, [r5, #52]	; 0x34
 800471e:	69a3      	ldr	r3, [r4, #24]
 8004720:	438a      	bics	r2, r1
 8004722:	00db      	lsls	r3, r3, #3
 8004724:	4313      	orrs	r3, r2
 8004726:	636b      	str	r3, [r5, #52]	; 0x34
  }
#endif /* RCC_HSI48_SUPPORT */
       
  /*-------------------------------- PLL Configuration -----------------------*/
  /* Check the parameters */
  assert_param(IS_RCC_PLL(RCC_OscInitStruct->PLL.PLLState));
 8004728:	6a23      	ldr	r3, [r4, #32]
 800472a:	2b02      	cmp	r3, #2
 800472c:	d904      	bls.n	8004738 <HAL_RCC_OscConfig+0xb4>
 800472e:	219d      	movs	r1, #157	; 0x9d
 8004730:	4890      	ldr	r0, [pc, #576]	; (8004974 <HAL_RCC_OscConfig+0x2f0>)
 8004732:	0089      	lsls	r1, r1, #2
 8004734:	f7fe f91b 	bl	800296e <assert_failed>
  if ((RCC_OscInitStruct->PLL.PLLState) != RCC_PLL_NONE)
 8004738:	6a22      	ldr	r2, [r4, #32]
 800473a:	2a00      	cmp	r2, #0
 800473c:	d000      	beq.n	8004740 <HAL_RCC_OscConfig+0xbc>
 800473e:	e187      	b.n	8004a50 <HAL_RCC_OscConfig+0x3cc>
    {
      return HAL_ERROR;
    }
  }
  
  return HAL_OK;
 8004740:	2000      	movs	r0, #0
 8004742:	e01d      	b.n	8004780 <HAL_RCC_OscConfig+0xfc>
    assert_param(IS_RCC_HSE(RCC_OscInitStruct->HSEState));
 8004744:	6863      	ldr	r3, [r4, #4]
 8004746:	2b01      	cmp	r3, #1
 8004748:	d906      	bls.n	8004758 <HAL_RCC_OscConfig+0xd4>
 800474a:	2b05      	cmp	r3, #5
 800474c:	d004      	beq.n	8004758 <HAL_RCC_OscConfig+0xd4>
 800474e:	211a      	movs	r1, #26
 8004750:	4888      	ldr	r0, [pc, #544]	; (8004974 <HAL_RCC_OscConfig+0x2f0>)
 8004752:	31ff      	adds	r1, #255	; 0xff
 8004754:	f7fe f90b 	bl	800296e <assert_failed>
    if((__HAL_RCC_GET_SYSCLK_SOURCE() == RCC_SYSCLKSOURCE_STATUS_HSE) 
 8004758:	210c      	movs	r1, #12
 800475a:	4d88      	ldr	r5, [pc, #544]	; (800497c <HAL_RCC_OscConfig+0x2f8>)
 800475c:	686a      	ldr	r2, [r5, #4]
 800475e:	400a      	ands	r2, r1
 8004760:	2a04      	cmp	r2, #4
 8004762:	d006      	beq.n	8004772 <HAL_RCC_OscConfig+0xee>
       || ((__HAL_RCC_GET_SYSCLK_SOURCE() == RCC_SYSCLKSOURCE_STATUS_PLLCLK) && (__HAL_RCC_GET_PLL_OSCSOURCE() == RCC_PLLSOURCE_HSE)))
 8004764:	686b      	ldr	r3, [r5, #4]
 8004766:	400b      	ands	r3, r1
 8004768:	2b08      	cmp	r3, #8
 800476a:	d10b      	bne.n	8004784 <HAL_RCC_OscConfig+0x100>
 800476c:	686b      	ldr	r3, [r5, #4]
 800476e:	03db      	lsls	r3, r3, #15
 8004770:	d508      	bpl.n	8004784 <HAL_RCC_OscConfig+0x100>
      if((__HAL_RCC_GET_FLAG(RCC_FLAG_HSERDY) != RESET) && (RCC_OscInitStruct->HSEState == RCC_HSE_OFF))
 8004772:	682b      	ldr	r3, [r5, #0]
 8004774:	039b      	lsls	r3, r3, #14
 8004776:	d59c      	bpl.n	80046b2 <HAL_RCC_OscConfig+0x2e>
 8004778:	6863      	ldr	r3, [r4, #4]
 800477a:	2b00      	cmp	r3, #0
 800477c:	d199      	bne.n	80046b2 <HAL_RCC_OscConfig+0x2e>
        return HAL_ERROR;
 800477e:	2001      	movs	r0, #1
}
 8004780:	b005      	add	sp, #20
 8004782:	bdf0      	pop	{r4, r5, r6, r7, pc}
      __HAL_RCC_HSE_CONFIG(RCC_OscInitStruct->HSEState);
 8004784:	6863      	ldr	r3, [r4, #4]
 8004786:	2b01      	cmp	r3, #1
 8004788:	d114      	bne.n	80047b4 <HAL_RCC_OscConfig+0x130>
 800478a:	2380      	movs	r3, #128	; 0x80
 800478c:	682a      	ldr	r2, [r5, #0]
 800478e:	025b      	lsls	r3, r3, #9
 8004790:	4313      	orrs	r3, r2
 8004792:	602b      	str	r3, [r5, #0]
        tickstart = HAL_GetTick();
 8004794:	f7fe fe26 	bl	80033e4 <HAL_GetTick>
        while(__HAL_RCC_GET_FLAG(RCC_FLAG_HSERDY) == RESET)
 8004798:	2680      	movs	r6, #128	; 0x80
        tickstart = HAL_GetTick();
 800479a:	0007      	movs	r7, r0
        while(__HAL_RCC_GET_FLAG(RCC_FLAG_HSERDY) == RESET)
 800479c:	02b6      	lsls	r6, r6, #10
 800479e:	682b      	ldr	r3, [r5, #0]
 80047a0:	4233      	tst	r3, r6
 80047a2:	d000      	beq.n	80047a6 <HAL_RCC_OscConfig+0x122>
 80047a4:	e785      	b.n	80046b2 <HAL_RCC_OscConfig+0x2e>
          if((HAL_GetTick() - tickstart ) > HSE_TIMEOUT_VALUE)
 80047a6:	f7fe fe1d 	bl	80033e4 <HAL_GetTick>
 80047aa:	1bc0      	subs	r0, r0, r7
 80047ac:	2864      	cmp	r0, #100	; 0x64
 80047ae:	d9f6      	bls.n	800479e <HAL_RCC_OscConfig+0x11a>
            return HAL_TIMEOUT;
 80047b0:	2003      	movs	r0, #3
 80047b2:	e7e5      	b.n	8004780 <HAL_RCC_OscConfig+0xfc>
      __HAL_RCC_HSE_CONFIG(RCC_OscInitStruct->HSEState);
 80047b4:	2b00      	cmp	r3, #0
 80047b6:	d116      	bne.n	80047e6 <HAL_RCC_OscConfig+0x162>
 80047b8:	682b      	ldr	r3, [r5, #0]
 80047ba:	4a71      	ldr	r2, [pc, #452]	; (8004980 <HAL_RCC_OscConfig+0x2fc>)
        while(__HAL_RCC_GET_FLAG(RCC_FLAG_HSERDY) != RESET)
 80047bc:	2680      	movs	r6, #128	; 0x80
      __HAL_RCC_HSE_CONFIG(RCC_OscInitStruct->HSEState);
 80047be:	4013      	ands	r3, r2
 80047c0:	602b      	str	r3, [r5, #0]
 80047c2:	682b      	ldr	r3, [r5, #0]
 80047c4:	4a6f      	ldr	r2, [pc, #444]	; (8004984 <HAL_RCC_OscConfig+0x300>)
        while(__HAL_RCC_GET_FLAG(RCC_FLAG_HSERDY) != RESET)
 80047c6:	02b6      	lsls	r6, r6, #10
      __HAL_RCC_HSE_CONFIG(RCC_OscInitStruct->HSEState);
 80047c8:	4013      	ands	r3, r2
 80047ca:	602b      	str	r3, [r5, #0]
        tickstart = HAL_GetTick();
 80047cc:	f7fe fe0a 	bl	80033e4 <HAL_GetTick>
 80047d0:	0007      	movs	r7, r0
        while(__HAL_RCC_GET_FLAG(RCC_FLAG_HSERDY) != RESET)
 80047d2:	682b      	ldr	r3, [r5, #0]
 80047d4:	4233      	tst	r3, r6
 80047d6:	d100      	bne.n	80047da <HAL_RCC_OscConfig+0x156>
 80047d8:	e76b      	b.n	80046b2 <HAL_RCC_OscConfig+0x2e>
           if((HAL_GetTick() - tickstart ) > HSE_TIMEOUT_VALUE)
 80047da:	f7fe fe03 	bl	80033e4 <HAL_GetTick>
 80047de:	1bc0      	subs	r0, r0, r7
 80047e0:	2864      	cmp	r0, #100	; 0x64
 80047e2:	d9f6      	bls.n	80047d2 <HAL_RCC_OscConfig+0x14e>
 80047e4:	e7e4      	b.n	80047b0 <HAL_RCC_OscConfig+0x12c>
      __HAL_RCC_HSE_CONFIG(RCC_OscInitStruct->HSEState);
 80047e6:	2b05      	cmp	r3, #5
 80047e8:	d105      	bne.n	80047f6 <HAL_RCC_OscConfig+0x172>
 80047ea:	2380      	movs	r3, #128	; 0x80
 80047ec:	682a      	ldr	r2, [r5, #0]
 80047ee:	02db      	lsls	r3, r3, #11
 80047f0:	4313      	orrs	r3, r2
 80047f2:	602b      	str	r3, [r5, #0]
 80047f4:	e7c9      	b.n	800478a <HAL_RCC_OscConfig+0x106>
 80047f6:	682b      	ldr	r3, [r5, #0]
 80047f8:	4a61      	ldr	r2, [pc, #388]	; (8004980 <HAL_RCC_OscConfig+0x2fc>)
 80047fa:	4013      	ands	r3, r2
 80047fc:	602b      	str	r3, [r5, #0]
 80047fe:	682b      	ldr	r3, [r5, #0]
 8004800:	4a60      	ldr	r2, [pc, #384]	; (8004984 <HAL_RCC_OscConfig+0x300>)
 8004802:	4013      	ands	r3, r2
 8004804:	e7c5      	b.n	8004792 <HAL_RCC_OscConfig+0x10e>
    assert_param(IS_RCC_HSI(RCC_OscInitStruct->HSIState));
 8004806:	68e3      	ldr	r3, [r4, #12]
 8004808:	2b01      	cmp	r3, #1
 800480a:	d904      	bls.n	8004816 <HAL_RCC_OscConfig+0x192>
 800480c:	214e      	movs	r1, #78	; 0x4e
 800480e:	4859      	ldr	r0, [pc, #356]	; (8004974 <HAL_RCC_OscConfig+0x2f0>)
 8004810:	31ff      	adds	r1, #255	; 0xff
 8004812:	f7fe f8ac 	bl	800296e <assert_failed>
    assert_param(IS_RCC_CALIBRATION_VALUE(RCC_OscInitStruct->HSICalibrationValue));
 8004816:	6923      	ldr	r3, [r4, #16]
 8004818:	2b1f      	cmp	r3, #31
 800481a:	d904      	bls.n	8004826 <HAL_RCC_OscConfig+0x1a2>
 800481c:	21a7      	movs	r1, #167	; 0xa7
 800481e:	4855      	ldr	r0, [pc, #340]	; (8004974 <HAL_RCC_OscConfig+0x2f0>)
 8004820:	0049      	lsls	r1, r1, #1
 8004822:	f7fe f8a4 	bl	800296e <assert_failed>
    if((__HAL_RCC_GET_SYSCLK_SOURCE() == RCC_SYSCLKSOURCE_STATUS_HSI) 
 8004826:	220c      	movs	r2, #12
 8004828:	4d54      	ldr	r5, [pc, #336]	; (800497c <HAL_RCC_OscConfig+0x2f8>)
 800482a:	686b      	ldr	r3, [r5, #4]
 800482c:	4213      	tst	r3, r2
 800482e:	d006      	beq.n	800483e <HAL_RCC_OscConfig+0x1ba>
       || ((__HAL_RCC_GET_SYSCLK_SOURCE() == RCC_SYSCLKSOURCE_STATUS_PLLCLK) && (__HAL_RCC_GET_PLL_OSCSOURCE() == RCC_PLLSOURCE_HSI)))
 8004830:	686b      	ldr	r3, [r5, #4]
 8004832:	4013      	ands	r3, r2
 8004834:	2b08      	cmp	r3, #8
 8004836:	d110      	bne.n	800485a <HAL_RCC_OscConfig+0x1d6>
 8004838:	686b      	ldr	r3, [r5, #4]
 800483a:	03db      	lsls	r3, r3, #15
 800483c:	d40d      	bmi.n	800485a <HAL_RCC_OscConfig+0x1d6>
      if((__HAL_RCC_GET_FLAG(RCC_FLAG_HSIRDY) != RESET) && (RCC_OscInitStruct->HSIState != RCC_HSI_ON))
 800483e:	682b      	ldr	r3, [r5, #0]
 8004840:	079b      	lsls	r3, r3, #30
 8004842:	d502      	bpl.n	800484a <HAL_RCC_OscConfig+0x1c6>
 8004844:	68e3      	ldr	r3, [r4, #12]
 8004846:	2b01      	cmp	r3, #1
 8004848:	d199      	bne.n	800477e <HAL_RCC_OscConfig+0xfa>
        __HAL_RCC_HSI_CALIBRATIONVALUE_ADJUST(RCC_OscInitStruct->HSICalibrationValue);
 800484a:	21f8      	movs	r1, #248	; 0xf8
 800484c:	682a      	ldr	r2, [r5, #0]
 800484e:	6923      	ldr	r3, [r4, #16]
 8004850:	438a      	bics	r2, r1
 8004852:	00db      	lsls	r3, r3, #3
 8004854:	4313      	orrs	r3, r2
 8004856:	602b      	str	r3, [r5, #0]
 8004858:	e72f      	b.n	80046ba <HAL_RCC_OscConfig+0x36>
      if(RCC_OscInitStruct->HSIState != RCC_HSI_OFF)
 800485a:	68e2      	ldr	r2, [r4, #12]
 800485c:	2301      	movs	r3, #1
 800485e:	2a00      	cmp	r2, #0
 8004860:	d00f      	beq.n	8004882 <HAL_RCC_OscConfig+0x1fe>
        __HAL_RCC_HSI_ENABLE();
 8004862:	682a      	ldr	r2, [r5, #0]
        while(__HAL_RCC_GET_FLAG(RCC_FLAG_HSIRDY) == RESET)
 8004864:	2602      	movs	r6, #2
        __HAL_RCC_HSI_ENABLE();
 8004866:	4313      	orrs	r3, r2
 8004868:	602b      	str	r3, [r5, #0]
        tickstart = HAL_GetTick();
 800486a:	f7fe fdbb 	bl	80033e4 <HAL_GetTick>
 800486e:	0007      	movs	r7, r0
        while(__HAL_RCC_GET_FLAG(RCC_FLAG_HSIRDY) == RESET)
 8004870:	682b      	ldr	r3, [r5, #0]
 8004872:	4233      	tst	r3, r6
 8004874:	d1e9      	bne.n	800484a <HAL_RCC_OscConfig+0x1c6>
          if((HAL_GetTick() - tickstart ) > HSI_TIMEOUT_VALUE)
 8004876:	f7fe fdb5 	bl	80033e4 <HAL_GetTick>
 800487a:	1bc0      	subs	r0, r0, r7
 800487c:	2802      	cmp	r0, #2
 800487e:	d9f7      	bls.n	8004870 <HAL_RCC_OscConfig+0x1ec>
 8004880:	e796      	b.n	80047b0 <HAL_RCC_OscConfig+0x12c>
        __HAL_RCC_HSI_DISABLE();
 8004882:	682a      	ldr	r2, [r5, #0]
        while(__HAL_RCC_GET_FLAG(RCC_FLAG_HSIRDY) != RESET)
 8004884:	2602      	movs	r6, #2
        __HAL_RCC_HSI_DISABLE();
 8004886:	439a      	bics	r2, r3
 8004888:	602a      	str	r2, [r5, #0]
        tickstart = HAL_GetTick();
 800488a:	f7fe fdab 	bl	80033e4 <HAL_GetTick>
 800488e:	0007      	movs	r7, r0
        while(__HAL_RCC_GET_FLAG(RCC_FLAG_HSIRDY) != RESET)
 8004890:	682b      	ldr	r3, [r5, #0]
 8004892:	4233      	tst	r3, r6
 8004894:	d100      	bne.n	8004898 <HAL_RCC_OscConfig+0x214>
 8004896:	e710      	b.n	80046ba <HAL_RCC_OscConfig+0x36>
          if((HAL_GetTick() - tickstart ) > HSI_TIMEOUT_VALUE)
 8004898:	f7fe fda4 	bl	80033e4 <HAL_GetTick>
 800489c:	1bc0      	subs	r0, r0, r7
 800489e:	2802      	cmp	r0, #2
 80048a0:	d9f6      	bls.n	8004890 <HAL_RCC_OscConfig+0x20c>
 80048a2:	e785      	b.n	80047b0 <HAL_RCC_OscConfig+0x12c>
    assert_param(IS_RCC_LSI(RCC_OscInitStruct->LSIState));
 80048a4:	69e3      	ldr	r3, [r4, #28]
 80048a6:	2b01      	cmp	r3, #1
 80048a8:	d904      	bls.n	80048b4 <HAL_RCC_OscConfig+0x230>
 80048aa:	21c7      	movs	r1, #199	; 0xc7
 80048ac:	4831      	ldr	r0, [pc, #196]	; (8004974 <HAL_RCC_OscConfig+0x2f0>)
 80048ae:	0049      	lsls	r1, r1, #1
 80048b0:	f7fe f85d 	bl	800296e <assert_failed>
    if(RCC_OscInitStruct->LSIState != RCC_LSI_OFF)
 80048b4:	69e2      	ldr	r2, [r4, #28]
 80048b6:	2301      	movs	r3, #1
 80048b8:	4d30      	ldr	r5, [pc, #192]	; (800497c <HAL_RCC_OscConfig+0x2f8>)
 80048ba:	2a00      	cmp	r2, #0
 80048bc:	d010      	beq.n	80048e0 <HAL_RCC_OscConfig+0x25c>
      __HAL_RCC_LSI_ENABLE();
 80048be:	6a6a      	ldr	r2, [r5, #36]	; 0x24
      while(__HAL_RCC_GET_FLAG(RCC_FLAG_LSIRDY) == RESET)
 80048c0:	2602      	movs	r6, #2
      __HAL_RCC_LSI_ENABLE();
 80048c2:	4313      	orrs	r3, r2
 80048c4:	626b      	str	r3, [r5, #36]	; 0x24
      tickstart = HAL_GetTick();
 80048c6:	f7fe fd8d 	bl	80033e4 <HAL_GetTick>
 80048ca:	0007      	movs	r7, r0
      while(__HAL_RCC_GET_FLAG(RCC_FLAG_LSIRDY) == RESET)
 80048cc:	6a6b      	ldr	r3, [r5, #36]	; 0x24
 80048ce:	4233      	tst	r3, r6
 80048d0:	d000      	beq.n	80048d4 <HAL_RCC_OscConfig+0x250>
 80048d2:	e6f6      	b.n	80046c2 <HAL_RCC_OscConfig+0x3e>
        if((HAL_GetTick() - tickstart ) > LSI_TIMEOUT_VALUE)
 80048d4:	f7fe fd86 	bl	80033e4 <HAL_GetTick>
 80048d8:	1bc0      	subs	r0, r0, r7
 80048da:	2802      	cmp	r0, #2
 80048dc:	d9f6      	bls.n	80048cc <HAL_RCC_OscConfig+0x248>
 80048de:	e767      	b.n	80047b0 <HAL_RCC_OscConfig+0x12c>
      __HAL_RCC_LSI_DISABLE();
 80048e0:	6a6a      	ldr	r2, [r5, #36]	; 0x24
      while(__HAL_RCC_GET_FLAG(RCC_FLAG_LSIRDY) != RESET)
 80048e2:	2602      	movs	r6, #2
      __HAL_RCC_LSI_DISABLE();
 80048e4:	439a      	bics	r2, r3
 80048e6:	626a      	str	r2, [r5, #36]	; 0x24
      tickstart = HAL_GetTick();
 80048e8:	f7fe fd7c 	bl	80033e4 <HAL_GetTick>
 80048ec:	0007      	movs	r7, r0
      while(__HAL_RCC_GET_FLAG(RCC_FLAG_LSIRDY) != RESET)
 80048ee:	6a6b      	ldr	r3, [r5, #36]	; 0x24
 80048f0:	4233      	tst	r3, r6
 80048f2:	d100      	bne.n	80048f6 <HAL_RCC_OscConfig+0x272>
 80048f4:	e6e5      	b.n	80046c2 <HAL_RCC_OscConfig+0x3e>
        if((HAL_GetTick() - tickstart ) > LSI_TIMEOUT_VALUE)
 80048f6:	f7fe fd75 	bl	80033e4 <HAL_GetTick>
 80048fa:	1bc0      	subs	r0, r0, r7
 80048fc:	2802      	cmp	r0, #2
 80048fe:	d9f6      	bls.n	80048ee <HAL_RCC_OscConfig+0x26a>
 8004900:	e756      	b.n	80047b0 <HAL_RCC_OscConfig+0x12c>
    assert_param(IS_RCC_LSE(RCC_OscInitStruct->LSEState));
 8004902:	68a3      	ldr	r3, [r4, #8]
 8004904:	2b01      	cmp	r3, #1
 8004906:	d906      	bls.n	8004916 <HAL_RCC_OscConfig+0x292>
 8004908:	2b05      	cmp	r3, #5
 800490a:	d004      	beq.n	8004916 <HAL_RCC_OscConfig+0x292>
 800490c:	21dd      	movs	r1, #221	; 0xdd
 800490e:	4819      	ldr	r0, [pc, #100]	; (8004974 <HAL_RCC_OscConfig+0x2f0>)
 8004910:	0049      	lsls	r1, r1, #1
 8004912:	f7fe f82c 	bl	800296e <assert_failed>
    if(__HAL_RCC_PWR_IS_CLK_DISABLED())
 8004916:	2280      	movs	r2, #128	; 0x80
    FlagStatus       pwrclkchanged = RESET;
 8004918:	2100      	movs	r1, #0
    if(__HAL_RCC_PWR_IS_CLK_DISABLED())
 800491a:	4d18      	ldr	r5, [pc, #96]	; (800497c <HAL_RCC_OscConfig+0x2f8>)
 800491c:	0552      	lsls	r2, r2, #21
 800491e:	69eb      	ldr	r3, [r5, #28]
    FlagStatus       pwrclkchanged = RESET;
 8004920:	9100      	str	r1, [sp, #0]
    if(__HAL_RCC_PWR_IS_CLK_DISABLED())
 8004922:	4213      	tst	r3, r2
 8004924:	d108      	bne.n	8004938 <HAL_RCC_OscConfig+0x2b4>
      __HAL_RCC_PWR_CLK_ENABLE();
 8004926:	69eb      	ldr	r3, [r5, #28]
 8004928:	4313      	orrs	r3, r2
 800492a:	61eb      	str	r3, [r5, #28]
 800492c:	69eb      	ldr	r3, [r5, #28]
 800492e:	4013      	ands	r3, r2
 8004930:	9303      	str	r3, [sp, #12]
 8004932:	9b03      	ldr	r3, [sp, #12]
      pwrclkchanged = SET;
 8004934:	2301      	movs	r3, #1
 8004936:	9300      	str	r3, [sp, #0]
    if(HAL_IS_BIT_CLR(PWR->CR, PWR_CR_DBP))
 8004938:	2780      	movs	r7, #128	; 0x80
 800493a:	4e13      	ldr	r6, [pc, #76]	; (8004988 <HAL_RCC_OscConfig+0x304>)
 800493c:	007f      	lsls	r7, r7, #1
 800493e:	6833      	ldr	r3, [r6, #0]
 8004940:	423b      	tst	r3, r7
 8004942:	d006      	beq.n	8004952 <HAL_RCC_OscConfig+0x2ce>
    __HAL_RCC_LSE_CONFIG(RCC_OscInitStruct->LSEState);
 8004944:	68a3      	ldr	r3, [r4, #8]
 8004946:	2b01      	cmp	r3, #1
 8004948:	d120      	bne.n	800498c <HAL_RCC_OscConfig+0x308>
 800494a:	6a2a      	ldr	r2, [r5, #32]
 800494c:	4313      	orrs	r3, r2
 800494e:	622b      	str	r3, [r5, #32]
 8004950:	e03d      	b.n	80049ce <HAL_RCC_OscConfig+0x34a>
      SET_BIT(PWR->CR, PWR_CR_DBP);
 8004952:	6833      	ldr	r3, [r6, #0]
 8004954:	433b      	orrs	r3, r7
 8004956:	6033      	str	r3, [r6, #0]
      tickstart = HAL_GetTick();
 8004958:	f7fe fd44 	bl	80033e4 <HAL_GetTick>
 800495c:	9001      	str	r0, [sp, #4]
      while(HAL_IS_BIT_CLR(PWR->CR, PWR_CR_DBP))
 800495e:	6833      	ldr	r3, [r6, #0]
 8004960:	423b      	tst	r3, r7
 8004962:	d1ef      	bne.n	8004944 <HAL_RCC_OscConfig+0x2c0>
        if((HAL_GetTick() - tickstart) > RCC_DBP_TIMEOUT_VALUE)
 8004964:	f7fe fd3e 	bl	80033e4 <HAL_GetTick>
 8004968:	9b01      	ldr	r3, [sp, #4]
 800496a:	1ac0      	subs	r0, r0, r3
 800496c:	2864      	cmp	r0, #100	; 0x64
 800496e:	d9f6      	bls.n	800495e <HAL_RCC_OscConfig+0x2da>
 8004970:	e71e      	b.n	80047b0 <HAL_RCC_OscConfig+0x12c>
 8004972:	46c0      	nop			; (mov r8, r8)
 8004974:	08007551 	.word	0x08007551
 8004978:	00000201 	.word	0x00000201
 800497c:	40021000 	.word	0x40021000
 8004980:	fffeffff 	.word	0xfffeffff
 8004984:	fffbffff 	.word	0xfffbffff
 8004988:	40007000 	.word	0x40007000
 800498c:	2201      	movs	r2, #1
    __HAL_RCC_LSE_CONFIG(RCC_OscInitStruct->LSEState);
 800498e:	2b00      	cmp	r3, #0
 8004990:	d114      	bne.n	80049bc <HAL_RCC_OscConfig+0x338>
 8004992:	6a2b      	ldr	r3, [r5, #32]
      while(__HAL_RCC_GET_FLAG(RCC_FLAG_LSERDY) != RESET)
 8004994:	2702      	movs	r7, #2
    __HAL_RCC_LSE_CONFIG(RCC_OscInitStruct->LSEState);
 8004996:	4393      	bics	r3, r2
 8004998:	622b      	str	r3, [r5, #32]
 800499a:	6a2b      	ldr	r3, [r5, #32]
 800499c:	3203      	adds	r2, #3
 800499e:	4393      	bics	r3, r2
 80049a0:	622b      	str	r3, [r5, #32]
      tickstart = HAL_GetTick();
 80049a2:	f7fe fd1f 	bl	80033e4 <HAL_GetTick>
 80049a6:	0006      	movs	r6, r0
      while(__HAL_RCC_GET_FLAG(RCC_FLAG_LSERDY) != RESET)
 80049a8:	6a2b      	ldr	r3, [r5, #32]
 80049aa:	423b      	tst	r3, r7
 80049ac:	d025      	beq.n	80049fa <HAL_RCC_OscConfig+0x376>
        if((HAL_GetTick() - tickstart ) > RCC_LSE_TIMEOUT_VALUE)
 80049ae:	f7fe fd19 	bl	80033e4 <HAL_GetTick>
 80049b2:	4b64      	ldr	r3, [pc, #400]	; (8004b44 <HAL_RCC_OscConfig+0x4c0>)
 80049b4:	1b80      	subs	r0, r0, r6
 80049b6:	4298      	cmp	r0, r3
 80049b8:	d9f6      	bls.n	80049a8 <HAL_RCC_OscConfig+0x324>
 80049ba:	e6f9      	b.n	80047b0 <HAL_RCC_OscConfig+0x12c>
    __HAL_RCC_LSE_CONFIG(RCC_OscInitStruct->LSEState);
 80049bc:	2b05      	cmp	r3, #5
 80049be:	d10b      	bne.n	80049d8 <HAL_RCC_OscConfig+0x354>
 80049c0:	6a29      	ldr	r1, [r5, #32]
 80049c2:	3b01      	subs	r3, #1
 80049c4:	430b      	orrs	r3, r1
 80049c6:	622b      	str	r3, [r5, #32]
 80049c8:	6a2b      	ldr	r3, [r5, #32]
 80049ca:	431a      	orrs	r2, r3
 80049cc:	622a      	str	r2, [r5, #32]
      tickstart = HAL_GetTick();
 80049ce:	f7fe fd09 	bl	80033e4 <HAL_GetTick>
      while(__HAL_RCC_GET_FLAG(RCC_FLAG_LSERDY) == RESET)
 80049d2:	2702      	movs	r7, #2
      tickstart = HAL_GetTick();
 80049d4:	0006      	movs	r6, r0
      while(__HAL_RCC_GET_FLAG(RCC_FLAG_LSERDY) == RESET)
 80049d6:	e00d      	b.n	80049f4 <HAL_RCC_OscConfig+0x370>
    __HAL_RCC_LSE_CONFIG(RCC_OscInitStruct->LSEState);
 80049d8:	6a2b      	ldr	r3, [r5, #32]
 80049da:	4393      	bics	r3, r2
 80049dc:	2204      	movs	r2, #4
 80049de:	622b      	str	r3, [r5, #32]
 80049e0:	6a2b      	ldr	r3, [r5, #32]
 80049e2:	4393      	bics	r3, r2
 80049e4:	e7b3      	b.n	800494e <HAL_RCC_OscConfig+0x2ca>
        if((HAL_GetTick() - tickstart ) > RCC_LSE_TIMEOUT_VALUE)
 80049e6:	f7fe fcfd 	bl	80033e4 <HAL_GetTick>
 80049ea:	4b56      	ldr	r3, [pc, #344]	; (8004b44 <HAL_RCC_OscConfig+0x4c0>)
 80049ec:	1b80      	subs	r0, r0, r6
 80049ee:	4298      	cmp	r0, r3
 80049f0:	d900      	bls.n	80049f4 <HAL_RCC_OscConfig+0x370>
 80049f2:	e6dd      	b.n	80047b0 <HAL_RCC_OscConfig+0x12c>
      while(__HAL_RCC_GET_FLAG(RCC_FLAG_LSERDY) == RESET)
 80049f4:	6a2b      	ldr	r3, [r5, #32]
 80049f6:	423b      	tst	r3, r7
 80049f8:	d0f5      	beq.n	80049e6 <HAL_RCC_OscConfig+0x362>
    if(pwrclkchanged == SET)
 80049fa:	9b00      	ldr	r3, [sp, #0]
 80049fc:	2b01      	cmp	r3, #1
 80049fe:	d000      	beq.n	8004a02 <HAL_RCC_OscConfig+0x37e>
 8004a00:	e663      	b.n	80046ca <HAL_RCC_OscConfig+0x46>
      __HAL_RCC_PWR_CLK_DISABLE();
 8004a02:	69eb      	ldr	r3, [r5, #28]
 8004a04:	4a50      	ldr	r2, [pc, #320]	; (8004b48 <HAL_RCC_OscConfig+0x4c4>)
 8004a06:	4013      	ands	r3, r2
 8004a08:	61eb      	str	r3, [r5, #28]
 8004a0a:	e65e      	b.n	80046ca <HAL_RCC_OscConfig+0x46>
        if((HAL_GetTick() - tickstart) > HSI14_TIMEOUT_VALUE)
 8004a0c:	f7fe fcea 	bl	80033e4 <HAL_GetTick>
 8004a10:	1bc0      	subs	r0, r0, r7
 8004a12:	2802      	cmp	r0, #2
 8004a14:	d800      	bhi.n	8004a18 <HAL_RCC_OscConfig+0x394>
 8004a16:	e67c      	b.n	8004712 <HAL_RCC_OscConfig+0x8e>
 8004a18:	e6ca      	b.n	80047b0 <HAL_RCC_OscConfig+0x12c>
    else if(RCC_OscInitStruct->HSI14State == RCC_HSI14_ADC_CONTROL)
 8004a1a:	3205      	adds	r2, #5
 8004a1c:	d103      	bne.n	8004a26 <HAL_RCC_OscConfig+0x3a2>
      __HAL_RCC_HSI14ADC_ENABLE();
 8004a1e:	6b6a      	ldr	r2, [r5, #52]	; 0x34
 8004a20:	439a      	bics	r2, r3
 8004a22:	636a      	str	r2, [r5, #52]	; 0x34
 8004a24:	e679      	b.n	800471a <HAL_RCC_OscConfig+0x96>
      __HAL_RCC_HSI14ADC_DISABLE();
 8004a26:	6b6a      	ldr	r2, [r5, #52]	; 0x34
      while(__HAL_RCC_GET_FLAG(RCC_FLAG_HSI14RDY) != RESET)
 8004a28:	2602      	movs	r6, #2
      __HAL_RCC_HSI14ADC_DISABLE();
 8004a2a:	4313      	orrs	r3, r2
      __HAL_RCC_HSI14_DISABLE();
 8004a2c:	2201      	movs	r2, #1
      __HAL_RCC_HSI14ADC_DISABLE();
 8004a2e:	636b      	str	r3, [r5, #52]	; 0x34
      __HAL_RCC_HSI14_DISABLE();
 8004a30:	6b6b      	ldr	r3, [r5, #52]	; 0x34
 8004a32:	4393      	bics	r3, r2
 8004a34:	636b      	str	r3, [r5, #52]	; 0x34
      tickstart = HAL_GetTick();
 8004a36:	f7fe fcd5 	bl	80033e4 <HAL_GetTick>
 8004a3a:	0007      	movs	r7, r0
      while(__HAL_RCC_GET_FLAG(RCC_FLAG_HSI14RDY) != RESET)
 8004a3c:	6b6b      	ldr	r3, [r5, #52]	; 0x34
 8004a3e:	4233      	tst	r3, r6
 8004a40:	d100      	bne.n	8004a44 <HAL_RCC_OscConfig+0x3c0>
 8004a42:	e671      	b.n	8004728 <HAL_RCC_OscConfig+0xa4>
        if((HAL_GetTick() - tickstart) > HSI14_TIMEOUT_VALUE)
 8004a44:	f7fe fcce 	bl	80033e4 <HAL_GetTick>
 8004a48:	1bc0      	subs	r0, r0, r7
 8004a4a:	2802      	cmp	r0, #2
 8004a4c:	d9f6      	bls.n	8004a3c <HAL_RCC_OscConfig+0x3b8>
 8004a4e:	e6af      	b.n	80047b0 <HAL_RCC_OscConfig+0x12c>
    if(__HAL_RCC_GET_SYSCLK_SOURCE() != RCC_SYSCLKSOURCE_STATUS_PLLCLK)
 8004a50:	210c      	movs	r1, #12
 8004a52:	4d3e      	ldr	r5, [pc, #248]	; (8004b4c <HAL_RCC_OscConfig+0x4c8>)
      return HAL_ERROR;
 8004a54:	2001      	movs	r0, #1
    if(__HAL_RCC_GET_SYSCLK_SOURCE() != RCC_SYSCLKSOURCE_STATUS_PLLCLK)
 8004a56:	686b      	ldr	r3, [r5, #4]
 8004a58:	400b      	ands	r3, r1
 8004a5a:	2b08      	cmp	r3, #8
 8004a5c:	d100      	bne.n	8004a60 <HAL_RCC_OscConfig+0x3dc>
 8004a5e:	e68f      	b.n	8004780 <HAL_RCC_OscConfig+0xfc>
 8004a60:	4e3b      	ldr	r6, [pc, #236]	; (8004b50 <HAL_RCC_OscConfig+0x4cc>)
      if((RCC_OscInitStruct->PLL.PLLState) == RCC_PLL_ON)
 8004a62:	2a02      	cmp	r2, #2
 8004a64:	d15b      	bne.n	8004b1e <HAL_RCC_OscConfig+0x49a>
        assert_param(IS_RCC_PLLSOURCE(RCC_OscInitStruct->PLL.PLLSource));
 8004a66:	4b3b      	ldr	r3, [pc, #236]	; (8004b54 <HAL_RCC_OscConfig+0x4d0>)
 8004a68:	6a62      	ldr	r2, [r4, #36]	; 0x24
 8004a6a:	421a      	tst	r2, r3
 8004a6c:	d003      	beq.n	8004a76 <HAL_RCC_OscConfig+0x3f2>
 8004a6e:	493a      	ldr	r1, [pc, #232]	; (8004b58 <HAL_RCC_OscConfig+0x4d4>)
 8004a70:	483a      	ldr	r0, [pc, #232]	; (8004b5c <HAL_RCC_OscConfig+0x4d8>)
 8004a72:	f7fd ff7c 	bl	800296e <assert_failed>
        assert_param(IS_RCC_PLL_MUL(RCC_OscInitStruct->PLL.PLLMUL));
 8004a76:	6aa2      	ldr	r2, [r4, #40]	; 0x28
 8004a78:	4939      	ldr	r1, [pc, #228]	; (8004b60 <HAL_RCC_OscConfig+0x4dc>)
 8004a7a:	4b3a      	ldr	r3, [pc, #232]	; (8004b64 <HAL_RCC_OscConfig+0x4e0>)
 8004a7c:	4011      	ands	r1, r2
 8004a7e:	4013      	ands	r3, r2
 8004a80:	d013      	beq.n	8004aaa <HAL_RCC_OscConfig+0x426>
 8004a82:	2080      	movs	r0, #128	; 0x80
 8004a84:	0340      	lsls	r0, r0, #13
 8004a86:	4283      	cmp	r3, r0
 8004a88:	d00f      	beq.n	8004aaa <HAL_RCC_OscConfig+0x426>
 8004a8a:	2080      	movs	r0, #128	; 0x80
 8004a8c:	0380      	lsls	r0, r0, #14
 8004a8e:	4283      	cmp	r3, r0
 8004a90:	d00b      	beq.n	8004aaa <HAL_RCC_OscConfig+0x426>
 8004a92:	23c0      	movs	r3, #192	; 0xc0
 8004a94:	039b      	lsls	r3, r3, #14
 8004a96:	4299      	cmp	r1, r3
 8004a98:	d007      	beq.n	8004aaa <HAL_RCC_OscConfig+0x426>
 8004a9a:	23e0      	movs	r3, #224	; 0xe0
 8004a9c:	039b      	lsls	r3, r3, #14
 8004a9e:	429a      	cmp	r2, r3
 8004aa0:	d003      	beq.n	8004aaa <HAL_RCC_OscConfig+0x426>
 8004aa2:	4931      	ldr	r1, [pc, #196]	; (8004b68 <HAL_RCC_OscConfig+0x4e4>)
 8004aa4:	482d      	ldr	r0, [pc, #180]	; (8004b5c <HAL_RCC_OscConfig+0x4d8>)
 8004aa6:	f7fd ff62 	bl	800296e <assert_failed>
        assert_param(IS_RCC_PREDIV(RCC_OscInitStruct->PLL.PREDIV));
 8004aaa:	6ae3      	ldr	r3, [r4, #44]	; 0x2c
 8004aac:	2b0f      	cmp	r3, #15
 8004aae:	d903      	bls.n	8004ab8 <HAL_RCC_OscConfig+0x434>
 8004ab0:	492e      	ldr	r1, [pc, #184]	; (8004b6c <HAL_RCC_OscConfig+0x4e8>)
 8004ab2:	482a      	ldr	r0, [pc, #168]	; (8004b5c <HAL_RCC_OscConfig+0x4d8>)
 8004ab4:	f7fd ff5b 	bl	800296e <assert_failed>
        __HAL_RCC_PLL_DISABLE();
 8004ab8:	682b      	ldr	r3, [r5, #0]
 8004aba:	401e      	ands	r6, r3
 8004abc:	602e      	str	r6, [r5, #0]
        tickstart = HAL_GetTick();
 8004abe:	f7fe fc91 	bl	80033e4 <HAL_GetTick>
        while(__HAL_RCC_GET_FLAG(RCC_FLAG_PLLRDY)  != RESET)
 8004ac2:	2680      	movs	r6, #128	; 0x80
        tickstart = HAL_GetTick();
 8004ac4:	0007      	movs	r7, r0
        while(__HAL_RCC_GET_FLAG(RCC_FLAG_PLLRDY)  != RESET)
 8004ac6:	04b6      	lsls	r6, r6, #18
 8004ac8:	682b      	ldr	r3, [r5, #0]
 8004aca:	4233      	tst	r3, r6
 8004acc:	d121      	bne.n	8004b12 <HAL_RCC_OscConfig+0x48e>
        __HAL_RCC_PLL_CONFIG(RCC_OscInitStruct->PLL.PLLSource,
 8004ace:	220f      	movs	r2, #15
 8004ad0:	6aeb      	ldr	r3, [r5, #44]	; 0x2c
 8004ad2:	4393      	bics	r3, r2
 8004ad4:	6ae2      	ldr	r2, [r4, #44]	; 0x2c
 8004ad6:	4313      	orrs	r3, r2
 8004ad8:	62eb      	str	r3, [r5, #44]	; 0x2c
 8004ada:	6a61      	ldr	r1, [r4, #36]	; 0x24
 8004adc:	6aa3      	ldr	r3, [r4, #40]	; 0x28
 8004ade:	686a      	ldr	r2, [r5, #4]
 8004ae0:	430b      	orrs	r3, r1
 8004ae2:	4923      	ldr	r1, [pc, #140]	; (8004b70 <HAL_RCC_OscConfig+0x4ec>)
        while(__HAL_RCC_GET_FLAG(RCC_FLAG_PLLRDY)  == RESET)
 8004ae4:	2480      	movs	r4, #128	; 0x80
        __HAL_RCC_PLL_CONFIG(RCC_OscInitStruct->PLL.PLLSource,
 8004ae6:	400a      	ands	r2, r1
 8004ae8:	4313      	orrs	r3, r2
 8004aea:	606b      	str	r3, [r5, #4]
        __HAL_RCC_PLL_ENABLE();
 8004aec:	2380      	movs	r3, #128	; 0x80
 8004aee:	682a      	ldr	r2, [r5, #0]
 8004af0:	045b      	lsls	r3, r3, #17
 8004af2:	4313      	orrs	r3, r2
 8004af4:	602b      	str	r3, [r5, #0]
        tickstart = HAL_GetTick();
 8004af6:	f7fe fc75 	bl	80033e4 <HAL_GetTick>
 8004afa:	0006      	movs	r6, r0
        while(__HAL_RCC_GET_FLAG(RCC_FLAG_PLLRDY)  == RESET)
 8004afc:	04a4      	lsls	r4, r4, #18
 8004afe:	682b      	ldr	r3, [r5, #0]
 8004b00:	4223      	tst	r3, r4
 8004b02:	d000      	beq.n	8004b06 <HAL_RCC_OscConfig+0x482>
 8004b04:	e61c      	b.n	8004740 <HAL_RCC_OscConfig+0xbc>
          if((HAL_GetTick() - tickstart ) > PLL_TIMEOUT_VALUE)
 8004b06:	f7fe fc6d 	bl	80033e4 <HAL_GetTick>
 8004b0a:	1b80      	subs	r0, r0, r6
 8004b0c:	2802      	cmp	r0, #2
 8004b0e:	d9f6      	bls.n	8004afe <HAL_RCC_OscConfig+0x47a>
 8004b10:	e64e      	b.n	80047b0 <HAL_RCC_OscConfig+0x12c>
          if((HAL_GetTick() - tickstart ) > PLL_TIMEOUT_VALUE)
 8004b12:	f7fe fc67 	bl	80033e4 <HAL_GetTick>
 8004b16:	1bc0      	subs	r0, r0, r7
 8004b18:	2802      	cmp	r0, #2
 8004b1a:	d9d5      	bls.n	8004ac8 <HAL_RCC_OscConfig+0x444>
 8004b1c:	e648      	b.n	80047b0 <HAL_RCC_OscConfig+0x12c>
        __HAL_RCC_PLL_DISABLE();
 8004b1e:	682b      	ldr	r3, [r5, #0]
        while(__HAL_RCC_GET_FLAG(RCC_FLAG_PLLRDY)  != RESET)
 8004b20:	2480      	movs	r4, #128	; 0x80
        __HAL_RCC_PLL_DISABLE();
 8004b22:	401e      	ands	r6, r3
 8004b24:	602e      	str	r6, [r5, #0]
        tickstart = HAL_GetTick();
 8004b26:	f7fe fc5d 	bl	80033e4 <HAL_GetTick>
 8004b2a:	0006      	movs	r6, r0
        while(__HAL_RCC_GET_FLAG(RCC_FLAG_PLLRDY)  != RESET)
 8004b2c:	04a4      	lsls	r4, r4, #18
 8004b2e:	682b      	ldr	r3, [r5, #0]
 8004b30:	4223      	tst	r3, r4
 8004b32:	d100      	bne.n	8004b36 <HAL_RCC_OscConfig+0x4b2>
 8004b34:	e604      	b.n	8004740 <HAL_RCC_OscConfig+0xbc>
          if((HAL_GetTick() - tickstart ) > PLL_TIMEOUT_VALUE)
 8004b36:	f7fe fc55 	bl	80033e4 <HAL_GetTick>
 8004b3a:	1b80      	subs	r0, r0, r6
 8004b3c:	2802      	cmp	r0, #2
 8004b3e:	d9f6      	bls.n	8004b2e <HAL_RCC_OscConfig+0x4aa>
 8004b40:	e636      	b.n	80047b0 <HAL_RCC_OscConfig+0x12c>
 8004b42:	46c0      	nop			; (mov r8, r8)
 8004b44:	00001388 	.word	0x00001388
 8004b48:	efffffff 	.word	0xefffffff
 8004b4c:	40021000 	.word	0x40021000
 8004b50:	feffffff 	.word	0xfeffffff
 8004b54:	fffeffff 	.word	0xfffeffff
 8004b58:	0000027d 	.word	0x0000027d
 8004b5c:	08007551 	.word	0x08007551
 8004b60:	fffbffff 	.word	0xfffbffff
 8004b64:	fff3ffff 	.word	0xfff3ffff
 8004b68:	0000027e 	.word	0x0000027e
 8004b6c:	0000027f 	.word	0x0000027f
 8004b70:	ffc2ffff 	.word	0xffc2ffff

08004b74 <HAL_RCC_GetSysClockFreq>:
  *         right SYSCLK value. Otherwise, any configuration based on this function will be incorrect.
  *         
  * @retval SYSCLK frequency
  */
uint32_t HAL_RCC_GetSysClockFreq(void)
{
 8004b74:	b570      	push	{r4, r5, r6, lr}
  const uint8_t aPLLMULFactorTable[16] = { 2U,  3U,  4U,  5U,  6U,  7U,  8U,  9U,
 8004b76:	4c14      	ldr	r4, [pc, #80]	; (8004bc8 <HAL_RCC_GetSysClockFreq+0x54>)
{
 8004b78:	b088      	sub	sp, #32
  const uint8_t aPLLMULFactorTable[16] = { 2U,  3U,  4U,  5U,  6U,  7U,  8U,  9U,
 8004b7a:	2210      	movs	r2, #16
 8004b7c:	0021      	movs	r1, r4
 8004b7e:	4668      	mov	r0, sp
 8004b80:	f001 fe6c 	bl	800685c <memcpy>
                                         10U, 11U, 12U, 13U, 14U, 15U, 16U, 16U};
  const uint8_t aPredivFactorTable[16] = { 1U, 2U,  3U,  4U,  5U,  6U,  7U,  8U,
 8004b84:	0021      	movs	r1, r4
 8004b86:	ad04      	add	r5, sp, #16
 8004b88:	2210      	movs	r2, #16
 8004b8a:	3110      	adds	r1, #16
 8004b8c:	0028      	movs	r0, r5
 8004b8e:	f001 fe65 	bl	800685c <memcpy>
  uint32_t sysclockfreq = 0U;
  
  tmpreg = RCC->CFGR;
  
  /* Get SYSCLK source -------------------------------------------------------*/
  switch (tmpreg & RCC_CFGR_SWS)
 8004b92:	220c      	movs	r2, #12
  tmpreg = RCC->CFGR;
 8004b94:	4e0d      	ldr	r6, [pc, #52]	; (8004bcc <HAL_RCC_GetSysClockFreq+0x58>)
 8004b96:	6873      	ldr	r3, [r6, #4]
  switch (tmpreg & RCC_CFGR_SWS)
 8004b98:	401a      	ands	r2, r3
 8004b9a:	2a08      	cmp	r2, #8
 8004b9c:	d111      	bne.n	8004bc2 <HAL_RCC_GetSysClockFreq+0x4e>
      sysclockfreq = HSE_VALUE;
      break;
    }
    case RCC_SYSCLKSOURCE_STATUS_PLLCLK:  /* PLL used as system clock */
    {
      pllmul = aPLLMULFactorTable[(uint32_t)(tmpreg & RCC_CFGR_PLLMUL) >> RCC_CFGR_PLLMUL_BITNUMBER];
 8004b9e:	200f      	movs	r0, #15
 8004ba0:	466a      	mov	r2, sp
 8004ba2:	0c99      	lsrs	r1, r3, #18
 8004ba4:	4001      	ands	r1, r0
 8004ba6:	5c54      	ldrb	r4, [r2, r1]
      prediv = aPredivFactorTable[(uint32_t)(RCC->CFGR2 & RCC_CFGR2_PREDIV) >> RCC_CFGR2_PREDIV_BITNUMBER];
 8004ba8:	6af2      	ldr	r2, [r6, #44]	; 0x2c
 8004baa:	4002      	ands	r2, r0
 8004bac:	5ca9      	ldrb	r1, [r5, r2]
      if ((tmpreg & RCC_CFGR_PLLSRC) == RCC_PLLSOURCE_HSE)
 8004bae:	03db      	lsls	r3, r3, #15
 8004bb0:	d505      	bpl.n	8004bbe <HAL_RCC_GetSysClockFreq+0x4a>
      {
        /* HSE used as PLL clock source : PLLCLK = HSE/PREDIV * PLLMUL */
        pllclk = (HSE_VALUE / prediv) * pllmul;
 8004bb2:	4807      	ldr	r0, [pc, #28]	; (8004bd0 <HAL_RCC_GetSysClockFreq+0x5c>)
 8004bb4:	f7fb fab2 	bl	800011c <__udivsi3>
#if  (defined(STM32F042x6) || defined(STM32F048xx) || defined(STM32F070x6) || defined(STM32F071xB) || defined(STM32F072xB) || defined(STM32F078xx) || defined(STM32F070xB) || defined(STM32F091xC) || defined(STM32F098xx) || defined(STM32F030xC))
        /* HSI used as PLL clock source : PLLCLK = HSI/PREDIV * PLLMUL */
        pllclk = (HSI_VALUE / prediv) * pllmul;
#else
        /* HSI used as PLL clock source : PLLCLK = HSI/2 * PLLMUL */
        pllclk = (uint32_t)((HSI_VALUE >> 1U) * pllmul);
 8004bb8:	4360      	muls	r0, r4
      sysclockfreq = HSI_VALUE;
      break;
    }
  }
  return sysclockfreq;
}
 8004bba:	b008      	add	sp, #32
 8004bbc:	bd70      	pop	{r4, r5, r6, pc}
        pllclk = (uint32_t)((HSI_VALUE >> 1U) * pllmul);
 8004bbe:	4805      	ldr	r0, [pc, #20]	; (8004bd4 <HAL_RCC_GetSysClockFreq+0x60>)
 8004bc0:	e7fa      	b.n	8004bb8 <HAL_RCC_GetSysClockFreq+0x44>
      sysclockfreq = HSE_VALUE;
 8004bc2:	4803      	ldr	r0, [pc, #12]	; (8004bd0 <HAL_RCC_GetSysClockFreq+0x5c>)
  return sysclockfreq;
 8004bc4:	e7f9      	b.n	8004bba <HAL_RCC_GetSysClockFreq+0x46>
 8004bc6:	46c0      	nop			; (mov r8, r8)
 8004bc8:	08007114 	.word	0x08007114
 8004bcc:	40021000 	.word	0x40021000
 8004bd0:	007a1200 	.word	0x007a1200
 8004bd4:	003d0900 	.word	0x003d0900

08004bd8 <HAL_RCC_ClockConfig>:
{
 8004bd8:	b5f7      	push	{r0, r1, r2, r4, r5, r6, r7, lr}
 8004bda:	0004      	movs	r4, r0
 8004bdc:	000f      	movs	r7, r1
  assert_param(RCC_ClkInitStruct != NULL);
 8004bde:	2800      	cmp	r0, #0
 8004be0:	d103      	bne.n	8004bea <HAL_RCC_ClockConfig+0x12>
 8004be2:	4968      	ldr	r1, [pc, #416]	; (8004d84 <HAL_RCC_ClockConfig+0x1ac>)
 8004be4:	4868      	ldr	r0, [pc, #416]	; (8004d88 <HAL_RCC_ClockConfig+0x1b0>)
 8004be6:	f7fd fec2 	bl	800296e <assert_failed>
  assert_param(IS_RCC_CLOCKTYPE(RCC_ClkInitStruct->ClockType));
 8004bea:	6823      	ldr	r3, [r4, #0]
 8004bec:	075b      	lsls	r3, r3, #29
 8004bee:	d103      	bne.n	8004bf8 <HAL_RCC_ClockConfig+0x20>
 8004bf0:	4966      	ldr	r1, [pc, #408]	; (8004d8c <HAL_RCC_ClockConfig+0x1b4>)
 8004bf2:	4865      	ldr	r0, [pc, #404]	; (8004d88 <HAL_RCC_ClockConfig+0x1b0>)
 8004bf4:	f7fd febb 	bl	800296e <assert_failed>
  assert_param(IS_FLASH_LATENCY(FLatency));
 8004bf8:	2f01      	cmp	r7, #1
 8004bfa:	d904      	bls.n	8004c06 <HAL_RCC_ClockConfig+0x2e>
 8004bfc:	21b7      	movs	r1, #183	; 0xb7
 8004bfe:	4862      	ldr	r0, [pc, #392]	; (8004d88 <HAL_RCC_ClockConfig+0x1b0>)
 8004c00:	0089      	lsls	r1, r1, #2
 8004c02:	f7fd feb4 	bl	800296e <assert_failed>
  if(FLatency > (FLASH->ACR & FLASH_ACR_LATENCY))
 8004c06:	2201      	movs	r2, #1
 8004c08:	4d61      	ldr	r5, [pc, #388]	; (8004d90 <HAL_RCC_ClockConfig+0x1b8>)
 8004c0a:	682b      	ldr	r3, [r5, #0]
 8004c0c:	4013      	ands	r3, r2
 8004c0e:	429f      	cmp	r7, r3
 8004c10:	d81f      	bhi.n	8004c52 <HAL_RCC_ClockConfig+0x7a>
  if(((RCC_ClkInitStruct->ClockType) & RCC_CLOCKTYPE_HCLK) == RCC_CLOCKTYPE_HCLK)
 8004c12:	6823      	ldr	r3, [r4, #0]
 8004c14:	079b      	lsls	r3, r3, #30
 8004c16:	d426      	bmi.n	8004c66 <HAL_RCC_ClockConfig+0x8e>
  if(((RCC_ClkInitStruct->ClockType) & RCC_CLOCKTYPE_SYSCLK) == RCC_CLOCKTYPE_SYSCLK)
 8004c18:	6823      	ldr	r3, [r4, #0]
 8004c1a:	07db      	lsls	r3, r3, #31
 8004c1c:	d445      	bmi.n	8004caa <HAL_RCC_ClockConfig+0xd2>
  if(FLatency < (FLASH->ACR & FLASH_ACR_LATENCY))
 8004c1e:	2301      	movs	r3, #1
 8004c20:	682a      	ldr	r2, [r5, #0]
 8004c22:	401a      	ands	r2, r3
 8004c24:	4297      	cmp	r7, r2
 8004c26:	d200      	bcs.n	8004c2a <HAL_RCC_ClockConfig+0x52>
 8004c28:	e08a      	b.n	8004d40 <HAL_RCC_ClockConfig+0x168>
  if(((RCC_ClkInitStruct->ClockType) & RCC_CLOCKTYPE_PCLK1) == RCC_CLOCKTYPE_PCLK1)
 8004c2a:	6823      	ldr	r3, [r4, #0]
 8004c2c:	4d59      	ldr	r5, [pc, #356]	; (8004d94 <HAL_RCC_ClockConfig+0x1bc>)
 8004c2e:	075b      	lsls	r3, r3, #29
 8004c30:	d500      	bpl.n	8004c34 <HAL_RCC_ClockConfig+0x5c>
 8004c32:	e08d      	b.n	8004d50 <HAL_RCC_ClockConfig+0x178>
  SystemCoreClock = HAL_RCC_GetSysClockFreq() >> AHBPrescTable[(RCC->CFGR & RCC_CFGR_HPRE)>> RCC_CFGR_HPRE_BITNUMBER];
 8004c34:	f7ff ff9e 	bl	8004b74 <HAL_RCC_GetSysClockFreq>
 8004c38:	686b      	ldr	r3, [r5, #4]
 8004c3a:	4a57      	ldr	r2, [pc, #348]	; (8004d98 <HAL_RCC_ClockConfig+0x1c0>)
 8004c3c:	061b      	lsls	r3, r3, #24
 8004c3e:	0f1b      	lsrs	r3, r3, #28
 8004c40:	5cd3      	ldrb	r3, [r2, r3]
 8004c42:	40d8      	lsrs	r0, r3
 8004c44:	4b55      	ldr	r3, [pc, #340]	; (8004d9c <HAL_RCC_ClockConfig+0x1c4>)
 8004c46:	6018      	str	r0, [r3, #0]
  HAL_InitTick (TICK_INT_PRIORITY);
 8004c48:	2000      	movs	r0, #0
 8004c4a:	f7fe fba1 	bl	8003390 <HAL_InitTick>
  return HAL_OK;
 8004c4e:	2000      	movs	r0, #0
 8004c50:	e008      	b.n	8004c64 <HAL_RCC_ClockConfig+0x8c>
    __HAL_FLASH_SET_LATENCY(FLatency);
 8004c52:	682b      	ldr	r3, [r5, #0]
 8004c54:	4393      	bics	r3, r2
 8004c56:	433b      	orrs	r3, r7
 8004c58:	602b      	str	r3, [r5, #0]
    if((FLASH->ACR & FLASH_ACR_LATENCY) != FLatency)
 8004c5a:	682b      	ldr	r3, [r5, #0]
 8004c5c:	4013      	ands	r3, r2
 8004c5e:	429f      	cmp	r7, r3
 8004c60:	d0d7      	beq.n	8004c12 <HAL_RCC_ClockConfig+0x3a>
      return HAL_ERROR;
 8004c62:	2001      	movs	r0, #1
}
 8004c64:	bdfe      	pop	{r1, r2, r3, r4, r5, r6, r7, pc}
    assert_param(IS_RCC_HCLK(RCC_ClkInitStruct->AHBCLKDivider));
 8004c66:	68a3      	ldr	r3, [r4, #8]
 8004c68:	2280      	movs	r2, #128	; 0x80
 8004c6a:	0019      	movs	r1, r3
 8004c6c:	4391      	bics	r1, r2
 8004c6e:	d014      	beq.n	8004c9a <HAL_RCC_ClockConfig+0xc2>
 8004c70:	2220      	movs	r2, #32
 8004c72:	0019      	movs	r1, r3
 8004c74:	4391      	bics	r1, r2
 8004c76:	2990      	cmp	r1, #144	; 0x90
 8004c78:	d00f      	beq.n	8004c9a <HAL_RCC_ClockConfig+0xc2>
 8004c7a:	2240      	movs	r2, #64	; 0x40
 8004c7c:	0019      	movs	r1, r3
 8004c7e:	4391      	bics	r1, r2
 8004c80:	29a0      	cmp	r1, #160	; 0xa0
 8004c82:	d00a      	beq.n	8004c9a <HAL_RCC_ClockConfig+0xc2>
 8004c84:	2210      	movs	r2, #16
 8004c86:	0019      	movs	r1, r3
 8004c88:	4391      	bics	r1, r2
 8004c8a:	29c0      	cmp	r1, #192	; 0xc0
 8004c8c:	d005      	beq.n	8004c9a <HAL_RCC_ClockConfig+0xc2>
 8004c8e:	2bf0      	cmp	r3, #240	; 0xf0
 8004c90:	d003      	beq.n	8004c9a <HAL_RCC_ClockConfig+0xc2>
 8004c92:	4943      	ldr	r1, [pc, #268]	; (8004da0 <HAL_RCC_ClockConfig+0x1c8>)
 8004c94:	483c      	ldr	r0, [pc, #240]	; (8004d88 <HAL_RCC_ClockConfig+0x1b0>)
 8004c96:	f7fd fe6a 	bl	800296e <assert_failed>
    MODIFY_REG(RCC->CFGR, RCC_CFGR_HPRE, RCC_ClkInitStruct->AHBCLKDivider);
 8004c9a:	21f0      	movs	r1, #240	; 0xf0
 8004c9c:	4a3d      	ldr	r2, [pc, #244]	; (8004d94 <HAL_RCC_ClockConfig+0x1bc>)
 8004c9e:	6853      	ldr	r3, [r2, #4]
 8004ca0:	438b      	bics	r3, r1
 8004ca2:	68a1      	ldr	r1, [r4, #8]
 8004ca4:	430b      	orrs	r3, r1
 8004ca6:	6053      	str	r3, [r2, #4]
 8004ca8:	e7b6      	b.n	8004c18 <HAL_RCC_ClockConfig+0x40>
    assert_param(IS_RCC_SYSCLKSOURCE(RCC_ClkInitStruct->SYSCLKSource));
 8004caa:	6863      	ldr	r3, [r4, #4]
 8004cac:	2b02      	cmp	r3, #2
 8004cae:	d903      	bls.n	8004cb8 <HAL_RCC_ClockConfig+0xe0>
 8004cb0:	493c      	ldr	r1, [pc, #240]	; (8004da4 <HAL_RCC_ClockConfig+0x1cc>)
 8004cb2:	4835      	ldr	r0, [pc, #212]	; (8004d88 <HAL_RCC_ClockConfig+0x1b0>)
 8004cb4:	f7fd fe5b 	bl	800296e <assert_failed>
 8004cb8:	4e36      	ldr	r6, [pc, #216]	; (8004d94 <HAL_RCC_ClockConfig+0x1bc>)
    if(RCC_ClkInitStruct->SYSCLKSource == RCC_SYSCLKSOURCE_HSE)
 8004cba:	6862      	ldr	r2, [r4, #4]
      if(__HAL_RCC_GET_FLAG(RCC_FLAG_HSERDY) == RESET)
 8004cbc:	6833      	ldr	r3, [r6, #0]
    if(RCC_ClkInitStruct->SYSCLKSource == RCC_SYSCLKSOURCE_HSE)
 8004cbe:	2a01      	cmp	r2, #1
 8004cc0:	d11a      	bne.n	8004cf8 <HAL_RCC_ClockConfig+0x120>
      if(__HAL_RCC_GET_FLAG(RCC_FLAG_HSERDY) == RESET)
 8004cc2:	039b      	lsls	r3, r3, #14
 8004cc4:	d5cd      	bpl.n	8004c62 <HAL_RCC_ClockConfig+0x8a>
    __HAL_RCC_SYSCLK_CONFIG(RCC_ClkInitStruct->SYSCLKSource);
 8004cc6:	2103      	movs	r1, #3
 8004cc8:	6873      	ldr	r3, [r6, #4]
 8004cca:	438b      	bics	r3, r1
 8004ccc:	4313      	orrs	r3, r2
 8004cce:	6073      	str	r3, [r6, #4]
    tickstart = HAL_GetTick();
 8004cd0:	f7fe fb88 	bl	80033e4 <HAL_GetTick>
    if(RCC_ClkInitStruct->SYSCLKSource == RCC_SYSCLKSOURCE_HSE)
 8004cd4:	6863      	ldr	r3, [r4, #4]
    tickstart = HAL_GetTick();
 8004cd6:	9001      	str	r0, [sp, #4]
    if(RCC_ClkInitStruct->SYSCLKSource == RCC_SYSCLKSOURCE_HSE)
 8004cd8:	2b01      	cmp	r3, #1
 8004cda:	d115      	bne.n	8004d08 <HAL_RCC_ClockConfig+0x130>
      while (__HAL_RCC_GET_SYSCLK_SOURCE() != RCC_SYSCLKSOURCE_STATUS_HSE)
 8004cdc:	220c      	movs	r2, #12
 8004cde:	6873      	ldr	r3, [r6, #4]
 8004ce0:	4013      	ands	r3, r2
 8004ce2:	2b04      	cmp	r3, #4
 8004ce4:	d09b      	beq.n	8004c1e <HAL_RCC_ClockConfig+0x46>
        if((HAL_GetTick() - tickstart ) > CLOCKSWITCH_TIMEOUT_VALUE)
 8004ce6:	f7fe fb7d 	bl	80033e4 <HAL_GetTick>
 8004cea:	9b01      	ldr	r3, [sp, #4]
 8004cec:	1ac0      	subs	r0, r0, r3
 8004cee:	4b2e      	ldr	r3, [pc, #184]	; (8004da8 <HAL_RCC_ClockConfig+0x1d0>)
 8004cf0:	4298      	cmp	r0, r3
 8004cf2:	d9f3      	bls.n	8004cdc <HAL_RCC_ClockConfig+0x104>
          return HAL_TIMEOUT;
 8004cf4:	2003      	movs	r0, #3
 8004cf6:	e7b5      	b.n	8004c64 <HAL_RCC_ClockConfig+0x8c>
    else if(RCC_ClkInitStruct->SYSCLKSource == RCC_SYSCLKSOURCE_PLLCLK)
 8004cf8:	2a02      	cmp	r2, #2
 8004cfa:	d102      	bne.n	8004d02 <HAL_RCC_ClockConfig+0x12a>
      if(__HAL_RCC_GET_FLAG(RCC_FLAG_PLLRDY) == RESET)
 8004cfc:	019b      	lsls	r3, r3, #6
 8004cfe:	d4e2      	bmi.n	8004cc6 <HAL_RCC_ClockConfig+0xee>
 8004d00:	e7af      	b.n	8004c62 <HAL_RCC_ClockConfig+0x8a>
      if(__HAL_RCC_GET_FLAG(RCC_FLAG_HSIRDY) == RESET)
 8004d02:	079b      	lsls	r3, r3, #30
 8004d04:	d4df      	bmi.n	8004cc6 <HAL_RCC_ClockConfig+0xee>
 8004d06:	e7ac      	b.n	8004c62 <HAL_RCC_ClockConfig+0x8a>
    else if(RCC_ClkInitStruct->SYSCLKSource == RCC_SYSCLKSOURCE_PLLCLK)
 8004d08:	2b02      	cmp	r3, #2
 8004d0a:	d013      	beq.n	8004d34 <HAL_RCC_ClockConfig+0x15c>
      while (__HAL_RCC_GET_SYSCLK_SOURCE() != RCC_SYSCLKSOURCE_STATUS_HSI)
 8004d0c:	220c      	movs	r2, #12
 8004d0e:	6873      	ldr	r3, [r6, #4]
 8004d10:	4213      	tst	r3, r2
 8004d12:	d100      	bne.n	8004d16 <HAL_RCC_ClockConfig+0x13e>
 8004d14:	e783      	b.n	8004c1e <HAL_RCC_ClockConfig+0x46>
        if((HAL_GetTick() - tickstart ) > CLOCKSWITCH_TIMEOUT_VALUE)
 8004d16:	f7fe fb65 	bl	80033e4 <HAL_GetTick>
 8004d1a:	9b01      	ldr	r3, [sp, #4]
 8004d1c:	1ac0      	subs	r0, r0, r3
 8004d1e:	4b22      	ldr	r3, [pc, #136]	; (8004da8 <HAL_RCC_ClockConfig+0x1d0>)
 8004d20:	4298      	cmp	r0, r3
 8004d22:	d9f3      	bls.n	8004d0c <HAL_RCC_ClockConfig+0x134>
 8004d24:	e7e6      	b.n	8004cf4 <HAL_RCC_ClockConfig+0x11c>
        if((HAL_GetTick() - tickstart ) > CLOCKSWITCH_TIMEOUT_VALUE)
 8004d26:	f7fe fb5d 	bl	80033e4 <HAL_GetTick>
 8004d2a:	9b01      	ldr	r3, [sp, #4]
 8004d2c:	1ac0      	subs	r0, r0, r3
 8004d2e:	4b1e      	ldr	r3, [pc, #120]	; (8004da8 <HAL_RCC_ClockConfig+0x1d0>)
 8004d30:	4298      	cmp	r0, r3
 8004d32:	d8df      	bhi.n	8004cf4 <HAL_RCC_ClockConfig+0x11c>
      while (__HAL_RCC_GET_SYSCLK_SOURCE() != RCC_SYSCLKSOURCE_STATUS_PLLCLK)
 8004d34:	220c      	movs	r2, #12
 8004d36:	6873      	ldr	r3, [r6, #4]
 8004d38:	4013      	ands	r3, r2
 8004d3a:	2b08      	cmp	r3, #8
 8004d3c:	d1f3      	bne.n	8004d26 <HAL_RCC_ClockConfig+0x14e>
 8004d3e:	e76e      	b.n	8004c1e <HAL_RCC_ClockConfig+0x46>
    __HAL_FLASH_SET_LATENCY(FLatency);
 8004d40:	682a      	ldr	r2, [r5, #0]
 8004d42:	439a      	bics	r2, r3
 8004d44:	602a      	str	r2, [r5, #0]
    if((FLASH->ACR & FLASH_ACR_LATENCY) != FLatency)
 8004d46:	682a      	ldr	r2, [r5, #0]
 8004d48:	421a      	tst	r2, r3
 8004d4a:	d000      	beq.n	8004d4e <HAL_RCC_ClockConfig+0x176>
 8004d4c:	e789      	b.n	8004c62 <HAL_RCC_ClockConfig+0x8a>
 8004d4e:	e76c      	b.n	8004c2a <HAL_RCC_ClockConfig+0x52>
    assert_param(IS_RCC_PCLK(RCC_ClkInitStruct->APB1CLKDivider));
 8004d50:	68e3      	ldr	r3, [r4, #12]
 8004d52:	4a16      	ldr	r2, [pc, #88]	; (8004dac <HAL_RCC_ClockConfig+0x1d4>)
 8004d54:	4213      	tst	r3, r2
 8004d56:	d00d      	beq.n	8004d74 <HAL_RCC_ClockConfig+0x19c>
 8004d58:	21a0      	movs	r1, #160	; 0xa0
 8004d5a:	4a15      	ldr	r2, [pc, #84]	; (8004db0 <HAL_RCC_ClockConfig+0x1d8>)
 8004d5c:	00c9      	lsls	r1, r1, #3
 8004d5e:	401a      	ands	r2, r3
 8004d60:	428a      	cmp	r2, r1
 8004d62:	d007      	beq.n	8004d74 <HAL_RCC_ClockConfig+0x19c>
 8004d64:	22c0      	movs	r2, #192	; 0xc0
 8004d66:	00d2      	lsls	r2, r2, #3
 8004d68:	4293      	cmp	r3, r2
 8004d6a:	d003      	beq.n	8004d74 <HAL_RCC_ClockConfig+0x19c>
 8004d6c:	4911      	ldr	r1, [pc, #68]	; (8004db4 <HAL_RCC_ClockConfig+0x1dc>)
 8004d6e:	4806      	ldr	r0, [pc, #24]	; (8004d88 <HAL_RCC_ClockConfig+0x1b0>)
 8004d70:	f7fd fdfd 	bl	800296e <assert_failed>
    MODIFY_REG(RCC->CFGR, RCC_CFGR_PPRE, RCC_ClkInitStruct->APB1CLKDivider);
 8004d74:	686b      	ldr	r3, [r5, #4]
 8004d76:	4a10      	ldr	r2, [pc, #64]	; (8004db8 <HAL_RCC_ClockConfig+0x1e0>)
 8004d78:	4013      	ands	r3, r2
 8004d7a:	68e2      	ldr	r2, [r4, #12]
 8004d7c:	4313      	orrs	r3, r2
 8004d7e:	606b      	str	r3, [r5, #4]
 8004d80:	e758      	b.n	8004c34 <HAL_RCC_ClockConfig+0x5c>
 8004d82:	46c0      	nop			; (mov r8, r8)
 8004d84:	000002da 	.word	0x000002da
 8004d88:	08007551 	.word	0x08007551
 8004d8c:	000002db 	.word	0x000002db
 8004d90:	40022000 	.word	0x40022000
 8004d94:	40021000 	.word	0x40021000
 8004d98:	08007332 	.word	0x08007332
 8004d9c:	20000248 	.word	0x20000248
 8004da0:	000002f3 	.word	0x000002f3
 8004da4:	000002fa 	.word	0x000002fa
 8004da8:	00001388 	.word	0x00001388
 8004dac:	fffffbff 	.word	0xfffffbff
 8004db0:	fffffdff 	.word	0xfffffdff
 8004db4:	00000363 	.word	0x00000363
 8004db8:	fffff8ff 	.word	0xfffff8ff

08004dbc <HAL_RCC_GetHCLKFreq>:
  *         and updated within this function
  * @retval HCLK frequency
  */
uint32_t HAL_RCC_GetHCLKFreq(void)
{
  return SystemCoreClock;
 8004dbc:	4b01      	ldr	r3, [pc, #4]	; (8004dc4 <HAL_RCC_GetHCLKFreq+0x8>)
 8004dbe:	6818      	ldr	r0, [r3, #0]
}
 8004dc0:	4770      	bx	lr
 8004dc2:	46c0      	nop			; (mov r8, r8)
 8004dc4:	20000248 	.word	0x20000248

08004dc8 <HAL_RCC_GetPCLK1Freq>:
  * @retval PCLK1 frequency
  */
uint32_t HAL_RCC_GetPCLK1Freq(void)
{
  /* Get HCLK source and Compute PCLK1 frequency ---------------------------*/
  return (HAL_RCC_GetHCLKFreq() >> APBPrescTable[(RCC->CFGR & RCC_CFGR_PPRE) >> RCC_CFGR_PPRE_BITNUMBER]);
 8004dc8:	4b04      	ldr	r3, [pc, #16]	; (8004ddc <HAL_RCC_GetPCLK1Freq+0x14>)
 8004dca:	4a05      	ldr	r2, [pc, #20]	; (8004de0 <HAL_RCC_GetPCLK1Freq+0x18>)
 8004dcc:	685b      	ldr	r3, [r3, #4]
 8004dce:	055b      	lsls	r3, r3, #21
 8004dd0:	0f5b      	lsrs	r3, r3, #29
 8004dd2:	5cd3      	ldrb	r3, [r2, r3]
 8004dd4:	4a03      	ldr	r2, [pc, #12]	; (8004de4 <HAL_RCC_GetPCLK1Freq+0x1c>)
 8004dd6:	6810      	ldr	r0, [r2, #0]
 8004dd8:	40d8      	lsrs	r0, r3
}    
 8004dda:	4770      	bx	lr
 8004ddc:	40021000 	.word	0x40021000
 8004de0:	08007342 	.word	0x08007342
 8004de4:	20000248 	.word	0x20000248

08004de8 <HAL_RCCEx_PeriphCLKConfig>:
  *         the backup registers) and RCC_BDCR register are set to their reset values.
  *
  * @retval HAL status
  */
HAL_StatusTypeDef HAL_RCCEx_PeriphCLKConfig(RCC_PeriphCLKInitTypeDef  *PeriphClkInit)
{
 8004de8:	b5f0      	push	{r4, r5, r6, r7, lr}
  uint32_t tickstart = 0U;
  uint32_t temp_reg = 0U;

  /* Check the parameters */
  assert_param(IS_RCC_PERIPHCLOCK(PeriphClkInit->PeriphClockSelection));
 8004dea:	4b4c      	ldr	r3, [pc, #304]	; (8004f1c <HAL_RCCEx_PeriphCLKConfig+0x134>)
 8004dec:	6802      	ldr	r2, [r0, #0]
{
 8004dee:	b085      	sub	sp, #20
 8004df0:	0005      	movs	r5, r0
  assert_param(IS_RCC_PERIPHCLOCK(PeriphClkInit->PeriphClockSelection));
 8004df2:	429a      	cmp	r2, r3
 8004df4:	d903      	bls.n	8004dfe <HAL_RCCEx_PeriphCLKConfig+0x16>
 8004df6:	217e      	movs	r1, #126	; 0x7e
 8004df8:	4849      	ldr	r0, [pc, #292]	; (8004f20 <HAL_RCCEx_PeriphCLKConfig+0x138>)
 8004dfa:	f7fd fdb8 	bl	800296e <assert_failed>
  
  /*---------------------------- RTC configuration -------------------------------*/
  if(((PeriphClkInit->PeriphClockSelection) & RCC_PERIPHCLK_RTC) == (RCC_PERIPHCLK_RTC))
 8004dfe:	682b      	ldr	r3, [r5, #0]
 8004e00:	03db      	lsls	r3, r3, #15
 8004e02:	d530      	bpl.n	8004e66 <HAL_RCCEx_PeriphCLKConfig+0x7e>
  {
    /* check for RTC Parameters used to output RTCCLK */
    assert_param(IS_RCC_RTCCLKSOURCE(PeriphClkInit->RTCClockSelection));
 8004e04:	686b      	ldr	r3, [r5, #4]
 8004e06:	4a47      	ldr	r2, [pc, #284]	; (8004f24 <HAL_RCCEx_PeriphCLKConfig+0x13c>)
 8004e08:	4213      	tst	r3, r2
 8004e0a:	d003      	beq.n	8004e14 <HAL_RCCEx_PeriphCLKConfig+0x2c>
 8004e0c:	2184      	movs	r1, #132	; 0x84
 8004e0e:	4844      	ldr	r0, [pc, #272]	; (8004f20 <HAL_RCCEx_PeriphCLKConfig+0x138>)
 8004e10:	f7fd fdad 	bl	800296e <assert_failed>
    FlagStatus       pwrclkchanged = RESET;

    /* As soon as function is called to change RTC clock source, activation of the 
       power domain is done. */
    /* Requires to enable write access to Backup Domain of necessary */
    if(__HAL_RCC_PWR_IS_CLK_DISABLED())
 8004e14:	2280      	movs	r2, #128	; 0x80
    FlagStatus       pwrclkchanged = RESET;
 8004e16:	2100      	movs	r1, #0
    if(__HAL_RCC_PWR_IS_CLK_DISABLED())
 8004e18:	4c43      	ldr	r4, [pc, #268]	; (8004f28 <HAL_RCCEx_PeriphCLKConfig+0x140>)
 8004e1a:	0552      	lsls	r2, r2, #21
 8004e1c:	69e3      	ldr	r3, [r4, #28]
    FlagStatus       pwrclkchanged = RESET;
 8004e1e:	9100      	str	r1, [sp, #0]
    if(__HAL_RCC_PWR_IS_CLK_DISABLED())
 8004e20:	4213      	tst	r3, r2
 8004e22:	d108      	bne.n	8004e36 <HAL_RCCEx_PeriphCLKConfig+0x4e>
    {
    __HAL_RCC_PWR_CLK_ENABLE();
 8004e24:	69e3      	ldr	r3, [r4, #28]
 8004e26:	4313      	orrs	r3, r2
 8004e28:	61e3      	str	r3, [r4, #28]
 8004e2a:	69e3      	ldr	r3, [r4, #28]
 8004e2c:	4013      	ands	r3, r2
 8004e2e:	9303      	str	r3, [sp, #12]
 8004e30:	9b03      	ldr	r3, [sp, #12]
      pwrclkchanged = SET;
 8004e32:	2301      	movs	r3, #1
 8004e34:	9300      	str	r3, [sp, #0]
    }
    
    if(HAL_IS_BIT_CLR(PWR->CR, PWR_CR_DBP))
 8004e36:	2780      	movs	r7, #128	; 0x80
 8004e38:	4e3c      	ldr	r6, [pc, #240]	; (8004f2c <HAL_RCCEx_PeriphCLKConfig+0x144>)
 8004e3a:	007f      	lsls	r7, r7, #1
 8004e3c:	6833      	ldr	r3, [r6, #0]
 8004e3e:	423b      	tst	r3, r7
 8004e40:	d038      	beq.n	8004eb4 <HAL_RCCEx_PeriphCLKConfig+0xcc>
        }
      }
    }
    
    /* Reset the Backup domain only if the RTC Clock source selection is modified from reset value */ 
    temp_reg = (RCC->BDCR & RCC_BDCR_RTCSEL);
 8004e42:	22c0      	movs	r2, #192	; 0xc0
 8004e44:	6a23      	ldr	r3, [r4, #32]
 8004e46:	0092      	lsls	r2, r2, #2
 8004e48:	4013      	ands	r3, r2
    if((temp_reg != 0x00000000U) && (temp_reg != (PeriphClkInit->RTCClockSelection & RCC_BDCR_RTCSEL)))
 8004e4a:	d145      	bne.n	8004ed8 <HAL_RCCEx_PeriphCLKConfig+0xf0>
            return HAL_TIMEOUT;
          }
        }
      }
    }
    __HAL_RCC_RTC_CONFIG(PeriphClkInit->RTCClockSelection);
 8004e4c:	6a23      	ldr	r3, [r4, #32]
 8004e4e:	4a35      	ldr	r2, [pc, #212]	; (8004f24 <HAL_RCCEx_PeriphCLKConfig+0x13c>)
 8004e50:	4013      	ands	r3, r2
 8004e52:	686a      	ldr	r2, [r5, #4]
 8004e54:	4313      	orrs	r3, r2
 8004e56:	6223      	str	r3, [r4, #32]

    /* Require to disable power clock if necessary */
    if(pwrclkchanged == SET)
 8004e58:	9b00      	ldr	r3, [sp, #0]
 8004e5a:	2b01      	cmp	r3, #1
 8004e5c:	d103      	bne.n	8004e66 <HAL_RCCEx_PeriphCLKConfig+0x7e>
    {
      __HAL_RCC_PWR_CLK_DISABLE();
 8004e5e:	69e3      	ldr	r3, [r4, #28]
 8004e60:	4a33      	ldr	r2, [pc, #204]	; (8004f30 <HAL_RCCEx_PeriphCLKConfig+0x148>)
 8004e62:	4013      	ands	r3, r2
 8004e64:	61e3      	str	r3, [r4, #28]
    }
  }

  /*------------------------------- USART1 Configuration ------------------------*/ 
  if(((PeriphClkInit->PeriphClockSelection) & RCC_PERIPHCLK_USART1) == RCC_PERIPHCLK_USART1)
 8004e66:	682b      	ldr	r3, [r5, #0]
 8004e68:	07db      	lsls	r3, r3, #31
 8004e6a:	d50d      	bpl.n	8004e88 <HAL_RCCEx_PeriphCLKConfig+0xa0>
  {
    /* Check the parameters */
    assert_param(IS_RCC_USART1CLKSOURCE(PeriphClkInit->Usart1ClockSelection));
 8004e6c:	68ab      	ldr	r3, [r5, #8]
 8004e6e:	2b03      	cmp	r3, #3
 8004e70:	d903      	bls.n	8004e7a <HAL_RCCEx_PeriphCLKConfig+0x92>
 8004e72:	21cb      	movs	r1, #203	; 0xcb
 8004e74:	482a      	ldr	r0, [pc, #168]	; (8004f20 <HAL_RCCEx_PeriphCLKConfig+0x138>)
 8004e76:	f7fd fd7a 	bl	800296e <assert_failed>
    
    /* Configure the USART1 clock source */
    __HAL_RCC_USART1_CONFIG(PeriphClkInit->Usart1ClockSelection);
 8004e7a:	2103      	movs	r1, #3
 8004e7c:	4a2a      	ldr	r2, [pc, #168]	; (8004f28 <HAL_RCCEx_PeriphCLKConfig+0x140>)
 8004e7e:	6b13      	ldr	r3, [r2, #48]	; 0x30
 8004e80:	438b      	bics	r3, r1
 8004e82:	68a9      	ldr	r1, [r5, #8]
 8004e84:	430b      	orrs	r3, r1
 8004e86:	6313      	str	r3, [r2, #48]	; 0x30
    __HAL_RCC_USART3_CONFIG(PeriphClkInit->Usart3ClockSelection);
  }
#endif /* STM32F091xC || STM32F098xx */  

  /*------------------------------ I2C1 Configuration ------------------------*/ 
  if(((PeriphClkInit->PeriphClockSelection) & RCC_PERIPHCLK_I2C1) == RCC_PERIPHCLK_I2C1)
 8004e88:	682b      	ldr	r3, [r5, #0]
#endif /* STM32F042x6 || STM32F048xx ||                */
       /* STM32F051x8 || STM32F058xx ||                */
       /* STM32F071xB || STM32F072xB || STM32F078xx || */
       /* STM32F091xC || STM32F098xx */
  
  return HAL_OK;
 8004e8a:	2000      	movs	r0, #0
  if(((PeriphClkInit->PeriphClockSelection) & RCC_PERIPHCLK_I2C1) == RCC_PERIPHCLK_I2C1)
 8004e8c:	069b      	lsls	r3, r3, #26
 8004e8e:	d521      	bpl.n	8004ed4 <HAL_RCCEx_PeriphCLKConfig+0xec>
    assert_param(IS_RCC_I2C1CLKSOURCE(PeriphClkInit->I2c1ClockSelection));
 8004e90:	2310      	movs	r3, #16
 8004e92:	68ea      	ldr	r2, [r5, #12]
 8004e94:	439a      	bics	r2, r3
 8004e96:	4282      	cmp	r2, r0
 8004e98:	d003      	beq.n	8004ea2 <HAL_RCCEx_PeriphCLKConfig+0xba>
 8004e9a:	21ef      	movs	r1, #239	; 0xef
 8004e9c:	4820      	ldr	r0, [pc, #128]	; (8004f20 <HAL_RCCEx_PeriphCLKConfig+0x138>)
 8004e9e:	f7fd fd66 	bl	800296e <assert_failed>
    __HAL_RCC_I2C1_CONFIG(PeriphClkInit->I2c1ClockSelection);
 8004ea2:	2110      	movs	r1, #16
 8004ea4:	4a20      	ldr	r2, [pc, #128]	; (8004f28 <HAL_RCCEx_PeriphCLKConfig+0x140>)
  return HAL_OK;
 8004ea6:	2000      	movs	r0, #0
    __HAL_RCC_I2C1_CONFIG(PeriphClkInit->I2c1ClockSelection);
 8004ea8:	6b13      	ldr	r3, [r2, #48]	; 0x30
 8004eaa:	438b      	bics	r3, r1
 8004eac:	68e9      	ldr	r1, [r5, #12]
 8004eae:	430b      	orrs	r3, r1
 8004eb0:	6313      	str	r3, [r2, #48]	; 0x30
 8004eb2:	e00f      	b.n	8004ed4 <HAL_RCCEx_PeriphCLKConfig+0xec>
      SET_BIT(PWR->CR, PWR_CR_DBP);
 8004eb4:	6833      	ldr	r3, [r6, #0]
 8004eb6:	433b      	orrs	r3, r7
 8004eb8:	6033      	str	r3, [r6, #0]
      tickstart = HAL_GetTick();
 8004eba:	f7fe fa93 	bl	80033e4 <HAL_GetTick>
 8004ebe:	9001      	str	r0, [sp, #4]
      while(HAL_IS_BIT_CLR(PWR->CR, PWR_CR_DBP))
 8004ec0:	6833      	ldr	r3, [r6, #0]
 8004ec2:	423b      	tst	r3, r7
 8004ec4:	d1bd      	bne.n	8004e42 <HAL_RCCEx_PeriphCLKConfig+0x5a>
        if((HAL_GetTick() - tickstart) > RCC_DBP_TIMEOUT_VALUE)
 8004ec6:	f7fe fa8d 	bl	80033e4 <HAL_GetTick>
 8004eca:	9b01      	ldr	r3, [sp, #4]
 8004ecc:	1ac0      	subs	r0, r0, r3
 8004ece:	2864      	cmp	r0, #100	; 0x64
 8004ed0:	d9f6      	bls.n	8004ec0 <HAL_RCCEx_PeriphCLKConfig+0xd8>
          return HAL_TIMEOUT;
 8004ed2:	2003      	movs	r0, #3
}
 8004ed4:	b005      	add	sp, #20
 8004ed6:	bdf0      	pop	{r4, r5, r6, r7, pc}
    if((temp_reg != 0x00000000U) && (temp_reg != (PeriphClkInit->RTCClockSelection & RCC_BDCR_RTCSEL)))
 8004ed8:	6869      	ldr	r1, [r5, #4]
 8004eda:	400a      	ands	r2, r1
 8004edc:	4293      	cmp	r3, r2
 8004ede:	d0b5      	beq.n	8004e4c <HAL_RCCEx_PeriphCLKConfig+0x64>
      __HAL_RCC_BACKUPRESET_FORCE();
 8004ee0:	2380      	movs	r3, #128	; 0x80
      temp_reg = (RCC->BDCR & ~(RCC_BDCR_RTCSEL));
 8004ee2:	6a22      	ldr	r2, [r4, #32]
      __HAL_RCC_BACKUPRESET_FORCE();
 8004ee4:	6a20      	ldr	r0, [r4, #32]
 8004ee6:	025b      	lsls	r3, r3, #9
 8004ee8:	4303      	orrs	r3, r0
 8004eea:	6223      	str	r3, [r4, #32]
      __HAL_RCC_BACKUPRESET_RELEASE();
 8004eec:	6a23      	ldr	r3, [r4, #32]
      temp_reg = (RCC->BDCR & ~(RCC_BDCR_RTCSEL));
 8004eee:	490d      	ldr	r1, [pc, #52]	; (8004f24 <HAL_RCCEx_PeriphCLKConfig+0x13c>)
      __HAL_RCC_BACKUPRESET_RELEASE();
 8004ef0:	4810      	ldr	r0, [pc, #64]	; (8004f34 <HAL_RCCEx_PeriphCLKConfig+0x14c>)
      temp_reg = (RCC->BDCR & ~(RCC_BDCR_RTCSEL));
 8004ef2:	4011      	ands	r1, r2
      __HAL_RCC_BACKUPRESET_RELEASE();
 8004ef4:	4003      	ands	r3, r0
 8004ef6:	6223      	str	r3, [r4, #32]
      RCC->BDCR = temp_reg;
 8004ef8:	6221      	str	r1, [r4, #32]
      if (HAL_IS_BIT_SET(temp_reg, RCC_BDCR_LSEON))
 8004efa:	07d3      	lsls	r3, r2, #31
 8004efc:	d5a6      	bpl.n	8004e4c <HAL_RCCEx_PeriphCLKConfig+0x64>
        tickstart = HAL_GetTick();
 8004efe:	f7fe fa71 	bl	80033e4 <HAL_GetTick>
        while(__HAL_RCC_GET_FLAG(RCC_FLAG_LSERDY) == RESET)
 8004f02:	2702      	movs	r7, #2
        tickstart = HAL_GetTick();
 8004f04:	0006      	movs	r6, r0
        while(__HAL_RCC_GET_FLAG(RCC_FLAG_LSERDY) == RESET)
 8004f06:	6a23      	ldr	r3, [r4, #32]
 8004f08:	423b      	tst	r3, r7
 8004f0a:	d19f      	bne.n	8004e4c <HAL_RCCEx_PeriphCLKConfig+0x64>
          if((HAL_GetTick() - tickstart) > RCC_LSE_TIMEOUT_VALUE)
 8004f0c:	f7fe fa6a 	bl	80033e4 <HAL_GetTick>
 8004f10:	4b09      	ldr	r3, [pc, #36]	; (8004f38 <HAL_RCCEx_PeriphCLKConfig+0x150>)
 8004f12:	1b80      	subs	r0, r0, r6
 8004f14:	4298      	cmp	r0, r3
 8004f16:	d9f6      	bls.n	8004f06 <HAL_RCCEx_PeriphCLKConfig+0x11e>
 8004f18:	e7db      	b.n	8004ed2 <HAL_RCCEx_PeriphCLKConfig+0xea>
 8004f1a:	46c0      	nop			; (mov r8, r8)
 8004f1c:	00010021 	.word	0x00010021
 8004f20:	08007589 	.word	0x08007589
 8004f24:	fffffcff 	.word	0xfffffcff
 8004f28:	40021000 	.word	0x40021000
 8004f2c:	40007000 	.word	0x40007000
 8004f30:	efffffff 	.word	0xefffffff
 8004f34:	fffeffff 	.word	0xfffeffff
 8004f38:	00001388 	.word	0x00001388

08004f3c <TIM_OC1_SetConfig>:
  * @param  TIMx to select the TIM peripheral
  * @param  OC_Config The ouput configuration structure
  * @retval None
  */
static void TIM_OC1_SetConfig(TIM_TypeDef *TIMx, TIM_OC_InitTypeDef *OC_Config)
{
 8004f3c:	b5f7      	push	{r0, r1, r2, r4, r5, r6, r7, lr}
  uint32_t tmpccmrx = 0U;
  uint32_t tmpccer = 0U;
  uint32_t tmpcr2 = 0U;

   /* Disable the Channel 1: Reset the CC1E Bit */
  TIMx->CCER &= ~TIM_CCER_CC1E;
 8004f3e:	2201      	movs	r2, #1
 8004f40:	6a03      	ldr	r3, [r0, #32]
{
 8004f42:	0004      	movs	r4, r0
  TIMx->CCER &= ~TIM_CCER_CC1E;
 8004f44:	4393      	bics	r3, r2
 8004f46:	6203      	str	r3, [r0, #32]

  /* Get the TIMx CCER register value */
  tmpccer = TIMx->CCER;
 8004f48:	6a05      	ldr	r5, [r0, #32]
  /* Get the TIMx CR2 register value */
  tmpcr2 =  TIMx->CR2;
 8004f4a:	6847      	ldr	r7, [r0, #4]

  /* Get the TIMx CCMR1 register value */
  tmpccmrx = TIMx->CCMR1;
 8004f4c:	6983      	ldr	r3, [r0, #24]

  /* Reset the Output Compare Mode Bits */
  tmpccmrx &= ~TIM_CCMR1_OC1M;
  tmpccmrx &= ~TIM_CCMR1_CC1S;
 8004f4e:	3272      	adds	r2, #114	; 0x72
 8004f50:	4393      	bics	r3, r2
  /* Select the Output Compare Mode */
  tmpccmrx |= OC_Config->OCMode;
 8004f52:	680a      	ldr	r2, [r1, #0]
{
 8004f54:	000e      	movs	r6, r1
  tmpccmrx |= OC_Config->OCMode;
 8004f56:	431a      	orrs	r2, r3

  /* Reset the Output Polarity level */
  tmpccer &= ~TIM_CCER_CC1P;
 8004f58:	2302      	movs	r3, #2
 8004f5a:	439d      	bics	r5, r3
  /* Set the Output Compare Polarity */
  tmpccer |= OC_Config->OCPolarity;
 8004f5c:	688b      	ldr	r3, [r1, #8]
  tmpccmrx |= OC_Config->OCMode;
 8004f5e:	9201      	str	r2, [sp, #4]
  tmpccer |= OC_Config->OCPolarity;
 8004f60:	431d      	orrs	r5, r3

  if(IS_TIM_CCXN_INSTANCE(TIMx, TIM_CHANNEL_1))
 8004f62:	4b1e      	ldr	r3, [pc, #120]	; (8004fdc <TIM_OC1_SetConfig+0xa0>)
 8004f64:	4298      	cmp	r0, r3
 8004f66:	d005      	beq.n	8004f74 <TIM_OC1_SetConfig+0x38>
 8004f68:	4b1d      	ldr	r3, [pc, #116]	; (8004fe0 <TIM_OC1_SetConfig+0xa4>)
 8004f6a:	4298      	cmp	r0, r3
 8004f6c:	d002      	beq.n	8004f74 <TIM_OC1_SetConfig+0x38>
 8004f6e:	4b1d      	ldr	r3, [pc, #116]	; (8004fe4 <TIM_OC1_SetConfig+0xa8>)
 8004f70:	4298      	cmp	r0, r3
 8004f72:	d12c      	bne.n	8004fce <TIM_OC1_SetConfig+0x92>
  {
    /* Check parameters */
    assert_param(IS_TIM_OCN_POLARITY(OC_Config->OCNPolarity));
 8004f74:	2308      	movs	r3, #8
 8004f76:	68f2      	ldr	r2, [r6, #12]
 8004f78:	439a      	bics	r2, r3
 8004f7a:	d003      	beq.n	8004f84 <TIM_OC1_SetConfig+0x48>
 8004f7c:	491a      	ldr	r1, [pc, #104]	; (8004fe8 <TIM_OC1_SetConfig+0xac>)
 8004f7e:	481b      	ldr	r0, [pc, #108]	; (8004fec <TIM_OC1_SetConfig+0xb0>)
 8004f80:	f7fd fcf5 	bl	800296e <assert_failed>

    /* Reset the Output N Polarity level */
    tmpccer &= ~TIM_CCER_CC1NP;
 8004f84:	2308      	movs	r3, #8
 8004f86:	439d      	bics	r5, r3
    /* Set the Output N Polarity */
    tmpccer |= OC_Config->OCNPolarity;
 8004f88:	68f3      	ldr	r3, [r6, #12]
 8004f8a:	431d      	orrs	r5, r3
    /* Reset the Output N State */
    tmpccer &= ~TIM_CCER_CC1NE;
 8004f8c:	2304      	movs	r3, #4
 8004f8e:	439d      	bics	r5, r3
  }

  if(IS_TIM_BREAK_INSTANCE(TIMx))
 8004f90:	4b12      	ldr	r3, [pc, #72]	; (8004fdc <TIM_OC1_SetConfig+0xa0>)
 8004f92:	429c      	cmp	r4, r3
 8004f94:	d005      	beq.n	8004fa2 <TIM_OC1_SetConfig+0x66>
 8004f96:	4b12      	ldr	r3, [pc, #72]	; (8004fe0 <TIM_OC1_SetConfig+0xa4>)
 8004f98:	429c      	cmp	r4, r3
 8004f9a:	d002      	beq.n	8004fa2 <TIM_OC1_SetConfig+0x66>
 8004f9c:	4b11      	ldr	r3, [pc, #68]	; (8004fe4 <TIM_OC1_SetConfig+0xa8>)
 8004f9e:	429c      	cmp	r4, r3
 8004fa0:	d115      	bne.n	8004fce <TIM_OC1_SetConfig+0x92>
  {
    /* Check parameters */
    assert_param(IS_TIM_OCNIDLE_STATE(OC_Config->OCNIdleState));
 8004fa2:	4b13      	ldr	r3, [pc, #76]	; (8004ff0 <TIM_OC1_SetConfig+0xb4>)
 8004fa4:	69b2      	ldr	r2, [r6, #24]
 8004fa6:	421a      	tst	r2, r3
 8004fa8:	d003      	beq.n	8004fb2 <TIM_OC1_SetConfig+0x76>
 8004faa:	4912      	ldr	r1, [pc, #72]	; (8004ff4 <TIM_OC1_SetConfig+0xb8>)
 8004fac:	480f      	ldr	r0, [pc, #60]	; (8004fec <TIM_OC1_SetConfig+0xb0>)
 8004fae:	f7fd fcde 	bl	800296e <assert_failed>
    assert_param(IS_TIM_OCIDLE_STATE(OC_Config->OCIdleState));
 8004fb2:	4b11      	ldr	r3, [pc, #68]	; (8004ff8 <TIM_OC1_SetConfig+0xbc>)
 8004fb4:	6972      	ldr	r2, [r6, #20]
 8004fb6:	421a      	tst	r2, r3
 8004fb8:	d003      	beq.n	8004fc2 <TIM_OC1_SetConfig+0x86>
 8004fba:	4910      	ldr	r1, [pc, #64]	; (8004ffc <TIM_OC1_SetConfig+0xc0>)
 8004fbc:	480b      	ldr	r0, [pc, #44]	; (8004fec <TIM_OC1_SetConfig+0xb0>)
 8004fbe:	f7fd fcd6 	bl	800296e <assert_failed>

    /* Reset the Output Compare and Output Compare N IDLE State */
    tmpcr2 &= ~TIM_CR2_OIS1;
    tmpcr2 &= ~TIM_CR2_OIS1N;
 8004fc2:	4b0f      	ldr	r3, [pc, #60]	; (8005000 <TIM_OC1_SetConfig+0xc4>)
    /* Set the Output Idle state */
    tmpcr2 |= OC_Config->OCIdleState;
    /* Set the Output N Idle state */
    tmpcr2 |= OC_Config->OCNIdleState;
 8004fc4:	69b2      	ldr	r2, [r6, #24]
    tmpcr2 &= ~TIM_CR2_OIS1N;
 8004fc6:	401f      	ands	r7, r3
    tmpcr2 |= OC_Config->OCNIdleState;
 8004fc8:	6973      	ldr	r3, [r6, #20]
 8004fca:	4313      	orrs	r3, r2
 8004fcc:	431f      	orrs	r7, r3
  }
  /* Write to TIMx CR2 */
  TIMx->CR2 = tmpcr2;

  /* Write to TIMx CCMR1 */
  TIMx->CCMR1 = tmpccmrx;
 8004fce:	9b01      	ldr	r3, [sp, #4]
  TIMx->CR2 = tmpcr2;
 8004fd0:	6067      	str	r7, [r4, #4]
  TIMx->CCMR1 = tmpccmrx;
 8004fd2:	61a3      	str	r3, [r4, #24]

  /* Set the Capture Compare Register value */
  TIMx->CCR1 = OC_Config->Pulse;
 8004fd4:	6873      	ldr	r3, [r6, #4]
 8004fd6:	6363      	str	r3, [r4, #52]	; 0x34

  /* Write to TIMx CCER */
  TIMx->CCER = tmpccer;
 8004fd8:	6225      	str	r5, [r4, #32]
}
 8004fda:	bdf7      	pop	{r0, r1, r2, r4, r5, r6, r7, pc}
 8004fdc:	40012c00 	.word	0x40012c00
 8004fe0:	40014400 	.word	0x40014400
 8004fe4:	40014800 	.word	0x40014800
 8004fe8:	00001290 	.word	0x00001290
 8004fec:	080075c4 	.word	0x080075c4
 8004ff0:	fffffdff 	.word	0xfffffdff
 8004ff4:	0000129d 	.word	0x0000129d
 8004ff8:	fffffeff 	.word	0xfffffeff
 8004ffc:	0000129e 	.word	0x0000129e
 8005000:	fffffcff 	.word	0xfffffcff

08005004 <TIM_OC3_SetConfig>:
  * @param  TIMx  to select the TIM peripheral
  * @param  OC_Config The ouput configuration structure
  * @retval None
  */
static void TIM_OC3_SetConfig(TIM_TypeDef *TIMx, TIM_OC_InitTypeDef *OC_Config)
{
 8005004:	b5f0      	push	{r4, r5, r6, r7, lr}
 8005006:	000f      	movs	r7, r1
  /* Get the TIMx CCMR2 register value */
  tmpccmrx = TIMx->CCMR2;

  /* Reset the Output Compare mode and Capture/Compare selection Bits */
  tmpccmrx &= ~TIM_CCMR2_OC3M;
  tmpccmrx &= ~TIM_CCMR2_CC3S;
 8005008:	2173      	movs	r1, #115	; 0x73
  TIMx->CCER &= ~TIM_CCER_CC3E;
 800500a:	6a03      	ldr	r3, [r0, #32]
 800500c:	4a25      	ldr	r2, [pc, #148]	; (80050a4 <TIM_OC3_SetConfig+0xa0>)
{
 800500e:	b085      	sub	sp, #20
  TIMx->CCER &= ~TIM_CCER_CC3E;
 8005010:	4013      	ands	r3, r2
 8005012:	6203      	str	r3, [r0, #32]
  tmpccer = TIMx->CCER;
 8005014:	6a04      	ldr	r4, [r0, #32]
  tmpcr2 =  TIMx->CR2;
 8005016:	6846      	ldr	r6, [r0, #4]
  tmpccmrx = TIMx->CCMR2;
 8005018:	69c3      	ldr	r3, [r0, #28]
{
 800501a:	0005      	movs	r5, r0
  tmpccmrx &= ~TIM_CCMR2_CC3S;
 800501c:	438b      	bics	r3, r1
  /* Select the Output Compare Mode */
  tmpccmrx |= OC_Config->OCMode;
 800501e:	6839      	ldr	r1, [r7, #0]
 8005020:	9202      	str	r2, [sp, #8]
 8005022:	4319      	orrs	r1, r3
 8005024:	9101      	str	r1, [sp, #4]

  /* Reset the Output Polarity level */
  tmpccer &= ~TIM_CCER_CC3P;
  /* Set the Output Compare Polarity */
  tmpccer |= (OC_Config->OCPolarity << 8U);
 8005026:	68bb      	ldr	r3, [r7, #8]
  tmpccer &= ~TIM_CCER_CC3P;
 8005028:	491f      	ldr	r1, [pc, #124]	; (80050a8 <TIM_OC3_SetConfig+0xa4>)
  tmpccer |= (OC_Config->OCPolarity << 8U);
 800502a:	021b      	lsls	r3, r3, #8
  tmpccer &= ~TIM_CCER_CC3P;
 800502c:	400c      	ands	r4, r1
  tmpccer |= (OC_Config->OCPolarity << 8U);
 800502e:	431c      	orrs	r4, r3

  if(IS_TIM_CCXN_INSTANCE(TIMx, TIM_CHANNEL_3))
 8005030:	4b1e      	ldr	r3, [pc, #120]	; (80050ac <TIM_OC3_SetConfig+0xa8>)
 8005032:	9103      	str	r1, [sp, #12]
 8005034:	4298      	cmp	r0, r3
 8005036:	d126      	bne.n	8005086 <TIM_OC3_SetConfig+0x82>
  {
    assert_param(IS_TIM_OCN_POLARITY(OC_Config->OCNPolarity));
 8005038:	2308      	movs	r3, #8
 800503a:	68fa      	ldr	r2, [r7, #12]
 800503c:	439a      	bics	r2, r3
 800503e:	d003      	beq.n	8005048 <TIM_OC3_SetConfig+0x44>
 8005040:	491b      	ldr	r1, [pc, #108]	; (80050b0 <TIM_OC3_SetConfig+0xac>)
 8005042:	481c      	ldr	r0, [pc, #112]	; (80050b4 <TIM_OC3_SetConfig+0xb0>)
 8005044:	f7fd fc93 	bl	800296e <assert_failed>

    /* Reset the Output N Polarity level */
    tmpccer &= ~TIM_CCER_CC3NP;
 8005048:	4b1b      	ldr	r3, [pc, #108]	; (80050b8 <TIM_OC3_SetConfig+0xb4>)
    /* Set the Output N Polarity */
    tmpccer |= (OC_Config->OCNPolarity << 8U);
 800504a:	68fa      	ldr	r2, [r7, #12]
    tmpccer &= ~TIM_CCER_CC3NP;
 800504c:	4023      	ands	r3, r4
    tmpccer |= (OC_Config->OCNPolarity << 8U);
 800504e:	0214      	lsls	r4, r2, #8
 8005050:	431c      	orrs	r4, r3
    /* Reset the Output N State */
    tmpccer &= ~TIM_CCER_CC3NE;
 8005052:	4b1a      	ldr	r3, [pc, #104]	; (80050bc <TIM_OC3_SetConfig+0xb8>)
 8005054:	401c      	ands	r4, r3
  }

  if(IS_TIM_BREAK_INSTANCE(TIMx))
  {
    /* Check parameters */
    assert_param(IS_TIM_OCNIDLE_STATE(OC_Config->OCNIdleState));
 8005056:	69bb      	ldr	r3, [r7, #24]
 8005058:	9a03      	ldr	r2, [sp, #12]
 800505a:	4213      	tst	r3, r2
 800505c:	d003      	beq.n	8005066 <TIM_OC3_SetConfig+0x62>
 800505e:	4918      	ldr	r1, [pc, #96]	; (80050c0 <TIM_OC3_SetConfig+0xbc>)
 8005060:	4814      	ldr	r0, [pc, #80]	; (80050b4 <TIM_OC3_SetConfig+0xb0>)
 8005062:	f7fd fc84 	bl	800296e <assert_failed>
    assert_param(IS_TIM_OCIDLE_STATE(OC_Config->OCIdleState));
 8005066:	697b      	ldr	r3, [r7, #20]
 8005068:	9a02      	ldr	r2, [sp, #8]
 800506a:	4213      	tst	r3, r2
 800506c:	d003      	beq.n	8005076 <TIM_OC3_SetConfig+0x72>
 800506e:	4915      	ldr	r1, [pc, #84]	; (80050c4 <TIM_OC3_SetConfig+0xc0>)
 8005070:	4810      	ldr	r0, [pc, #64]	; (80050b4 <TIM_OC3_SetConfig+0xb0>)
 8005072:	f7fd fc7c 	bl	800296e <assert_failed>

    /* Reset the Output Compare and Output Compare N IDLE State */
    tmpcr2 &= ~TIM_CR2_OIS3;
    tmpcr2 &= ~TIM_CR2_OIS3N;
 8005076:	4b14      	ldr	r3, [pc, #80]	; (80050c8 <TIM_OC3_SetConfig+0xc4>)
    /* Set the Output Idle state */
    tmpcr2 |= (OC_Config->OCIdleState << 4U);
    /* Set the Output N Idle state */
    tmpcr2 |= (OC_Config->OCNIdleState << 4U);
 8005078:	697a      	ldr	r2, [r7, #20]
    tmpcr2 &= ~TIM_CR2_OIS3N;
 800507a:	4033      	ands	r3, r6
    tmpcr2 |= (OC_Config->OCNIdleState << 4U);
 800507c:	69be      	ldr	r6, [r7, #24]
 800507e:	4316      	orrs	r6, r2
 8005080:	0136      	lsls	r6, r6, #4
 8005082:	431e      	orrs	r6, r3
 8005084:	e005      	b.n	8005092 <TIM_OC3_SetConfig+0x8e>
  if(IS_TIM_BREAK_INSTANCE(TIMx))
 8005086:	4b11      	ldr	r3, [pc, #68]	; (80050cc <TIM_OC3_SetConfig+0xc8>)
 8005088:	4298      	cmp	r0, r3
 800508a:	d0e4      	beq.n	8005056 <TIM_OC3_SetConfig+0x52>
 800508c:	4b10      	ldr	r3, [pc, #64]	; (80050d0 <TIM_OC3_SetConfig+0xcc>)
 800508e:	429d      	cmp	r5, r3
 8005090:	d0e1      	beq.n	8005056 <TIM_OC3_SetConfig+0x52>

  /* Write to TIMx CR2 */
  TIMx->CR2 = tmpcr2;

  /* Write to TIMx CCMR2 */
  TIMx->CCMR2 = tmpccmrx;
 8005092:	9b01      	ldr	r3, [sp, #4]
  TIMx->CR2 = tmpcr2;
 8005094:	606e      	str	r6, [r5, #4]
  TIMx->CCMR2 = tmpccmrx;
 8005096:	61eb      	str	r3, [r5, #28]

  /* Set the Capture Compare Register value */
  TIMx->CCR3 = OC_Config->Pulse;
 8005098:	687b      	ldr	r3, [r7, #4]
 800509a:	63eb      	str	r3, [r5, #60]	; 0x3c

  /* Write to TIMx CCER */
  TIMx->CCER = tmpccer;
 800509c:	622c      	str	r4, [r5, #32]
}
 800509e:	b005      	add	sp, #20
 80050a0:	bdf0      	pop	{r4, r5, r6, r7, pc}
 80050a2:	46c0      	nop			; (mov r8, r8)
 80050a4:	fffffeff 	.word	0xfffffeff
 80050a8:	fffffdff 	.word	0xfffffdff
 80050ac:	40012c00 	.word	0x40012c00
 80050b0:	00001325 	.word	0x00001325
 80050b4:	080075c4 	.word	0x080075c4
 80050b8:	fffff7ff 	.word	0xfffff7ff
 80050bc:	fffffbff 	.word	0xfffffbff
 80050c0:	00001332 	.word	0x00001332
 80050c4:	00001333 	.word	0x00001333
 80050c8:	ffffcfff 	.word	0xffffcfff
 80050cc:	40014400 	.word	0x40014400
 80050d0:	40014800 	.word	0x40014800

080050d4 <TIM_OC4_SetConfig>:
  * @param  TIMx  to select the TIM peripheral
  * @param  OC_Config The ouput configuration structure
  * @retval None
  */
static void TIM_OC4_SetConfig(TIM_TypeDef *TIMx, TIM_OC_InitTypeDef *OC_Config)
{
 80050d4:	b5f7      	push	{r0, r1, r2, r4, r5, r6, r7, lr}
  uint32_t tmpccmrx = 0U;
  uint32_t tmpccer = 0U;
  uint32_t tmpcr2 = 0U;

  /* Disable the Channel 4: Reset the CC4E Bit */
  TIMx->CCER &= ~TIM_CCER_CC4E;
 80050d6:	6a03      	ldr	r3, [r0, #32]
 80050d8:	4a17      	ldr	r2, [pc, #92]	; (8005138 <TIM_OC4_SetConfig+0x64>)
{
 80050da:	0004      	movs	r4, r0
  TIMx->CCER &= ~TIM_CCER_CC4E;
 80050dc:	4013      	ands	r3, r2
 80050de:	6203      	str	r3, [r0, #32]

  /* Get the TIMx CCER register value */
  tmpccer = TIMx->CCER;
 80050e0:	6a03      	ldr	r3, [r0, #32]
  /* Get the TIMx CCMR2 register value */
  tmpccmrx = TIMx->CCMR2;

  /* Reset the Output Compare mode and Capture/Compare selection Bits */
  tmpccmrx &= ~TIM_CCMR2_OC4M;
  tmpccmrx &= ~TIM_CCMR2_CC4S;
 80050e2:	4a16      	ldr	r2, [pc, #88]	; (800513c <TIM_OC4_SetConfig+0x68>)
  tmpcr2 =  TIMx->CR2;
 80050e4:	6845      	ldr	r5, [r0, #4]
  tmpccmrx = TIMx->CCMR2;
 80050e6:	69c7      	ldr	r7, [r0, #28]
{
 80050e8:	000e      	movs	r6, r1
  tmpccmrx &= ~TIM_CCMR2_CC4S;
 80050ea:	4017      	ands	r7, r2

  /* Select the Output Compare Mode */
  tmpccmrx |= (OC_Config->OCMode << 8U);
 80050ec:	680a      	ldr	r2, [r1, #0]
 80050ee:	0212      	lsls	r2, r2, #8
 80050f0:	4317      	orrs	r7, r2

  /* Reset the Output Polarity level */
  tmpccer &= ~TIM_CCER_CC4P;
 80050f2:	4a13      	ldr	r2, [pc, #76]	; (8005140 <TIM_OC4_SetConfig+0x6c>)
 80050f4:	4013      	ands	r3, r2
  /* Set the Output Compare Polarity */
  tmpccer |= (OC_Config->OCPolarity << 12U);
 80050f6:	688a      	ldr	r2, [r1, #8]
 80050f8:	0312      	lsls	r2, r2, #12
 80050fa:	431a      	orrs	r2, r3

  if(IS_TIM_BREAK_INSTANCE(TIMx))
 80050fc:	4b11      	ldr	r3, [pc, #68]	; (8005144 <TIM_OC4_SetConfig+0x70>)
  tmpccer |= (OC_Config->OCPolarity << 12U);
 80050fe:	9201      	str	r2, [sp, #4]
  if(IS_TIM_BREAK_INSTANCE(TIMx))
 8005100:	4298      	cmp	r0, r3
 8005102:	d005      	beq.n	8005110 <TIM_OC4_SetConfig+0x3c>
 8005104:	4b10      	ldr	r3, [pc, #64]	; (8005148 <TIM_OC4_SetConfig+0x74>)
 8005106:	4298      	cmp	r0, r3
 8005108:	d002      	beq.n	8005110 <TIM_OC4_SetConfig+0x3c>
 800510a:	4b10      	ldr	r3, [pc, #64]	; (800514c <TIM_OC4_SetConfig+0x78>)
 800510c:	4298      	cmp	r0, r3
 800510e:	d10c      	bne.n	800512a <TIM_OC4_SetConfig+0x56>
  {
    assert_param(IS_TIM_OCIDLE_STATE(OC_Config->OCIdleState));
 8005110:	4b0f      	ldr	r3, [pc, #60]	; (8005150 <TIM_OC4_SetConfig+0x7c>)
 8005112:	6972      	ldr	r2, [r6, #20]
 8005114:	421a      	tst	r2, r3
 8005116:	d003      	beq.n	8005120 <TIM_OC4_SetConfig+0x4c>
 8005118:	490e      	ldr	r1, [pc, #56]	; (8005154 <TIM_OC4_SetConfig+0x80>)
 800511a:	480f      	ldr	r0, [pc, #60]	; (8005158 <TIM_OC4_SetConfig+0x84>)
 800511c:	f7fd fc27 	bl	800296e <assert_failed>

   /* Reset the Output Compare IDLE State */
    tmpcr2 &= ~TIM_CR2_OIS4;
 8005120:	4b0e      	ldr	r3, [pc, #56]	; (800515c <TIM_OC4_SetConfig+0x88>)
 8005122:	401d      	ands	r5, r3
    /* Set the Output Idle state */
    tmpcr2 |= (OC_Config->OCIdleState << 6U);
 8005124:	6973      	ldr	r3, [r6, #20]
 8005126:	019b      	lsls	r3, r3, #6
 8005128:	431d      	orrs	r5, r3

  /* Write to TIMx CCMR2 */
  TIMx->CCMR2 = tmpccmrx;

  /* Set the Capture Compare Register value */
  TIMx->CCR4 = OC_Config->Pulse;
 800512a:	6873      	ldr	r3, [r6, #4]
  TIMx->CR2 = tmpcr2;
 800512c:	6065      	str	r5, [r4, #4]
  TIMx->CCMR2 = tmpccmrx;
 800512e:	61e7      	str	r7, [r4, #28]
  TIMx->CCR4 = OC_Config->Pulse;
 8005130:	6423      	str	r3, [r4, #64]	; 0x40

  /* Write to TIMx CCER */
  TIMx->CCER = tmpccer;
 8005132:	9b01      	ldr	r3, [sp, #4]
 8005134:	6223      	str	r3, [r4, #32]
}
 8005136:	bdf7      	pop	{r0, r1, r2, r4, r5, r6, r7, pc}
 8005138:	ffffefff 	.word	0xffffefff
 800513c:	ffff8cff 	.word	0xffff8cff
 8005140:	ffffdfff 	.word	0xffffdfff
 8005144:	40012c00 	.word	0x40012c00
 8005148:	40014400 	.word	0x40014400
 800514c:	40014800 	.word	0x40014800
 8005150:	fffffeff 	.word	0xfffffeff
 8005154:	00001370 	.word	0x00001370
 8005158:	080075c4 	.word	0x080075c4
 800515c:	ffffbfff 	.word	0xffffbfff

08005160 <HAL_TIM_Base_Start>:
  assert_param(IS_TIM_INSTANCE(htim->Instance));
 8005160:	6803      	ldr	r3, [r0, #0]
 8005162:	4a11      	ldr	r2, [pc, #68]	; (80051a8 <HAL_TIM_Base_Start+0x48>)
{
 8005164:	b510      	push	{r4, lr}
 8005166:	0004      	movs	r4, r0
  assert_param(IS_TIM_INSTANCE(htim->Instance));
 8005168:	4293      	cmp	r3, r2
 800516a:	d010      	beq.n	800518e <HAL_TIM_Base_Start+0x2e>
 800516c:	4a0f      	ldr	r2, [pc, #60]	; (80051ac <HAL_TIM_Base_Start+0x4c>)
 800516e:	4293      	cmp	r3, r2
 8005170:	d00d      	beq.n	800518e <HAL_TIM_Base_Start+0x2e>
 8005172:	4a0f      	ldr	r2, [pc, #60]	; (80051b0 <HAL_TIM_Base_Start+0x50>)
 8005174:	4293      	cmp	r3, r2
 8005176:	d00a      	beq.n	800518e <HAL_TIM_Base_Start+0x2e>
 8005178:	4a0e      	ldr	r2, [pc, #56]	; (80051b4 <HAL_TIM_Base_Start+0x54>)
 800517a:	4293      	cmp	r3, r2
 800517c:	d007      	beq.n	800518e <HAL_TIM_Base_Start+0x2e>
 800517e:	4a0e      	ldr	r2, [pc, #56]	; (80051b8 <HAL_TIM_Base_Start+0x58>)
 8005180:	4293      	cmp	r3, r2
 8005182:	d004      	beq.n	800518e <HAL_TIM_Base_Start+0x2e>
 8005184:	2198      	movs	r1, #152	; 0x98
 8005186:	480d      	ldr	r0, [pc, #52]	; (80051bc <HAL_TIM_Base_Start+0x5c>)
 8005188:	0049      	lsls	r1, r1, #1
 800518a:	f7fd fbf0 	bl	800296e <assert_failed>
  htim->State= HAL_TIM_STATE_BUSY;
 800518e:	0022      	movs	r2, r4
 8005190:	2302      	movs	r3, #2
  __HAL_TIM_ENABLE(htim);
 8005192:	2101      	movs	r1, #1
 8005194:	6820      	ldr	r0, [r4, #0]
  htim->State= HAL_TIM_STATE_BUSY;
 8005196:	323d      	adds	r2, #61	; 0x3d
 8005198:	7013      	strb	r3, [r2, #0]
  __HAL_TIM_ENABLE(htim);
 800519a:	6803      	ldr	r3, [r0, #0]
 800519c:	430b      	orrs	r3, r1
 800519e:	6003      	str	r3, [r0, #0]
}
 80051a0:	2000      	movs	r0, #0
  htim->State= HAL_TIM_STATE_READY;
 80051a2:	7011      	strb	r1, [r2, #0]
}
 80051a4:	bd10      	pop	{r4, pc}
 80051a6:	46c0      	nop			; (mov r8, r8)
 80051a8:	40012c00 	.word	0x40012c00
 80051ac:	40000400 	.word	0x40000400
 80051b0:	40002000 	.word	0x40002000
 80051b4:	40014400 	.word	0x40014400
 80051b8:	40014800 	.word	0x40014800
 80051bc:	080075c4 	.word	0x080075c4

080051c0 <HAL_TIM_Base_Start_IT>:
  assert_param(IS_TIM_INSTANCE(htim->Instance));
 80051c0:	6803      	ldr	r3, [r0, #0]
 80051c2:	4a10      	ldr	r2, [pc, #64]	; (8005204 <HAL_TIM_Base_Start_IT+0x44>)
{
 80051c4:	b510      	push	{r4, lr}
 80051c6:	0004      	movs	r4, r0
  assert_param(IS_TIM_INSTANCE(htim->Instance));
 80051c8:	4293      	cmp	r3, r2
 80051ca:	d010      	beq.n	80051ee <HAL_TIM_Base_Start_IT+0x2e>
 80051cc:	4a0e      	ldr	r2, [pc, #56]	; (8005208 <HAL_TIM_Base_Start_IT+0x48>)
 80051ce:	4293      	cmp	r3, r2
 80051d0:	d00d      	beq.n	80051ee <HAL_TIM_Base_Start_IT+0x2e>
 80051d2:	4a0e      	ldr	r2, [pc, #56]	; (800520c <HAL_TIM_Base_Start_IT+0x4c>)
 80051d4:	4293      	cmp	r3, r2
 80051d6:	d00a      	beq.n	80051ee <HAL_TIM_Base_Start_IT+0x2e>
 80051d8:	4a0d      	ldr	r2, [pc, #52]	; (8005210 <HAL_TIM_Base_Start_IT+0x50>)
 80051da:	4293      	cmp	r3, r2
 80051dc:	d007      	beq.n	80051ee <HAL_TIM_Base_Start_IT+0x2e>
 80051de:	4a0d      	ldr	r2, [pc, #52]	; (8005214 <HAL_TIM_Base_Start_IT+0x54>)
 80051e0:	4293      	cmp	r3, r2
 80051e2:	d004      	beq.n	80051ee <HAL_TIM_Base_Start_IT+0x2e>
 80051e4:	21af      	movs	r1, #175	; 0xaf
 80051e6:	480c      	ldr	r0, [pc, #48]	; (8005218 <HAL_TIM_Base_Start_IT+0x58>)
 80051e8:	0049      	lsls	r1, r1, #1
 80051ea:	f7fd fbc0 	bl	800296e <assert_failed>
   __HAL_TIM_ENABLE_IT(htim, TIM_IT_UPDATE);
 80051ee:	2201      	movs	r2, #1
 80051f0:	6823      	ldr	r3, [r4, #0]
}
 80051f2:	2000      	movs	r0, #0
   __HAL_TIM_ENABLE_IT(htim, TIM_IT_UPDATE);
 80051f4:	68d9      	ldr	r1, [r3, #12]
 80051f6:	4311      	orrs	r1, r2
 80051f8:	60d9      	str	r1, [r3, #12]
  __HAL_TIM_ENABLE(htim);
 80051fa:	6819      	ldr	r1, [r3, #0]
 80051fc:	430a      	orrs	r2, r1
 80051fe:	601a      	str	r2, [r3, #0]
}
 8005200:	bd10      	pop	{r4, pc}
 8005202:	46c0      	nop			; (mov r8, r8)
 8005204:	40012c00 	.word	0x40012c00
 8005208:	40000400 	.word	0x40000400
 800520c:	40002000 	.word	0x40002000
 8005210:	40014400 	.word	0x40014400
 8005214:	40014800 	.word	0x40014800
 8005218:	080075c4 	.word	0x080075c4

0800521c <HAL_TIM_OC_MspInit>:
 800521c:	4770      	bx	lr

0800521e <HAL_TIM_PWM_MspInit>:
 800521e:	4770      	bx	lr

08005220 <HAL_TIM_PeriodElapsedCallback>:
 8005220:	4770      	bx	lr

08005222 <HAL_TIM_OC_DelayElapsedCallback>:
 8005222:	4770      	bx	lr

08005224 <HAL_TIM_IC_CaptureCallback>:
 8005224:	4770      	bx	lr

08005226 <HAL_TIM_PWM_PulseFinishedCallback>:
 8005226:	4770      	bx	lr

08005228 <HAL_TIM_TriggerCallback>:
 8005228:	4770      	bx	lr

0800522a <HAL_TIM_IRQHandler>:
  if(__HAL_TIM_GET_FLAG(htim, TIM_FLAG_CC1) != RESET)
 800522a:	2202      	movs	r2, #2
 800522c:	6803      	ldr	r3, [r0, #0]
{
 800522e:	b510      	push	{r4, lr}
  if(__HAL_TIM_GET_FLAG(htim, TIM_FLAG_CC1) != RESET)
 8005230:	6919      	ldr	r1, [r3, #16]
{
 8005232:	0004      	movs	r4, r0
  if(__HAL_TIM_GET_FLAG(htim, TIM_FLAG_CC1) != RESET)
 8005234:	4211      	tst	r1, r2
 8005236:	d00e      	beq.n	8005256 <HAL_TIM_IRQHandler+0x2c>
    if(__HAL_TIM_GET_IT_SOURCE(htim, TIM_IT_CC1) !=RESET)
 8005238:	68d9      	ldr	r1, [r3, #12]
 800523a:	4211      	tst	r1, r2
 800523c:	d00b      	beq.n	8005256 <HAL_TIM_IRQHandler+0x2c>
        __HAL_TIM_CLEAR_IT(htim, TIM_IT_CC1);
 800523e:	3a05      	subs	r2, #5
 8005240:	611a      	str	r2, [r3, #16]
        if((htim->Instance->CCMR1 & TIM_CCMR1_CC1S) != 0x00U)
 8005242:	699b      	ldr	r3, [r3, #24]
        htim->Channel = HAL_TIM_ACTIVE_CHANNEL_1;
 8005244:	3204      	adds	r2, #4
 8005246:	7702      	strb	r2, [r0, #28]
        if((htim->Instance->CCMR1 & TIM_CCMR1_CC1S) != 0x00U)
 8005248:	079b      	lsls	r3, r3, #30
 800524a:	d100      	bne.n	800524e <HAL_TIM_IRQHandler+0x24>
 800524c:	e079      	b.n	8005342 <HAL_TIM_IRQHandler+0x118>
          HAL_TIM_IC_CaptureCallback(htim);
 800524e:	f7ff ffe9 	bl	8005224 <HAL_TIM_IC_CaptureCallback>
        htim->Channel = HAL_TIM_ACTIVE_CHANNEL_CLEARED;
 8005252:	2300      	movs	r3, #0
 8005254:	7723      	strb	r3, [r4, #28]
  if(__HAL_TIM_GET_FLAG(htim, TIM_FLAG_CC2) != RESET)
 8005256:	2204      	movs	r2, #4
 8005258:	6823      	ldr	r3, [r4, #0]
 800525a:	6919      	ldr	r1, [r3, #16]
 800525c:	4211      	tst	r1, r2
 800525e:	d010      	beq.n	8005282 <HAL_TIM_IRQHandler+0x58>
    if(__HAL_TIM_GET_IT_SOURCE(htim, TIM_IT_CC2) !=RESET)
 8005260:	68d9      	ldr	r1, [r3, #12]
 8005262:	4211      	tst	r1, r2
 8005264:	d00d      	beq.n	8005282 <HAL_TIM_IRQHandler+0x58>
      __HAL_TIM_CLEAR_IT(htim, TIM_IT_CC2);
 8005266:	3a09      	subs	r2, #9
 8005268:	611a      	str	r2, [r3, #16]
      htim->Channel = HAL_TIM_ACTIVE_CHANNEL_2;
 800526a:	3207      	adds	r2, #7
 800526c:	7722      	strb	r2, [r4, #28]
      if((htim->Instance->CCMR1 & TIM_CCMR1_CC2S) != 0x00U)
 800526e:	699a      	ldr	r2, [r3, #24]
 8005270:	23c0      	movs	r3, #192	; 0xc0
 8005272:	009b      	lsls	r3, r3, #2
        HAL_TIM_IC_CaptureCallback(htim);
 8005274:	0020      	movs	r0, r4
      if((htim->Instance->CCMR1 & TIM_CCMR1_CC2S) != 0x00U)
 8005276:	421a      	tst	r2, r3
 8005278:	d069      	beq.n	800534e <HAL_TIM_IRQHandler+0x124>
        HAL_TIM_IC_CaptureCallback(htim);
 800527a:	f7ff ffd3 	bl	8005224 <HAL_TIM_IC_CaptureCallback>
      htim->Channel = HAL_TIM_ACTIVE_CHANNEL_CLEARED;
 800527e:	2300      	movs	r3, #0
 8005280:	7723      	strb	r3, [r4, #28]
  if(__HAL_TIM_GET_FLAG(htim, TIM_FLAG_CC3) != RESET)
 8005282:	2208      	movs	r2, #8
 8005284:	6823      	ldr	r3, [r4, #0]
 8005286:	6919      	ldr	r1, [r3, #16]
 8005288:	4211      	tst	r1, r2
 800528a:	d00e      	beq.n	80052aa <HAL_TIM_IRQHandler+0x80>
    if(__HAL_TIM_GET_IT_SOURCE(htim, TIM_IT_CC3) !=RESET)
 800528c:	68d9      	ldr	r1, [r3, #12]
 800528e:	4211      	tst	r1, r2
 8005290:	d00b      	beq.n	80052aa <HAL_TIM_IRQHandler+0x80>
      __HAL_TIM_CLEAR_IT(htim, TIM_IT_CC3);
 8005292:	3a11      	subs	r2, #17
 8005294:	611a      	str	r2, [r3, #16]
      if((htim->Instance->CCMR2 & TIM_CCMR2_CC3S) != 0x00U)
 8005296:	69db      	ldr	r3, [r3, #28]
      htim->Channel = HAL_TIM_ACTIVE_CHANNEL_3;
 8005298:	320d      	adds	r2, #13
 800529a:	7722      	strb	r2, [r4, #28]
        HAL_TIM_IC_CaptureCallback(htim);
 800529c:	0020      	movs	r0, r4
      if((htim->Instance->CCMR2 & TIM_CCMR2_CC3S) != 0x00U)
 800529e:	079b      	lsls	r3, r3, #30
 80052a0:	d05b      	beq.n	800535a <HAL_TIM_IRQHandler+0x130>
        HAL_TIM_IC_CaptureCallback(htim);
 80052a2:	f7ff ffbf 	bl	8005224 <HAL_TIM_IC_CaptureCallback>
      htim->Channel = HAL_TIM_ACTIVE_CHANNEL_CLEARED;
 80052a6:	2300      	movs	r3, #0
 80052a8:	7723      	strb	r3, [r4, #28]
  if(__HAL_TIM_GET_FLAG(htim, TIM_FLAG_CC4) != RESET)
 80052aa:	2210      	movs	r2, #16
 80052ac:	6823      	ldr	r3, [r4, #0]
 80052ae:	6919      	ldr	r1, [r3, #16]
 80052b0:	4211      	tst	r1, r2
 80052b2:	d010      	beq.n	80052d6 <HAL_TIM_IRQHandler+0xac>
    if(__HAL_TIM_GET_IT_SOURCE(htim, TIM_IT_CC4) !=RESET)
 80052b4:	68d9      	ldr	r1, [r3, #12]
 80052b6:	4211      	tst	r1, r2
 80052b8:	d00d      	beq.n	80052d6 <HAL_TIM_IRQHandler+0xac>
      __HAL_TIM_CLEAR_IT(htim, TIM_IT_CC4);
 80052ba:	3a21      	subs	r2, #33	; 0x21
 80052bc:	611a      	str	r2, [r3, #16]
      htim->Channel = HAL_TIM_ACTIVE_CHANNEL_4;
 80052be:	3219      	adds	r2, #25
 80052c0:	7722      	strb	r2, [r4, #28]
      if((htim->Instance->CCMR2 & TIM_CCMR2_CC4S) != 0x00U)
 80052c2:	69da      	ldr	r2, [r3, #28]
 80052c4:	23c0      	movs	r3, #192	; 0xc0
 80052c6:	009b      	lsls	r3, r3, #2
        HAL_TIM_IC_CaptureCallback(htim);
 80052c8:	0020      	movs	r0, r4
      if((htim->Instance->CCMR2 & TIM_CCMR2_CC4S) != 0x00U)
 80052ca:	421a      	tst	r2, r3
 80052cc:	d04b      	beq.n	8005366 <HAL_TIM_IRQHandler+0x13c>
        HAL_TIM_IC_CaptureCallback(htim);
 80052ce:	f7ff ffa9 	bl	8005224 <HAL_TIM_IC_CaptureCallback>
      htim->Channel = HAL_TIM_ACTIVE_CHANNEL_CLEARED;
 80052d2:	2300      	movs	r3, #0
 80052d4:	7723      	strb	r3, [r4, #28]
  if(__HAL_TIM_GET_FLAG(htim, TIM_FLAG_UPDATE) != RESET)
 80052d6:	2201      	movs	r2, #1
 80052d8:	6823      	ldr	r3, [r4, #0]
 80052da:	6919      	ldr	r1, [r3, #16]
 80052dc:	4211      	tst	r1, r2
 80052de:	d007      	beq.n	80052f0 <HAL_TIM_IRQHandler+0xc6>
    if(__HAL_TIM_GET_IT_SOURCE(htim, TIM_IT_UPDATE) !=RESET)
 80052e0:	68d9      	ldr	r1, [r3, #12]
 80052e2:	4211      	tst	r1, r2
 80052e4:	d004      	beq.n	80052f0 <HAL_TIM_IRQHandler+0xc6>
      __HAL_TIM_CLEAR_IT(htim, TIM_IT_UPDATE);
 80052e6:	3a03      	subs	r2, #3
 80052e8:	611a      	str	r2, [r3, #16]
      HAL_TIM_PeriodElapsedCallback(htim);
 80052ea:	0020      	movs	r0, r4
 80052ec:	f7ff ff98 	bl	8005220 <HAL_TIM_PeriodElapsedCallback>
  if(__HAL_TIM_GET_FLAG(htim, TIM_FLAG_BREAK) != RESET)
 80052f0:	2280      	movs	r2, #128	; 0x80
 80052f2:	6823      	ldr	r3, [r4, #0]
 80052f4:	6919      	ldr	r1, [r3, #16]
 80052f6:	4211      	tst	r1, r2
 80052f8:	d008      	beq.n	800530c <HAL_TIM_IRQHandler+0xe2>
    if(__HAL_TIM_GET_IT_SOURCE(htim, TIM_IT_BREAK) !=RESET)
 80052fa:	68d9      	ldr	r1, [r3, #12]
 80052fc:	4211      	tst	r1, r2
 80052fe:	d005      	beq.n	800530c <HAL_TIM_IRQHandler+0xe2>
      __HAL_TIM_CLEAR_IT(htim, TIM_IT_BREAK);
 8005300:	3a02      	subs	r2, #2
 8005302:	3aff      	subs	r2, #255	; 0xff
 8005304:	611a      	str	r2, [r3, #16]
      HAL_TIMEx_BreakCallback(htim);
 8005306:	0020      	movs	r0, r4
 8005308:	f000 fe87 	bl	800601a <HAL_TIMEx_BreakCallback>
  if(__HAL_TIM_GET_FLAG(htim, TIM_FLAG_TRIGGER) != RESET)
 800530c:	2240      	movs	r2, #64	; 0x40
 800530e:	6823      	ldr	r3, [r4, #0]
 8005310:	6919      	ldr	r1, [r3, #16]
 8005312:	4211      	tst	r1, r2
 8005314:	d007      	beq.n	8005326 <HAL_TIM_IRQHandler+0xfc>
    if(__HAL_TIM_GET_IT_SOURCE(htim, TIM_IT_TRIGGER) !=RESET)
 8005316:	68d9      	ldr	r1, [r3, #12]
 8005318:	4211      	tst	r1, r2
 800531a:	d004      	beq.n	8005326 <HAL_TIM_IRQHandler+0xfc>
      __HAL_TIM_CLEAR_IT(htim, TIM_IT_TRIGGER);
 800531c:	3a81      	subs	r2, #129	; 0x81
 800531e:	611a      	str	r2, [r3, #16]
      HAL_TIM_TriggerCallback(htim);
 8005320:	0020      	movs	r0, r4
 8005322:	f7ff ff81 	bl	8005228 <HAL_TIM_TriggerCallback>
  if(__HAL_TIM_GET_FLAG(htim, TIM_FLAG_COM) != RESET)
 8005326:	2220      	movs	r2, #32
 8005328:	6823      	ldr	r3, [r4, #0]
 800532a:	6919      	ldr	r1, [r3, #16]
 800532c:	4211      	tst	r1, r2
 800532e:	d007      	beq.n	8005340 <HAL_TIM_IRQHandler+0x116>
    if(__HAL_TIM_GET_IT_SOURCE(htim, TIM_IT_COM) !=RESET)
 8005330:	68d9      	ldr	r1, [r3, #12]
 8005332:	4211      	tst	r1, r2
 8005334:	d004      	beq.n	8005340 <HAL_TIM_IRQHandler+0x116>
      __HAL_TIM_CLEAR_IT(htim, TIM_FLAG_COM);
 8005336:	3a41      	subs	r2, #65	; 0x41
 8005338:	611a      	str	r2, [r3, #16]
      HAL_TIMEx_CommutationCallback(htim);
 800533a:	0020      	movs	r0, r4
 800533c:	f000 fe6c 	bl	8006018 <HAL_TIMEx_CommutationCallback>
}
 8005340:	bd10      	pop	{r4, pc}
          HAL_TIM_OC_DelayElapsedCallback(htim);
 8005342:	f7ff ff6e 	bl	8005222 <HAL_TIM_OC_DelayElapsedCallback>
          HAL_TIM_PWM_PulseFinishedCallback(htim);
 8005346:	0020      	movs	r0, r4
 8005348:	f7ff ff6d 	bl	8005226 <HAL_TIM_PWM_PulseFinishedCallback>
 800534c:	e781      	b.n	8005252 <HAL_TIM_IRQHandler+0x28>
        HAL_TIM_OC_DelayElapsedCallback(htim);
 800534e:	f7ff ff68 	bl	8005222 <HAL_TIM_OC_DelayElapsedCallback>
        HAL_TIM_PWM_PulseFinishedCallback(htim);
 8005352:	0020      	movs	r0, r4
 8005354:	f7ff ff67 	bl	8005226 <HAL_TIM_PWM_PulseFinishedCallback>
 8005358:	e791      	b.n	800527e <HAL_TIM_IRQHandler+0x54>
        HAL_TIM_OC_DelayElapsedCallback(htim);
 800535a:	f7ff ff62 	bl	8005222 <HAL_TIM_OC_DelayElapsedCallback>
        HAL_TIM_PWM_PulseFinishedCallback(htim);
 800535e:	0020      	movs	r0, r4
 8005360:	f7ff ff61 	bl	8005226 <HAL_TIM_PWM_PulseFinishedCallback>
 8005364:	e79f      	b.n	80052a6 <HAL_TIM_IRQHandler+0x7c>
        HAL_TIM_OC_DelayElapsedCallback(htim);
 8005366:	f7ff ff5c 	bl	8005222 <HAL_TIM_OC_DelayElapsedCallback>
        HAL_TIM_PWM_PulseFinishedCallback(htim);
 800536a:	0020      	movs	r0, r4
 800536c:	f7ff ff5b 	bl	8005226 <HAL_TIM_PWM_PulseFinishedCallback>
 8005370:	e7af      	b.n	80052d2 <HAL_TIM_IRQHandler+0xa8>
	...

08005374 <TIM_Base_SetConfig>:
  if (IS_TIM_COUNTER_MODE_SELECT_INSTANCE(TIMx))
 8005374:	4a19      	ldr	r2, [pc, #100]	; (80053dc <TIM_Base_SetConfig+0x68>)
{
 8005376:	b510      	push	{r4, lr}
  tmpcr1 = TIMx->CR1;
 8005378:	6803      	ldr	r3, [r0, #0]
  if (IS_TIM_COUNTER_MODE_SELECT_INSTANCE(TIMx))
 800537a:	4290      	cmp	r0, r2
 800537c:	d002      	beq.n	8005384 <TIM_Base_SetConfig+0x10>
 800537e:	4c18      	ldr	r4, [pc, #96]	; (80053e0 <TIM_Base_SetConfig+0x6c>)
 8005380:	42a0      	cmp	r0, r4
 8005382:	d108      	bne.n	8005396 <TIM_Base_SetConfig+0x22>
    tmpcr1 &= ~(TIM_CR1_DIR | TIM_CR1_CMS);
 8005384:	2470      	movs	r4, #112	; 0x70
 8005386:	43a3      	bics	r3, r4
    tmpcr1 |= Structure->CounterMode;
 8005388:	684c      	ldr	r4, [r1, #4]
 800538a:	4323      	orrs	r3, r4
  if(IS_TIM_CLOCK_DIVISION_INSTANCE(TIMx))
 800538c:	4290      	cmp	r0, r2
 800538e:	d00b      	beq.n	80053a8 <TIM_Base_SetConfig+0x34>
 8005390:	4c13      	ldr	r4, [pc, #76]	; (80053e0 <TIM_Base_SetConfig+0x6c>)
 8005392:	42a0      	cmp	r0, r4
 8005394:	d008      	beq.n	80053a8 <TIM_Base_SetConfig+0x34>
 8005396:	4c13      	ldr	r4, [pc, #76]	; (80053e4 <TIM_Base_SetConfig+0x70>)
 8005398:	42a0      	cmp	r0, r4
 800539a:	d005      	beq.n	80053a8 <TIM_Base_SetConfig+0x34>
 800539c:	4c12      	ldr	r4, [pc, #72]	; (80053e8 <TIM_Base_SetConfig+0x74>)
 800539e:	42a0      	cmp	r0, r4
 80053a0:	d002      	beq.n	80053a8 <TIM_Base_SetConfig+0x34>
 80053a2:	4c12      	ldr	r4, [pc, #72]	; (80053ec <TIM_Base_SetConfig+0x78>)
 80053a4:	42a0      	cmp	r0, r4
 80053a6:	d103      	bne.n	80053b0 <TIM_Base_SetConfig+0x3c>
    tmpcr1 &= ~TIM_CR1_CKD;
 80053a8:	4c11      	ldr	r4, [pc, #68]	; (80053f0 <TIM_Base_SetConfig+0x7c>)
 80053aa:	4023      	ands	r3, r4
    tmpcr1 |= (uint32_t)Structure->ClockDivision;
 80053ac:	68cc      	ldr	r4, [r1, #12]
 80053ae:	4323      	orrs	r3, r4
  MODIFY_REG(tmpcr1, TIM_CR1_ARPE, Structure->AutoReloadPreload);
 80053b0:	2480      	movs	r4, #128	; 0x80
 80053b2:	43a3      	bics	r3, r4
 80053b4:	694c      	ldr	r4, [r1, #20]
 80053b6:	4323      	orrs	r3, r4
  TIMx->CR1 = tmpcr1;
 80053b8:	6003      	str	r3, [r0, #0]
  TIMx->ARR = (uint32_t)Structure->Period ;
 80053ba:	688b      	ldr	r3, [r1, #8]
 80053bc:	62c3      	str	r3, [r0, #44]	; 0x2c
  TIMx->PSC = (uint32_t)Structure->Prescaler;
 80053be:	680b      	ldr	r3, [r1, #0]
 80053c0:	6283      	str	r3, [r0, #40]	; 0x28
  if (IS_TIM_REPETITION_COUNTER_INSTANCE(TIMx))
 80053c2:	4290      	cmp	r0, r2
 80053c4:	d005      	beq.n	80053d2 <TIM_Base_SetConfig+0x5e>
 80053c6:	4b08      	ldr	r3, [pc, #32]	; (80053e8 <TIM_Base_SetConfig+0x74>)
 80053c8:	4298      	cmp	r0, r3
 80053ca:	d002      	beq.n	80053d2 <TIM_Base_SetConfig+0x5e>
 80053cc:	4b07      	ldr	r3, [pc, #28]	; (80053ec <TIM_Base_SetConfig+0x78>)
 80053ce:	4298      	cmp	r0, r3
 80053d0:	d101      	bne.n	80053d6 <TIM_Base_SetConfig+0x62>
    TIMx->RCR = Structure->RepetitionCounter;
 80053d2:	690b      	ldr	r3, [r1, #16]
 80053d4:	6303      	str	r3, [r0, #48]	; 0x30
  TIMx->EGR = TIM_EGR_UG;
 80053d6:	2301      	movs	r3, #1
 80053d8:	6143      	str	r3, [r0, #20]
}
 80053da:	bd10      	pop	{r4, pc}
 80053dc:	40012c00 	.word	0x40012c00
 80053e0:	40000400 	.word	0x40000400
 80053e4:	40002000 	.word	0x40002000
 80053e8:	40014400 	.word	0x40014400
 80053ec:	40014800 	.word	0x40014800
 80053f0:	fffffcff 	.word	0xfffffcff

080053f4 <HAL_TIM_Base_Init>:
{
 80053f4:	b570      	push	{r4, r5, r6, lr}
 80053f6:	0004      	movs	r4, r0
    return HAL_ERROR;
 80053f8:	2001      	movs	r0, #1
  if(htim == NULL)
 80053fa:	2c00      	cmp	r4, #0
 80053fc:	d04c      	beq.n	8005498 <HAL_TIM_Base_Init+0xa4>
  assert_param(IS_TIM_INSTANCE(htim->Instance));
 80053fe:	6823      	ldr	r3, [r4, #0]
 8005400:	4a26      	ldr	r2, [pc, #152]	; (800549c <HAL_TIM_Base_Init+0xa8>)
 8005402:	4293      	cmp	r3, r2
 8005404:	d00f      	beq.n	8005426 <HAL_TIM_Base_Init+0x32>
 8005406:	4a26      	ldr	r2, [pc, #152]	; (80054a0 <HAL_TIM_Base_Init+0xac>)
 8005408:	4293      	cmp	r3, r2
 800540a:	d00c      	beq.n	8005426 <HAL_TIM_Base_Init+0x32>
 800540c:	4a25      	ldr	r2, [pc, #148]	; (80054a4 <HAL_TIM_Base_Init+0xb0>)
 800540e:	4293      	cmp	r3, r2
 8005410:	d009      	beq.n	8005426 <HAL_TIM_Base_Init+0x32>
 8005412:	4a25      	ldr	r2, [pc, #148]	; (80054a8 <HAL_TIM_Base_Init+0xb4>)
 8005414:	4293      	cmp	r3, r2
 8005416:	d006      	beq.n	8005426 <HAL_TIM_Base_Init+0x32>
 8005418:	4a24      	ldr	r2, [pc, #144]	; (80054ac <HAL_TIM_Base_Init+0xb8>)
 800541a:	4293      	cmp	r3, r2
 800541c:	d003      	beq.n	8005426 <HAL_TIM_Base_Init+0x32>
 800541e:	21d4      	movs	r1, #212	; 0xd4
 8005420:	4823      	ldr	r0, [pc, #140]	; (80054b0 <HAL_TIM_Base_Init+0xbc>)
 8005422:	f7fd faa4 	bl	800296e <assert_failed>
  assert_param(IS_TIM_COUNTER_MODE(htim->Init.CounterMode));
 8005426:	68a3      	ldr	r3, [r4, #8]
 8005428:	2210      	movs	r2, #16
 800542a:	0019      	movs	r1, r3
 800542c:	4391      	bics	r1, r2
 800542e:	d00a      	beq.n	8005446 <HAL_TIM_Base_Init+0x52>
 8005430:	2240      	movs	r2, #64	; 0x40
 8005432:	0019      	movs	r1, r3
 8005434:	4391      	bics	r1, r2
 8005436:	2920      	cmp	r1, #32
 8005438:	d005      	beq.n	8005446 <HAL_TIM_Base_Init+0x52>
 800543a:	2b40      	cmp	r3, #64	; 0x40
 800543c:	d003      	beq.n	8005446 <HAL_TIM_Base_Init+0x52>
 800543e:	21d5      	movs	r1, #213	; 0xd5
 8005440:	481b      	ldr	r0, [pc, #108]	; (80054b0 <HAL_TIM_Base_Init+0xbc>)
 8005442:	f7fd fa94 	bl	800296e <assert_failed>
  assert_param(IS_TIM_CLOCKDIVISION_DIV(htim->Init.ClockDivision));
 8005446:	6923      	ldr	r3, [r4, #16]
 8005448:	4a1a      	ldr	r2, [pc, #104]	; (80054b4 <HAL_TIM_Base_Init+0xc0>)
 800544a:	4213      	tst	r3, r2
 800544c:	d007      	beq.n	800545e <HAL_TIM_Base_Init+0x6a>
 800544e:	2280      	movs	r2, #128	; 0x80
 8005450:	0092      	lsls	r2, r2, #2
 8005452:	4293      	cmp	r3, r2
 8005454:	d003      	beq.n	800545e <HAL_TIM_Base_Init+0x6a>
 8005456:	21d6      	movs	r1, #214	; 0xd6
 8005458:	4815      	ldr	r0, [pc, #84]	; (80054b0 <HAL_TIM_Base_Init+0xbc>)
 800545a:	f7fd fa88 	bl	800296e <assert_failed>
  assert_param(IS_TIM_AUTORELOAD_PRELOAD(htim->Init.AutoReloadPreload));
 800545e:	2380      	movs	r3, #128	; 0x80
 8005460:	69a2      	ldr	r2, [r4, #24]
 8005462:	439a      	bics	r2, r3
 8005464:	d003      	beq.n	800546e <HAL_TIM_Base_Init+0x7a>
 8005466:	21d7      	movs	r1, #215	; 0xd7
 8005468:	4811      	ldr	r0, [pc, #68]	; (80054b0 <HAL_TIM_Base_Init+0xbc>)
 800546a:	f7fd fa80 	bl	800296e <assert_failed>
  if(htim->State == HAL_TIM_STATE_RESET)
 800546e:	0025      	movs	r5, r4
 8005470:	353d      	adds	r5, #61	; 0x3d
 8005472:	782b      	ldrb	r3, [r5, #0]
 8005474:	b2db      	uxtb	r3, r3
 8005476:	2b00      	cmp	r3, #0
 8005478:	d105      	bne.n	8005486 <HAL_TIM_Base_Init+0x92>
    htim->Lock = HAL_UNLOCKED;
 800547a:	0022      	movs	r2, r4
 800547c:	323c      	adds	r2, #60	; 0x3c
 800547e:	7013      	strb	r3, [r2, #0]
    HAL_TIM_Base_MspInit(htim);
 8005480:	0020      	movs	r0, r4
 8005482:	f7fd fd5b 	bl	8002f3c <HAL_TIM_Base_MspInit>
  htim->State= HAL_TIM_STATE_BUSY;
 8005486:	2302      	movs	r3, #2
  TIM_Base_SetConfig(htim->Instance, &htim->Init);
 8005488:	6820      	ldr	r0, [r4, #0]
  htim->State= HAL_TIM_STATE_BUSY;
 800548a:	702b      	strb	r3, [r5, #0]
  TIM_Base_SetConfig(htim->Instance, &htim->Init);
 800548c:	1d21      	adds	r1, r4, #4
 800548e:	f7ff ff71 	bl	8005374 <TIM_Base_SetConfig>
  htim->State= HAL_TIM_STATE_READY;
 8005492:	2301      	movs	r3, #1
  return HAL_OK;
 8005494:	2000      	movs	r0, #0
  htim->State= HAL_TIM_STATE_READY;
 8005496:	702b      	strb	r3, [r5, #0]
}
 8005498:	bd70      	pop	{r4, r5, r6, pc}
 800549a:	46c0      	nop			; (mov r8, r8)
 800549c:	40012c00 	.word	0x40012c00
 80054a0:	40000400 	.word	0x40000400
 80054a4:	40002000 	.word	0x40002000
 80054a8:	40014400 	.word	0x40014400
 80054ac:	40014800 	.word	0x40014800
 80054b0:	080075c4 	.word	0x080075c4
 80054b4:	fffffeff 	.word	0xfffffeff

080054b8 <HAL_TIM_OC_Init>:
{
 80054b8:	b570      	push	{r4, r5, r6, lr}
 80054ba:	0004      	movs	r4, r0
    return HAL_ERROR;
 80054bc:	2001      	movs	r0, #1
  if(htim == NULL)
 80054be:	2c00      	cmp	r4, #0
 80054c0:	d050      	beq.n	8005564 <HAL_TIM_OC_Init+0xac>
  assert_param(IS_TIM_INSTANCE(htim->Instance));
 80054c2:	6823      	ldr	r3, [r4, #0]
 80054c4:	4a28      	ldr	r2, [pc, #160]	; (8005568 <HAL_TIM_OC_Init+0xb0>)
 80054c6:	4293      	cmp	r3, r2
 80054c8:	d010      	beq.n	80054ec <HAL_TIM_OC_Init+0x34>
 80054ca:	4a28      	ldr	r2, [pc, #160]	; (800556c <HAL_TIM_OC_Init+0xb4>)
 80054cc:	4293      	cmp	r3, r2
 80054ce:	d00d      	beq.n	80054ec <HAL_TIM_OC_Init+0x34>
 80054d0:	4a27      	ldr	r2, [pc, #156]	; (8005570 <HAL_TIM_OC_Init+0xb8>)
 80054d2:	4293      	cmp	r3, r2
 80054d4:	d00a      	beq.n	80054ec <HAL_TIM_OC_Init+0x34>
 80054d6:	4a27      	ldr	r2, [pc, #156]	; (8005574 <HAL_TIM_OC_Init+0xbc>)
 80054d8:	4293      	cmp	r3, r2
 80054da:	d007      	beq.n	80054ec <HAL_TIM_OC_Init+0x34>
 80054dc:	4a26      	ldr	r2, [pc, #152]	; (8005578 <HAL_TIM_OC_Init+0xc0>)
 80054de:	4293      	cmp	r3, r2
 80054e0:	d004      	beq.n	80054ec <HAL_TIM_OC_Init+0x34>
 80054e2:	21f5      	movs	r1, #245	; 0xf5
 80054e4:	4825      	ldr	r0, [pc, #148]	; (800557c <HAL_TIM_OC_Init+0xc4>)
 80054e6:	0049      	lsls	r1, r1, #1
 80054e8:	f7fd fa41 	bl	800296e <assert_failed>
  assert_param(IS_TIM_COUNTER_MODE(htim->Init.CounterMode));
 80054ec:	68a3      	ldr	r3, [r4, #8]
 80054ee:	2210      	movs	r2, #16
 80054f0:	0019      	movs	r1, r3
 80054f2:	4391      	bics	r1, r2
 80054f4:	d00b      	beq.n	800550e <HAL_TIM_OC_Init+0x56>
 80054f6:	2240      	movs	r2, #64	; 0x40
 80054f8:	0019      	movs	r1, r3
 80054fa:	4391      	bics	r1, r2
 80054fc:	2920      	cmp	r1, #32
 80054fe:	d006      	beq.n	800550e <HAL_TIM_OC_Init+0x56>
 8005500:	2b40      	cmp	r3, #64	; 0x40
 8005502:	d004      	beq.n	800550e <HAL_TIM_OC_Init+0x56>
 8005504:	21ec      	movs	r1, #236	; 0xec
 8005506:	481d      	ldr	r0, [pc, #116]	; (800557c <HAL_TIM_OC_Init+0xc4>)
 8005508:	31ff      	adds	r1, #255	; 0xff
 800550a:	f7fd fa30 	bl	800296e <assert_failed>
  assert_param(IS_TIM_CLOCKDIVISION_DIV(htim->Init.ClockDivision));
 800550e:	6923      	ldr	r3, [r4, #16]
 8005510:	4a1b      	ldr	r2, [pc, #108]	; (8005580 <HAL_TIM_OC_Init+0xc8>)
 8005512:	4213      	tst	r3, r2
 8005514:	d008      	beq.n	8005528 <HAL_TIM_OC_Init+0x70>
 8005516:	2280      	movs	r2, #128	; 0x80
 8005518:	0092      	lsls	r2, r2, #2
 800551a:	4293      	cmp	r3, r2
 800551c:	d004      	beq.n	8005528 <HAL_TIM_OC_Init+0x70>
 800551e:	21f6      	movs	r1, #246	; 0xf6
 8005520:	4816      	ldr	r0, [pc, #88]	; (800557c <HAL_TIM_OC_Init+0xc4>)
 8005522:	0049      	lsls	r1, r1, #1
 8005524:	f7fd fa23 	bl	800296e <assert_failed>
  assert_param(IS_TIM_AUTORELOAD_PRELOAD(htim->Init.AutoReloadPreload));
 8005528:	2380      	movs	r3, #128	; 0x80
 800552a:	69a2      	ldr	r2, [r4, #24]
 800552c:	439a      	bics	r2, r3
 800552e:	d004      	beq.n	800553a <HAL_TIM_OC_Init+0x82>
 8005530:	21ee      	movs	r1, #238	; 0xee
 8005532:	4812      	ldr	r0, [pc, #72]	; (800557c <HAL_TIM_OC_Init+0xc4>)
 8005534:	31ff      	adds	r1, #255	; 0xff
 8005536:	f7fd fa1a 	bl	800296e <assert_failed>
  if(htim->State == HAL_TIM_STATE_RESET)
 800553a:	0025      	movs	r5, r4
 800553c:	353d      	adds	r5, #61	; 0x3d
 800553e:	782b      	ldrb	r3, [r5, #0]
 8005540:	b2db      	uxtb	r3, r3
 8005542:	2b00      	cmp	r3, #0
 8005544:	d105      	bne.n	8005552 <HAL_TIM_OC_Init+0x9a>
    htim->Lock = HAL_UNLOCKED;
 8005546:	0022      	movs	r2, r4
 8005548:	323c      	adds	r2, #60	; 0x3c
 800554a:	7013      	strb	r3, [r2, #0]
    HAL_TIM_OC_MspInit(htim);
 800554c:	0020      	movs	r0, r4
 800554e:	f7ff fe65 	bl	800521c <HAL_TIM_OC_MspInit>
  htim->State= HAL_TIM_STATE_BUSY;
 8005552:	2302      	movs	r3, #2
  TIM_Base_SetConfig(htim->Instance,  &htim->Init);
 8005554:	6820      	ldr	r0, [r4, #0]
  htim->State= HAL_TIM_STATE_BUSY;
 8005556:	702b      	strb	r3, [r5, #0]
  TIM_Base_SetConfig(htim->Instance,  &htim->Init);
 8005558:	1d21      	adds	r1, r4, #4
 800555a:	f7ff ff0b 	bl	8005374 <TIM_Base_SetConfig>
  htim->State= HAL_TIM_STATE_READY;
 800555e:	2301      	movs	r3, #1
  return HAL_OK;
 8005560:	2000      	movs	r0, #0
  htim->State= HAL_TIM_STATE_READY;
 8005562:	702b      	strb	r3, [r5, #0]
}
 8005564:	bd70      	pop	{r4, r5, r6, pc}
 8005566:	46c0      	nop			; (mov r8, r8)
 8005568:	40012c00 	.word	0x40012c00
 800556c:	40000400 	.word	0x40000400
 8005570:	40002000 	.word	0x40002000
 8005574:	40014400 	.word	0x40014400
 8005578:	40014800 	.word	0x40014800
 800557c:	080075c4 	.word	0x080075c4
 8005580:	fffffeff 	.word	0xfffffeff

08005584 <HAL_TIM_PWM_Init>:
{
 8005584:	b570      	push	{r4, r5, r6, lr}
 8005586:	0004      	movs	r4, r0
    return HAL_ERROR;
 8005588:	2001      	movs	r0, #1
  if(htim == NULL)
 800558a:	2c00      	cmp	r4, #0
 800558c:	d04d      	beq.n	800562a <HAL_TIM_PWM_Init+0xa6>
  assert_param(IS_TIM_INSTANCE(htim->Instance));
 800558e:	6823      	ldr	r3, [r4, #0]
 8005590:	4a26      	ldr	r2, [pc, #152]	; (800562c <HAL_TIM_PWM_Init+0xa8>)
 8005592:	4293      	cmp	r3, r2
 8005594:	d00f      	beq.n	80055b6 <HAL_TIM_PWM_Init+0x32>
 8005596:	4a26      	ldr	r2, [pc, #152]	; (8005630 <HAL_TIM_PWM_Init+0xac>)
 8005598:	4293      	cmp	r3, r2
 800559a:	d00c      	beq.n	80055b6 <HAL_TIM_PWM_Init+0x32>
 800559c:	4a25      	ldr	r2, [pc, #148]	; (8005634 <HAL_TIM_PWM_Init+0xb0>)
 800559e:	4293      	cmp	r3, r2
 80055a0:	d009      	beq.n	80055b6 <HAL_TIM_PWM_Init+0x32>
 80055a2:	4a25      	ldr	r2, [pc, #148]	; (8005638 <HAL_TIM_PWM_Init+0xb4>)
 80055a4:	4293      	cmp	r3, r2
 80055a6:	d006      	beq.n	80055b6 <HAL_TIM_PWM_Init+0x32>
 80055a8:	4a24      	ldr	r2, [pc, #144]	; (800563c <HAL_TIM_PWM_Init+0xb8>)
 80055aa:	4293      	cmp	r3, r2
 80055ac:	d003      	beq.n	80055b6 <HAL_TIM_PWM_Init+0x32>
 80055ae:	4924      	ldr	r1, [pc, #144]	; (8005640 <HAL_TIM_PWM_Init+0xbc>)
 80055b0:	4824      	ldr	r0, [pc, #144]	; (8005644 <HAL_TIM_PWM_Init+0xc0>)
 80055b2:	f7fd f9dc 	bl	800296e <assert_failed>
  assert_param(IS_TIM_COUNTER_MODE(htim->Init.CounterMode));
 80055b6:	68a3      	ldr	r3, [r4, #8]
 80055b8:	2210      	movs	r2, #16
 80055ba:	0019      	movs	r1, r3
 80055bc:	4391      	bics	r1, r2
 80055be:	d00a      	beq.n	80055d6 <HAL_TIM_PWM_Init+0x52>
 80055c0:	2240      	movs	r2, #64	; 0x40
 80055c2:	0019      	movs	r1, r3
 80055c4:	4391      	bics	r1, r2
 80055c6:	2920      	cmp	r1, #32
 80055c8:	d005      	beq.n	80055d6 <HAL_TIM_PWM_Init+0x52>
 80055ca:	2b40      	cmp	r3, #64	; 0x40
 80055cc:	d003      	beq.n	80055d6 <HAL_TIM_PWM_Init+0x52>
 80055ce:	491e      	ldr	r1, [pc, #120]	; (8005648 <HAL_TIM_PWM_Init+0xc4>)
 80055d0:	481c      	ldr	r0, [pc, #112]	; (8005644 <HAL_TIM_PWM_Init+0xc0>)
 80055d2:	f7fd f9cc 	bl	800296e <assert_failed>
  assert_param(IS_TIM_CLOCKDIVISION_DIV(htim->Init.ClockDivision));
 80055d6:	6923      	ldr	r3, [r4, #16]
 80055d8:	4a1c      	ldr	r2, [pc, #112]	; (800564c <HAL_TIM_PWM_Init+0xc8>)
 80055da:	4213      	tst	r3, r2
 80055dc:	d007      	beq.n	80055ee <HAL_TIM_PWM_Init+0x6a>
 80055de:	2280      	movs	r2, #128	; 0x80
 80055e0:	0092      	lsls	r2, r2, #2
 80055e2:	4293      	cmp	r3, r2
 80055e4:	d003      	beq.n	80055ee <HAL_TIM_PWM_Init+0x6a>
 80055e6:	491a      	ldr	r1, [pc, #104]	; (8005650 <HAL_TIM_PWM_Init+0xcc>)
 80055e8:	4816      	ldr	r0, [pc, #88]	; (8005644 <HAL_TIM_PWM_Init+0xc0>)
 80055ea:	f7fd f9c0 	bl	800296e <assert_failed>
  assert_param(IS_TIM_AUTORELOAD_PRELOAD(htim->Init.AutoReloadPreload));
 80055ee:	2380      	movs	r3, #128	; 0x80
 80055f0:	69a2      	ldr	r2, [r4, #24]
 80055f2:	439a      	bics	r2, r3
 80055f4:	d004      	beq.n	8005600 <HAL_TIM_PWM_Init+0x7c>
 80055f6:	21fa      	movs	r1, #250	; 0xfa
 80055f8:	4812      	ldr	r0, [pc, #72]	; (8005644 <HAL_TIM_PWM_Init+0xc0>)
 80055fa:	0089      	lsls	r1, r1, #2
 80055fc:	f7fd f9b7 	bl	800296e <assert_failed>
  if(htim->State == HAL_TIM_STATE_RESET)
 8005600:	0025      	movs	r5, r4
 8005602:	353d      	adds	r5, #61	; 0x3d
 8005604:	782b      	ldrb	r3, [r5, #0]
 8005606:	b2db      	uxtb	r3, r3
 8005608:	2b00      	cmp	r3, #0
 800560a:	d105      	bne.n	8005618 <HAL_TIM_PWM_Init+0x94>
    htim->Lock = HAL_UNLOCKED;
 800560c:	0022      	movs	r2, r4
 800560e:	323c      	adds	r2, #60	; 0x3c
 8005610:	7013      	strb	r3, [r2, #0]
    HAL_TIM_PWM_MspInit(htim);
 8005612:	0020      	movs	r0, r4
 8005614:	f7ff fe03 	bl	800521e <HAL_TIM_PWM_MspInit>
  htim->State= HAL_TIM_STATE_BUSY;
 8005618:	2302      	movs	r3, #2
  TIM_Base_SetConfig(htim->Instance, &htim->Init);
 800561a:	6820      	ldr	r0, [r4, #0]
  htim->State= HAL_TIM_STATE_BUSY;
 800561c:	702b      	strb	r3, [r5, #0]
  TIM_Base_SetConfig(htim->Instance, &htim->Init);
 800561e:	1d21      	adds	r1, r4, #4
 8005620:	f7ff fea8 	bl	8005374 <TIM_Base_SetConfig>
  htim->State= HAL_TIM_STATE_READY;
 8005624:	2301      	movs	r3, #1
  return HAL_OK;
 8005626:	2000      	movs	r0, #0
  htim->State= HAL_TIM_STATE_READY;
 8005628:	702b      	strb	r3, [r5, #0]
}
 800562a:	bd70      	pop	{r4, r5, r6, pc}
 800562c:	40012c00 	.word	0x40012c00
 8005630:	40000400 	.word	0x40000400
 8005634:	40002000 	.word	0x40002000
 8005638:	40014400 	.word	0x40014400
 800563c:	40014800 	.word	0x40014800
 8005640:	000003e5 	.word	0x000003e5
 8005644:	080075c4 	.word	0x080075c4
 8005648:	000003e6 	.word	0x000003e6
 800564c:	fffffeff 	.word	0xfffffeff
 8005650:	000003e7 	.word	0x000003e7

08005654 <TIM_OC2_SetConfig>:
{
 8005654:	b5f7      	push	{r0, r1, r2, r4, r5, r6, r7, lr}
  TIMx->CCER &= ~TIM_CCER_CC2E;
 8005656:	2210      	movs	r2, #16
 8005658:	6a03      	ldr	r3, [r0, #32]
{
 800565a:	0004      	movs	r4, r0
  TIMx->CCER &= ~TIM_CCER_CC2E;
 800565c:	4393      	bics	r3, r2
 800565e:	6203      	str	r3, [r0, #32]
  tmpccer = TIMx->CCER;
 8005660:	6a06      	ldr	r6, [r0, #32]
  tmpccmrx &= ~TIM_CCMR1_CC2S;
 8005662:	4a23      	ldr	r2, [pc, #140]	; (80056f0 <TIM_OC2_SetConfig+0x9c>)
  tmpcr2 =  TIMx->CR2;
 8005664:	6845      	ldr	r5, [r0, #4]
  tmpccmrx = TIMx->CCMR1;
 8005666:	6983      	ldr	r3, [r0, #24]
{
 8005668:	000f      	movs	r7, r1
  tmpccmrx &= ~TIM_CCMR1_CC2S;
 800566a:	4013      	ands	r3, r2
  tmpccmrx |= (OC_Config->OCMode << 8U);
 800566c:	680a      	ldr	r2, [r1, #0]
 800566e:	0212      	lsls	r2, r2, #8
 8005670:	431a      	orrs	r2, r3
  tmpccer &= ~TIM_CCER_CC2P;
 8005672:	2320      	movs	r3, #32
 8005674:	439e      	bics	r6, r3
  tmpccer |= (OC_Config->OCPolarity << 4U);
 8005676:	688b      	ldr	r3, [r1, #8]
  tmpccmrx |= (OC_Config->OCMode << 8U);
 8005678:	9201      	str	r2, [sp, #4]
  tmpccer |= (OC_Config->OCPolarity << 4U);
 800567a:	011b      	lsls	r3, r3, #4
 800567c:	431e      	orrs	r6, r3
  if(IS_TIM_CCXN_INSTANCE(TIMx, TIM_CHANNEL_2))
 800567e:	4b1d      	ldr	r3, [pc, #116]	; (80056f4 <TIM_OC2_SetConfig+0xa0>)
 8005680:	4298      	cmp	r0, r3
 8005682:	d127      	bne.n	80056d4 <TIM_OC2_SetConfig+0x80>
    assert_param(IS_TIM_OCN_POLARITY(OC_Config->OCNPolarity));
 8005684:	2308      	movs	r3, #8
 8005686:	68ca      	ldr	r2, [r1, #12]
 8005688:	439a      	bics	r2, r3
 800568a:	d003      	beq.n	8005694 <TIM_OC2_SetConfig+0x40>
 800568c:	491a      	ldr	r1, [pc, #104]	; (80056f8 <TIM_OC2_SetConfig+0xa4>)
 800568e:	481b      	ldr	r0, [pc, #108]	; (80056fc <TIM_OC2_SetConfig+0xa8>)
 8005690:	f7fd f96d 	bl	800296e <assert_failed>
    tmpccer &= ~TIM_CCER_CC2NP;
 8005694:	2380      	movs	r3, #128	; 0x80
 8005696:	439e      	bics	r6, r3
 8005698:	0033      	movs	r3, r6
    tmpccer |= (OC_Config->OCNPolarity << 4U);
 800569a:	68fa      	ldr	r2, [r7, #12]
 800569c:	0116      	lsls	r6, r2, #4
 800569e:	431e      	orrs	r6, r3
    tmpccer &= ~TIM_CCER_CC2NE;
 80056a0:	2340      	movs	r3, #64	; 0x40
 80056a2:	439e      	bics	r6, r3
    assert_param(IS_TIM_OCNIDLE_STATE(OC_Config->OCNIdleState));
 80056a4:	4b16      	ldr	r3, [pc, #88]	; (8005700 <TIM_OC2_SetConfig+0xac>)
 80056a6:	69ba      	ldr	r2, [r7, #24]
 80056a8:	421a      	tst	r2, r3
 80056aa:	d003      	beq.n	80056b4 <TIM_OC2_SetConfig+0x60>
 80056ac:	4915      	ldr	r1, [pc, #84]	; (8005704 <TIM_OC2_SetConfig+0xb0>)
 80056ae:	4813      	ldr	r0, [pc, #76]	; (80056fc <TIM_OC2_SetConfig+0xa8>)
 80056b0:	f7fd f95d 	bl	800296e <assert_failed>
    assert_param(IS_TIM_OCIDLE_STATE(OC_Config->OCIdleState));
 80056b4:	4b14      	ldr	r3, [pc, #80]	; (8005708 <TIM_OC2_SetConfig+0xb4>)
 80056b6:	697a      	ldr	r2, [r7, #20]
 80056b8:	421a      	tst	r2, r3
 80056ba:	d003      	beq.n	80056c4 <TIM_OC2_SetConfig+0x70>
 80056bc:	4913      	ldr	r1, [pc, #76]	; (800570c <TIM_OC2_SetConfig+0xb8>)
 80056be:	480f      	ldr	r0, [pc, #60]	; (80056fc <TIM_OC2_SetConfig+0xa8>)
 80056c0:	f7fd f955 	bl	800296e <assert_failed>
    tmpcr2 &= ~TIM_CR2_OIS2N;
 80056c4:	4b12      	ldr	r3, [pc, #72]	; (8005710 <TIM_OC2_SetConfig+0xbc>)
    tmpcr2 |= (OC_Config->OCNIdleState << 2U);
 80056c6:	697a      	ldr	r2, [r7, #20]
    tmpcr2 &= ~TIM_CR2_OIS2N;
 80056c8:	402b      	ands	r3, r5
    tmpcr2 |= (OC_Config->OCNIdleState << 2U);
 80056ca:	69bd      	ldr	r5, [r7, #24]
 80056cc:	4315      	orrs	r5, r2
 80056ce:	00ad      	lsls	r5, r5, #2
 80056d0:	431d      	orrs	r5, r3
 80056d2:	e005      	b.n	80056e0 <TIM_OC2_SetConfig+0x8c>
  if(IS_TIM_BREAK_INSTANCE(TIMx))
 80056d4:	4b0f      	ldr	r3, [pc, #60]	; (8005714 <TIM_OC2_SetConfig+0xc0>)
 80056d6:	4298      	cmp	r0, r3
 80056d8:	d0e4      	beq.n	80056a4 <TIM_OC2_SetConfig+0x50>
 80056da:	4b0f      	ldr	r3, [pc, #60]	; (8005718 <TIM_OC2_SetConfig+0xc4>)
 80056dc:	429c      	cmp	r4, r3
 80056de:	d0e1      	beq.n	80056a4 <TIM_OC2_SetConfig+0x50>
  TIMx->CCMR1 = tmpccmrx;
 80056e0:	9b01      	ldr	r3, [sp, #4]
  TIMx->CR2 = tmpcr2;
 80056e2:	6065      	str	r5, [r4, #4]
  TIMx->CCMR1 = tmpccmrx;
 80056e4:	61a3      	str	r3, [r4, #24]
  TIMx->CCR2 = OC_Config->Pulse;
 80056e6:	687b      	ldr	r3, [r7, #4]
 80056e8:	63a3      	str	r3, [r4, #56]	; 0x38
  TIMx->CCER = tmpccer;
 80056ea:	6226      	str	r6, [r4, #32]
}
 80056ec:	bdf7      	pop	{r0, r1, r2, r4, r5, r6, r7, pc}
 80056ee:	46c0      	nop			; (mov r8, r8)
 80056f0:	ffff8cff 	.word	0xffff8cff
 80056f4:	40012c00 	.word	0x40012c00
 80056f8:	000012da 	.word	0x000012da
 80056fc:	080075c4 	.word	0x080075c4
 8005700:	fffffdff 	.word	0xfffffdff
 8005704:	000012e8 	.word	0x000012e8
 8005708:	fffffeff 	.word	0xfffffeff
 800570c:	000012e9 	.word	0x000012e9
 8005710:	fffff3ff 	.word	0xfffff3ff
 8005714:	40014400 	.word	0x40014400
 8005718:	40014800 	.word	0x40014800

0800571c <HAL_TIM_OC_ConfigChannel>:
{
 800571c:	b5f7      	push	{r0, r1, r2, r4, r5, r6, r7, lr}
 800571e:	0004      	movs	r4, r0
 8005720:	000d      	movs	r5, r1
 8005722:	0016      	movs	r6, r2
  assert_param(IS_TIM_CHANNELS(Channel));
 8005724:	2a18      	cmp	r2, #24
 8005726:	d803      	bhi.n	8005730 <HAL_TIM_OC_ConfigChannel+0x14>
 8005728:	4b42      	ldr	r3, [pc, #264]	; (8005834 <HAL_TIM_OC_ConfigChannel+0x118>)
 800572a:	40d3      	lsrs	r3, r2
 800572c:	07db      	lsls	r3, r3, #31
 800572e:	d403      	bmi.n	8005738 <HAL_TIM_OC_ConfigChannel+0x1c>
 8005730:	4941      	ldr	r1, [pc, #260]	; (8005838 <HAL_TIM_OC_ConfigChannel+0x11c>)
 8005732:	4842      	ldr	r0, [pc, #264]	; (800583c <HAL_TIM_OC_ConfigChannel+0x120>)
 8005734:	f7fd f91b 	bl	800296e <assert_failed>
  assert_param(IS_TIM_OC_MODE(sConfig->OCMode));
 8005738:	682b      	ldr	r3, [r5, #0]
 800573a:	2210      	movs	r2, #16
 800573c:	0019      	movs	r1, r3
 800573e:	4391      	bics	r1, r2
 8005740:	000a      	movs	r2, r1
 8005742:	2130      	movs	r1, #48	; 0x30
 8005744:	438b      	bics	r3, r1
 8005746:	d005      	beq.n	8005754 <HAL_TIM_OC_ConfigChannel+0x38>
 8005748:	2a40      	cmp	r2, #64	; 0x40
 800574a:	d003      	beq.n	8005754 <HAL_TIM_OC_ConfigChannel+0x38>
 800574c:	493c      	ldr	r1, [pc, #240]	; (8005840 <HAL_TIM_OC_ConfigChannel+0x124>)
 800574e:	483b      	ldr	r0, [pc, #236]	; (800583c <HAL_TIM_OC_ConfigChannel+0x120>)
 8005750:	f7fd f90d 	bl	800296e <assert_failed>
  assert_param(IS_TIM_OC_POLARITY(sConfig->OCPolarity));
 8005754:	2302      	movs	r3, #2
 8005756:	68aa      	ldr	r2, [r5, #8]
 8005758:	439a      	bics	r2, r3
 800575a:	d003      	beq.n	8005764 <HAL_TIM_OC_ConfigChannel+0x48>
 800575c:	4939      	ldr	r1, [pc, #228]	; (8005844 <HAL_TIM_OC_ConfigChannel+0x128>)
 800575e:	4837      	ldr	r0, [pc, #220]	; (800583c <HAL_TIM_OC_ConfigChannel+0x120>)
 8005760:	f7fd f905 	bl	800296e <assert_failed>
  __HAL_LOCK(htim);
 8005764:	0027      	movs	r7, r4
 8005766:	2302      	movs	r3, #2
 8005768:	373c      	adds	r7, #60	; 0x3c
 800576a:	783a      	ldrb	r2, [r7, #0]
 800576c:	0018      	movs	r0, r3
 800576e:	2a01      	cmp	r2, #1
 8005770:	d02e      	beq.n	80057d0 <HAL_TIM_OC_ConfigChannel+0xb4>
 8005772:	2201      	movs	r2, #1
 8005774:	703a      	strb	r2, [r7, #0]
  htim->State = HAL_TIM_STATE_BUSY;
 8005776:	0022      	movs	r2, r4
 8005778:	323d      	adds	r2, #61	; 0x3d
 800577a:	9201      	str	r2, [sp, #4]
 800577c:	7013      	strb	r3, [r2, #0]
  switch (Channel)
 800577e:	2e0c      	cmp	r6, #12
 8005780:	d821      	bhi.n	80057c6 <HAL_TIM_OC_ConfigChannel+0xaa>
 8005782:	0030      	movs	r0, r6
 8005784:	f7fa fcc0 	bl	8000108 <__gnu_thumb1_case_uqi>
 8005788:	1f1f1f07 	.word	0x1f1f1f07
 800578c:	1f1f1f25 	.word	0x1f1f1f25
 8005790:	1f1f1f35 	.word	0x1f1f1f35
 8005794:	45          	.byte	0x45
 8005795:	00          	.byte	0x00
      assert_param(IS_TIM_CC1_INSTANCE(htim->Instance));
 8005796:	6823      	ldr	r3, [r4, #0]
 8005798:	4a2b      	ldr	r2, [pc, #172]	; (8005848 <HAL_TIM_OC_ConfigChannel+0x12c>)
 800579a:	4293      	cmp	r3, r2
 800579c:	d00f      	beq.n	80057be <HAL_TIM_OC_ConfigChannel+0xa2>
 800579e:	4a2b      	ldr	r2, [pc, #172]	; (800584c <HAL_TIM_OC_ConfigChannel+0x130>)
 80057a0:	4293      	cmp	r3, r2
 80057a2:	d00c      	beq.n	80057be <HAL_TIM_OC_ConfigChannel+0xa2>
 80057a4:	4a2a      	ldr	r2, [pc, #168]	; (8005850 <HAL_TIM_OC_ConfigChannel+0x134>)
 80057a6:	4293      	cmp	r3, r2
 80057a8:	d009      	beq.n	80057be <HAL_TIM_OC_ConfigChannel+0xa2>
 80057aa:	4a2a      	ldr	r2, [pc, #168]	; (8005854 <HAL_TIM_OC_ConfigChannel+0x138>)
 80057ac:	4293      	cmp	r3, r2
 80057ae:	d006      	beq.n	80057be <HAL_TIM_OC_ConfigChannel+0xa2>
 80057b0:	4a29      	ldr	r2, [pc, #164]	; (8005858 <HAL_TIM_OC_ConfigChannel+0x13c>)
 80057b2:	4293      	cmp	r3, r2
 80057b4:	d003      	beq.n	80057be <HAL_TIM_OC_ConfigChannel+0xa2>
 80057b6:	4929      	ldr	r1, [pc, #164]	; (800585c <HAL_TIM_OC_ConfigChannel+0x140>)
 80057b8:	4820      	ldr	r0, [pc, #128]	; (800583c <HAL_TIM_OC_ConfigChannel+0x120>)
 80057ba:	f7fd f8d8 	bl	800296e <assert_failed>
      TIM_OC1_SetConfig(htim->Instance, sConfig);
 80057be:	0029      	movs	r1, r5
 80057c0:	6820      	ldr	r0, [r4, #0]
 80057c2:	f7ff fbbb 	bl	8004f3c <TIM_OC1_SetConfig>
  htim->State = HAL_TIM_STATE_READY;
 80057c6:	2301      	movs	r3, #1
  __HAL_UNLOCK(htim);
 80057c8:	2000      	movs	r0, #0
  htim->State = HAL_TIM_STATE_READY;
 80057ca:	9a01      	ldr	r2, [sp, #4]
 80057cc:	7013      	strb	r3, [r2, #0]
  __HAL_UNLOCK(htim);
 80057ce:	7038      	strb	r0, [r7, #0]
}
 80057d0:	bdfe      	pop	{r1, r2, r3, r4, r5, r6, r7, pc}
      assert_param(IS_TIM_CC2_INSTANCE(htim->Instance));
 80057d2:	6823      	ldr	r3, [r4, #0]
 80057d4:	4a1c      	ldr	r2, [pc, #112]	; (8005848 <HAL_TIM_OC_ConfigChannel+0x12c>)
 80057d6:	4293      	cmp	r3, r2
 80057d8:	d006      	beq.n	80057e8 <HAL_TIM_OC_ConfigChannel+0xcc>
 80057da:	4a1c      	ldr	r2, [pc, #112]	; (800584c <HAL_TIM_OC_ConfigChannel+0x130>)
 80057dc:	4293      	cmp	r3, r2
 80057de:	d003      	beq.n	80057e8 <HAL_TIM_OC_ConfigChannel+0xcc>
 80057e0:	491f      	ldr	r1, [pc, #124]	; (8005860 <HAL_TIM_OC_ConfigChannel+0x144>)
 80057e2:	4816      	ldr	r0, [pc, #88]	; (800583c <HAL_TIM_OC_ConfigChannel+0x120>)
 80057e4:	f7fd f8c3 	bl	800296e <assert_failed>
      TIM_OC2_SetConfig(htim->Instance, sConfig);
 80057e8:	0029      	movs	r1, r5
 80057ea:	6820      	ldr	r0, [r4, #0]
 80057ec:	f7ff ff32 	bl	8005654 <TIM_OC2_SetConfig>
    break;
 80057f0:	e7e9      	b.n	80057c6 <HAL_TIM_OC_ConfigChannel+0xaa>
       assert_param(IS_TIM_CC3_INSTANCE(htim->Instance));
 80057f2:	6823      	ldr	r3, [r4, #0]
 80057f4:	4a14      	ldr	r2, [pc, #80]	; (8005848 <HAL_TIM_OC_ConfigChannel+0x12c>)
 80057f6:	4293      	cmp	r3, r2
 80057f8:	d006      	beq.n	8005808 <HAL_TIM_OC_ConfigChannel+0xec>
 80057fa:	4a14      	ldr	r2, [pc, #80]	; (800584c <HAL_TIM_OC_ConfigChannel+0x130>)
 80057fc:	4293      	cmp	r3, r2
 80057fe:	d003      	beq.n	8005808 <HAL_TIM_OC_ConfigChannel+0xec>
 8005800:	4918      	ldr	r1, [pc, #96]	; (8005864 <HAL_TIM_OC_ConfigChannel+0x148>)
 8005802:	480e      	ldr	r0, [pc, #56]	; (800583c <HAL_TIM_OC_ConfigChannel+0x120>)
 8005804:	f7fd f8b3 	bl	800296e <assert_failed>
      TIM_OC3_SetConfig(htim->Instance, sConfig);
 8005808:	0029      	movs	r1, r5
 800580a:	6820      	ldr	r0, [r4, #0]
 800580c:	f7ff fbfa 	bl	8005004 <TIM_OC3_SetConfig>
    break;
 8005810:	e7d9      	b.n	80057c6 <HAL_TIM_OC_ConfigChannel+0xaa>
      assert_param(IS_TIM_CC4_INSTANCE(htim->Instance));
 8005812:	6823      	ldr	r3, [r4, #0]
 8005814:	4a0c      	ldr	r2, [pc, #48]	; (8005848 <HAL_TIM_OC_ConfigChannel+0x12c>)
 8005816:	4293      	cmp	r3, r2
 8005818:	d006      	beq.n	8005828 <HAL_TIM_OC_ConfigChannel+0x10c>
 800581a:	4a0c      	ldr	r2, [pc, #48]	; (800584c <HAL_TIM_OC_ConfigChannel+0x130>)
 800581c:	4293      	cmp	r3, r2
 800581e:	d003      	beq.n	8005828 <HAL_TIM_OC_ConfigChannel+0x10c>
 8005820:	4911      	ldr	r1, [pc, #68]	; (8005868 <HAL_TIM_OC_ConfigChannel+0x14c>)
 8005822:	4806      	ldr	r0, [pc, #24]	; (800583c <HAL_TIM_OC_ConfigChannel+0x120>)
 8005824:	f7fd f8a3 	bl	800296e <assert_failed>
       TIM_OC4_SetConfig(htim->Instance, sConfig);
 8005828:	0029      	movs	r1, r5
 800582a:	6820      	ldr	r0, [r4, #0]
 800582c:	f7ff fc52 	bl	80050d4 <TIM_OC4_SetConfig>
    break;
 8005830:	e7c9      	b.n	80057c6 <HAL_TIM_OC_ConfigChannel+0xaa>
 8005832:	46c0      	nop			; (mov r8, r8)
 8005834:	01001111 	.word	0x01001111
 8005838:	00000b77 	.word	0x00000b77
 800583c:	080075c4 	.word	0x080075c4
 8005840:	00000b78 	.word	0x00000b78
 8005844:	00000b79 	.word	0x00000b79
 8005848:	40012c00 	.word	0x40012c00
 800584c:	40000400 	.word	0x40000400
 8005850:	40002000 	.word	0x40002000
 8005854:	40014400 	.word	0x40014400
 8005858:	40014800 	.word	0x40014800
 800585c:	00000b84 	.word	0x00000b84
 8005860:	00000b8c 	.word	0x00000b8c
 8005864:	00000b94 	.word	0x00000b94
 8005868:	00000b9c 	.word	0x00000b9c

0800586c <HAL_TIM_PWM_ConfigChannel>:
{
 800586c:	b5f7      	push	{r0, r1, r2, r4, r5, r6, r7, lr}
  __HAL_LOCK(htim);
 800586e:	0007      	movs	r7, r0
 8005870:	373c      	adds	r7, #60	; 0x3c
 8005872:	783b      	ldrb	r3, [r7, #0]
{
 8005874:	0004      	movs	r4, r0
 8005876:	000d      	movs	r5, r1
 8005878:	0016      	movs	r6, r2
  __HAL_LOCK(htim);
 800587a:	2002      	movs	r0, #2
 800587c:	2b01      	cmp	r3, #1
 800587e:	d061      	beq.n	8005944 <HAL_TIM_PWM_ConfigChannel+0xd8>
 8005880:	2301      	movs	r3, #1
 8005882:	703b      	strb	r3, [r7, #0]
  assert_param(IS_TIM_CHANNELS(Channel));
 8005884:	2a18      	cmp	r2, #24
 8005886:	d803      	bhi.n	8005890 <HAL_TIM_PWM_ConfigChannel+0x24>
 8005888:	4a5a      	ldr	r2, [pc, #360]	; (80059f4 <HAL_TIM_PWM_ConfigChannel+0x188>)
 800588a:	40f2      	lsrs	r2, r6
 800588c:	4393      	bics	r3, r2
 800588e:	d003      	beq.n	8005898 <HAL_TIM_PWM_ConfigChannel+0x2c>
 8005890:	4959      	ldr	r1, [pc, #356]	; (80059f8 <HAL_TIM_PWM_ConfigChannel+0x18c>)
 8005892:	485a      	ldr	r0, [pc, #360]	; (80059fc <HAL_TIM_PWM_ConfigChannel+0x190>)
 8005894:	f7fd f86b 	bl	800296e <assert_failed>
  assert_param(IS_TIM_PWM_MODE(sConfig->OCMode));
 8005898:	2310      	movs	r3, #16
 800589a:	682a      	ldr	r2, [r5, #0]
 800589c:	439a      	bics	r2, r3
 800589e:	2a60      	cmp	r2, #96	; 0x60
 80058a0:	d003      	beq.n	80058aa <HAL_TIM_PWM_ConfigChannel+0x3e>
 80058a2:	4957      	ldr	r1, [pc, #348]	; (8005a00 <HAL_TIM_PWM_ConfigChannel+0x194>)
 80058a4:	4855      	ldr	r0, [pc, #340]	; (80059fc <HAL_TIM_PWM_ConfigChannel+0x190>)
 80058a6:	f7fd f862 	bl	800296e <assert_failed>
  assert_param(IS_TIM_OC_POLARITY(sConfig->OCPolarity));
 80058aa:	2302      	movs	r3, #2
 80058ac:	68aa      	ldr	r2, [r5, #8]
 80058ae:	439a      	bics	r2, r3
 80058b0:	d004      	beq.n	80058bc <HAL_TIM_PWM_ConfigChannel+0x50>
 80058b2:	21c2      	movs	r1, #194	; 0xc2
 80058b4:	4851      	ldr	r0, [pc, #324]	; (80059fc <HAL_TIM_PWM_ConfigChannel+0x190>)
 80058b6:	0109      	lsls	r1, r1, #4
 80058b8:	f7fd f859 	bl	800296e <assert_failed>
  assert_param(IS_TIM_FAST_STATE(sConfig->OCFastMode));
 80058bc:	2304      	movs	r3, #4
 80058be:	692a      	ldr	r2, [r5, #16]
 80058c0:	439a      	bics	r2, r3
 80058c2:	d003      	beq.n	80058cc <HAL_TIM_PWM_ConfigChannel+0x60>
 80058c4:	494f      	ldr	r1, [pc, #316]	; (8005a04 <HAL_TIM_PWM_ConfigChannel+0x198>)
 80058c6:	484d      	ldr	r0, [pc, #308]	; (80059fc <HAL_TIM_PWM_ConfigChannel+0x190>)
 80058c8:	f7fd f851 	bl	800296e <assert_failed>
  htim->State = HAL_TIM_STATE_BUSY;
 80058cc:	0023      	movs	r3, r4
 80058ce:	333d      	adds	r3, #61	; 0x3d
 80058d0:	9301      	str	r3, [sp, #4]
 80058d2:	2302      	movs	r3, #2
 80058d4:	9a01      	ldr	r2, [sp, #4]
 80058d6:	7013      	strb	r3, [r2, #0]
  switch (Channel)
 80058d8:	2e0c      	cmp	r6, #12
 80058da:	d82e      	bhi.n	800593a <HAL_TIM_PWM_ConfigChannel+0xce>
 80058dc:	0030      	movs	r0, r6
 80058de:	f7fa fc13 	bl	8000108 <__gnu_thumb1_case_uqi>
 80058e2:	2c07      	.short	0x2c07
 80058e4:	2c322c2c 	.word	0x2c322c2c
 80058e8:	2c4f2c2c 	.word	0x2c4f2c2c
 80058ec:	2c2c      	.short	0x2c2c
 80058ee:	6c          	.byte	0x6c
 80058ef:	00          	.byte	0x00
      assert_param(IS_TIM_CC1_INSTANCE(htim->Instance));
 80058f0:	6823      	ldr	r3, [r4, #0]
 80058f2:	4a45      	ldr	r2, [pc, #276]	; (8005a08 <HAL_TIM_PWM_ConfigChannel+0x19c>)
 80058f4:	4293      	cmp	r3, r2
 80058f6:	d00f      	beq.n	8005918 <HAL_TIM_PWM_ConfigChannel+0xac>
 80058f8:	4a44      	ldr	r2, [pc, #272]	; (8005a0c <HAL_TIM_PWM_ConfigChannel+0x1a0>)
 80058fa:	4293      	cmp	r3, r2
 80058fc:	d00c      	beq.n	8005918 <HAL_TIM_PWM_ConfigChannel+0xac>
 80058fe:	4a44      	ldr	r2, [pc, #272]	; (8005a10 <HAL_TIM_PWM_ConfigChannel+0x1a4>)
 8005900:	4293      	cmp	r3, r2
 8005902:	d009      	beq.n	8005918 <HAL_TIM_PWM_ConfigChannel+0xac>
 8005904:	4a43      	ldr	r2, [pc, #268]	; (8005a14 <HAL_TIM_PWM_ConfigChannel+0x1a8>)
 8005906:	4293      	cmp	r3, r2
 8005908:	d006      	beq.n	8005918 <HAL_TIM_PWM_ConfigChannel+0xac>
 800590a:	4a43      	ldr	r2, [pc, #268]	; (8005a18 <HAL_TIM_PWM_ConfigChannel+0x1ac>)
 800590c:	4293      	cmp	r3, r2
 800590e:	d003      	beq.n	8005918 <HAL_TIM_PWM_ConfigChannel+0xac>
 8005910:	4942      	ldr	r1, [pc, #264]	; (8005a1c <HAL_TIM_PWM_ConfigChannel+0x1b0>)
 8005912:	483a      	ldr	r0, [pc, #232]	; (80059fc <HAL_TIM_PWM_ConfigChannel+0x190>)
 8005914:	f7fd f82b 	bl	800296e <assert_failed>
      TIM_OC1_SetConfig(htim->Instance, sConfig);
 8005918:	0029      	movs	r1, r5
 800591a:	6820      	ldr	r0, [r4, #0]
 800591c:	f7ff fb0e 	bl	8004f3c <TIM_OC1_SetConfig>
      htim->Instance->CCMR1 |= TIM_CCMR1_OC1PE;
 8005920:	2208      	movs	r2, #8
 8005922:	6823      	ldr	r3, [r4, #0]
 8005924:	6999      	ldr	r1, [r3, #24]
 8005926:	430a      	orrs	r2, r1
      htim->Instance->CCMR1 &= ~TIM_CCMR1_OC1FE;
 8005928:	2104      	movs	r1, #4
      htim->Instance->CCMR1 |= TIM_CCMR1_OC1PE;
 800592a:	619a      	str	r2, [r3, #24]
      htim->Instance->CCMR1 &= ~TIM_CCMR1_OC1FE;
 800592c:	699a      	ldr	r2, [r3, #24]
 800592e:	438a      	bics	r2, r1
 8005930:	619a      	str	r2, [r3, #24]
      htim->Instance->CCMR1 |= sConfig->OCFastMode;
 8005932:	699a      	ldr	r2, [r3, #24]
 8005934:	6929      	ldr	r1, [r5, #16]
      htim->Instance->CCMR1 |= sConfig->OCFastMode << 8U;
 8005936:	430a      	orrs	r2, r1
 8005938:	619a      	str	r2, [r3, #24]
  htim->State = HAL_TIM_STATE_READY;
 800593a:	2301      	movs	r3, #1
  __HAL_UNLOCK(htim);
 800593c:	2000      	movs	r0, #0
  htim->State = HAL_TIM_STATE_READY;
 800593e:	9a01      	ldr	r2, [sp, #4]
 8005940:	7013      	strb	r3, [r2, #0]
  __HAL_UNLOCK(htim);
 8005942:	7038      	strb	r0, [r7, #0]
}
 8005944:	bdfe      	pop	{r1, r2, r3, r4, r5, r6, r7, pc}
      assert_param(IS_TIM_CC2_INSTANCE(htim->Instance));
 8005946:	6823      	ldr	r3, [r4, #0]
 8005948:	4a2f      	ldr	r2, [pc, #188]	; (8005a08 <HAL_TIM_PWM_ConfigChannel+0x19c>)
 800594a:	4293      	cmp	r3, r2
 800594c:	d006      	beq.n	800595c <HAL_TIM_PWM_ConfigChannel+0xf0>
 800594e:	4a2f      	ldr	r2, [pc, #188]	; (8005a0c <HAL_TIM_PWM_ConfigChannel+0x1a0>)
 8005950:	4293      	cmp	r3, r2
 8005952:	d003      	beq.n	800595c <HAL_TIM_PWM_ConfigChannel+0xf0>
 8005954:	4932      	ldr	r1, [pc, #200]	; (8005a20 <HAL_TIM_PWM_ConfigChannel+0x1b4>)
 8005956:	4829      	ldr	r0, [pc, #164]	; (80059fc <HAL_TIM_PWM_ConfigChannel+0x190>)
 8005958:	f7fd f809 	bl	800296e <assert_failed>
      TIM_OC2_SetConfig(htim->Instance, sConfig);
 800595c:	0029      	movs	r1, r5
 800595e:	6820      	ldr	r0, [r4, #0]
 8005960:	f7ff fe78 	bl	8005654 <TIM_OC2_SetConfig>
      htim->Instance->CCMR1 |= TIM_CCMR1_OC2PE;
 8005964:	2280      	movs	r2, #128	; 0x80
 8005966:	6823      	ldr	r3, [r4, #0]
 8005968:	0112      	lsls	r2, r2, #4
 800596a:	6999      	ldr	r1, [r3, #24]
 800596c:	430a      	orrs	r2, r1
 800596e:	619a      	str	r2, [r3, #24]
      htim->Instance->CCMR1 &= ~TIM_CCMR1_OC2FE;
 8005970:	699a      	ldr	r2, [r3, #24]
 8005972:	492c      	ldr	r1, [pc, #176]	; (8005a24 <HAL_TIM_PWM_ConfigChannel+0x1b8>)
 8005974:	400a      	ands	r2, r1
 8005976:	619a      	str	r2, [r3, #24]
      htim->Instance->CCMR1 |= sConfig->OCFastMode << 8U;
 8005978:	692a      	ldr	r2, [r5, #16]
 800597a:	6999      	ldr	r1, [r3, #24]
 800597c:	0212      	lsls	r2, r2, #8
 800597e:	e7da      	b.n	8005936 <HAL_TIM_PWM_ConfigChannel+0xca>
      assert_param(IS_TIM_CC3_INSTANCE(htim->Instance));
 8005980:	6823      	ldr	r3, [r4, #0]
 8005982:	4a21      	ldr	r2, [pc, #132]	; (8005a08 <HAL_TIM_PWM_ConfigChannel+0x19c>)
 8005984:	4293      	cmp	r3, r2
 8005986:	d006      	beq.n	8005996 <HAL_TIM_PWM_ConfigChannel+0x12a>
 8005988:	4a20      	ldr	r2, [pc, #128]	; (8005a0c <HAL_TIM_PWM_ConfigChannel+0x1a0>)
 800598a:	4293      	cmp	r3, r2
 800598c:	d003      	beq.n	8005996 <HAL_TIM_PWM_ConfigChannel+0x12a>
 800598e:	4926      	ldr	r1, [pc, #152]	; (8005a28 <HAL_TIM_PWM_ConfigChannel+0x1bc>)
 8005990:	481a      	ldr	r0, [pc, #104]	; (80059fc <HAL_TIM_PWM_ConfigChannel+0x190>)
 8005992:	f7fc ffec 	bl	800296e <assert_failed>
      TIM_OC3_SetConfig(htim->Instance, sConfig);
 8005996:	0029      	movs	r1, r5
 8005998:	6820      	ldr	r0, [r4, #0]
 800599a:	f7ff fb33 	bl	8005004 <TIM_OC3_SetConfig>
      htim->Instance->CCMR2 |= TIM_CCMR2_OC3PE;
 800599e:	2208      	movs	r2, #8
 80059a0:	6823      	ldr	r3, [r4, #0]
 80059a2:	69d9      	ldr	r1, [r3, #28]
 80059a4:	430a      	orrs	r2, r1
      htim->Instance->CCMR2 &= ~TIM_CCMR2_OC3FE;
 80059a6:	2104      	movs	r1, #4
      htim->Instance->CCMR2 |= TIM_CCMR2_OC3PE;
 80059a8:	61da      	str	r2, [r3, #28]
      htim->Instance->CCMR2 &= ~TIM_CCMR2_OC3FE;
 80059aa:	69da      	ldr	r2, [r3, #28]
 80059ac:	438a      	bics	r2, r1
 80059ae:	61da      	str	r2, [r3, #28]
      htim->Instance->CCMR2 |= sConfig->OCFastMode;
 80059b0:	69da      	ldr	r2, [r3, #28]
 80059b2:	6929      	ldr	r1, [r5, #16]
      htim->Instance->CCMR2 |= sConfig->OCFastMode << 8U;
 80059b4:	430a      	orrs	r2, r1
 80059b6:	61da      	str	r2, [r3, #28]
    break;
 80059b8:	e7bf      	b.n	800593a <HAL_TIM_PWM_ConfigChannel+0xce>
      assert_param(IS_TIM_CC4_INSTANCE(htim->Instance));
 80059ba:	6823      	ldr	r3, [r4, #0]
 80059bc:	4a12      	ldr	r2, [pc, #72]	; (8005a08 <HAL_TIM_PWM_ConfigChannel+0x19c>)
 80059be:	4293      	cmp	r3, r2
 80059c0:	d006      	beq.n	80059d0 <HAL_TIM_PWM_ConfigChannel+0x164>
 80059c2:	4a12      	ldr	r2, [pc, #72]	; (8005a0c <HAL_TIM_PWM_ConfigChannel+0x1a0>)
 80059c4:	4293      	cmp	r3, r2
 80059c6:	d003      	beq.n	80059d0 <HAL_TIM_PWM_ConfigChannel+0x164>
 80059c8:	4918      	ldr	r1, [pc, #96]	; (8005a2c <HAL_TIM_PWM_ConfigChannel+0x1c0>)
 80059ca:	480c      	ldr	r0, [pc, #48]	; (80059fc <HAL_TIM_PWM_ConfigChannel+0x190>)
 80059cc:	f7fc ffcf 	bl	800296e <assert_failed>
      TIM_OC4_SetConfig(htim->Instance, sConfig);
 80059d0:	0029      	movs	r1, r5
 80059d2:	6820      	ldr	r0, [r4, #0]
 80059d4:	f7ff fb7e 	bl	80050d4 <TIM_OC4_SetConfig>
      htim->Instance->CCMR2 |= TIM_CCMR2_OC4PE;
 80059d8:	2280      	movs	r2, #128	; 0x80
 80059da:	6823      	ldr	r3, [r4, #0]
 80059dc:	0112      	lsls	r2, r2, #4
 80059de:	69d9      	ldr	r1, [r3, #28]
 80059e0:	430a      	orrs	r2, r1
 80059e2:	61da      	str	r2, [r3, #28]
      htim->Instance->CCMR2 &= ~TIM_CCMR2_OC4FE;
 80059e4:	69da      	ldr	r2, [r3, #28]
 80059e6:	490f      	ldr	r1, [pc, #60]	; (8005a24 <HAL_TIM_PWM_ConfigChannel+0x1b8>)
 80059e8:	400a      	ands	r2, r1
 80059ea:	61da      	str	r2, [r3, #28]
      htim->Instance->CCMR2 |= sConfig->OCFastMode << 8U;
 80059ec:	692a      	ldr	r2, [r5, #16]
 80059ee:	69d9      	ldr	r1, [r3, #28]
 80059f0:	0212      	lsls	r2, r2, #8
 80059f2:	e7df      	b.n	80059b4 <HAL_TIM_PWM_ConfigChannel+0x148>
 80059f4:	01001111 	.word	0x01001111
 80059f8:	00000c1e 	.word	0x00000c1e
 80059fc:	080075c4 	.word	0x080075c4
 8005a00:	00000c1f 	.word	0x00000c1f
 8005a04:	00000c21 	.word	0x00000c21
 8005a08:	40012c00 	.word	0x40012c00
 8005a0c:	40000400 	.word	0x40000400
 8005a10:	40002000 	.word	0x40002000
 8005a14:	40014400 	.word	0x40014400
 8005a18:	40014800 	.word	0x40014800
 8005a1c:	00000c29 	.word	0x00000c29
 8005a20:	00000c38 	.word	0x00000c38
 8005a24:	fffffbff 	.word	0xfffffbff
 8005a28:	00000c47 	.word	0x00000c47
 8005a2c:	00000c56 	.word	0x00000c56

08005a30 <TIM_ETR_SetConfig>:
  *          This parameter must be a value between 0x00 and 0x0F
  * @retval None
  */
void TIM_ETR_SetConfig(TIM_TypeDef* TIMx, uint32_t TIM_ExtTRGPrescaler,
                       uint32_t TIM_ExtTRGPolarity, uint32_t ExtTRGFilter)
{
 8005a30:	b530      	push	{r4, r5, lr}
  uint32_t tmpsmcr = 0U;

  tmpsmcr = TIMx->SMCR;
 8005a32:	6884      	ldr	r4, [r0, #8]

  /* Reset the ETR Bits */
  tmpsmcr &= ~(TIM_SMCR_ETF | TIM_SMCR_ETPS | TIM_SMCR_ECE | TIM_SMCR_ETP);
 8005a34:	4d03      	ldr	r5, [pc, #12]	; (8005a44 <TIM_ETR_SetConfig+0x14>)

  /* Set the Prescaler, the Filter value and the Polarity */
  tmpsmcr |= (uint32_t)(TIM_ExtTRGPrescaler | (TIM_ExtTRGPolarity | (ExtTRGFilter << 8U)));
 8005a36:	430a      	orrs	r2, r1
 8005a38:	021b      	lsls	r3, r3, #8
  tmpsmcr &= ~(TIM_SMCR_ETF | TIM_SMCR_ETPS | TIM_SMCR_ECE | TIM_SMCR_ETP);
 8005a3a:	402c      	ands	r4, r5
  tmpsmcr |= (uint32_t)(TIM_ExtTRGPrescaler | (TIM_ExtTRGPolarity | (ExtTRGFilter << 8U)));
 8005a3c:	4313      	orrs	r3, r2
 8005a3e:	4323      	orrs	r3, r4

  /* Write to TIMx SMCR */
  TIMx->SMCR = tmpsmcr;
 8005a40:	6083      	str	r3, [r0, #8]
}
 8005a42:	bd30      	pop	{r4, r5, pc}
 8005a44:	ffff00ff 	.word	0xffff00ff

08005a48 <HAL_TIM_ConfigClockSource>:
{
 8005a48:	b5f8      	push	{r3, r4, r5, r6, r7, lr}
  __HAL_LOCK(htim);
 8005a4a:	0006      	movs	r6, r0
 8005a4c:	2302      	movs	r3, #2
 8005a4e:	363c      	adds	r6, #60	; 0x3c
 8005a50:	7832      	ldrb	r2, [r6, #0]
{
 8005a52:	0005      	movs	r5, r0
 8005a54:	000c      	movs	r4, r1
  __HAL_LOCK(htim);
 8005a56:	0018      	movs	r0, r3
 8005a58:	2a01      	cmp	r2, #1
 8005a5a:	d028      	beq.n	8005aae <HAL_TIM_ConfigClockSource+0x66>
  htim->State = HAL_TIM_STATE_BUSY;
 8005a5c:	002f      	movs	r7, r5
  __HAL_LOCK(htim);
 8005a5e:	2201      	movs	r2, #1
  htim->State = HAL_TIM_STATE_BUSY;
 8005a60:	373d      	adds	r7, #61	; 0x3d
  __HAL_LOCK(htim);
 8005a62:	7032      	strb	r2, [r6, #0]
  assert_param(IS_TIM_CLOCKSOURCE(sClockSourceConfig->ClockSource));
 8005a64:	4aa0      	ldr	r2, [pc, #640]	; (8005ce8 <HAL_TIM_ConfigClockSource+0x2a0>)
  htim->State = HAL_TIM_STATE_BUSY;
 8005a66:	703b      	strb	r3, [r7, #0]
  assert_param(IS_TIM_CLOCKSOURCE(sClockSourceConfig->ClockSource));
 8005a68:	680b      	ldr	r3, [r1, #0]
 8005a6a:	1899      	adds	r1, r3, r2
 8005a6c:	4a9f      	ldr	r2, [pc, #636]	; (8005cec <HAL_TIM_ConfigClockSource+0x2a4>)
 8005a6e:	4211      	tst	r1, r2
 8005a70:	d008      	beq.n	8005a84 <HAL_TIM_ConfigClockSource+0x3c>
 8005a72:	2230      	movs	r2, #48	; 0x30
 8005a74:	4393      	bics	r3, r2
 8005a76:	d005      	beq.n	8005a84 <HAL_TIM_ConfigClockSource+0x3c>
 8005a78:	2b40      	cmp	r3, #64	; 0x40
 8005a7a:	d003      	beq.n	8005a84 <HAL_TIM_ConfigClockSource+0x3c>
 8005a7c:	499c      	ldr	r1, [pc, #624]	; (8005cf0 <HAL_TIM_ConfigClockSource+0x2a8>)
 8005a7e:	489d      	ldr	r0, [pc, #628]	; (8005cf4 <HAL_TIM_ConfigClockSource+0x2ac>)
 8005a80:	f7fc ff75 	bl	800296e <assert_failed>
  tmpsmcr = htim->Instance->SMCR;
 8005a84:	682b      	ldr	r3, [r5, #0]
  tmpsmcr &= ~(TIM_SMCR_ETF | TIM_SMCR_ETPS | TIM_SMCR_ECE | TIM_SMCR_ETP);
 8005a86:	499c      	ldr	r1, [pc, #624]	; (8005cf8 <HAL_TIM_ConfigClockSource+0x2b0>)
  tmpsmcr = htim->Instance->SMCR;
 8005a88:	689a      	ldr	r2, [r3, #8]
  tmpsmcr &= ~(TIM_SMCR_ETF | TIM_SMCR_ETPS | TIM_SMCR_ECE | TIM_SMCR_ETP);
 8005a8a:	400a      	ands	r2, r1
  htim->Instance->SMCR = tmpsmcr;
 8005a8c:	609a      	str	r2, [r3, #8]
  switch (sClockSourceConfig->ClockSource)
 8005a8e:	6822      	ldr	r2, [r4, #0]
 8005a90:	2a40      	cmp	r2, #64	; 0x40
 8005a92:	d100      	bne.n	8005a96 <HAL_TIM_ConfigClockSource+0x4e>
 8005a94:	e15c      	b.n	8005d50 <HAL_TIM_ConfigClockSource+0x308>
 8005a96:	d821      	bhi.n	8005adc <HAL_TIM_ConfigClockSource+0x94>
 8005a98:	2a10      	cmp	r2, #16
 8005a9a:	d100      	bne.n	8005a9e <HAL_TIM_ConfigClockSource+0x56>
 8005a9c:	e1a3      	b.n	8005de6 <HAL_TIM_ConfigClockSource+0x39e>
 8005a9e:	d807      	bhi.n	8005ab0 <HAL_TIM_ConfigClockSource+0x68>
 8005aa0:	2a00      	cmp	r2, #0
 8005aa2:	d100      	bne.n	8005aa6 <HAL_TIM_ConfigClockSource+0x5e>
 8005aa4:	e18c      	b.n	8005dc0 <HAL_TIM_ConfigClockSource+0x378>
  htim->State = HAL_TIM_STATE_READY;
 8005aa6:	2301      	movs	r3, #1
  __HAL_UNLOCK(htim);
 8005aa8:	2000      	movs	r0, #0
  htim->State = HAL_TIM_STATE_READY;
 8005aaa:	703b      	strb	r3, [r7, #0]
  __HAL_UNLOCK(htim);
 8005aac:	7030      	strb	r0, [r6, #0]
}
 8005aae:	bdf8      	pop	{r3, r4, r5, r6, r7, pc}
  switch (sClockSourceConfig->ClockSource)
 8005ab0:	2a20      	cmp	r2, #32
 8005ab2:	d100      	bne.n	8005ab6 <HAL_TIM_ConfigClockSource+0x6e>
 8005ab4:	e1a8      	b.n	8005e08 <HAL_TIM_ConfigClockSource+0x3c0>
 8005ab6:	2a30      	cmp	r2, #48	; 0x30
 8005ab8:	d1f5      	bne.n	8005aa6 <HAL_TIM_ConfigClockSource+0x5e>
      assert_param(IS_TIM_CLOCKSOURCE_ITRX_INSTANCE(htim->Instance));
 8005aba:	4a90      	ldr	r2, [pc, #576]	; (8005cfc <HAL_TIM_ConfigClockSource+0x2b4>)
 8005abc:	4293      	cmp	r3, r2
 8005abe:	d006      	beq.n	8005ace <HAL_TIM_ConfigClockSource+0x86>
 8005ac0:	4a8f      	ldr	r2, [pc, #572]	; (8005d00 <HAL_TIM_ConfigClockSource+0x2b8>)
 8005ac2:	4293      	cmp	r3, r2
 8005ac4:	d003      	beq.n	8005ace <HAL_TIM_ConfigClockSource+0x86>
 8005ac6:	498f      	ldr	r1, [pc, #572]	; (8005d04 <HAL_TIM_ConfigClockSource+0x2bc>)
 8005ac8:	488a      	ldr	r0, [pc, #552]	; (8005cf4 <HAL_TIM_ConfigClockSource+0x2ac>)
 8005aca:	f7fc ff50 	bl	800296e <assert_failed>
   tmpsmcr &= ~TIM_SMCR_TS;
 8005ace:	2270      	movs	r2, #112	; 0x70
      TIM_ITRx_SetConfig(htim->Instance, TIM_CLOCKSOURCE_ITR3);
 8005ad0:	6829      	ldr	r1, [r5, #0]
   tmpsmcr = TIMx->SMCR;
 8005ad2:	688b      	ldr	r3, [r1, #8]
   tmpsmcr &= ~TIM_SMCR_TS;
 8005ad4:	4393      	bics	r3, r2
 8005ad6:	001a      	movs	r2, r3
   tmpsmcr |= InputTriggerSource | TIM_SLAVEMODE_EXTERNAL1;
 8005ad8:	2337      	movs	r3, #55	; 0x37
 8005ada:	e181      	b.n	8005de0 <HAL_TIM_ConfigClockSource+0x398>
  switch (sClockSourceConfig->ClockSource)
 8005adc:	2a70      	cmp	r2, #112	; 0x70
 8005ade:	d100      	bne.n	8005ae2 <HAL_TIM_ConfigClockSource+0x9a>
 8005ae0:	e093      	b.n	8005c0a <HAL_TIM_ConfigClockSource+0x1c2>
 8005ae2:	d83d      	bhi.n	8005b60 <HAL_TIM_ConfigClockSource+0x118>
 8005ae4:	2a50      	cmp	r2, #80	; 0x50
 8005ae6:	d100      	bne.n	8005aea <HAL_TIM_ConfigClockSource+0xa2>
 8005ae8:	e0c2      	b.n	8005c70 <HAL_TIM_ConfigClockSource+0x228>
 8005aea:	2a60      	cmp	r2, #96	; 0x60
 8005aec:	d1db      	bne.n	8005aa6 <HAL_TIM_ConfigClockSource+0x5e>
      assert_param(IS_TIM_CLOCKSOURCE_TIX_INSTANCE(htim->Instance));
 8005aee:	4a83      	ldr	r2, [pc, #524]	; (8005cfc <HAL_TIM_ConfigClockSource+0x2b4>)
 8005af0:	4293      	cmp	r3, r2
 8005af2:	d006      	beq.n	8005b02 <HAL_TIM_ConfigClockSource+0xba>
 8005af4:	4a82      	ldr	r2, [pc, #520]	; (8005d00 <HAL_TIM_ConfigClockSource+0x2b8>)
 8005af6:	4293      	cmp	r3, r2
 8005af8:	d003      	beq.n	8005b02 <HAL_TIM_ConfigClockSource+0xba>
 8005afa:	4983      	ldr	r1, [pc, #524]	; (8005d08 <HAL_TIM_ConfigClockSource+0x2c0>)
 8005afc:	487d      	ldr	r0, [pc, #500]	; (8005cf4 <HAL_TIM_ConfigClockSource+0x2ac>)
 8005afe:	f7fc ff36 	bl	800296e <assert_failed>
      assert_param(IS_TIM_CLOCKPOLARITY(sClockSourceConfig->ClockPolarity));
 8005b02:	2280      	movs	r2, #128	; 0x80
 8005b04:	6863      	ldr	r3, [r4, #4]
 8005b06:	0212      	lsls	r2, r2, #8
 8005b08:	4293      	cmp	r3, r2
 8005b0a:	d009      	beq.n	8005b20 <HAL_TIM_ConfigClockSource+0xd8>
 8005b0c:	2202      	movs	r2, #2
 8005b0e:	0019      	movs	r1, r3
 8005b10:	4391      	bics	r1, r2
 8005b12:	d005      	beq.n	8005b20 <HAL_TIM_ConfigClockSource+0xd8>
 8005b14:	2b0a      	cmp	r3, #10
 8005b16:	d003      	beq.n	8005b20 <HAL_TIM_ConfigClockSource+0xd8>
 8005b18:	497c      	ldr	r1, [pc, #496]	; (8005d0c <HAL_TIM_ConfigClockSource+0x2c4>)
 8005b1a:	4876      	ldr	r0, [pc, #472]	; (8005cf4 <HAL_TIM_ConfigClockSource+0x2ac>)
 8005b1c:	f7fc ff27 	bl	800296e <assert_failed>
      assert_param(IS_TIM_CLOCKFILTER(sClockSourceConfig->ClockFilter));
 8005b20:	68e3      	ldr	r3, [r4, #12]
 8005b22:	2b0f      	cmp	r3, #15
 8005b24:	d903      	bls.n	8005b2e <HAL_TIM_ConfigClockSource+0xe6>
 8005b26:	497a      	ldr	r1, [pc, #488]	; (8005d10 <HAL_TIM_ConfigClockSource+0x2c8>)
 8005b28:	4872      	ldr	r0, [pc, #456]	; (8005cf4 <HAL_TIM_ConfigClockSource+0x2ac>)
 8005b2a:	f7fc ff20 	bl	800296e <assert_failed>
      TIM_TI2_ConfigInputStage(htim->Instance,
 8005b2e:	6862      	ldr	r2, [r4, #4]
 8005b30:	68e1      	ldr	r1, [r4, #12]
  TIMx->CCER &= ~TIM_CCER_CC2E;
 8005b32:	2410      	movs	r4, #16
      TIM_TI2_ConfigInputStage(htim->Instance,
 8005b34:	682b      	ldr	r3, [r5, #0]
  tmpccmr1 &= ~TIM_CCMR1_IC2F;
 8005b36:	4d77      	ldr	r5, [pc, #476]	; (8005d14 <HAL_TIM_ConfigClockSource+0x2cc>)
  TIMx->CCER &= ~TIM_CCER_CC2E;
 8005b38:	6a18      	ldr	r0, [r3, #32]
  tmpccmr1 |= (TIM_ICFilter << 12U);
 8005b3a:	0309      	lsls	r1, r1, #12
  TIMx->CCER &= ~TIM_CCER_CC2E;
 8005b3c:	43a0      	bics	r0, r4
 8005b3e:	6218      	str	r0, [r3, #32]
  tmpccmr1 = TIMx->CCMR1;
 8005b40:	699c      	ldr	r4, [r3, #24]
  tmpccer = TIMx->CCER;
 8005b42:	6a18      	ldr	r0, [r3, #32]
  tmpccmr1 &= ~TIM_CCMR1_IC2F;
 8005b44:	402c      	ands	r4, r5
  tmpccmr1 |= (TIM_ICFilter << 12U);
 8005b46:	4321      	orrs	r1, r4
  tmpccer &= ~(TIM_CCER_CC2P | TIM_CCER_CC2NP);
 8005b48:	24a0      	movs	r4, #160	; 0xa0
  TIMx->CCMR1 = tmpccmr1 ;
 8005b4a:	6199      	str	r1, [r3, #24]
   tmpsmcr &= ~TIM_SMCR_TS;
 8005b4c:	2170      	movs	r1, #112	; 0x70
  tmpccer &= ~(TIM_CCER_CC2P | TIM_CCER_CC2NP);
 8005b4e:	43a0      	bics	r0, r4
  tmpccer |= (TIM_ICPolarity << 4U);
 8005b50:	0112      	lsls	r2, r2, #4
 8005b52:	4302      	orrs	r2, r0
  TIMx->CCER = tmpccer;
 8005b54:	621a      	str	r2, [r3, #32]
   tmpsmcr = TIMx->SMCR;
 8005b56:	689a      	ldr	r2, [r3, #8]
   tmpsmcr &= ~TIM_SMCR_TS;
 8005b58:	438a      	bics	r2, r1
 8005b5a:	0011      	movs	r1, r2
   tmpsmcr |= InputTriggerSource | TIM_SLAVEMODE_EXTERNAL1;
 8005b5c:	2267      	movs	r2, #103	; 0x67
 8005b5e:	e0bf      	b.n	8005ce0 <HAL_TIM_ConfigClockSource+0x298>
  switch (sClockSourceConfig->ClockSource)
 8005b60:	2180      	movs	r1, #128	; 0x80
 8005b62:	0149      	lsls	r1, r1, #5
 8005b64:	428a      	cmp	r2, r1
 8005b66:	d037      	beq.n	8005bd8 <HAL_TIM_ConfigClockSource+0x190>
 8005b68:	2180      	movs	r1, #128	; 0x80
 8005b6a:	0189      	lsls	r1, r1, #6
 8005b6c:	428a      	cmp	r2, r1
 8005b6e:	d19a      	bne.n	8005aa6 <HAL_TIM_ConfigClockSource+0x5e>
      assert_param(IS_TIM_CLOCKSOURCE_ETRMODE2_INSTANCE(htim->Instance));
 8005b70:	4a62      	ldr	r2, [pc, #392]	; (8005cfc <HAL_TIM_ConfigClockSource+0x2b4>)
 8005b72:	4293      	cmp	r3, r2
 8005b74:	d006      	beq.n	8005b84 <HAL_TIM_ConfigClockSource+0x13c>
 8005b76:	4a62      	ldr	r2, [pc, #392]	; (8005d00 <HAL_TIM_ConfigClockSource+0x2b8>)
 8005b78:	4293      	cmp	r3, r2
 8005b7a:	d003      	beq.n	8005b84 <HAL_TIM_ConfigClockSource+0x13c>
 8005b7c:	4966      	ldr	r1, [pc, #408]	; (8005d18 <HAL_TIM_ConfigClockSource+0x2d0>)
 8005b7e:	485d      	ldr	r0, [pc, #372]	; (8005cf4 <HAL_TIM_ConfigClockSource+0x2ac>)
 8005b80:	f7fc fef5 	bl	800296e <assert_failed>
      assert_param(IS_TIM_CLOCKPRESCALER(sClockSourceConfig->ClockPrescaler));
 8005b84:	4b65      	ldr	r3, [pc, #404]	; (8005d1c <HAL_TIM_ConfigClockSource+0x2d4>)
 8005b86:	68a2      	ldr	r2, [r4, #8]
 8005b88:	421a      	tst	r2, r3
 8005b8a:	d003      	beq.n	8005b94 <HAL_TIM_ConfigClockSource+0x14c>
 8005b8c:	4964      	ldr	r1, [pc, #400]	; (8005d20 <HAL_TIM_ConfigClockSource+0x2d8>)
 8005b8e:	4859      	ldr	r0, [pc, #356]	; (8005cf4 <HAL_TIM_ConfigClockSource+0x2ac>)
 8005b90:	f7fc feed 	bl	800296e <assert_failed>
      assert_param(IS_TIM_CLOCKPOLARITY(sClockSourceConfig->ClockPolarity));
 8005b94:	2280      	movs	r2, #128	; 0x80
 8005b96:	6863      	ldr	r3, [r4, #4]
 8005b98:	0212      	lsls	r2, r2, #8
 8005b9a:	4293      	cmp	r3, r2
 8005b9c:	d00a      	beq.n	8005bb4 <HAL_TIM_ConfigClockSource+0x16c>
 8005b9e:	2202      	movs	r2, #2
 8005ba0:	0019      	movs	r1, r3
 8005ba2:	4391      	bics	r1, r2
 8005ba4:	d006      	beq.n	8005bb4 <HAL_TIM_ConfigClockSource+0x16c>
 8005ba6:	2b0a      	cmp	r3, #10
 8005ba8:	d004      	beq.n	8005bb4 <HAL_TIM_ConfigClockSource+0x16c>
 8005baa:	21ff      	movs	r1, #255	; 0xff
 8005bac:	4851      	ldr	r0, [pc, #324]	; (8005cf4 <HAL_TIM_ConfigClockSource+0x2ac>)
 8005bae:	0109      	lsls	r1, r1, #4
 8005bb0:	f7fc fedd 	bl	800296e <assert_failed>
      assert_param(IS_TIM_CLOCKFILTER(sClockSourceConfig->ClockFilter));
 8005bb4:	68e3      	ldr	r3, [r4, #12]
 8005bb6:	2b0f      	cmp	r3, #15
 8005bb8:	d903      	bls.n	8005bc2 <HAL_TIM_ConfigClockSource+0x17a>
 8005bba:	495a      	ldr	r1, [pc, #360]	; (8005d24 <HAL_TIM_ConfigClockSource+0x2dc>)
 8005bbc:	484d      	ldr	r0, [pc, #308]	; (8005cf4 <HAL_TIM_ConfigClockSource+0x2ac>)
 8005bbe:	f7fc fed6 	bl	800296e <assert_failed>
      TIM_ETR_SetConfig(htim->Instance,
 8005bc2:	68e3      	ldr	r3, [r4, #12]
 8005bc4:	6862      	ldr	r2, [r4, #4]
 8005bc6:	68a1      	ldr	r1, [r4, #8]
 8005bc8:	6828      	ldr	r0, [r5, #0]
 8005bca:	f7ff ff31 	bl	8005a30 <TIM_ETR_SetConfig>
      htim->Instance->SMCR |= TIM_SMCR_ECE;
 8005bce:	2380      	movs	r3, #128	; 0x80
 8005bd0:	682a      	ldr	r2, [r5, #0]
 8005bd2:	01db      	lsls	r3, r3, #7
 8005bd4:	6891      	ldr	r1, [r2, #8]
 8005bd6:	e049      	b.n	8005c6c <HAL_TIM_ConfigClockSource+0x224>
      assert_param(IS_TIM_INSTANCE(htim->Instance));
 8005bd8:	4a48      	ldr	r2, [pc, #288]	; (8005cfc <HAL_TIM_ConfigClockSource+0x2b4>)
 8005bda:	4293      	cmp	r3, r2
 8005bdc:	d00f      	beq.n	8005bfe <HAL_TIM_ConfigClockSource+0x1b6>
 8005bde:	4a48      	ldr	r2, [pc, #288]	; (8005d00 <HAL_TIM_ConfigClockSource+0x2b8>)
 8005be0:	4293      	cmp	r3, r2
 8005be2:	d00c      	beq.n	8005bfe <HAL_TIM_ConfigClockSource+0x1b6>
 8005be4:	4a50      	ldr	r2, [pc, #320]	; (8005d28 <HAL_TIM_ConfigClockSource+0x2e0>)
 8005be6:	4293      	cmp	r3, r2
 8005be8:	d009      	beq.n	8005bfe <HAL_TIM_ConfigClockSource+0x1b6>
 8005bea:	4a50      	ldr	r2, [pc, #320]	; (8005d2c <HAL_TIM_ConfigClockSource+0x2e4>)
 8005bec:	4293      	cmp	r3, r2
 8005bee:	d006      	beq.n	8005bfe <HAL_TIM_ConfigClockSource+0x1b6>
 8005bf0:	4a4f      	ldr	r2, [pc, #316]	; (8005d30 <HAL_TIM_ConfigClockSource+0x2e8>)
 8005bf2:	4293      	cmp	r3, r2
 8005bf4:	d003      	beq.n	8005bfe <HAL_TIM_ConfigClockSource+0x1b6>
 8005bf6:	494f      	ldr	r1, [pc, #316]	; (8005d34 <HAL_TIM_ConfigClockSource+0x2ec>)
 8005bf8:	483e      	ldr	r0, [pc, #248]	; (8005cf4 <HAL_TIM_ConfigClockSource+0x2ac>)
 8005bfa:	f7fc feb8 	bl	800296e <assert_failed>
      htim->Instance->SMCR &= ~TIM_SMCR_SMS;
 8005bfe:	2107      	movs	r1, #7
 8005c00:	682a      	ldr	r2, [r5, #0]
 8005c02:	6893      	ldr	r3, [r2, #8]
 8005c04:	438b      	bics	r3, r1
      htim->Instance->SMCR = tmpsmcr;
 8005c06:	6093      	str	r3, [r2, #8]
    break;
 8005c08:	e74d      	b.n	8005aa6 <HAL_TIM_ConfigClockSource+0x5e>
      assert_param(IS_TIM_CLOCKSOURCE_ETRMODE1_INSTANCE(htim->Instance));
 8005c0a:	4a3c      	ldr	r2, [pc, #240]	; (8005cfc <HAL_TIM_ConfigClockSource+0x2b4>)
 8005c0c:	4293      	cmp	r3, r2
 8005c0e:	d006      	beq.n	8005c1e <HAL_TIM_ConfigClockSource+0x1d6>
 8005c10:	4a3b      	ldr	r2, [pc, #236]	; (8005d00 <HAL_TIM_ConfigClockSource+0x2b8>)
 8005c12:	4293      	cmp	r3, r2
 8005c14:	d003      	beq.n	8005c1e <HAL_TIM_ConfigClockSource+0x1d6>
 8005c16:	4948      	ldr	r1, [pc, #288]	; (8005d38 <HAL_TIM_ConfigClockSource+0x2f0>)
 8005c18:	4836      	ldr	r0, [pc, #216]	; (8005cf4 <HAL_TIM_ConfigClockSource+0x2ac>)
 8005c1a:	f7fc fea8 	bl	800296e <assert_failed>
      assert_param(IS_TIM_CLOCKPRESCALER(sClockSourceConfig->ClockPrescaler));
 8005c1e:	4b3f      	ldr	r3, [pc, #252]	; (8005d1c <HAL_TIM_ConfigClockSource+0x2d4>)
 8005c20:	68a2      	ldr	r2, [r4, #8]
 8005c22:	421a      	tst	r2, r3
 8005c24:	d003      	beq.n	8005c2e <HAL_TIM_ConfigClockSource+0x1e6>
 8005c26:	4945      	ldr	r1, [pc, #276]	; (8005d3c <HAL_TIM_ConfigClockSource+0x2f4>)
 8005c28:	4832      	ldr	r0, [pc, #200]	; (8005cf4 <HAL_TIM_ConfigClockSource+0x2ac>)
 8005c2a:	f7fc fea0 	bl	800296e <assert_failed>
      assert_param(IS_TIM_CLOCKPOLARITY(sClockSourceConfig->ClockPolarity));
 8005c2e:	2280      	movs	r2, #128	; 0x80
 8005c30:	6863      	ldr	r3, [r4, #4]
 8005c32:	0212      	lsls	r2, r2, #8
 8005c34:	4293      	cmp	r3, r2
 8005c36:	d009      	beq.n	8005c4c <HAL_TIM_ConfigClockSource+0x204>
 8005c38:	2202      	movs	r2, #2
 8005c3a:	0019      	movs	r1, r3
 8005c3c:	4391      	bics	r1, r2
 8005c3e:	d005      	beq.n	8005c4c <HAL_TIM_ConfigClockSource+0x204>
 8005c40:	2b0a      	cmp	r3, #10
 8005c42:	d003      	beq.n	8005c4c <HAL_TIM_ConfigClockSource+0x204>
 8005c44:	493e      	ldr	r1, [pc, #248]	; (8005d40 <HAL_TIM_ConfigClockSource+0x2f8>)
 8005c46:	482b      	ldr	r0, [pc, #172]	; (8005cf4 <HAL_TIM_ConfigClockSource+0x2ac>)
 8005c48:	f7fc fe91 	bl	800296e <assert_failed>
      assert_param(IS_TIM_CLOCKFILTER(sClockSourceConfig->ClockFilter));
 8005c4c:	68e3      	ldr	r3, [r4, #12]
 8005c4e:	2b0f      	cmp	r3, #15
 8005c50:	d903      	bls.n	8005c5a <HAL_TIM_ConfigClockSource+0x212>
 8005c52:	493c      	ldr	r1, [pc, #240]	; (8005d44 <HAL_TIM_ConfigClockSource+0x2fc>)
 8005c54:	4827      	ldr	r0, [pc, #156]	; (8005cf4 <HAL_TIM_ConfigClockSource+0x2ac>)
 8005c56:	f7fc fe8a 	bl	800296e <assert_failed>
      TIM_ETR_SetConfig(htim->Instance,
 8005c5a:	68e3      	ldr	r3, [r4, #12]
 8005c5c:	6862      	ldr	r2, [r4, #4]
 8005c5e:	68a1      	ldr	r1, [r4, #8]
 8005c60:	6828      	ldr	r0, [r5, #0]
 8005c62:	f7ff fee5 	bl	8005a30 <TIM_ETR_SetConfig>
      tmpsmcr &= ~(TIM_SMCR_SMS | TIM_SMCR_TS);
 8005c66:	2177      	movs	r1, #119	; 0x77
      tmpsmcr = htim->Instance->SMCR;
 8005c68:	682a      	ldr	r2, [r5, #0]
 8005c6a:	6893      	ldr	r3, [r2, #8]
      tmpsmcr |= (TIM_SLAVEMODE_EXTERNAL1 | TIM_CLOCKSOURCE_ETRMODE1);
 8005c6c:	430b      	orrs	r3, r1
 8005c6e:	e7ca      	b.n	8005c06 <HAL_TIM_ConfigClockSource+0x1be>
      assert_param(IS_TIM_CLOCKSOURCE_TIX_INSTANCE(htim->Instance));
 8005c70:	4a22      	ldr	r2, [pc, #136]	; (8005cfc <HAL_TIM_ConfigClockSource+0x2b4>)
 8005c72:	4293      	cmp	r3, r2
 8005c74:	d007      	beq.n	8005c86 <HAL_TIM_ConfigClockSource+0x23e>
 8005c76:	4a22      	ldr	r2, [pc, #136]	; (8005d00 <HAL_TIM_ConfigClockSource+0x2b8>)
 8005c78:	4293      	cmp	r3, r2
 8005c7a:	d004      	beq.n	8005c86 <HAL_TIM_ConfigClockSource+0x23e>
 8005c7c:	2180      	movs	r1, #128	; 0x80
 8005c7e:	481d      	ldr	r0, [pc, #116]	; (8005cf4 <HAL_TIM_ConfigClockSource+0x2ac>)
 8005c80:	0149      	lsls	r1, r1, #5
 8005c82:	f7fc fe74 	bl	800296e <assert_failed>
      assert_param(IS_TIM_CLOCKPOLARITY(sClockSourceConfig->ClockPolarity));
 8005c86:	2280      	movs	r2, #128	; 0x80
 8005c88:	6863      	ldr	r3, [r4, #4]
 8005c8a:	0212      	lsls	r2, r2, #8
 8005c8c:	4293      	cmp	r3, r2
 8005c8e:	d009      	beq.n	8005ca4 <HAL_TIM_ConfigClockSource+0x25c>
 8005c90:	2202      	movs	r2, #2
 8005c92:	0019      	movs	r1, r3
 8005c94:	4391      	bics	r1, r2
 8005c96:	d005      	beq.n	8005ca4 <HAL_TIM_ConfigClockSource+0x25c>
 8005c98:	2b0a      	cmp	r3, #10
 8005c9a:	d003      	beq.n	8005ca4 <HAL_TIM_ConfigClockSource+0x25c>
 8005c9c:	492a      	ldr	r1, [pc, #168]	; (8005d48 <HAL_TIM_ConfigClockSource+0x300>)
 8005c9e:	4815      	ldr	r0, [pc, #84]	; (8005cf4 <HAL_TIM_ConfigClockSource+0x2ac>)
 8005ca0:	f7fc fe65 	bl	800296e <assert_failed>
      assert_param(IS_TIM_CLOCKFILTER(sClockSourceConfig->ClockFilter));
 8005ca4:	68e3      	ldr	r3, [r4, #12]
 8005ca6:	2b0f      	cmp	r3, #15
 8005ca8:	d903      	bls.n	8005cb2 <HAL_TIM_ConfigClockSource+0x26a>
 8005caa:	4928      	ldr	r1, [pc, #160]	; (8005d4c <HAL_TIM_ConfigClockSource+0x304>)
 8005cac:	4811      	ldr	r0, [pc, #68]	; (8005cf4 <HAL_TIM_ConfigClockSource+0x2ac>)
 8005cae:	f7fc fe5e 	bl	800296e <assert_failed>
      TIM_TI1_ConfigInputStage(htim->Instance,
 8005cb2:	682b      	ldr	r3, [r5, #0]
  TIMx->CCER &= ~TIM_CCER_CC1E;
 8005cb4:	2501      	movs	r5, #1
  tmpccer = TIMx->CCER;
 8005cb6:	6a18      	ldr	r0, [r3, #32]
      TIM_TI1_ConfigInputStage(htim->Instance,
 8005cb8:	6861      	ldr	r1, [r4, #4]
 8005cba:	68e2      	ldr	r2, [r4, #12]
  TIMx->CCER &= ~TIM_CCER_CC1E;
 8005cbc:	6a1c      	ldr	r4, [r3, #32]
  tmpccmr1 |= (TIM_ICFilter << 4U);
 8005cbe:	0112      	lsls	r2, r2, #4
  TIMx->CCER &= ~TIM_CCER_CC1E;
 8005cc0:	43ac      	bics	r4, r5
 8005cc2:	621c      	str	r4, [r3, #32]
  tmpccmr1 = TIMx->CCMR1;
 8005cc4:	699c      	ldr	r4, [r3, #24]
  tmpccmr1 &= ~TIM_CCMR1_IC1F;
 8005cc6:	35ef      	adds	r5, #239	; 0xef
 8005cc8:	43ac      	bics	r4, r5
  tmpccmr1 |= (TIM_ICFilter << 4U);
 8005cca:	4322      	orrs	r2, r4
  tmpccer &= ~(TIM_CCER_CC1P | TIM_CCER_CC1NP);
 8005ccc:	240a      	movs	r4, #10
 8005cce:	43a0      	bics	r0, r4
  tmpccer |= TIM_ICPolarity;
 8005cd0:	4301      	orrs	r1, r0
  TIMx->CCMR1 = tmpccmr1;
 8005cd2:	619a      	str	r2, [r3, #24]
  TIMx->CCER = tmpccer;
 8005cd4:	6219      	str	r1, [r3, #32]
   tmpsmcr &= ~TIM_SMCR_TS;
 8005cd6:	2170      	movs	r1, #112	; 0x70
   tmpsmcr = TIMx->SMCR;
 8005cd8:	689a      	ldr	r2, [r3, #8]
   tmpsmcr &= ~TIM_SMCR_TS;
 8005cda:	438a      	bics	r2, r1
 8005cdc:	0011      	movs	r1, r2
   tmpsmcr |= InputTriggerSource | TIM_SLAVEMODE_EXTERNAL1;
 8005cde:	2257      	movs	r2, #87	; 0x57
 8005ce0:	430a      	orrs	r2, r1
   TIMx->SMCR = tmpsmcr;
 8005ce2:	609a      	str	r2, [r3, #8]
 8005ce4:	e6df      	b.n	8005aa6 <HAL_TIM_ConfigClockSource+0x5e>
 8005ce6:	46c0      	nop			; (mov r8, r8)
 8005ce8:	fffff000 	.word	0xfffff000
 8005cec:	ffffefff 	.word	0xffffefff
 8005cf0:	00000fbd 	.word	0x00000fbd
 8005cf4:	080075c4 	.word	0x080075c4
 8005cf8:	ffff0088 	.word	0xffff0088
 8005cfc:	40012c00 	.word	0x40012c00
 8005d00:	40000400 	.word	0x40000400
 8005d04:	00001045 	.word	0x00001045
 8005d08:	0000100f 	.word	0x0000100f
 8005d0c:	00001012 	.word	0x00001012
 8005d10:	00001013 	.word	0x00001013
 8005d14:	ffff0fff 	.word	0xffff0fff
 8005d18:	00000fec 	.word	0x00000fec
 8005d1c:	ffffcfff 	.word	0xffffcfff
 8005d20:	00000fef 	.word	0x00000fef
 8005d24:	00000ff1 	.word	0x00000ff1
 8005d28:	40002000 	.word	0x40002000
 8005d2c:	40014400 	.word	0x40014400
 8005d30:	40014800 	.word	0x40014800
 8005d34:	00000fc9 	.word	0x00000fc9
 8005d38:	00000fd2 	.word	0x00000fd2
 8005d3c:	00000fd5 	.word	0x00000fd5
 8005d40:	00000fd6 	.word	0x00000fd6
 8005d44:	00000fd7 	.word	0x00000fd7
 8005d48:	00001003 	.word	0x00001003
 8005d4c:	00001004 	.word	0x00001004
      assert_param(IS_TIM_CLOCKSOURCE_TIX_INSTANCE(htim->Instance));
 8005d50:	4a36      	ldr	r2, [pc, #216]	; (8005e2c <HAL_TIM_ConfigClockSource+0x3e4>)
 8005d52:	4293      	cmp	r3, r2
 8005d54:	d006      	beq.n	8005d64 <HAL_TIM_ConfigClockSource+0x31c>
 8005d56:	4a36      	ldr	r2, [pc, #216]	; (8005e30 <HAL_TIM_ConfigClockSource+0x3e8>)
 8005d58:	4293      	cmp	r3, r2
 8005d5a:	d003      	beq.n	8005d64 <HAL_TIM_ConfigClockSource+0x31c>
 8005d5c:	4935      	ldr	r1, [pc, #212]	; (8005e34 <HAL_TIM_ConfigClockSource+0x3ec>)
 8005d5e:	4836      	ldr	r0, [pc, #216]	; (8005e38 <HAL_TIM_ConfigClockSource+0x3f0>)
 8005d60:	f7fc fe05 	bl	800296e <assert_failed>
      assert_param(IS_TIM_CLOCKPOLARITY(sClockSourceConfig->ClockPolarity));
 8005d64:	2280      	movs	r2, #128	; 0x80
 8005d66:	6863      	ldr	r3, [r4, #4]
 8005d68:	0212      	lsls	r2, r2, #8
 8005d6a:	4293      	cmp	r3, r2
 8005d6c:	d009      	beq.n	8005d82 <HAL_TIM_ConfigClockSource+0x33a>
 8005d6e:	2202      	movs	r2, #2
 8005d70:	0019      	movs	r1, r3
 8005d72:	4391      	bics	r1, r2
 8005d74:	d005      	beq.n	8005d82 <HAL_TIM_ConfigClockSource+0x33a>
 8005d76:	2b0a      	cmp	r3, #10
 8005d78:	d003      	beq.n	8005d82 <HAL_TIM_ConfigClockSource+0x33a>
 8005d7a:	4930      	ldr	r1, [pc, #192]	; (8005e3c <HAL_TIM_ConfigClockSource+0x3f4>)
 8005d7c:	482e      	ldr	r0, [pc, #184]	; (8005e38 <HAL_TIM_ConfigClockSource+0x3f0>)
 8005d7e:	f7fc fdf6 	bl	800296e <assert_failed>
      assert_param(IS_TIM_CLOCKFILTER(sClockSourceConfig->ClockFilter));
 8005d82:	68e3      	ldr	r3, [r4, #12]
 8005d84:	2b0f      	cmp	r3, #15
 8005d86:	d903      	bls.n	8005d90 <HAL_TIM_ConfigClockSource+0x348>
 8005d88:	492d      	ldr	r1, [pc, #180]	; (8005e40 <HAL_TIM_ConfigClockSource+0x3f8>)
 8005d8a:	482b      	ldr	r0, [pc, #172]	; (8005e38 <HAL_TIM_ConfigClockSource+0x3f0>)
 8005d8c:	f7fc fdef 	bl	800296e <assert_failed>
      TIM_TI1_ConfigInputStage(htim->Instance,
 8005d90:	682b      	ldr	r3, [r5, #0]
  TIMx->CCER &= ~TIM_CCER_CC1E;
 8005d92:	2501      	movs	r5, #1
  tmpccer = TIMx->CCER;
 8005d94:	6a18      	ldr	r0, [r3, #32]
      TIM_TI1_ConfigInputStage(htim->Instance,
 8005d96:	6861      	ldr	r1, [r4, #4]
 8005d98:	68e2      	ldr	r2, [r4, #12]
  TIMx->CCER &= ~TIM_CCER_CC1E;
 8005d9a:	6a1c      	ldr	r4, [r3, #32]
  tmpccmr1 |= (TIM_ICFilter << 4U);
 8005d9c:	0112      	lsls	r2, r2, #4
  TIMx->CCER &= ~TIM_CCER_CC1E;
 8005d9e:	43ac      	bics	r4, r5
 8005da0:	621c      	str	r4, [r3, #32]
  tmpccmr1 = TIMx->CCMR1;
 8005da2:	699c      	ldr	r4, [r3, #24]
  tmpccmr1 &= ~TIM_CCMR1_IC1F;
 8005da4:	35ef      	adds	r5, #239	; 0xef
 8005da6:	43ac      	bics	r4, r5
  tmpccmr1 |= (TIM_ICFilter << 4U);
 8005da8:	4322      	orrs	r2, r4
  tmpccer &= ~(TIM_CCER_CC1P | TIM_CCER_CC1NP);
 8005daa:	240a      	movs	r4, #10
 8005dac:	43a0      	bics	r0, r4
  tmpccer |= TIM_ICPolarity;
 8005dae:	4301      	orrs	r1, r0
  TIMx->CCMR1 = tmpccmr1;
 8005db0:	619a      	str	r2, [r3, #24]
  TIMx->CCER = tmpccer;
 8005db2:	6219      	str	r1, [r3, #32]
   tmpsmcr &= ~TIM_SMCR_TS;
 8005db4:	2170      	movs	r1, #112	; 0x70
   tmpsmcr = TIMx->SMCR;
 8005db6:	689a      	ldr	r2, [r3, #8]
   tmpsmcr &= ~TIM_SMCR_TS;
 8005db8:	438a      	bics	r2, r1
 8005dba:	0011      	movs	r1, r2
   tmpsmcr |= InputTriggerSource | TIM_SLAVEMODE_EXTERNAL1;
 8005dbc:	2247      	movs	r2, #71	; 0x47
 8005dbe:	e78f      	b.n	8005ce0 <HAL_TIM_ConfigClockSource+0x298>
      assert_param(IS_TIM_CLOCKSOURCE_ITRX_INSTANCE(htim->Instance));
 8005dc0:	4a1a      	ldr	r2, [pc, #104]	; (8005e2c <HAL_TIM_ConfigClockSource+0x3e4>)
 8005dc2:	4293      	cmp	r3, r2
 8005dc4:	d006      	beq.n	8005dd4 <HAL_TIM_ConfigClockSource+0x38c>
 8005dc6:	4a1a      	ldr	r2, [pc, #104]	; (8005e30 <HAL_TIM_ConfigClockSource+0x3e8>)
 8005dc8:	4293      	cmp	r3, r2
 8005dca:	d003      	beq.n	8005dd4 <HAL_TIM_ConfigClockSource+0x38c>
 8005dcc:	491d      	ldr	r1, [pc, #116]	; (8005e44 <HAL_TIM_ConfigClockSource+0x3fc>)
 8005dce:	481a      	ldr	r0, [pc, #104]	; (8005e38 <HAL_TIM_ConfigClockSource+0x3f0>)
 8005dd0:	f7fc fdcd 	bl	800296e <assert_failed>
   tmpsmcr &= ~TIM_SMCR_TS;
 8005dd4:	2270      	movs	r2, #112	; 0x70
      TIM_ITRx_SetConfig(htim->Instance, TIM_CLOCKSOURCE_ITR0);
 8005dd6:	6829      	ldr	r1, [r5, #0]
   tmpsmcr = TIMx->SMCR;
 8005dd8:	688b      	ldr	r3, [r1, #8]
   tmpsmcr &= ~TIM_SMCR_TS;
 8005dda:	4393      	bics	r3, r2
 8005ddc:	001a      	movs	r2, r3
   tmpsmcr |= InputTriggerSource | TIM_SLAVEMODE_EXTERNAL1;
 8005dde:	2307      	movs	r3, #7
 8005de0:	4313      	orrs	r3, r2
   TIMx->SMCR = tmpsmcr;
 8005de2:	608b      	str	r3, [r1, #8]
 8005de4:	e65f      	b.n	8005aa6 <HAL_TIM_ConfigClockSource+0x5e>
      assert_param(IS_TIM_CLOCKSOURCE_ITRX_INSTANCE(htim->Instance));
 8005de6:	4a11      	ldr	r2, [pc, #68]	; (8005e2c <HAL_TIM_ConfigClockSource+0x3e4>)
 8005de8:	4293      	cmp	r3, r2
 8005dea:	d006      	beq.n	8005dfa <HAL_TIM_ConfigClockSource+0x3b2>
 8005dec:	4a10      	ldr	r2, [pc, #64]	; (8005e30 <HAL_TIM_ConfigClockSource+0x3e8>)
 8005dee:	4293      	cmp	r3, r2
 8005df0:	d003      	beq.n	8005dfa <HAL_TIM_ConfigClockSource+0x3b2>
 8005df2:	4915      	ldr	r1, [pc, #84]	; (8005e48 <HAL_TIM_ConfigClockSource+0x400>)
 8005df4:	4810      	ldr	r0, [pc, #64]	; (8005e38 <HAL_TIM_ConfigClockSource+0x3f0>)
 8005df6:	f7fc fdba 	bl	800296e <assert_failed>
   tmpsmcr &= ~TIM_SMCR_TS;
 8005dfa:	2270      	movs	r2, #112	; 0x70
      TIM_ITRx_SetConfig(htim->Instance, TIM_CLOCKSOURCE_ITR1);
 8005dfc:	6829      	ldr	r1, [r5, #0]
   tmpsmcr = TIMx->SMCR;
 8005dfe:	688b      	ldr	r3, [r1, #8]
   tmpsmcr &= ~TIM_SMCR_TS;
 8005e00:	4393      	bics	r3, r2
 8005e02:	001a      	movs	r2, r3
   tmpsmcr |= InputTriggerSource | TIM_SLAVEMODE_EXTERNAL1;
 8005e04:	2317      	movs	r3, #23
 8005e06:	e7eb      	b.n	8005de0 <HAL_TIM_ConfigClockSource+0x398>
      assert_param(IS_TIM_CLOCKSOURCE_ITRX_INSTANCE(htim->Instance));
 8005e08:	4a08      	ldr	r2, [pc, #32]	; (8005e2c <HAL_TIM_ConfigClockSource+0x3e4>)
 8005e0a:	4293      	cmp	r3, r2
 8005e0c:	d006      	beq.n	8005e1c <HAL_TIM_ConfigClockSource+0x3d4>
 8005e0e:	4a08      	ldr	r2, [pc, #32]	; (8005e30 <HAL_TIM_ConfigClockSource+0x3e8>)
 8005e10:	4293      	cmp	r3, r2
 8005e12:	d003      	beq.n	8005e1c <HAL_TIM_ConfigClockSource+0x3d4>
 8005e14:	490d      	ldr	r1, [pc, #52]	; (8005e4c <HAL_TIM_ConfigClockSource+0x404>)
 8005e16:	4808      	ldr	r0, [pc, #32]	; (8005e38 <HAL_TIM_ConfigClockSource+0x3f0>)
 8005e18:	f7fc fda9 	bl	800296e <assert_failed>
   tmpsmcr &= ~TIM_SMCR_TS;
 8005e1c:	2270      	movs	r2, #112	; 0x70
      TIM_ITRx_SetConfig(htim->Instance, TIM_CLOCKSOURCE_ITR2);
 8005e1e:	6829      	ldr	r1, [r5, #0]
   tmpsmcr = TIMx->SMCR;
 8005e20:	688b      	ldr	r3, [r1, #8]
   tmpsmcr &= ~TIM_SMCR_TS;
 8005e22:	4393      	bics	r3, r2
 8005e24:	001a      	movs	r2, r3
   tmpsmcr |= InputTriggerSource | TIM_SLAVEMODE_EXTERNAL1;
 8005e26:	2327      	movs	r3, #39	; 0x27
 8005e28:	e7da      	b.n	8005de0 <HAL_TIM_ConfigClockSource+0x398>
 8005e2a:	46c0      	nop			; (mov r8, r8)
 8005e2c:	40012c00 	.word	0x40012c00
 8005e30:	40000400 	.word	0x40000400
 8005e34:	0000101e 	.word	0x0000101e
 8005e38:	080075c4 	.word	0x080075c4
 8005e3c:	00001021 	.word	0x00001021
 8005e40:	00001022 	.word	0x00001022
 8005e44:	0000102d 	.word	0x0000102d
 8005e48:	00001035 	.word	0x00001035
 8005e4c:	0000103d 	.word	0x0000103d

08005e50 <HAL_TIMEx_MasterConfigSynchronization>:
  * @retval HAL status
  */
HAL_StatusTypeDef HAL_TIMEx_MasterConfigSynchronization(TIM_HandleTypeDef *htim, TIM_MasterConfigTypeDef * sMasterConfig)
{
  /* Check the parameters */
  assert_param(IS_TIM_MASTER_INSTANCE(htim->Instance));
 8005e50:	6803      	ldr	r3, [r0, #0]
 8005e52:	4a1f      	ldr	r2, [pc, #124]	; (8005ed0 <HAL_TIMEx_MasterConfigSynchronization+0x80>)
{
 8005e54:	b570      	push	{r4, r5, r6, lr}
 8005e56:	0005      	movs	r5, r0
 8005e58:	000c      	movs	r4, r1
  assert_param(IS_TIM_MASTER_INSTANCE(htim->Instance));
 8005e5a:	4293      	cmp	r3, r2
 8005e5c:	d006      	beq.n	8005e6c <HAL_TIMEx_MasterConfigSynchronization+0x1c>
 8005e5e:	4a1d      	ldr	r2, [pc, #116]	; (8005ed4 <HAL_TIMEx_MasterConfigSynchronization+0x84>)
 8005e60:	4293      	cmp	r3, r2
 8005e62:	d003      	beq.n	8005e6c <HAL_TIMEx_MasterConfigSynchronization+0x1c>
 8005e64:	491c      	ldr	r1, [pc, #112]	; (8005ed8 <HAL_TIMEx_MasterConfigSynchronization+0x88>)
 8005e66:	481d      	ldr	r0, [pc, #116]	; (8005edc <HAL_TIMEx_MasterConfigSynchronization+0x8c>)
 8005e68:	f7fc fd81 	bl	800296e <assert_failed>
  assert_param(IS_TIM_TRGO_SOURCE(sMasterConfig->MasterOutputTrigger));
 8005e6c:	2330      	movs	r3, #48	; 0x30
 8005e6e:	6822      	ldr	r2, [r4, #0]
 8005e70:	439a      	bics	r2, r3
 8005e72:	d005      	beq.n	8005e80 <HAL_TIMEx_MasterConfigSynchronization+0x30>
 8005e74:	2a40      	cmp	r2, #64	; 0x40
 8005e76:	d003      	beq.n	8005e80 <HAL_TIMEx_MasterConfigSynchronization+0x30>
 8005e78:	4919      	ldr	r1, [pc, #100]	; (8005ee0 <HAL_TIMEx_MasterConfigSynchronization+0x90>)
 8005e7a:	4818      	ldr	r0, [pc, #96]	; (8005edc <HAL_TIMEx_MasterConfigSynchronization+0x8c>)
 8005e7c:	f7fc fd77 	bl	800296e <assert_failed>
  assert_param(IS_TIM_MSM_STATE(sMasterConfig->MasterSlaveMode));
 8005e80:	2380      	movs	r3, #128	; 0x80
 8005e82:	6862      	ldr	r2, [r4, #4]
 8005e84:	439a      	bics	r2, r3
 8005e86:	d003      	beq.n	8005e90 <HAL_TIMEx_MasterConfigSynchronization+0x40>
 8005e88:	4916      	ldr	r1, [pc, #88]	; (8005ee4 <HAL_TIMEx_MasterConfigSynchronization+0x94>)
 8005e8a:	4814      	ldr	r0, [pc, #80]	; (8005edc <HAL_TIMEx_MasterConfigSynchronization+0x8c>)
 8005e8c:	f7fc fd6f 	bl	800296e <assert_failed>

  __HAL_LOCK(htim);
 8005e90:	0029      	movs	r1, r5
 8005e92:	313c      	adds	r1, #60	; 0x3c
 8005e94:	780b      	ldrb	r3, [r1, #0]
 8005e96:	2002      	movs	r0, #2
 8005e98:	2b01      	cmp	r3, #1
 8005e9a:	d017      	beq.n	8005ecc <HAL_TIMEx_MasterConfigSynchronization+0x7c>

  htim->State = HAL_TIM_STATE_BUSY;
 8005e9c:	002e      	movs	r6, r5

  /* Reset the MMS Bits */
  htim->Instance->CR2 &= ~TIM_CR2_MMS;
 8005e9e:	682b      	ldr	r3, [r5, #0]
  htim->State = HAL_TIM_STATE_BUSY;
 8005ea0:	363d      	adds	r6, #61	; 0x3d
 8005ea2:	7030      	strb	r0, [r6, #0]
  htim->Instance->CR2 &= ~TIM_CR2_MMS;
 8005ea4:	685a      	ldr	r2, [r3, #4]
 8005ea6:	306e      	adds	r0, #110	; 0x6e
 8005ea8:	4382      	bics	r2, r0
 8005eaa:	605a      	str	r2, [r3, #4]
  /* Select the TRGO source */
  htim->Instance->CR2 |=  sMasterConfig->MasterOutputTrigger;
 8005eac:	685a      	ldr	r2, [r3, #4]
 8005eae:	6820      	ldr	r0, [r4, #0]
 8005eb0:	4302      	orrs	r2, r0

  /* Reset the MSM Bit */
  htim->Instance->SMCR &= ~TIM_SMCR_MSM;
 8005eb2:	2080      	movs	r0, #128	; 0x80
  htim->Instance->CR2 |=  sMasterConfig->MasterOutputTrigger;
 8005eb4:	605a      	str	r2, [r3, #4]
  htim->Instance->SMCR &= ~TIM_SMCR_MSM;
 8005eb6:	689a      	ldr	r2, [r3, #8]
 8005eb8:	4382      	bics	r2, r0
 8005eba:	609a      	str	r2, [r3, #8]
  /* Set or Reset the MSM Bit */
  htim->Instance->SMCR |= sMasterConfig->MasterSlaveMode;
 8005ebc:	689a      	ldr	r2, [r3, #8]
 8005ebe:	6860      	ldr	r0, [r4, #4]
 8005ec0:	4302      	orrs	r2, r0
 8005ec2:	609a      	str	r2, [r3, #8]

  htim->State = HAL_TIM_STATE_READY;

  __HAL_UNLOCK(htim);
 8005ec4:	2000      	movs	r0, #0
  htim->State = HAL_TIM_STATE_READY;
 8005ec6:	2301      	movs	r3, #1
 8005ec8:	7033      	strb	r3, [r6, #0]
  __HAL_UNLOCK(htim);
 8005eca:	7008      	strb	r0, [r1, #0]

  return HAL_OK;
}
 8005ecc:	bd70      	pop	{r4, r5, r6, pc}
 8005ece:	46c0      	nop			; (mov r8, r8)
 8005ed0:	40012c00 	.word	0x40012c00
 8005ed4:	40000400 	.word	0x40000400
 8005ed8:	00000649 	.word	0x00000649
 8005edc:	080075fc 	.word	0x080075fc
 8005ee0:	0000064a 	.word	0x0000064a
 8005ee4:	0000064b 	.word	0x0000064b

08005ee8 <HAL_TIMEx_ConfigBreakDeadTime>:
  *         contains the BDTR Register configuration  information for the TIM peripheral.
  * @retval HAL status
  */    
HAL_StatusTypeDef HAL_TIMEx_ConfigBreakDeadTime(TIM_HandleTypeDef *htim,
                                                TIM_BreakDeadTimeConfigTypeDef *sBreakDeadTimeConfig)
{
 8005ee8:	b5f8      	push	{r3, r4, r5, r6, r7, lr}
  uint32_t tmpbdtr = 0;
   
  /* Check the parameters */
  assert_param(IS_TIM_BREAK_INSTANCE(htim->Instance));
 8005eea:	4a39      	ldr	r2, [pc, #228]	; (8005fd0 <HAL_TIMEx_ConfigBreakDeadTime+0xe8>)
 8005eec:	6803      	ldr	r3, [r0, #0]
{
 8005eee:	0005      	movs	r5, r0
 8005ef0:	000c      	movs	r4, r1
  assert_param(IS_TIM_BREAK_INSTANCE(htim->Instance));
 8005ef2:	4293      	cmp	r3, r2
 8005ef4:	d00a      	beq.n	8005f0c <HAL_TIMEx_ConfigBreakDeadTime+0x24>
 8005ef6:	4a37      	ldr	r2, [pc, #220]	; (8005fd4 <HAL_TIMEx_ConfigBreakDeadTime+0xec>)
 8005ef8:	4293      	cmp	r3, r2
 8005efa:	d007      	beq.n	8005f0c <HAL_TIMEx_ConfigBreakDeadTime+0x24>
 8005efc:	4a36      	ldr	r2, [pc, #216]	; (8005fd8 <HAL_TIMEx_ConfigBreakDeadTime+0xf0>)
 8005efe:	4293      	cmp	r3, r2
 8005f00:	d004      	beq.n	8005f0c <HAL_TIMEx_ConfigBreakDeadTime+0x24>
 8005f02:	21ce      	movs	r1, #206	; 0xce
 8005f04:	4835      	ldr	r0, [pc, #212]	; (8005fdc <HAL_TIMEx_ConfigBreakDeadTime+0xf4>)
 8005f06:	00c9      	lsls	r1, r1, #3
 8005f08:	f7fc fd31 	bl	800296e <assert_failed>
  assert_param(IS_TIM_OSSR_STATE(sBreakDeadTimeConfig->OffStateRunMode));
 8005f0c:	6823      	ldr	r3, [r4, #0]
 8005f0e:	4a34      	ldr	r2, [pc, #208]	; (8005fe0 <HAL_TIMEx_ConfigBreakDeadTime+0xf8>)
 8005f10:	4213      	tst	r3, r2
 8005f12:	d003      	beq.n	8005f1c <HAL_TIMEx_ConfigBreakDeadTime+0x34>
 8005f14:	4933      	ldr	r1, [pc, #204]	; (8005fe4 <HAL_TIMEx_ConfigBreakDeadTime+0xfc>)
 8005f16:	4831      	ldr	r0, [pc, #196]	; (8005fdc <HAL_TIMEx_ConfigBreakDeadTime+0xf4>)
 8005f18:	f7fc fd29 	bl	800296e <assert_failed>
  assert_param(IS_TIM_OSSI_STATE(sBreakDeadTimeConfig->OffStateIDLEMode));
 8005f1c:	6863      	ldr	r3, [r4, #4]
 8005f1e:	4a32      	ldr	r2, [pc, #200]	; (8005fe8 <HAL_TIMEx_ConfigBreakDeadTime+0x100>)
 8005f20:	4213      	tst	r3, r2
 8005f22:	d003      	beq.n	8005f2c <HAL_TIMEx_ConfigBreakDeadTime+0x44>
 8005f24:	4931      	ldr	r1, [pc, #196]	; (8005fec <HAL_TIMEx_ConfigBreakDeadTime+0x104>)
 8005f26:	482d      	ldr	r0, [pc, #180]	; (8005fdc <HAL_TIMEx_ConfigBreakDeadTime+0xf4>)
 8005f28:	f7fc fd21 	bl	800296e <assert_failed>
 8005f2c:	4f30      	ldr	r7, [pc, #192]	; (8005ff0 <HAL_TIMEx_ConfigBreakDeadTime+0x108>)
  assert_param(IS_TIM_LOCK_LEVEL(sBreakDeadTimeConfig->LockLevel));
 8005f2e:	68a3      	ldr	r3, [r4, #8]
 8005f30:	423b      	tst	r3, r7
 8005f32:	d003      	beq.n	8005f3c <HAL_TIMEx_ConfigBreakDeadTime+0x54>
 8005f34:	492f      	ldr	r1, [pc, #188]	; (8005ff4 <HAL_TIMEx_ConfigBreakDeadTime+0x10c>)
 8005f36:	4829      	ldr	r0, [pc, #164]	; (8005fdc <HAL_TIMEx_ConfigBreakDeadTime+0xf4>)
 8005f38:	f7fc fd19 	bl	800296e <assert_failed>
  assert_param(IS_TIM_DEADTIME(sBreakDeadTimeConfig->DeadTime));
 8005f3c:	68e3      	ldr	r3, [r4, #12]
 8005f3e:	2bff      	cmp	r3, #255	; 0xff
 8005f40:	d903      	bls.n	8005f4a <HAL_TIMEx_ConfigBreakDeadTime+0x62>
 8005f42:	492d      	ldr	r1, [pc, #180]	; (8005ff8 <HAL_TIMEx_ConfigBreakDeadTime+0x110>)
 8005f44:	4825      	ldr	r0, [pc, #148]	; (8005fdc <HAL_TIMEx_ConfigBreakDeadTime+0xf4>)
 8005f46:	f7fc fd12 	bl	800296e <assert_failed>
  assert_param(IS_TIM_BREAK_STATE(sBreakDeadTimeConfig->BreakState));
 8005f4a:	6923      	ldr	r3, [r4, #16]
 8005f4c:	4a2b      	ldr	r2, [pc, #172]	; (8005ffc <HAL_TIMEx_ConfigBreakDeadTime+0x114>)
 8005f4e:	4213      	tst	r3, r2
 8005f50:	d003      	beq.n	8005f5a <HAL_TIMEx_ConfigBreakDeadTime+0x72>
 8005f52:	492b      	ldr	r1, [pc, #172]	; (8006000 <HAL_TIMEx_ConfigBreakDeadTime+0x118>)
 8005f54:	4821      	ldr	r0, [pc, #132]	; (8005fdc <HAL_TIMEx_ConfigBreakDeadTime+0xf4>)
 8005f56:	f7fc fd0a 	bl	800296e <assert_failed>
  assert_param(IS_TIM_BREAK_POLARITY(sBreakDeadTimeConfig->BreakPolarity));
 8005f5a:	6963      	ldr	r3, [r4, #20]
 8005f5c:	4a29      	ldr	r2, [pc, #164]	; (8006004 <HAL_TIMEx_ConfigBreakDeadTime+0x11c>)
 8005f5e:	4213      	tst	r3, r2
 8005f60:	d003      	beq.n	8005f6a <HAL_TIMEx_ConfigBreakDeadTime+0x82>
 8005f62:	4929      	ldr	r1, [pc, #164]	; (8006008 <HAL_TIMEx_ConfigBreakDeadTime+0x120>)
 8005f64:	481d      	ldr	r0, [pc, #116]	; (8005fdc <HAL_TIMEx_ConfigBreakDeadTime+0xf4>)
 8005f66:	f7fc fd02 	bl	800296e <assert_failed>
 8005f6a:	4e28      	ldr	r6, [pc, #160]	; (800600c <HAL_TIMEx_ConfigBreakDeadTime+0x124>)
  assert_param(IS_TIM_AUTOMATIC_OUTPUT_STATE(sBreakDeadTimeConfig->AutomaticOutput));
 8005f6c:	69a3      	ldr	r3, [r4, #24]
 8005f6e:	4233      	tst	r3, r6
 8005f70:	d003      	beq.n	8005f7a <HAL_TIMEx_ConfigBreakDeadTime+0x92>
 8005f72:	4927      	ldr	r1, [pc, #156]	; (8006010 <HAL_TIMEx_ConfigBreakDeadTime+0x128>)
 8005f74:	4819      	ldr	r0, [pc, #100]	; (8005fdc <HAL_TIMEx_ConfigBreakDeadTime+0xf4>)
 8005f76:	f7fc fcfa 	bl	800296e <assert_failed>

  /* Process Locked */
  __HAL_LOCK(htim);
 8005f7a:	002b      	movs	r3, r5
 8005f7c:	333c      	adds	r3, #60	; 0x3c
 8005f7e:	781a      	ldrb	r2, [r3, #0]
 8005f80:	2002      	movs	r0, #2
 8005f82:	2a01      	cmp	r2, #1
 8005f84:	d022      	beq.n	8005fcc <HAL_TIMEx_ConfigBreakDeadTime+0xe4>

  htim->State = HAL_TIM_STATE_BUSY;
 8005f86:	002a      	movs	r2, r5
  /* Set the Lock level, the Break enable Bit and the Polarity, the OSSR State,
     the OSSI State, the dead time value and the Automatic Output Enable Bit */
  
  /* Set the BDTR bits */
  MODIFY_REG(tmpbdtr, TIM_BDTR_DTG, sBreakDeadTimeConfig->DeadTime);
  MODIFY_REG(tmpbdtr, TIM_BDTR_LOCK, sBreakDeadTimeConfig->LockLevel);
 8005f88:	68e1      	ldr	r1, [r4, #12]
  htim->State = HAL_TIM_STATE_BUSY;
 8005f8a:	323d      	adds	r2, #61	; 0x3d
 8005f8c:	7010      	strb	r0, [r2, #0]
  MODIFY_REG(tmpbdtr, TIM_BDTR_LOCK, sBreakDeadTimeConfig->LockLevel);
 8005f8e:	68a0      	ldr	r0, [r4, #8]
 8005f90:	4039      	ands	r1, r7
 8005f92:	4301      	orrs	r1, r0
  MODIFY_REG(tmpbdtr, TIM_BDTR_OSSI, sBreakDeadTimeConfig->OffStateIDLEMode);
 8005f94:	4814      	ldr	r0, [pc, #80]	; (8005fe8 <HAL_TIMEx_ConfigBreakDeadTime+0x100>)
 8005f96:	4001      	ands	r1, r0
 8005f98:	6860      	ldr	r0, [r4, #4]
 8005f9a:	4301      	orrs	r1, r0
  MODIFY_REG(tmpbdtr, TIM_BDTR_OSSR, sBreakDeadTimeConfig->OffStateRunMode);
 8005f9c:	4810      	ldr	r0, [pc, #64]	; (8005fe0 <HAL_TIMEx_ConfigBreakDeadTime+0xf8>)
 8005f9e:	4001      	ands	r1, r0
 8005fa0:	6820      	ldr	r0, [r4, #0]
 8005fa2:	4301      	orrs	r1, r0
  MODIFY_REG(tmpbdtr, TIM_BDTR_BKE, sBreakDeadTimeConfig->BreakState);
 8005fa4:	4815      	ldr	r0, [pc, #84]	; (8005ffc <HAL_TIMEx_ConfigBreakDeadTime+0x114>)
 8005fa6:	4001      	ands	r1, r0
 8005fa8:	6920      	ldr	r0, [r4, #16]
 8005faa:	4301      	orrs	r1, r0
  MODIFY_REG(tmpbdtr, TIM_BDTR_BKP, sBreakDeadTimeConfig->BreakPolarity);
 8005fac:	4815      	ldr	r0, [pc, #84]	; (8006004 <HAL_TIMEx_ConfigBreakDeadTime+0x11c>)
 8005fae:	4001      	ands	r1, r0
 8005fb0:	6960      	ldr	r0, [r4, #20]
 8005fb2:	4301      	orrs	r1, r0
  MODIFY_REG(tmpbdtr, TIM_BDTR_AOE, sBreakDeadTimeConfig->AutomaticOutput);
 8005fb4:	400e      	ands	r6, r1
 8005fb6:	69a1      	ldr	r1, [r4, #24]
  MODIFY_REG(tmpbdtr, TIM_BDTR_MOE, sBreakDeadTimeConfig->AutomaticOutput);
 8005fb8:	4816      	ldr	r0, [pc, #88]	; (8006014 <HAL_TIMEx_ConfigBreakDeadTime+0x12c>)
  MODIFY_REG(tmpbdtr, TIM_BDTR_AOE, sBreakDeadTimeConfig->AutomaticOutput);
 8005fba:	430e      	orrs	r6, r1
  MODIFY_REG(tmpbdtr, TIM_BDTR_MOE, sBreakDeadTimeConfig->AutomaticOutput);
 8005fbc:	4006      	ands	r6, r0
 8005fbe:	430e      	orrs	r6, r1
  
  /* Set TIMx_BDTR */
  htim->Instance->BDTR = tmpbdtr;
 8005fc0:	6829      	ldr	r1, [r5, #0]
  
  htim->State = HAL_TIM_STATE_READY;

  __HAL_UNLOCK(htim);
 8005fc2:	2000      	movs	r0, #0
  htim->Instance->BDTR = tmpbdtr;
 8005fc4:	644e      	str	r6, [r1, #68]	; 0x44
  htim->State = HAL_TIM_STATE_READY;
 8005fc6:	2101      	movs	r1, #1
 8005fc8:	7011      	strb	r1, [r2, #0]
  __HAL_UNLOCK(htim);
 8005fca:	7018      	strb	r0, [r3, #0]

  return HAL_OK;
}
 8005fcc:	bdf8      	pop	{r3, r4, r5, r6, r7, pc}
 8005fce:	46c0      	nop			; (mov r8, r8)
 8005fd0:	40012c00 	.word	0x40012c00
 8005fd4:	40014400 	.word	0x40014400
 8005fd8:	40014800 	.word	0x40014800
 8005fdc:	080075fc 	.word	0x080075fc
 8005fe0:	fffff7ff 	.word	0xfffff7ff
 8005fe4:	00000671 	.word	0x00000671
 8005fe8:	fffffbff 	.word	0xfffffbff
 8005fec:	00000672 	.word	0x00000672
 8005ff0:	fffffcff 	.word	0xfffffcff
 8005ff4:	00000673 	.word	0x00000673
 8005ff8:	00000674 	.word	0x00000674
 8005ffc:	ffffefff 	.word	0xffffefff
 8006000:	00000675 	.word	0x00000675
 8006004:	ffffdfff 	.word	0xffffdfff
 8006008:	00000676 	.word	0x00000676
 800600c:	ffffbfff 	.word	0xffffbfff
 8006010:	00000677 	.word	0x00000677
 8006014:	ffff7fff 	.word	0xffff7fff

08006018 <HAL_TIMEx_CommutationCallback>:
 8006018:	4770      	bx	lr

0800601a <HAL_TIMEx_BreakCallback>:
  UNUSED(htim);

  /* NOTE : This function Should not be modified, when the callback is needed,
            the HAL_TIMEx_BreakCallback could be implemented in the user file
   */
}
 800601a:	4770      	bx	lr

0800601c <UART_EndRxTransfer>:
  * @retval None
  */
static void UART_EndRxTransfer(UART_HandleTypeDef *huart)
{
  /* Disable RXNE, PE and ERR (Frame error, noise error, overrun error) interrupts */
  CLEAR_BIT(huart->Instance->CR1, (USART_CR1_RXNEIE | USART_CR1_PEIE));
 800601c:	6803      	ldr	r3, [r0, #0]
 800601e:	4906      	ldr	r1, [pc, #24]	; (8006038 <UART_EndRxTransfer+0x1c>)
 8006020:	681a      	ldr	r2, [r3, #0]
  CLEAR_BIT(huart->Instance->CR3, USART_CR3_EIE);

  /* At end of Rx process, restore huart->RxState to Ready */
  huart->RxState = HAL_UART_STATE_READY;
 8006022:	306a      	adds	r0, #106	; 0x6a
  CLEAR_BIT(huart->Instance->CR1, (USART_CR1_RXNEIE | USART_CR1_PEIE));
 8006024:	400a      	ands	r2, r1
 8006026:	601a      	str	r2, [r3, #0]
  CLEAR_BIT(huart->Instance->CR3, USART_CR3_EIE);
 8006028:	689a      	ldr	r2, [r3, #8]
 800602a:	3123      	adds	r1, #35	; 0x23
 800602c:	31ff      	adds	r1, #255	; 0xff
 800602e:	438a      	bics	r2, r1
 8006030:	609a      	str	r2, [r3, #8]
  huart->RxState = HAL_UART_STATE_READY;
 8006032:	2320      	movs	r3, #32
 8006034:	7003      	strb	r3, [r0, #0]
}
 8006036:	4770      	bx	lr
 8006038:	fffffedf 	.word	0xfffffedf

0800603c <HAL_UART_Transmit_DMA>:
{
 800603c:	0013      	movs	r3, r2
  if(huart->gState == HAL_UART_STATE_READY)
 800603e:	0002      	movs	r2, r0
{
 8006040:	b570      	push	{r4, r5, r6, lr}
  if(huart->gState == HAL_UART_STATE_READY)
 8006042:	3269      	adds	r2, #105	; 0x69
 8006044:	7814      	ldrb	r4, [r2, #0]
{
 8006046:	0005      	movs	r5, r0
    return HAL_BUSY;
 8006048:	2002      	movs	r0, #2
  if(huart->gState == HAL_UART_STATE_READY)
 800604a:	2c20      	cmp	r4, #32
 800604c:	d134      	bne.n	80060b8 <HAL_UART_Transmit_DMA+0x7c>
      return HAL_ERROR;
 800604e:	3801      	subs	r0, #1
    if((pData == NULL ) || (Size == 0U))
 8006050:	2900      	cmp	r1, #0
 8006052:	d031      	beq.n	80060b8 <HAL_UART_Transmit_DMA+0x7c>
 8006054:	2b00      	cmp	r3, #0
 8006056:	d02f      	beq.n	80060b8 <HAL_UART_Transmit_DMA+0x7c>
    if ((huart->Init.WordLength == UART_WORDLENGTH_9B) && (huart->Init.Parity == UART_PARITY_NONE))
 8006058:	2480      	movs	r4, #128	; 0x80
 800605a:	68ae      	ldr	r6, [r5, #8]
 800605c:	0164      	lsls	r4, r4, #5
 800605e:	42a6      	cmp	r6, r4
 8006060:	d104      	bne.n	800606c <HAL_UART_Transmit_DMA+0x30>
 8006062:	692c      	ldr	r4, [r5, #16]
 8006064:	2c00      	cmp	r4, #0
 8006066:	d101      	bne.n	800606c <HAL_UART_Transmit_DMA+0x30>
      if((((uint32_t)pData)&1U) != 0U)
 8006068:	4201      	tst	r1, r0
 800606a:	d125      	bne.n	80060b8 <HAL_UART_Transmit_DMA+0x7c>
    __HAL_LOCK(huart);
 800606c:	002e      	movs	r6, r5
 800606e:	3668      	adds	r6, #104	; 0x68
 8006070:	7834      	ldrb	r4, [r6, #0]
    return HAL_BUSY;
 8006072:	2002      	movs	r0, #2
    __HAL_LOCK(huart);
 8006074:	2c01      	cmp	r4, #1
 8006076:	d01f      	beq.n	80060b8 <HAL_UART_Transmit_DMA+0x7c>
 8006078:	3801      	subs	r0, #1
 800607a:	7030      	strb	r0, [r6, #0]
    huart->TxXferSize = Size;
 800607c:	0028      	movs	r0, r5
 800607e:	3050      	adds	r0, #80	; 0x50
    huart->pTxBuffPtr = pData;
 8006080:	64e9      	str	r1, [r5, #76]	; 0x4c
    huart->ErrorCode = HAL_UART_ERROR_NONE;
 8006082:	2400      	movs	r4, #0
    huart->TxXferSize = Size;
 8006084:	8003      	strh	r3, [r0, #0]
    huart->TxXferCount = Size;
 8006086:	8043      	strh	r3, [r0, #2]
    huart->gState = HAL_UART_STATE_BUSY_TX;
 8006088:	2021      	movs	r0, #33	; 0x21
    huart->ErrorCode = HAL_UART_ERROR_NONE;
 800608a:	66ec      	str	r4, [r5, #108]	; 0x6c
    huart->gState = HAL_UART_STATE_BUSY_TX;
 800608c:	7010      	strb	r0, [r2, #0]
    huart->hdmatx->XferCpltCallback = UART_DMATransmitCplt;
 800608e:	6e28      	ldr	r0, [r5, #96]	; 0x60
 8006090:	4a0a      	ldr	r2, [pc, #40]	; (80060bc <HAL_UART_Transmit_DMA+0x80>)
    huart->hdmatx->XferAbortCallback = NULL;
 8006092:	6344      	str	r4, [r0, #52]	; 0x34
    huart->hdmatx->XferCpltCallback = UART_DMATransmitCplt;
 8006094:	6282      	str	r2, [r0, #40]	; 0x28
    huart->hdmatx->XferHalfCpltCallback = UART_DMATxHalfCplt;
 8006096:	4a0a      	ldr	r2, [pc, #40]	; (80060c0 <HAL_UART_Transmit_DMA+0x84>)
 8006098:	62c2      	str	r2, [r0, #44]	; 0x2c
    huart->hdmatx->XferErrorCallback = UART_DMAError;
 800609a:	4a0a      	ldr	r2, [pc, #40]	; (80060c4 <HAL_UART_Transmit_DMA+0x88>)
 800609c:	6302      	str	r2, [r0, #48]	; 0x30
    HAL_DMA_Start_IT(huart->hdmatx, (uint32_t)huart->pTxBuffPtr, (uint32_t)&huart->Instance->TDR, Size);
 800609e:	682a      	ldr	r2, [r5, #0]
 80060a0:	3228      	adds	r2, #40	; 0x28
 80060a2:	f7fd fe7f 	bl	8003da4 <HAL_DMA_Start_IT>
    __HAL_UART_CLEAR_FLAG(huart, UART_CLEAR_TCF);
 80060a6:	2240      	movs	r2, #64	; 0x40
    return HAL_OK;
 80060a8:	0020      	movs	r0, r4
    __HAL_UART_CLEAR_FLAG(huart, UART_CLEAR_TCF);
 80060aa:	682b      	ldr	r3, [r5, #0]
 80060ac:	621a      	str	r2, [r3, #32]
    SET_BIT(huart->Instance->CR3, USART_CR3_DMAT);
 80060ae:	6899      	ldr	r1, [r3, #8]
 80060b0:	1892      	adds	r2, r2, r2
 80060b2:	430a      	orrs	r2, r1
    __HAL_UNLOCK(huart);
 80060b4:	7034      	strb	r4, [r6, #0]
    SET_BIT(huart->Instance->CR3, USART_CR3_DMAT);
 80060b6:	609a      	str	r2, [r3, #8]
}
 80060b8:	bd70      	pop	{r4, r5, r6, pc}
 80060ba:	46c0      	nop			; (mov r8, r8)
 80060bc:	080060c9 	.word	0x080060c9
 80060c0:	080060fb 	.word	0x080060fb
 80060c4:	08006109 	.word	0x08006109

080060c8 <UART_DMATransmitCplt>:
static void UART_DMATransmitCplt(DMA_HandleTypeDef *hdma)
{
  UART_HandleTypeDef* huart = (UART_HandleTypeDef*)(hdma->Parent);
  
  /* DMA Normal mode */
  if ( HAL_IS_BIT_CLR(hdma->Instance->CCR, DMA_CCR_CIRC) )
 80060c8:	2120      	movs	r1, #32
 80060ca:	6803      	ldr	r3, [r0, #0]
{
 80060cc:	b510      	push	{r4, lr}
  if ( HAL_IS_BIT_CLR(hdma->Instance->CCR, DMA_CCR_CIRC) )
 80060ce:	681b      	ldr	r3, [r3, #0]
  UART_HandleTypeDef* huart = (UART_HandleTypeDef*)(hdma->Parent);
 80060d0:	6a42      	ldr	r2, [r0, #36]	; 0x24
  if ( HAL_IS_BIT_CLR(hdma->Instance->CCR, DMA_CCR_CIRC) )
 80060d2:	400b      	ands	r3, r1
 80060d4:	d10c      	bne.n	80060f0 <UART_DMATransmitCplt+0x28>
  {
    huart->TxXferCount = 0;
 80060d6:	0011      	movs	r1, r2
 80060d8:	3152      	adds	r1, #82	; 0x52
 80060da:	800b      	strh	r3, [r1, #0]

    /* Disable the DMA transfer for transmit request by resetting the DMAT bit
       in the UART CR3 register */
    CLEAR_BIT(huart->Instance->CR3, USART_CR3_DMAT);
 80060dc:	2180      	movs	r1, #128	; 0x80
 80060de:	6813      	ldr	r3, [r2, #0]
 80060e0:	689a      	ldr	r2, [r3, #8]
 80060e2:	438a      	bics	r2, r1
 80060e4:	609a      	str	r2, [r3, #8]

    /* Enable the UART Transmit Complete Interrupt */
    SET_BIT(huart->Instance->CR1, USART_CR1_TCIE);
 80060e6:	2240      	movs	r2, #64	; 0x40
 80060e8:	6819      	ldr	r1, [r3, #0]
 80060ea:	430a      	orrs	r2, r1
 80060ec:	601a      	str	r2, [r3, #0]
  else
  {
    HAL_UART_TxCpltCallback(huart);
  }

}
 80060ee:	bd10      	pop	{r4, pc}
    HAL_UART_TxCpltCallback(huart);
 80060f0:	0010      	movs	r0, r2
 80060f2:	f7fb fced 	bl	8001ad0 <HAL_UART_TxCpltCallback>
}
 80060f6:	e7fa      	b.n	80060ee <UART_DMATransmitCplt+0x26>

080060f8 <HAL_UART_TxHalfCpltCallback>:
 80060f8:	4770      	bx	lr

080060fa <UART_DMATxHalfCplt>:
  * @brief DMA UART transmit process half complete callback.
  * @param hdma DMA handle.
  * @retval None
  */
static void UART_DMATxHalfCplt(DMA_HandleTypeDef *hdma)
{
 80060fa:	b510      	push	{r4, lr}
  UART_HandleTypeDef* huart = (UART_HandleTypeDef*)(hdma->Parent);

  HAL_UART_TxHalfCpltCallback(huart);
 80060fc:	6a40      	ldr	r0, [r0, #36]	; 0x24
 80060fe:	f7ff fffb 	bl	80060f8 <HAL_UART_TxHalfCpltCallback>
}
 8006102:	bd10      	pop	{r4, pc}

08006104 <HAL_UART_RxCpltCallback>:
 8006104:	4770      	bx	lr

08006106 <HAL_UART_ErrorCallback>:
 8006106:	4770      	bx	lr

08006108 <UART_DMAError>:
  * @brief DMA UART communication error callback.
  * @param hdma DMA handle.
  * @retval None
  */
static void UART_DMAError(DMA_HandleTypeDef *hdma)
{
 8006108:	b510      	push	{r4, lr}
  UART_HandleTypeDef* huart = (UART_HandleTypeDef*)(hdma->Parent);
 800610a:	6a44      	ldr	r4, [r0, #36]	; 0x24

  /* Stop UART DMA Tx request if ongoing */
  if (  (huart->gState == HAL_UART_STATE_BUSY_TX)
 800610c:	0021      	movs	r1, r4
 800610e:	3169      	adds	r1, #105	; 0x69
 8006110:	780b      	ldrb	r3, [r1, #0]
 8006112:	2b21      	cmp	r3, #33	; 0x21
 8006114:	d10d      	bne.n	8006132 <UART_DMAError+0x2a>
      &&(HAL_IS_BIT_SET(huart->Instance->CR3, USART_CR3_DMAT)) )
 8006116:	6823      	ldr	r3, [r4, #0]
 8006118:	689a      	ldr	r2, [r3, #8]
 800611a:	0612      	lsls	r2, r2, #24
 800611c:	d509      	bpl.n	8006132 <UART_DMAError+0x2a>
  {
    huart->TxXferCount = 0U;
 800611e:	0022      	movs	r2, r4
 8006120:	2000      	movs	r0, #0
 8006122:	3252      	adds	r2, #82	; 0x52
 8006124:	8010      	strh	r0, [r2, #0]
  CLEAR_BIT(huart->Instance->CR1, (USART_CR1_TXEIE | USART_CR1_TCIE));
 8006126:	681a      	ldr	r2, [r3, #0]
 8006128:	30c0      	adds	r0, #192	; 0xc0
 800612a:	4382      	bics	r2, r0
 800612c:	601a      	str	r2, [r3, #0]
  huart->gState = HAL_UART_STATE_READY;
 800612e:	2320      	movs	r3, #32
 8006130:	700b      	strb	r3, [r1, #0]
    UART_EndTxTransfer(huart);
  }

  /* Stop UART DMA Rx request if ongoing */
  if (  (huart->RxState == HAL_UART_STATE_BUSY_RX)
 8006132:	0023      	movs	r3, r4
 8006134:	336a      	adds	r3, #106	; 0x6a
 8006136:	781b      	ldrb	r3, [r3, #0]
 8006138:	2b22      	cmp	r3, #34	; 0x22
 800613a:	d10a      	bne.n	8006152 <UART_DMAError+0x4a>
      &&(HAL_IS_BIT_SET(huart->Instance->CR3, USART_CR3_DMAR)) )
 800613c:	6823      	ldr	r3, [r4, #0]
 800613e:	689b      	ldr	r3, [r3, #8]
 8006140:	065b      	lsls	r3, r3, #25
 8006142:	d506      	bpl.n	8006152 <UART_DMAError+0x4a>
  {
    huart->RxXferCount = 0U;
 8006144:	0023      	movs	r3, r4
 8006146:	2200      	movs	r2, #0
 8006148:	335a      	adds	r3, #90	; 0x5a
 800614a:	801a      	strh	r2, [r3, #0]
    UART_EndRxTransfer(huart);
 800614c:	0020      	movs	r0, r4
 800614e:	f7ff ff65 	bl	800601c <UART_EndRxTransfer>
  }

  huart->ErrorCode |= HAL_UART_ERROR_DMA;
 8006152:	2310      	movs	r3, #16
 8006154:	6ee2      	ldr	r2, [r4, #108]	; 0x6c
  HAL_UART_ErrorCallback(huart);
 8006156:	0020      	movs	r0, r4
  huart->ErrorCode |= HAL_UART_ERROR_DMA;
 8006158:	4313      	orrs	r3, r2
 800615a:	66e3      	str	r3, [r4, #108]	; 0x6c
  HAL_UART_ErrorCallback(huart);
 800615c:	f7ff ffd3 	bl	8006106 <HAL_UART_ErrorCallback>
}
 8006160:	bd10      	pop	{r4, pc}

08006162 <UART_DMAAbortOnError>:
  * @param  hdma DMA handle.
  * @retval None
  */
static void UART_DMAAbortOnError(DMA_HandleTypeDef *hdma)
{
  UART_HandleTypeDef* huart = (UART_HandleTypeDef*)(hdma->Parent);
 8006162:	6a40      	ldr	r0, [r0, #36]	; 0x24
  huart->RxXferCount = 0U;
 8006164:	2300      	movs	r3, #0
 8006166:	0002      	movs	r2, r0
{
 8006168:	b510      	push	{r4, lr}
  huart->RxXferCount = 0U;
 800616a:	325a      	adds	r2, #90	; 0x5a
 800616c:	8013      	strh	r3, [r2, #0]
  huart->TxXferCount = 0U;
 800616e:	3a08      	subs	r2, #8
 8006170:	8013      	strh	r3, [r2, #0]

  HAL_UART_ErrorCallback(huart);
 8006172:	f7ff ffc8 	bl	8006106 <HAL_UART_ErrorCallback>
}
 8006176:	bd10      	pop	{r4, pc}

08006178 <UART_SetConfig>:
  assert_param(IS_UART_BAUDRATE(huart->Init.BaudRate));
 8006178:	4b5e      	ldr	r3, [pc, #376]	; (80062f4 <UART_SetConfig+0x17c>)
 800617a:	6842      	ldr	r2, [r0, #4]
{
 800617c:	b570      	push	{r4, r5, r6, lr}
 800617e:	0004      	movs	r4, r0
  assert_param(IS_UART_BAUDRATE(huart->Init.BaudRate));
 8006180:	429a      	cmp	r2, r3
 8006182:	d903      	bls.n	800618c <UART_SetConfig+0x14>
 8006184:	495c      	ldr	r1, [pc, #368]	; (80062f8 <UART_SetConfig+0x180>)
 8006186:	485d      	ldr	r0, [pc, #372]	; (80062fc <UART_SetConfig+0x184>)
 8006188:	f7fc fbf1 	bl	800296e <assert_failed>
  assert_param(IS_UART_WORD_LENGTH(huart->Init.WordLength));
 800618c:	4b5c      	ldr	r3, [pc, #368]	; (8006300 <UART_SetConfig+0x188>)
 800618e:	68a2      	ldr	r2, [r4, #8]
 8006190:	421a      	tst	r2, r3
 8006192:	d003      	beq.n	800619c <UART_SetConfig+0x24>
 8006194:	495b      	ldr	r1, [pc, #364]	; (8006304 <UART_SetConfig+0x18c>)
 8006196:	4859      	ldr	r0, [pc, #356]	; (80062fc <UART_SetConfig+0x184>)
 8006198:	f7fc fbe9 	bl	800296e <assert_failed>
  assert_param(IS_UART_STOPBITS(huart->Init.StopBits));
 800619c:	4b5a      	ldr	r3, [pc, #360]	; (8006308 <UART_SetConfig+0x190>)
 800619e:	68e2      	ldr	r2, [r4, #12]
 80061a0:	421a      	tst	r2, r3
 80061a2:	d003      	beq.n	80061ac <UART_SetConfig+0x34>
 80061a4:	4959      	ldr	r1, [pc, #356]	; (800630c <UART_SetConfig+0x194>)
 80061a6:	4855      	ldr	r0, [pc, #340]	; (80062fc <UART_SetConfig+0x184>)
 80061a8:	f7fc fbe1 	bl	800296e <assert_failed>
  assert_param(IS_UART_PARITY(huart->Init.Parity));
 80061ac:	6923      	ldr	r3, [r4, #16]
 80061ae:	4a58      	ldr	r2, [pc, #352]	; (8006310 <UART_SetConfig+0x198>)
 80061b0:	4213      	tst	r3, r2
 80061b2:	d007      	beq.n	80061c4 <UART_SetConfig+0x4c>
 80061b4:	22c0      	movs	r2, #192	; 0xc0
 80061b6:	00d2      	lsls	r2, r2, #3
 80061b8:	4293      	cmp	r3, r2
 80061ba:	d003      	beq.n	80061c4 <UART_SetConfig+0x4c>
 80061bc:	4955      	ldr	r1, [pc, #340]	; (8006314 <UART_SetConfig+0x19c>)
 80061be:	484f      	ldr	r0, [pc, #316]	; (80062fc <UART_SetConfig+0x184>)
 80061c0:	f7fc fbd5 	bl	800296e <assert_failed>
  assert_param(IS_UART_MODE(huart->Init.Mode));
 80061c4:	6963      	ldr	r3, [r4, #20]
 80061c6:	220c      	movs	r2, #12
 80061c8:	0019      	movs	r1, r3
 80061ca:	4391      	bics	r1, r2
 80061cc:	d101      	bne.n	80061d2 <UART_SetConfig+0x5a>
 80061ce:	2b00      	cmp	r3, #0
 80061d0:	d103      	bne.n	80061da <UART_SetConfig+0x62>
 80061d2:	4951      	ldr	r1, [pc, #324]	; (8006318 <UART_SetConfig+0x1a0>)
 80061d4:	4849      	ldr	r0, [pc, #292]	; (80062fc <UART_SetConfig+0x184>)
 80061d6:	f7fc fbca 	bl	800296e <assert_failed>
  assert_param(IS_UART_HARDWARE_FLOW_CONTROL(huart->Init.HwFlowCtl));
 80061da:	4b50      	ldr	r3, [pc, #320]	; (800631c <UART_SetConfig+0x1a4>)
 80061dc:	69a2      	ldr	r2, [r4, #24]
 80061de:	421a      	tst	r2, r3
 80061e0:	d003      	beq.n	80061ea <UART_SetConfig+0x72>
 80061e2:	494f      	ldr	r1, [pc, #316]	; (8006320 <UART_SetConfig+0x1a8>)
 80061e4:	4845      	ldr	r0, [pc, #276]	; (80062fc <UART_SetConfig+0x184>)
 80061e6:	f7fc fbc2 	bl	800296e <assert_failed>
  assert_param(IS_UART_ONE_BIT_SAMPLE(huart->Init.OneBitSampling));
 80061ea:	4b4e      	ldr	r3, [pc, #312]	; (8006324 <UART_SetConfig+0x1ac>)
 80061ec:	6a22      	ldr	r2, [r4, #32]
 80061ee:	421a      	tst	r2, r3
 80061f0:	d003      	beq.n	80061fa <UART_SetConfig+0x82>
 80061f2:	494d      	ldr	r1, [pc, #308]	; (8006328 <UART_SetConfig+0x1b0>)
 80061f4:	4841      	ldr	r0, [pc, #260]	; (80062fc <UART_SetConfig+0x184>)
 80061f6:	f7fc fbba 	bl	800296e <assert_failed>
  assert_param(IS_UART_OVERSAMPLING(huart->Init.OverSampling));
 80061fa:	4b4c      	ldr	r3, [pc, #304]	; (800632c <UART_SetConfig+0x1b4>)
 80061fc:	69e2      	ldr	r2, [r4, #28]
 80061fe:	421a      	tst	r2, r3
 8006200:	d003      	beq.n	800620a <UART_SetConfig+0x92>
 8006202:	494b      	ldr	r1, [pc, #300]	; (8006330 <UART_SetConfig+0x1b8>)
 8006204:	483d      	ldr	r0, [pc, #244]	; (80062fc <UART_SetConfig+0x184>)
 8006206:	f7fc fbb2 	bl	800296e <assert_failed>
  tmpreg = (uint32_t)huart->Init.WordLength | huart->Init.Parity | huart->Init.Mode | huart->Init.OverSampling ;
 800620a:	6920      	ldr	r0, [r4, #16]
 800620c:	68a3      	ldr	r3, [r4, #8]
  MODIFY_REG(huart->Instance->CR1, UART_CR1_FIELDS, tmpreg);
 800620e:	6825      	ldr	r5, [r4, #0]
  tmpreg = (uint32_t)huart->Init.WordLength | huart->Init.Parity | huart->Init.Mode | huart->Init.OverSampling ;
 8006210:	4303      	orrs	r3, r0
 8006212:	6960      	ldr	r0, [r4, #20]
  MODIFY_REG(huart->Instance->CR1, UART_CR1_FIELDS, tmpreg);
 8006214:	6829      	ldr	r1, [r5, #0]
  tmpreg = (uint32_t)huart->Init.WordLength | huart->Init.Parity | huart->Init.Mode | huart->Init.OverSampling ;
 8006216:	69e2      	ldr	r2, [r4, #28]
 8006218:	4303      	orrs	r3, r0
  MODIFY_REG(huart->Instance->CR1, UART_CR1_FIELDS, tmpreg);
 800621a:	4846      	ldr	r0, [pc, #280]	; (8006334 <UART_SetConfig+0x1bc>)
  tmpreg = (uint32_t)huart->Init.WordLength | huart->Init.Parity | huart->Init.Mode | huart->Init.OverSampling ;
 800621c:	4313      	orrs	r3, r2
  MODIFY_REG(huart->Instance->CR1, UART_CR1_FIELDS, tmpreg);
 800621e:	4001      	ands	r1, r0
 8006220:	430b      	orrs	r3, r1
 8006222:	602b      	str	r3, [r5, #0]
  MODIFY_REG(huart->Instance->CR2, USART_CR2_STOP, huart->Init.StopBits);
 8006224:	686b      	ldr	r3, [r5, #4]
 8006226:	4944      	ldr	r1, [pc, #272]	; (8006338 <UART_SetConfig+0x1c0>)
  tmpreg = (uint32_t)huart->Init.HwFlowCtl | huart->Init.OneBitSampling ;
 8006228:	6a20      	ldr	r0, [r4, #32]
  MODIFY_REG(huart->Instance->CR2, USART_CR2_STOP, huart->Init.StopBits);
 800622a:	400b      	ands	r3, r1
 800622c:	68e1      	ldr	r1, [r4, #12]
 800622e:	430b      	orrs	r3, r1
 8006230:	606b      	str	r3, [r5, #4]
  tmpreg = (uint32_t)huart->Init.HwFlowCtl | huart->Init.OneBitSampling ;
 8006232:	69a3      	ldr	r3, [r4, #24]
  MODIFY_REG(huart->Instance->CR3, (USART_CR3_RTSE | USART_CR3_CTSE | USART_CR3_ONEBIT), tmpreg);
 8006234:	68a9      	ldr	r1, [r5, #8]
  tmpreg = (uint32_t)huart->Init.HwFlowCtl | huart->Init.OneBitSampling ;
 8006236:	4303      	orrs	r3, r0
  MODIFY_REG(huart->Instance->CR3, (USART_CR3_RTSE | USART_CR3_CTSE | USART_CR3_ONEBIT), tmpreg);
 8006238:	4840      	ldr	r0, [pc, #256]	; (800633c <UART_SetConfig+0x1c4>)
 800623a:	4001      	ands	r1, r0
 800623c:	430b      	orrs	r3, r1
  UART_GETCLOCKSOURCE(huart, clocksource);
 800623e:	2103      	movs	r1, #3
  MODIFY_REG(huart->Instance->CR3, (USART_CR3_RTSE | USART_CR3_CTSE | USART_CR3_ONEBIT), tmpreg);
 8006240:	60ab      	str	r3, [r5, #8]
  UART_GETCLOCKSOURCE(huart, clocksource);
 8006242:	4b3f      	ldr	r3, [pc, #252]	; (8006340 <UART_SetConfig+0x1c8>)
 8006244:	6b1b      	ldr	r3, [r3, #48]	; 0x30
 8006246:	400b      	ands	r3, r1
 8006248:	493e      	ldr	r1, [pc, #248]	; (8006344 <UART_SetConfig+0x1cc>)
 800624a:	5cc8      	ldrb	r0, [r1, r3]
  if (huart->Init.OverSampling == UART_OVERSAMPLING_8)
 800624c:	2380      	movs	r3, #128	; 0x80
 800624e:	021b      	lsls	r3, r3, #8
 8006250:	429a      	cmp	r2, r3
 8006252:	d12c      	bne.n	80062ae <UART_SetConfig+0x136>
    switch (clocksource)
 8006254:	2808      	cmp	r0, #8
 8006256:	d827      	bhi.n	80062a8 <UART_SetConfig+0x130>
 8006258:	f7f9 ff56 	bl	8000108 <__gnu_thumb1_case_uqi>
 800625c:	260b2605 	.word	0x260b2605
 8006260:	2626261e 	.word	0x2626261e
 8006264:	21          	.byte	0x21
 8006265:	00          	.byte	0x00
        usartdiv = (uint16_t)(UART_DIV_SAMPLING8(HAL_RCC_GetPCLK1Freq(), huart->Init.BaudRate));
 8006266:	f7fe fdaf 	bl	8004dc8 <HAL_RCC_GetPCLK1Freq>
        usartdiv = (uint16_t)(UART_DIV_SAMPLING8(HAL_RCC_GetSysClockFreq(), huart->Init.BaudRate));
 800626a:	6863      	ldr	r3, [r4, #4]
 800626c:	0040      	lsls	r0, r0, #1
 800626e:	085b      	lsrs	r3, r3, #1
 8006270:	e002      	b.n	8006278 <UART_SetConfig+0x100>
        usartdiv = (uint16_t)(UART_DIV_SAMPLING8(HSI_VALUE, huart->Init.BaudRate));
 8006272:	6863      	ldr	r3, [r4, #4]
 8006274:	0858      	lsrs	r0, r3, #1
 8006276:	4b34      	ldr	r3, [pc, #208]	; (8006348 <UART_SetConfig+0x1d0>)
        usartdiv = (uint16_t)(UART_DIV_SAMPLING8(LSE_VALUE, huart->Init.BaudRate));
 8006278:	18c0      	adds	r0, r0, r3
 800627a:	6861      	ldr	r1, [r4, #4]
 800627c:	f7f9 ff4e 	bl	800011c <__udivsi3>
 8006280:	b283      	uxth	r3, r0
  HAL_StatusTypeDef ret               = HAL_OK;
 8006282:	2000      	movs	r0, #0
    brrtemp = usartdiv & 0xFFF0U;
 8006284:	220f      	movs	r2, #15
 8006286:	0019      	movs	r1, r3
 8006288:	4391      	bics	r1, r2
 800628a:	000a      	movs	r2, r1
    brrtemp |= (uint16_t)((usartdiv & (uint16_t)0x000FU) >> 1U);
 800628c:	071b      	lsls	r3, r3, #28
    huart->Instance->BRR = brrtemp;
 800628e:	6821      	ldr	r1, [r4, #0]
    brrtemp |= (uint16_t)((usartdiv & (uint16_t)0x000FU) >> 1U);
 8006290:	0f5b      	lsrs	r3, r3, #29
    huart->Instance->BRR = brrtemp;
 8006292:	4313      	orrs	r3, r2
 8006294:	60cb      	str	r3, [r1, #12]
}
 8006296:	bd70      	pop	{r4, r5, r6, pc}
        usartdiv = (uint16_t)(UART_DIV_SAMPLING8(HAL_RCC_GetSysClockFreq(), huart->Init.BaudRate));
 8006298:	f7fe fc6c 	bl	8004b74 <HAL_RCC_GetSysClockFreq>
 800629c:	e7e5      	b.n	800626a <UART_SetConfig+0xf2>
        usartdiv = (uint16_t)(UART_DIV_SAMPLING8(LSE_VALUE, huart->Init.BaudRate));
 800629e:	6863      	ldr	r3, [r4, #4]
 80062a0:	0858      	lsrs	r0, r3, #1
 80062a2:	2380      	movs	r3, #128	; 0x80
 80062a4:	025b      	lsls	r3, r3, #9
 80062a6:	e7e7      	b.n	8006278 <UART_SetConfig+0x100>
        ret = HAL_ERROR;
 80062a8:	2001      	movs	r0, #1
  uint16_t usartdiv                   = 0x0000U;
 80062aa:	2300      	movs	r3, #0
 80062ac:	e7ea      	b.n	8006284 <UART_SetConfig+0x10c>
    switch (clocksource)
 80062ae:	2808      	cmp	r0, #8
 80062b0:	d81d      	bhi.n	80062ee <UART_SetConfig+0x176>
 80062b2:	f7f9 ff29 	bl	8000108 <__gnu_thumb1_case_uqi>
 80062b6:	1c05      	.short	0x1c05
 80062b8:	1c141c0a 	.word	0x1c141c0a
 80062bc:	1c1c      	.short	0x1c1c
 80062be:	17          	.byte	0x17
 80062bf:	00          	.byte	0x00
        huart->Instance->BRR = (uint16_t)(UART_DIV_SAMPLING16(HAL_RCC_GetPCLK1Freq(), huart->Init.BaudRate));
 80062c0:	f7fe fd82 	bl	8004dc8 <HAL_RCC_GetPCLK1Freq>
        huart->Instance->BRR = (uint16_t)(UART_DIV_SAMPLING16(HAL_RCC_GetSysClockFreq(), huart->Init.BaudRate));
 80062c4:	6861      	ldr	r1, [r4, #4]
 80062c6:	084b      	lsrs	r3, r1, #1
 80062c8:	e002      	b.n	80062d0 <UART_SetConfig+0x158>
        huart->Instance->BRR = (uint16_t)(UART_DIV_SAMPLING16(HSI_VALUE, huart->Init.BaudRate));
 80062ca:	6861      	ldr	r1, [r4, #4]
 80062cc:	4b1f      	ldr	r3, [pc, #124]	; (800634c <UART_SetConfig+0x1d4>)
 80062ce:	0848      	lsrs	r0, r1, #1
        huart->Instance->BRR = (uint16_t)(UART_DIV_SAMPLING16(LSE_VALUE, huart->Init.BaudRate));
 80062d0:	18c0      	adds	r0, r0, r3
 80062d2:	f7f9 ff23 	bl	800011c <__udivsi3>
 80062d6:	b280      	uxth	r0, r0
 80062d8:	60e8      	str	r0, [r5, #12]
  HAL_StatusTypeDef ret               = HAL_OK;
 80062da:	2000      	movs	r0, #0
        break;
 80062dc:	e7db      	b.n	8006296 <UART_SetConfig+0x11e>
        huart->Instance->BRR = (uint16_t)(UART_DIV_SAMPLING16(HAL_RCC_GetSysClockFreq(), huart->Init.BaudRate));
 80062de:	f7fe fc49 	bl	8004b74 <HAL_RCC_GetSysClockFreq>
 80062e2:	e7ef      	b.n	80062c4 <UART_SetConfig+0x14c>
        huart->Instance->BRR = (uint16_t)(UART_DIV_SAMPLING16(LSE_VALUE, huart->Init.BaudRate));
 80062e4:	2380      	movs	r3, #128	; 0x80
 80062e6:	6861      	ldr	r1, [r4, #4]
 80062e8:	021b      	lsls	r3, r3, #8
 80062ea:	0848      	lsrs	r0, r1, #1
 80062ec:	e7f0      	b.n	80062d0 <UART_SetConfig+0x158>
        ret = HAL_ERROR;
 80062ee:	2001      	movs	r0, #1
 80062f0:	e7d1      	b.n	8006296 <UART_SetConfig+0x11e>
 80062f2:	46c0      	nop			; (mov r8, r8)
 80062f4:	005b8d80 	.word	0x005b8d80
 80062f8:	00000846 	.word	0x00000846
 80062fc:	0800763b 	.word	0x0800763b
 8006300:	ffffefff 	.word	0xffffefff
 8006304:	00000847 	.word	0x00000847
 8006308:	ffffdfff 	.word	0xffffdfff
 800630c:	00000848 	.word	0x00000848
 8006310:	fffffbff 	.word	0xfffffbff
 8006314:	00000849 	.word	0x00000849
 8006318:	0000084a 	.word	0x0000084a
 800631c:	fffffcff 	.word	0xfffffcff
 8006320:	0000084b 	.word	0x0000084b
 8006324:	fffff7ff 	.word	0xfffff7ff
 8006328:	0000084c 	.word	0x0000084c
 800632c:	ffff7fff 	.word	0xffff7fff
 8006330:	0000084d 	.word	0x0000084d
 8006334:	ffff69f3 	.word	0xffff69f3
 8006338:	ffffcfff 	.word	0xffffcfff
 800633c:	fffff4ff 	.word	0xfffff4ff
 8006340:	40021000 	.word	0x40021000
 8006344:	08007637 	.word	0x08007637
 8006348:	00f42400 	.word	0x00f42400
 800634c:	007a1200 	.word	0x007a1200

08006350 <UART_AdvFeatureConfig>:
  assert_param(IS_UART_ADVFEATURE_INIT(huart->AdvancedInit.AdvFeatureInit));
 8006350:	6a43      	ldr	r3, [r0, #36]	; 0x24
{
 8006352:	b570      	push	{r4, r5, r6, lr}
 8006354:	0004      	movs	r4, r0
  assert_param(IS_UART_ADVFEATURE_INIT(huart->AdvancedInit.AdvFeatureInit));
 8006356:	2bff      	cmp	r3, #255	; 0xff
 8006358:	d903      	bls.n	8006362 <UART_AdvFeatureConfig+0x12>
 800635a:	4954      	ldr	r1, [pc, #336]	; (80064ac <UART_AdvFeatureConfig+0x15c>)
 800635c:	4854      	ldr	r0, [pc, #336]	; (80064b0 <UART_AdvFeatureConfig+0x160>)
 800635e:	f7fc fb06 	bl	800296e <assert_failed>
  if(HAL_IS_BIT_SET(huart->AdvancedInit.AdvFeatureInit, UART_ADVFEATURE_TXINVERT_INIT))
 8006362:	6a63      	ldr	r3, [r4, #36]	; 0x24
 8006364:	07db      	lsls	r3, r3, #31
 8006366:	d50d      	bpl.n	8006384 <UART_AdvFeatureConfig+0x34>
 8006368:	4d52      	ldr	r5, [pc, #328]	; (80064b4 <UART_AdvFeatureConfig+0x164>)
    assert_param(IS_UART_ADVFEATURE_TXINV(huart->AdvancedInit.TxPinLevelInvert));
 800636a:	6aa3      	ldr	r3, [r4, #40]	; 0x28
 800636c:	422b      	tst	r3, r5
 800636e:	d003      	beq.n	8006378 <UART_AdvFeatureConfig+0x28>
 8006370:	4951      	ldr	r1, [pc, #324]	; (80064b8 <UART_AdvFeatureConfig+0x168>)
 8006372:	484f      	ldr	r0, [pc, #316]	; (80064b0 <UART_AdvFeatureConfig+0x160>)
 8006374:	f7fc fafb 	bl	800296e <assert_failed>
    MODIFY_REG(huart->Instance->CR2, USART_CR2_TXINV, huart->AdvancedInit.TxPinLevelInvert);
 8006378:	6822      	ldr	r2, [r4, #0]
 800637a:	6aa1      	ldr	r1, [r4, #40]	; 0x28
 800637c:	6853      	ldr	r3, [r2, #4]
 800637e:	402b      	ands	r3, r5
 8006380:	430b      	orrs	r3, r1
 8006382:	6053      	str	r3, [r2, #4]
  if(HAL_IS_BIT_SET(huart->AdvancedInit.AdvFeatureInit, UART_ADVFEATURE_RXINVERT_INIT))
 8006384:	6a63      	ldr	r3, [r4, #36]	; 0x24
 8006386:	079b      	lsls	r3, r3, #30
 8006388:	d50d      	bpl.n	80063a6 <UART_AdvFeatureConfig+0x56>
 800638a:	4d4c      	ldr	r5, [pc, #304]	; (80064bc <UART_AdvFeatureConfig+0x16c>)
    assert_param(IS_UART_ADVFEATURE_RXINV(huart->AdvancedInit.RxPinLevelInvert));
 800638c:	6ae3      	ldr	r3, [r4, #44]	; 0x2c
 800638e:	422b      	tst	r3, r5
 8006390:	d003      	beq.n	800639a <UART_AdvFeatureConfig+0x4a>
 8006392:	494b      	ldr	r1, [pc, #300]	; (80064c0 <UART_AdvFeatureConfig+0x170>)
 8006394:	4846      	ldr	r0, [pc, #280]	; (80064b0 <UART_AdvFeatureConfig+0x160>)
 8006396:	f7fc faea 	bl	800296e <assert_failed>
    MODIFY_REG(huart->Instance->CR2, USART_CR2_RXINV, huart->AdvancedInit.RxPinLevelInvert);
 800639a:	6822      	ldr	r2, [r4, #0]
 800639c:	6ae1      	ldr	r1, [r4, #44]	; 0x2c
 800639e:	6853      	ldr	r3, [r2, #4]
 80063a0:	402b      	ands	r3, r5
 80063a2:	430b      	orrs	r3, r1
 80063a4:	6053      	str	r3, [r2, #4]
  if(HAL_IS_BIT_SET(huart->AdvancedInit.AdvFeatureInit, UART_ADVFEATURE_DATAINVERT_INIT))
 80063a6:	6a63      	ldr	r3, [r4, #36]	; 0x24
 80063a8:	075b      	lsls	r3, r3, #29
 80063aa:	d50d      	bpl.n	80063c8 <UART_AdvFeatureConfig+0x78>
 80063ac:	4d45      	ldr	r5, [pc, #276]	; (80064c4 <UART_AdvFeatureConfig+0x174>)
    assert_param(IS_UART_ADVFEATURE_DATAINV(huart->AdvancedInit.DataInvert));
 80063ae:	6b23      	ldr	r3, [r4, #48]	; 0x30
 80063b0:	422b      	tst	r3, r5
 80063b2:	d003      	beq.n	80063bc <UART_AdvFeatureConfig+0x6c>
 80063b4:	4944      	ldr	r1, [pc, #272]	; (80064c8 <UART_AdvFeatureConfig+0x178>)
 80063b6:	483e      	ldr	r0, [pc, #248]	; (80064b0 <UART_AdvFeatureConfig+0x160>)
 80063b8:	f7fc fad9 	bl	800296e <assert_failed>
    MODIFY_REG(huart->Instance->CR2, USART_CR2_DATAINV, huart->AdvancedInit.DataInvert);
 80063bc:	6822      	ldr	r2, [r4, #0]
 80063be:	6b21      	ldr	r1, [r4, #48]	; 0x30
 80063c0:	6853      	ldr	r3, [r2, #4]
 80063c2:	402b      	ands	r3, r5
 80063c4:	430b      	orrs	r3, r1
 80063c6:	6053      	str	r3, [r2, #4]
  if(HAL_IS_BIT_SET(huart->AdvancedInit.AdvFeatureInit, UART_ADVFEATURE_SWAP_INIT))
 80063c8:	6a63      	ldr	r3, [r4, #36]	; 0x24
 80063ca:	071b      	lsls	r3, r3, #28
 80063cc:	d50d      	bpl.n	80063ea <UART_AdvFeatureConfig+0x9a>
 80063ce:	4d3f      	ldr	r5, [pc, #252]	; (80064cc <UART_AdvFeatureConfig+0x17c>)
    assert_param(IS_UART_ADVFEATURE_SWAP(huart->AdvancedInit.Swap));
 80063d0:	6b63      	ldr	r3, [r4, #52]	; 0x34
 80063d2:	422b      	tst	r3, r5
 80063d4:	d003      	beq.n	80063de <UART_AdvFeatureConfig+0x8e>
 80063d6:	493e      	ldr	r1, [pc, #248]	; (80064d0 <UART_AdvFeatureConfig+0x180>)
 80063d8:	4835      	ldr	r0, [pc, #212]	; (80064b0 <UART_AdvFeatureConfig+0x160>)
 80063da:	f7fc fac8 	bl	800296e <assert_failed>
    MODIFY_REG(huart->Instance->CR2, USART_CR2_SWAP, huart->AdvancedInit.Swap);
 80063de:	6822      	ldr	r2, [r4, #0]
 80063e0:	6b61      	ldr	r1, [r4, #52]	; 0x34
 80063e2:	6853      	ldr	r3, [r2, #4]
 80063e4:	402b      	ands	r3, r5
 80063e6:	430b      	orrs	r3, r1
 80063e8:	6053      	str	r3, [r2, #4]
  if(HAL_IS_BIT_SET(huart->AdvancedInit.AdvFeatureInit, UART_ADVFEATURE_RXOVERRUNDISABLE_INIT))
 80063ea:	6a63      	ldr	r3, [r4, #36]	; 0x24
 80063ec:	06db      	lsls	r3, r3, #27
 80063ee:	d50d      	bpl.n	800640c <UART_AdvFeatureConfig+0xbc>
 80063f0:	4d38      	ldr	r5, [pc, #224]	; (80064d4 <UART_AdvFeatureConfig+0x184>)
    assert_param(IS_UART_OVERRUN(huart->AdvancedInit.OverrunDisable));
 80063f2:	6ba3      	ldr	r3, [r4, #56]	; 0x38
 80063f4:	422b      	tst	r3, r5
 80063f6:	d003      	beq.n	8006400 <UART_AdvFeatureConfig+0xb0>
 80063f8:	4937      	ldr	r1, [pc, #220]	; (80064d8 <UART_AdvFeatureConfig+0x188>)
 80063fa:	482d      	ldr	r0, [pc, #180]	; (80064b0 <UART_AdvFeatureConfig+0x160>)
 80063fc:	f7fc fab7 	bl	800296e <assert_failed>
    MODIFY_REG(huart->Instance->CR3, USART_CR3_OVRDIS, huart->AdvancedInit.OverrunDisable);
 8006400:	6822      	ldr	r2, [r4, #0]
 8006402:	6ba1      	ldr	r1, [r4, #56]	; 0x38
 8006404:	6893      	ldr	r3, [r2, #8]
 8006406:	402b      	ands	r3, r5
 8006408:	430b      	orrs	r3, r1
 800640a:	6093      	str	r3, [r2, #8]
  if(HAL_IS_BIT_SET(huart->AdvancedInit.AdvFeatureInit, UART_ADVFEATURE_DMADISABLEONERROR_INIT))
 800640c:	6a63      	ldr	r3, [r4, #36]	; 0x24
 800640e:	069b      	lsls	r3, r3, #26
 8006410:	d50d      	bpl.n	800642e <UART_AdvFeatureConfig+0xde>
 8006412:	4d32      	ldr	r5, [pc, #200]	; (80064dc <UART_AdvFeatureConfig+0x18c>)
    assert_param(IS_UART_ADVFEATURE_DMAONRXERROR(huart->AdvancedInit.DMADisableonRxError));
 8006414:	6be3      	ldr	r3, [r4, #60]	; 0x3c
 8006416:	422b      	tst	r3, r5
 8006418:	d003      	beq.n	8006422 <UART_AdvFeatureConfig+0xd2>
 800641a:	4931      	ldr	r1, [pc, #196]	; (80064e0 <UART_AdvFeatureConfig+0x190>)
 800641c:	4824      	ldr	r0, [pc, #144]	; (80064b0 <UART_AdvFeatureConfig+0x160>)
 800641e:	f7fc faa6 	bl	800296e <assert_failed>
    MODIFY_REG(huart->Instance->CR3, USART_CR3_DDRE, huart->AdvancedInit.DMADisableonRxError);
 8006422:	6822      	ldr	r2, [r4, #0]
 8006424:	6be1      	ldr	r1, [r4, #60]	; 0x3c
 8006426:	6893      	ldr	r3, [r2, #8]
 8006428:	402b      	ands	r3, r5
 800642a:	430b      	orrs	r3, r1
 800642c:	6093      	str	r3, [r2, #8]
  if(HAL_IS_BIT_SET(huart->AdvancedInit.AdvFeatureInit, UART_ADVFEATURE_AUTOBAUDRATE_INIT))
 800642e:	6a63      	ldr	r3, [r4, #36]	; 0x24
 8006430:	065b      	lsls	r3, r3, #25
 8006432:	d528      	bpl.n	8006486 <UART_AdvFeatureConfig+0x136>
    assert_param(IS_USART_AUTOBAUDRATE_DETECTION_INSTANCE(huart->Instance));
 8006434:	4b2b      	ldr	r3, [pc, #172]	; (80064e4 <UART_AdvFeatureConfig+0x194>)
 8006436:	6822      	ldr	r2, [r4, #0]
 8006438:	429a      	cmp	r2, r3
 800643a:	d003      	beq.n	8006444 <UART_AdvFeatureConfig+0xf4>
 800643c:	492a      	ldr	r1, [pc, #168]	; (80064e8 <UART_AdvFeatureConfig+0x198>)
 800643e:	481c      	ldr	r0, [pc, #112]	; (80064b0 <UART_AdvFeatureConfig+0x160>)
 8006440:	f7fc fa95 	bl	800296e <assert_failed>
 8006444:	4d29      	ldr	r5, [pc, #164]	; (80064ec <UART_AdvFeatureConfig+0x19c>)
    assert_param(IS_UART_ADVFEATURE_AUTOBAUDRATE(huart->AdvancedInit.AutoBaudRateEnable));
 8006446:	6c23      	ldr	r3, [r4, #64]	; 0x40
 8006448:	422b      	tst	r3, r5
 800644a:	d003      	beq.n	8006454 <UART_AdvFeatureConfig+0x104>
 800644c:	4928      	ldr	r1, [pc, #160]	; (80064f0 <UART_AdvFeatureConfig+0x1a0>)
 800644e:	4818      	ldr	r0, [pc, #96]	; (80064b0 <UART_AdvFeatureConfig+0x160>)
 8006450:	f7fc fa8d 	bl	800296e <assert_failed>
    MODIFY_REG(huart->Instance->CR2, USART_CR2_ABREN, huart->AdvancedInit.AutoBaudRateEnable);
 8006454:	6821      	ldr	r1, [r4, #0]
 8006456:	6c22      	ldr	r2, [r4, #64]	; 0x40
 8006458:	684b      	ldr	r3, [r1, #4]
 800645a:	402b      	ands	r3, r5
 800645c:	4313      	orrs	r3, r2
 800645e:	604b      	str	r3, [r1, #4]
    if(huart->AdvancedInit.AutoBaudRateEnable == UART_ADVFEATURE_AUTOBAUDRATE_ENABLE)
 8006460:	2380      	movs	r3, #128	; 0x80
 8006462:	035b      	lsls	r3, r3, #13
 8006464:	429a      	cmp	r2, r3
 8006466:	d10e      	bne.n	8006486 <UART_AdvFeatureConfig+0x136>
      assert_param(IS_UART_ADVFEATURE_AUTOBAUDRATEMODE(huart->AdvancedInit.AutoBaudRateMode));
 8006468:	4b22      	ldr	r3, [pc, #136]	; (80064f4 <UART_AdvFeatureConfig+0x1a4>)
 800646a:	6c62      	ldr	r2, [r4, #68]	; 0x44
 800646c:	421a      	tst	r2, r3
 800646e:	d003      	beq.n	8006478 <UART_AdvFeatureConfig+0x128>
 8006470:	4921      	ldr	r1, [pc, #132]	; (80064f8 <UART_AdvFeatureConfig+0x1a8>)
 8006472:	480f      	ldr	r0, [pc, #60]	; (80064b0 <UART_AdvFeatureConfig+0x160>)
 8006474:	f7fc fa7b 	bl	800296e <assert_failed>
      MODIFY_REG(huart->Instance->CR2, USART_CR2_ABRMODE, huart->AdvancedInit.AutoBaudRateMode);
 8006478:	6822      	ldr	r2, [r4, #0]
 800647a:	4920      	ldr	r1, [pc, #128]	; (80064fc <UART_AdvFeatureConfig+0x1ac>)
 800647c:	6853      	ldr	r3, [r2, #4]
 800647e:	400b      	ands	r3, r1
 8006480:	6c61      	ldr	r1, [r4, #68]	; 0x44
 8006482:	430b      	orrs	r3, r1
 8006484:	6053      	str	r3, [r2, #4]
  if(HAL_IS_BIT_SET(huart->AdvancedInit.AdvFeatureInit, UART_ADVFEATURE_MSBFIRST_INIT))
 8006486:	6a63      	ldr	r3, [r4, #36]	; 0x24
 8006488:	061b      	lsls	r3, r3, #24
 800648a:	d50d      	bpl.n	80064a8 <UART_AdvFeatureConfig+0x158>
 800648c:	4d1c      	ldr	r5, [pc, #112]	; (8006500 <UART_AdvFeatureConfig+0x1b0>)
    assert_param(IS_UART_ADVFEATURE_MSBFIRST(huart->AdvancedInit.MSBFirst));
 800648e:	6ca3      	ldr	r3, [r4, #72]	; 0x48
 8006490:	422b      	tst	r3, r5
 8006492:	d003      	beq.n	800649c <UART_AdvFeatureConfig+0x14c>
 8006494:	491b      	ldr	r1, [pc, #108]	; (8006504 <UART_AdvFeatureConfig+0x1b4>)
 8006496:	4806      	ldr	r0, [pc, #24]	; (80064b0 <UART_AdvFeatureConfig+0x160>)
 8006498:	f7fc fa69 	bl	800296e <assert_failed>
    MODIFY_REG(huart->Instance->CR2, USART_CR2_MSBFIRST, huart->AdvancedInit.MSBFirst);
 800649c:	6822      	ldr	r2, [r4, #0]
 800649e:	6ca1      	ldr	r1, [r4, #72]	; 0x48
 80064a0:	6853      	ldr	r3, [r2, #4]
 80064a2:	402b      	ands	r3, r5
 80064a4:	430b      	orrs	r3, r1
 80064a6:	6053      	str	r3, [r2, #4]
}
 80064a8:	bd70      	pop	{r4, r5, r6, pc}
 80064aa:	46c0      	nop			; (mov r8, r8)
 80064ac:	000008a9 	.word	0x000008a9
 80064b0:	0800763b 	.word	0x0800763b
 80064b4:	fffdffff 	.word	0xfffdffff
 80064b8:	000008ae 	.word	0x000008ae
 80064bc:	fffeffff 	.word	0xfffeffff
 80064c0:	000008b5 	.word	0x000008b5
 80064c4:	fffbffff 	.word	0xfffbffff
 80064c8:	000008bc 	.word	0x000008bc
 80064cc:	ffff7fff 	.word	0xffff7fff
 80064d0:	000008c3 	.word	0x000008c3
 80064d4:	ffffefff 	.word	0xffffefff
 80064d8:	000008ca 	.word	0x000008ca
 80064dc:	ffffdfff 	.word	0xffffdfff
 80064e0:	000008d1 	.word	0x000008d1
 80064e4:	40013800 	.word	0x40013800
 80064e8:	000008d8 	.word	0x000008d8
 80064ec:	ffefffff 	.word	0xffefffff
 80064f0:	000008d9 	.word	0x000008d9
 80064f4:	ffdfffff 	.word	0xffdfffff
 80064f8:	000008de 	.word	0x000008de
 80064fc:	ff9fffff 	.word	0xff9fffff
 8006500:	fff7ffff 	.word	0xfff7ffff
 8006504:	000008e6 	.word	0x000008e6

08006508 <HAL_UART_Init>:
{
 8006508:	b570      	push	{r4, r5, r6, lr}
 800650a:	1e04      	subs	r4, r0, #0
  if(huart == NULL)
 800650c:	d101      	bne.n	8006512 <HAL_UART_Init+0xa>
    return HAL_ERROR;
 800650e:	2001      	movs	r0, #1
}
 8006510:	bd70      	pop	{r4, r5, r6, pc}
  if(huart->Init.HwFlowCtl != UART_HWCONTROL_NONE)
 8006512:	6981      	ldr	r1, [r0, #24]
 8006514:	4b22      	ldr	r3, [pc, #136]	; (80065a0 <HAL_UART_Init+0x98>)
 8006516:	6802      	ldr	r2, [r0, #0]
 8006518:	2900      	cmp	r1, #0
 800651a:	d03b      	beq.n	8006594 <HAL_UART_Init+0x8c>
    assert_param(IS_UART_HWFLOW_INSTANCE(huart->Instance));
 800651c:	429a      	cmp	r2, r3
 800651e:	d004      	beq.n	800652a <HAL_UART_Init+0x22>
 8006520:	2197      	movs	r1, #151	; 0x97
 8006522:	0049      	lsls	r1, r1, #1
    assert_param(IS_UART_INSTANCE(huart->Instance));
 8006524:	481f      	ldr	r0, [pc, #124]	; (80065a4 <HAL_UART_Init+0x9c>)
 8006526:	f7fc fa22 	bl	800296e <assert_failed>
  if(huart->gState == HAL_UART_STATE_RESET)
 800652a:	0025      	movs	r5, r4
 800652c:	3569      	adds	r5, #105	; 0x69
 800652e:	782b      	ldrb	r3, [r5, #0]
 8006530:	b2db      	uxtb	r3, r3
 8006532:	2b00      	cmp	r3, #0
 8006534:	d105      	bne.n	8006542 <HAL_UART_Init+0x3a>
    huart->Lock = HAL_UNLOCKED;
 8006536:	0022      	movs	r2, r4
 8006538:	3268      	adds	r2, #104	; 0x68
 800653a:	7013      	strb	r3, [r2, #0]
    HAL_UART_MspInit(huart);
 800653c:	0020      	movs	r0, r4
 800653e:	f7fc feb1 	bl	80032a4 <HAL_UART_MspInit>
  huart->gState = HAL_UART_STATE_BUSY;
 8006542:	2324      	movs	r3, #36	; 0x24
  __HAL_UART_DISABLE(huart);
 8006544:	2101      	movs	r1, #1
 8006546:	6822      	ldr	r2, [r4, #0]
  huart->gState = HAL_UART_STATE_BUSY;
 8006548:	702b      	strb	r3, [r5, #0]
  __HAL_UART_DISABLE(huart);
 800654a:	6813      	ldr	r3, [r2, #0]
  if (UART_SetConfig(huart) == HAL_ERROR)
 800654c:	0020      	movs	r0, r4
  __HAL_UART_DISABLE(huart);
 800654e:	438b      	bics	r3, r1
 8006550:	6013      	str	r3, [r2, #0]
  if (UART_SetConfig(huart) == HAL_ERROR)
 8006552:	f7ff fe11 	bl	8006178 <UART_SetConfig>
 8006556:	2801      	cmp	r0, #1
 8006558:	d0d9      	beq.n	800650e <HAL_UART_Init+0x6>
  if (huart->AdvancedInit.AdvFeatureInit != UART_ADVFEATURE_NO_INIT)
 800655a:	6a63      	ldr	r3, [r4, #36]	; 0x24
 800655c:	2b00      	cmp	r3, #0
 800655e:	d002      	beq.n	8006566 <HAL_UART_Init+0x5e>
    UART_AdvFeatureConfig(huart);
 8006560:	0020      	movs	r0, r4
 8006562:	f7ff fef5 	bl	8006350 <UART_AdvFeatureConfig>
  CLEAR_BIT(huart->Instance->CR2, USART_CR2_CLKEN);
 8006566:	6823      	ldr	r3, [r4, #0]
 8006568:	490f      	ldr	r1, [pc, #60]	; (80065a8 <HAL_UART_Init+0xa0>)
 800656a:	685a      	ldr	r2, [r3, #4]
  huart->ErrorCode = HAL_UART_ERROR_NONE;
 800656c:	2000      	movs	r0, #0
  CLEAR_BIT(huart->Instance->CR2, USART_CR2_CLKEN);
 800656e:	400a      	ands	r2, r1
  CLEAR_BIT(huart->Instance->CR3, USART_CR3_HDSEL);
 8006570:	2108      	movs	r1, #8
  CLEAR_BIT(huart->Instance->CR2, USART_CR2_CLKEN);
 8006572:	605a      	str	r2, [r3, #4]
  CLEAR_BIT(huart->Instance->CR3, USART_CR3_HDSEL);
 8006574:	689a      	ldr	r2, [r3, #8]
 8006576:	438a      	bics	r2, r1
 8006578:	609a      	str	r2, [r3, #8]
  __HAL_UART_ENABLE(huart);
 800657a:	2201      	movs	r2, #1
 800657c:	6819      	ldr	r1, [r3, #0]
 800657e:	430a      	orrs	r2, r1
 8006580:	601a      	str	r2, [r3, #0]
  huart->RxState = HAL_UART_STATE_READY;
 8006582:	0022      	movs	r2, r4
  huart->gState  = HAL_UART_STATE_READY;
 8006584:	2320      	movs	r3, #32
  huart->ErrorCode = HAL_UART_ERROR_NONE;
 8006586:	66e0      	str	r0, [r4, #108]	; 0x6c
  huart->RxState = HAL_UART_STATE_READY;
 8006588:	326a      	adds	r2, #106	; 0x6a
  __HAL_UNLOCK(huart);
 800658a:	3468      	adds	r4, #104	; 0x68
  huart->gState  = HAL_UART_STATE_READY;
 800658c:	702b      	strb	r3, [r5, #0]
  huart->RxState = HAL_UART_STATE_READY;
 800658e:	7013      	strb	r3, [r2, #0]
  __HAL_UNLOCK(huart);
 8006590:	7020      	strb	r0, [r4, #0]
  return (UART_CheckIdleState(huart));
 8006592:	e7bd      	b.n	8006510 <HAL_UART_Init+0x8>
    assert_param(IS_UART_INSTANCE(huart->Instance));
 8006594:	429a      	cmp	r2, r3
 8006596:	d0c8      	beq.n	800652a <HAL_UART_Init+0x22>
 8006598:	2134      	movs	r1, #52	; 0x34
 800659a:	31ff      	adds	r1, #255	; 0xff
 800659c:	e7c2      	b.n	8006524 <HAL_UART_Init+0x1c>
 800659e:	46c0      	nop			; (mov r8, r8)
 80065a0:	40013800 	.word	0x40013800
 80065a4:	0800763b 	.word	0x0800763b
 80065a8:	fffff7ff 	.word	0xfffff7ff

080065ac <UART_Transmit_IT>:
HAL_StatusTypeDef UART_Transmit_IT(UART_HandleTypeDef *huart)
{
  uint16_t* tmp;

  /* Check that a Tx process is ongoing */
  if (huart->gState == HAL_UART_STATE_BUSY_TX)
 80065ac:	0003      	movs	r3, r0
{
 80065ae:	b530      	push	{r4, r5, lr}
  if (huart->gState == HAL_UART_STATE_BUSY_TX)
 80065b0:	3369      	adds	r3, #105	; 0x69
 80065b2:	781b      	ldrb	r3, [r3, #0]
{
 80065b4:	0002      	movs	r2, r0
      return HAL_OK;
    }
  }
  else
  {
    return HAL_BUSY;
 80065b6:	2002      	movs	r0, #2
  if (huart->gState == HAL_UART_STATE_BUSY_TX)
 80065b8:	2b21      	cmp	r3, #33	; 0x21
 80065ba:	d10f      	bne.n	80065dc <UART_Transmit_IT+0x30>
    if(huart->TxXferCount == 0U)
 80065bc:	0014      	movs	r4, r2
 80065be:	3452      	adds	r4, #82	; 0x52
 80065c0:	8823      	ldrh	r3, [r4, #0]
 80065c2:	6811      	ldr	r1, [r2, #0]
 80065c4:	b29b      	uxth	r3, r3
 80065c6:	2b00      	cmp	r3, #0
 80065c8:	d109      	bne.n	80065de <UART_Transmit_IT+0x32>
      CLEAR_BIT(huart->Instance->CR1, USART_CR1_TXEIE);
 80065ca:	680a      	ldr	r2, [r1, #0]
 80065cc:	307e      	adds	r0, #126	; 0x7e
 80065ce:	4382      	bics	r2, r0
 80065d0:	600a      	str	r2, [r1, #0]
      SET_BIT(huart->Instance->CR1, USART_CR1_TCIE);
 80065d2:	2240      	movs	r2, #64	; 0x40
 80065d4:	6808      	ldr	r0, [r1, #0]
 80065d6:	4302      	orrs	r2, r0
 80065d8:	600a      	str	r2, [r1, #0]
      return HAL_OK;
 80065da:	2000      	movs	r0, #0
  }
}
 80065dc:	bd30      	pop	{r4, r5, pc}
      if ((huart->Init.WordLength == UART_WORDLENGTH_9B) && (huart->Init.Parity == UART_PARITY_NONE))
 80065de:	2080      	movs	r0, #128	; 0x80
 80065e0:	6895      	ldr	r5, [r2, #8]
 80065e2:	0140      	lsls	r0, r0, #5
 80065e4:	6cd3      	ldr	r3, [r2, #76]	; 0x4c
 80065e6:	4285      	cmp	r5, r0
 80065e8:	d10d      	bne.n	8006606 <UART_Transmit_IT+0x5a>
 80065ea:	6910      	ldr	r0, [r2, #16]
 80065ec:	2800      	cmp	r0, #0
 80065ee:	d10a      	bne.n	8006606 <UART_Transmit_IT+0x5a>
        huart->Instance->TDR = (*tmp & (uint16_t)0x01FFU);
 80065f0:	8818      	ldrh	r0, [r3, #0]
        huart->pTxBuffPtr += 2U;
 80065f2:	3302      	adds	r3, #2
        huart->Instance->TDR = (*tmp & (uint16_t)0x01FFU);
 80065f4:	05c0      	lsls	r0, r0, #23
 80065f6:	0dc0      	lsrs	r0, r0, #23
 80065f8:	8508      	strh	r0, [r1, #40]	; 0x28
        huart->pTxBuffPtr += 2U;
 80065fa:	64d3      	str	r3, [r2, #76]	; 0x4c
      huart->TxXferCount--;
 80065fc:	8823      	ldrh	r3, [r4, #0]
 80065fe:	3b01      	subs	r3, #1
 8006600:	b29b      	uxth	r3, r3
 8006602:	8023      	strh	r3, [r4, #0]
 8006604:	e7e9      	b.n	80065da <UART_Transmit_IT+0x2e>
        huart->Instance->TDR = (uint8_t)(*huart->pTxBuffPtr++ & (uint8_t)0xFFU);
 8006606:	1c58      	adds	r0, r3, #1
 8006608:	64d0      	str	r0, [r2, #76]	; 0x4c
 800660a:	781b      	ldrb	r3, [r3, #0]
 800660c:	850b      	strh	r3, [r1, #40]	; 0x28
 800660e:	e7f5      	b.n	80065fc <UART_Transmit_IT+0x50>

08006610 <UART_EndTransmit_IT>:
  * @retval HAL status
  */
HAL_StatusTypeDef UART_EndTransmit_IT(UART_HandleTypeDef *huart)
{
  /* Disable the UART Transmit Complete Interrupt */
  CLEAR_BIT(huart->Instance->CR1, USART_CR1_TCIE);
 8006610:	2140      	movs	r1, #64	; 0x40
 8006612:	6802      	ldr	r2, [r0, #0]
{
 8006614:	b510      	push	{r4, lr}
  CLEAR_BIT(huart->Instance->CR1, USART_CR1_TCIE);
 8006616:	6813      	ldr	r3, [r2, #0]
 8006618:	438b      	bics	r3, r1
 800661a:	6013      	str	r3, [r2, #0]

  /* Tx process is ended, restore huart->gState to Ready */
  huart->gState = HAL_UART_STATE_READY;
 800661c:	0003      	movs	r3, r0
 800661e:	2220      	movs	r2, #32
 8006620:	3369      	adds	r3, #105	; 0x69
 8006622:	701a      	strb	r2, [r3, #0]

  HAL_UART_TxCpltCallback(huart);
 8006624:	f7fb fa54 	bl	8001ad0 <HAL_UART_TxCpltCallback>

  return HAL_OK;
}
 8006628:	2000      	movs	r0, #0
 800662a:	bd10      	pop	{r4, pc}

0800662c <UART_Receive_IT>:
  uint16_t* tmp;
  uint16_t  uhMask = huart->Mask;
  uint16_t  uhdata;

  /* Check that a Rx process is ongoing */
  if(huart->RxState == HAL_UART_STATE_BUSY_RX)
 800662c:	0002      	movs	r2, r0
{
 800662e:	b570      	push	{r4, r5, r6, lr}
  if(huart->RxState == HAL_UART_STATE_BUSY_RX)
 8006630:	326a      	adds	r2, #106	; 0x6a
 8006632:	7811      	ldrb	r1, [r2, #0]
 8006634:	6803      	ldr	r3, [r0, #0]
 8006636:	2922      	cmp	r1, #34	; 0x22
 8006638:	d12d      	bne.n	8006696 <UART_Receive_IT+0x6a>
  uint16_t  uhMask = huart->Mask;
 800663a:	0001      	movs	r1, r0
  {
    uhdata = (uint16_t) READ_REG(huart->Instance->RDR);
    if ((huart->Init.WordLength == UART_WORDLENGTH_9B) && (huart->Init.Parity == UART_PARITY_NONE))
 800663c:	2480      	movs	r4, #128	; 0x80
  uint16_t  uhMask = huart->Mask;
 800663e:	315c      	adds	r1, #92	; 0x5c
 8006640:	880d      	ldrh	r5, [r1, #0]
    uhdata = (uint16_t) READ_REG(huart->Instance->RDR);
 8006642:	8c99      	ldrh	r1, [r3, #36]	; 0x24
    if ((huart->Init.WordLength == UART_WORDLENGTH_9B) && (huart->Init.Parity == UART_PARITY_NONE))
 8006644:	0164      	lsls	r4, r4, #5
 8006646:	4029      	ands	r1, r5
 8006648:	6885      	ldr	r5, [r0, #8]
 800664a:	6d43      	ldr	r3, [r0, #84]	; 0x54
 800664c:	42a5      	cmp	r5, r4
 800664e:	d11e      	bne.n	800668e <UART_Receive_IT+0x62>
 8006650:	6904      	ldr	r4, [r0, #16]
 8006652:	2c00      	cmp	r4, #0
 8006654:	d11b      	bne.n	800668e <UART_Receive_IT+0x62>
    {
      tmp = (uint16_t*) huart->pRxBuffPtr ;
      *tmp = (uint16_t)(uhdata & uhMask);
 8006656:	8019      	strh	r1, [r3, #0]
      huart->pRxBuffPtr +=2U;
 8006658:	3302      	adds	r3, #2
 800665a:	6543      	str	r3, [r0, #84]	; 0x54
    else
    {
      *huart->pRxBuffPtr++ = (uint8_t)(uhdata & (uint8_t)uhMask);
    }

    if(--huart->RxXferCount == 0U)
 800665c:	0001      	movs	r1, r0
      HAL_UART_RxCpltCallback(huart);

      return HAL_OK;
    }

    return HAL_OK;
 800665e:	2400      	movs	r4, #0
    if(--huart->RxXferCount == 0U)
 8006660:	315a      	adds	r1, #90	; 0x5a
 8006662:	880b      	ldrh	r3, [r1, #0]
 8006664:	3b01      	subs	r3, #1
 8006666:	b29b      	uxth	r3, r3
 8006668:	800b      	strh	r3, [r1, #0]
 800666a:	42a3      	cmp	r3, r4
 800666c:	d10d      	bne.n	800668a <UART_Receive_IT+0x5e>
      CLEAR_BIT(huart->Instance->CR1, (USART_CR1_RXNEIE | USART_CR1_PEIE));
 800666e:	6803      	ldr	r3, [r0, #0]
 8006670:	4d0c      	ldr	r5, [pc, #48]	; (80066a4 <UART_Receive_IT+0x78>)
 8006672:	6819      	ldr	r1, [r3, #0]
 8006674:	4029      	ands	r1, r5
 8006676:	6019      	str	r1, [r3, #0]
      CLEAR_BIT(huart->Instance->CR3, USART_CR3_EIE);
 8006678:	6899      	ldr	r1, [r3, #8]
 800667a:	3523      	adds	r5, #35	; 0x23
 800667c:	35ff      	adds	r5, #255	; 0xff
 800667e:	43a9      	bics	r1, r5
 8006680:	6099      	str	r1, [r3, #8]
      huart->RxState = HAL_UART_STATE_READY;
 8006682:	2320      	movs	r3, #32
 8006684:	7013      	strb	r3, [r2, #0]
      HAL_UART_RxCpltCallback(huart);
 8006686:	f7ff fd3d 	bl	8006104 <HAL_UART_RxCpltCallback>
    /* Clear RXNE interrupt flag */
    __HAL_UART_SEND_REQ(huart, UART_RXDATA_FLUSH_REQUEST);

    return HAL_BUSY;
  }
}
 800668a:	0020      	movs	r0, r4
 800668c:	bd70      	pop	{r4, r5, r6, pc}
      *huart->pRxBuffPtr++ = (uint8_t)(uhdata & (uint8_t)uhMask);
 800668e:	1c5c      	adds	r4, r3, #1
 8006690:	6544      	str	r4, [r0, #84]	; 0x54
 8006692:	7019      	strb	r1, [r3, #0]
 8006694:	e7e2      	b.n	800665c <UART_Receive_IT+0x30>
    __HAL_UART_SEND_REQ(huart, UART_RXDATA_FLUSH_REQUEST);
 8006696:	2208      	movs	r2, #8
 8006698:	6999      	ldr	r1, [r3, #24]
    return HAL_BUSY;
 800669a:	2402      	movs	r4, #2
    __HAL_UART_SEND_REQ(huart, UART_RXDATA_FLUSH_REQUEST);
 800669c:	430a      	orrs	r2, r1
 800669e:	619a      	str	r2, [r3, #24]
    return HAL_BUSY;
 80066a0:	e7f3      	b.n	800668a <UART_Receive_IT+0x5e>
 80066a2:	46c0      	nop			; (mov r8, r8)
 80066a4:	fffffedf 	.word	0xfffffedf

080066a8 <HAL_UART_IRQHandler>:
  errorflags = (isrflags & (uint32_t)(USART_ISR_PE | USART_ISR_FE | USART_ISR_ORE | USART_ISR_NE));
 80066a8:	220f      	movs	r2, #15
{
 80066aa:	b570      	push	{r4, r5, r6, lr}
 80066ac:	0004      	movs	r4, r0
  uint32_t isrflags   = READ_REG(huart->Instance->ISR);
 80066ae:	6800      	ldr	r0, [r0, #0]
 80066b0:	69c3      	ldr	r3, [r0, #28]
  uint32_t cr1its     = READ_REG(huart->Instance->CR1);
 80066b2:	6801      	ldr	r1, [r0, #0]
  errorflags = (isrflags & (uint32_t)(USART_ISR_PE | USART_ISR_FE | USART_ISR_ORE | USART_ISR_NE));
 80066b4:	401a      	ands	r2, r3
  if (errorflags == RESET)
 80066b6:	d108      	bne.n	80066ca <HAL_UART_IRQHandler+0x22>
    if(((isrflags & USART_ISR_RXNE) != RESET) && ((cr1its & USART_CR1_RXNEIE) != RESET))
 80066b8:	2520      	movs	r5, #32
 80066ba:	422b      	tst	r3, r5
 80066bc:	d005      	beq.n	80066ca <HAL_UART_IRQHandler+0x22>
 80066be:	4229      	tst	r1, r5
 80066c0:	d003      	beq.n	80066ca <HAL_UART_IRQHandler+0x22>
      UART_Receive_IT(huart);
 80066c2:	0020      	movs	r0, r4
 80066c4:	f7ff ffb2 	bl	800662c <UART_Receive_IT>
}
 80066c8:	bd70      	pop	{r4, r5, r6, pc}
  cr3its = READ_REG(huart->Instance->CR3);
 80066ca:	6885      	ldr	r5, [r0, #8]
  if(   (errorflags != RESET)
 80066cc:	2a00      	cmp	r2, #0
 80066ce:	d060      	beq.n	8006792 <HAL_UART_IRQHandler+0xea>
     && (   ((cr3its & USART_CR3_EIE) != RESET)
 80066d0:	2201      	movs	r2, #1
 80066d2:	4015      	ands	r5, r2
 80066d4:	d103      	bne.n	80066de <HAL_UART_IRQHandler+0x36>
         || ((cr1its & (USART_CR1_RXNEIE | USART_CR1_PEIE)) != RESET)) )
 80066d6:	2690      	movs	r6, #144	; 0x90
 80066d8:	0076      	lsls	r6, r6, #1
 80066da:	4231      	tst	r1, r6
 80066dc:	d059      	beq.n	8006792 <HAL_UART_IRQHandler+0xea>
    if(((isrflags & USART_ISR_PE) != RESET) && ((cr1its & USART_CR1_PEIE) != RESET))
 80066de:	4213      	tst	r3, r2
 80066e0:	d005      	beq.n	80066ee <HAL_UART_IRQHandler+0x46>
 80066e2:	05ce      	lsls	r6, r1, #23
 80066e4:	d503      	bpl.n	80066ee <HAL_UART_IRQHandler+0x46>
      __HAL_UART_CLEAR_IT(huart, UART_CLEAR_PEF);
 80066e6:	6202      	str	r2, [r0, #32]
      huart->ErrorCode |= HAL_UART_ERROR_PE;
 80066e8:	6ee6      	ldr	r6, [r4, #108]	; 0x6c
 80066ea:	4332      	orrs	r2, r6
 80066ec:	66e2      	str	r2, [r4, #108]	; 0x6c
    if(((isrflags & USART_ISR_FE) != RESET) && ((cr3its & USART_CR3_EIE) != RESET))
 80066ee:	2202      	movs	r2, #2
 80066f0:	4213      	tst	r3, r2
 80066f2:	d006      	beq.n	8006702 <HAL_UART_IRQHandler+0x5a>
 80066f4:	2d00      	cmp	r5, #0
 80066f6:	d004      	beq.n	8006702 <HAL_UART_IRQHandler+0x5a>
      __HAL_UART_CLEAR_IT(huart, UART_CLEAR_FEF);
 80066f8:	6202      	str	r2, [r0, #32]
      huart->ErrorCode |= HAL_UART_ERROR_FE;
 80066fa:	6ee6      	ldr	r6, [r4, #108]	; 0x6c
 80066fc:	1892      	adds	r2, r2, r2
 80066fe:	4332      	orrs	r2, r6
 8006700:	66e2      	str	r2, [r4, #108]	; 0x6c
    if(((isrflags & USART_ISR_NE) != RESET) && ((cr3its & USART_CR3_EIE) != RESET))
 8006702:	2204      	movs	r2, #4
 8006704:	4213      	tst	r3, r2
 8006706:	d006      	beq.n	8006716 <HAL_UART_IRQHandler+0x6e>
 8006708:	2d00      	cmp	r5, #0
 800670a:	d004      	beq.n	8006716 <HAL_UART_IRQHandler+0x6e>
      __HAL_UART_CLEAR_IT(huart, UART_CLEAR_NEF);
 800670c:	6202      	str	r2, [r0, #32]
      huart->ErrorCode |= HAL_UART_ERROR_NE;
 800670e:	6ee6      	ldr	r6, [r4, #108]	; 0x6c
 8006710:	3a02      	subs	r2, #2
 8006712:	4332      	orrs	r2, r6
 8006714:	66e2      	str	r2, [r4, #108]	; 0x6c
    if(((isrflags & USART_ISR_ORE) != RESET) &&
 8006716:	071a      	lsls	r2, r3, #28
 8006718:	d508      	bpl.n	800672c <HAL_UART_IRQHandler+0x84>
 800671a:	068a      	lsls	r2, r1, #26
 800671c:	d401      	bmi.n	8006722 <HAL_UART_IRQHandler+0x7a>
       (((cr1its & USART_CR1_RXNEIE) != RESET) || ((cr3its & USART_CR3_EIE) != RESET)))
 800671e:	2d00      	cmp	r5, #0
 8006720:	d004      	beq.n	800672c <HAL_UART_IRQHandler+0x84>
      __HAL_UART_CLEAR_IT(huart, UART_CLEAR_OREF);
 8006722:	2208      	movs	r2, #8
 8006724:	6202      	str	r2, [r0, #32]
      huart->ErrorCode |= HAL_UART_ERROR_ORE;
 8006726:	6ee0      	ldr	r0, [r4, #108]	; 0x6c
 8006728:	4302      	orrs	r2, r0
 800672a:	66e2      	str	r2, [r4, #108]	; 0x6c
    if(huart->ErrorCode != HAL_UART_ERROR_NONE)
 800672c:	6ee2      	ldr	r2, [r4, #108]	; 0x6c
 800672e:	2a00      	cmp	r2, #0
 8006730:	d0ca      	beq.n	80066c8 <HAL_UART_IRQHandler+0x20>
      if(((isrflags & USART_ISR_RXNE) != RESET) && ((cr1its & USART_CR1_RXNEIE) != RESET))
 8006732:	2220      	movs	r2, #32
 8006734:	4213      	tst	r3, r2
 8006736:	d004      	beq.n	8006742 <HAL_UART_IRQHandler+0x9a>
 8006738:	4211      	tst	r1, r2
 800673a:	d002      	beq.n	8006742 <HAL_UART_IRQHandler+0x9a>
        UART_Receive_IT(huart);
 800673c:	0020      	movs	r0, r4
 800673e:	f7ff ff75 	bl	800662c <UART_Receive_IT>
      if (((huart->ErrorCode & HAL_UART_ERROR_ORE) != RESET) ||
 8006742:	6ee3      	ldr	r3, [r4, #108]	; 0x6c
        UART_EndRxTransfer(huart);
 8006744:	0020      	movs	r0, r4
      if (((huart->ErrorCode & HAL_UART_ERROR_ORE) != RESET) ||
 8006746:	071b      	lsls	r3, r3, #28
 8006748:	d404      	bmi.n	8006754 <HAL_UART_IRQHandler+0xac>
          (HAL_IS_BIT_SET(huart->Instance->CR3, USART_CR3_DMAR)))
 800674a:	6823      	ldr	r3, [r4, #0]
 800674c:	689d      	ldr	r5, [r3, #8]
 800674e:	2340      	movs	r3, #64	; 0x40
 8006750:	401d      	ands	r5, r3
      if (((huart->ErrorCode & HAL_UART_ERROR_ORE) != RESET) ||
 8006752:	d01a      	beq.n	800678a <HAL_UART_IRQHandler+0xe2>
        UART_EndRxTransfer(huart);
 8006754:	f7ff fc62 	bl	800601c <UART_EndRxTransfer>
        if (HAL_IS_BIT_SET(huart->Instance->CR3, USART_CR3_DMAR))
 8006758:	2140      	movs	r1, #64	; 0x40
 800675a:	6823      	ldr	r3, [r4, #0]
 800675c:	689a      	ldr	r2, [r3, #8]
 800675e:	420a      	tst	r2, r1
 8006760:	d00f      	beq.n	8006782 <HAL_UART_IRQHandler+0xda>
          CLEAR_BIT(huart->Instance->CR3, USART_CR3_DMAR);
 8006762:	689a      	ldr	r2, [r3, #8]
          if(huart->hdmarx != NULL)
 8006764:	6e60      	ldr	r0, [r4, #100]	; 0x64
          CLEAR_BIT(huart->Instance->CR3, USART_CR3_DMAR);
 8006766:	438a      	bics	r2, r1
 8006768:	609a      	str	r2, [r3, #8]
          if(huart->hdmarx != NULL)
 800676a:	2800      	cmp	r0, #0
 800676c:	d009      	beq.n	8006782 <HAL_UART_IRQHandler+0xda>
            huart->hdmarx->XferAbortCallback = UART_DMAAbortOnError;
 800676e:	4b13      	ldr	r3, [pc, #76]	; (80067bc <HAL_UART_IRQHandler+0x114>)
 8006770:	6343      	str	r3, [r0, #52]	; 0x34
            if(HAL_DMA_Abort_IT(huart->hdmarx) != HAL_OK)
 8006772:	f7fd fb63 	bl	8003e3c <HAL_DMA_Abort_IT>
 8006776:	2800      	cmp	r0, #0
 8006778:	d0a6      	beq.n	80066c8 <HAL_UART_IRQHandler+0x20>
              huart->hdmarx->XferAbortCallback(huart->hdmarx);
 800677a:	6e60      	ldr	r0, [r4, #100]	; 0x64
 800677c:	6b43      	ldr	r3, [r0, #52]	; 0x34
 800677e:	4798      	blx	r3
 8006780:	e7a2      	b.n	80066c8 <HAL_UART_IRQHandler+0x20>
            HAL_UART_ErrorCallback(huart);
 8006782:	0020      	movs	r0, r4
 8006784:	f7ff fcbf 	bl	8006106 <HAL_UART_ErrorCallback>
 8006788:	e79e      	b.n	80066c8 <HAL_UART_IRQHandler+0x20>
        HAL_UART_ErrorCallback(huart);
 800678a:	f7ff fcbc 	bl	8006106 <HAL_UART_ErrorCallback>
        huart->ErrorCode = HAL_UART_ERROR_NONE;
 800678e:	66e5      	str	r5, [r4, #108]	; 0x6c
 8006790:	e79a      	b.n	80066c8 <HAL_UART_IRQHandler+0x20>
  if(((isrflags & USART_ISR_TXE) != RESET) && ((cr1its & USART_CR1_TXEIE) != RESET))
 8006792:	2280      	movs	r2, #128	; 0x80
 8006794:	4213      	tst	r3, r2
 8006796:	d005      	beq.n	80067a4 <HAL_UART_IRQHandler+0xfc>
 8006798:	4211      	tst	r1, r2
 800679a:	d003      	beq.n	80067a4 <HAL_UART_IRQHandler+0xfc>
    UART_Transmit_IT(huart);
 800679c:	0020      	movs	r0, r4
 800679e:	f7ff ff05 	bl	80065ac <UART_Transmit_IT>
    return;
 80067a2:	e791      	b.n	80066c8 <HAL_UART_IRQHandler+0x20>
  if(((isrflags & USART_ISR_TC) != RESET) && ((cr1its & USART_CR1_TCIE) != RESET))
 80067a4:	2240      	movs	r2, #64	; 0x40
 80067a6:	4213      	tst	r3, r2
 80067a8:	d100      	bne.n	80067ac <HAL_UART_IRQHandler+0x104>
 80067aa:	e78d      	b.n	80066c8 <HAL_UART_IRQHandler+0x20>
 80067ac:	4211      	tst	r1, r2
 80067ae:	d100      	bne.n	80067b2 <HAL_UART_IRQHandler+0x10a>
 80067b0:	e78a      	b.n	80066c8 <HAL_UART_IRQHandler+0x20>
    UART_EndTransmit_IT(huart);
 80067b2:	0020      	movs	r0, r4
 80067b4:	f7ff ff2c 	bl	8006610 <UART_EndTransmit_IT>
    return;
 80067b8:	e786      	b.n	80066c8 <HAL_UART_IRQHandler+0x20>
 80067ba:	46c0      	nop			; (mov r8, r8)
 80067bc:	08006163 	.word	0x08006163

080067c0 <Reset_Handler>:

  .section .text.Reset_Handler
  .weak Reset_Handler
  .type Reset_Handler, %function
Reset_Handler:
  ldr   r0, =_estack
 80067c0:	480d      	ldr	r0, [pc, #52]	; (80067f8 <LoopForever+0x2>)
  mov   sp, r0          /* set stack pointer */
 80067c2:	4685      	mov	sp, r0

/* Copy the data segment initializers from flash to SRAM */
  ldr r0, =_sdata
 80067c4:	480d      	ldr	r0, [pc, #52]	; (80067fc <LoopForever+0x6>)
  ldr r1, =_edata
 80067c6:	490e      	ldr	r1, [pc, #56]	; (8006800 <LoopForever+0xa>)
  ldr r2, =_sidata
 80067c8:	4a0e      	ldr	r2, [pc, #56]	; (8006804 <LoopForever+0xe>)
  movs r3, #0
 80067ca:	2300      	movs	r3, #0
  b LoopCopyDataInit
 80067cc:	e002      	b.n	80067d4 <LoopCopyDataInit>

080067ce <CopyDataInit>:

CopyDataInit:
  ldr r4, [r2, r3]
 80067ce:	58d4      	ldr	r4, [r2, r3]
  str r4, [r0, r3]
 80067d0:	50c4      	str	r4, [r0, r3]
  adds r3, r3, #4
 80067d2:	3304      	adds	r3, #4

080067d4 <LoopCopyDataInit>:

LoopCopyDataInit:
  adds r4, r0, r3
 80067d4:	18c4      	adds	r4, r0, r3
  cmp r4, r1
 80067d6:	428c      	cmp	r4, r1
  bcc CopyDataInit
 80067d8:	d3f9      	bcc.n	80067ce <CopyDataInit>
  
/* Zero fill the bss segment. */
  ldr r2, =_sbss
 80067da:	4a0b      	ldr	r2, [pc, #44]	; (8006808 <LoopForever+0x12>)
  ldr r4, =_ebss
 80067dc:	4c0b      	ldr	r4, [pc, #44]	; (800680c <LoopForever+0x16>)
  movs r3, #0
 80067de:	2300      	movs	r3, #0
  b LoopFillZerobss
 80067e0:	e001      	b.n	80067e6 <LoopFillZerobss>

080067e2 <FillZerobss>:

FillZerobss:
  str  r3, [r2]
 80067e2:	6013      	str	r3, [r2, #0]
  adds r2, r2, #4
 80067e4:	3204      	adds	r2, #4

080067e6 <LoopFillZerobss>:

LoopFillZerobss:
  cmp r2, r4
 80067e6:	42a2      	cmp	r2, r4
  bcc FillZerobss
 80067e8:	d3fb      	bcc.n	80067e2 <FillZerobss>

/* Call the clock system intitialization function.*/
  bl  SystemInit
 80067ea:	f7fc fb41 	bl	8002e70 <SystemInit>
/* Call static constructors */
  bl __libc_init_array
 80067ee:	f000 f811 	bl	8006814 <__libc_init_array>
/* Call the application's entry point.*/
  bl main
 80067f2:	f7fb fef9 	bl	80025e8 <main>

080067f6 <LoopForever>:

LoopForever:
    b LoopForever
 80067f6:	e7fe      	b.n	80067f6 <LoopForever>
  ldr   r0, =_estack
 80067f8:	20001000 	.word	0x20001000
  ldr r0, =_sdata
 80067fc:	20000000 	.word	0x20000000
  ldr r1, =_edata
 8006800:	200002b0 	.word	0x200002b0
  ldr r2, =_sidata
 8006804:	080076b0 	.word	0x080076b0
  ldr r2, =_sbss
 8006808:	200002b0 	.word	0x200002b0
  ldr r4, =_ebss
 800680c:	200007dc 	.word	0x200007dc

08006810 <DMA1_Channel1_IRQHandler>:
 * @retval : None
*/
    .section .text.Default_Handler,"ax",%progbits
Default_Handler:
Infinite_Loop:
  b Infinite_Loop
 8006810:	e7fe      	b.n	8006810 <DMA1_Channel1_IRQHandler>
	...

08006814 <__libc_init_array>:
 8006814:	b570      	push	{r4, r5, r6, lr}
 8006816:	2600      	movs	r6, #0
 8006818:	4d0c      	ldr	r5, [pc, #48]	; (800684c <__libc_init_array+0x38>)
 800681a:	4c0d      	ldr	r4, [pc, #52]	; (8006850 <__libc_init_array+0x3c>)
 800681c:	1b64      	subs	r4, r4, r5
 800681e:	10a4      	asrs	r4, r4, #2
 8006820:	42a6      	cmp	r6, r4
 8006822:	d109      	bne.n	8006838 <__libc_init_array+0x24>
 8006824:	2600      	movs	r6, #0
 8006826:	f000 fc69 	bl	80070fc <_init>
 800682a:	4d0a      	ldr	r5, [pc, #40]	; (8006854 <__libc_init_array+0x40>)
 800682c:	4c0a      	ldr	r4, [pc, #40]	; (8006858 <__libc_init_array+0x44>)
 800682e:	1b64      	subs	r4, r4, r5
 8006830:	10a4      	asrs	r4, r4, #2
 8006832:	42a6      	cmp	r6, r4
 8006834:	d105      	bne.n	8006842 <__libc_init_array+0x2e>
 8006836:	bd70      	pop	{r4, r5, r6, pc}
 8006838:	00b3      	lsls	r3, r6, #2
 800683a:	58eb      	ldr	r3, [r5, r3]
 800683c:	4798      	blx	r3
 800683e:	3601      	adds	r6, #1
 8006840:	e7ee      	b.n	8006820 <__libc_init_array+0xc>
 8006842:	00b3      	lsls	r3, r6, #2
 8006844:	58eb      	ldr	r3, [r5, r3]
 8006846:	4798      	blx	r3
 8006848:	3601      	adds	r6, #1
 800684a:	e7f2      	b.n	8006832 <__libc_init_array+0x1e>
 800684c:	080076a8 	.word	0x080076a8
 8006850:	080076a8 	.word	0x080076a8
 8006854:	080076a8 	.word	0x080076a8
 8006858:	080076ac 	.word	0x080076ac

0800685c <memcpy>:
 800685c:	2300      	movs	r3, #0
 800685e:	b510      	push	{r4, lr}
 8006860:	429a      	cmp	r2, r3
 8006862:	d100      	bne.n	8006866 <memcpy+0xa>
 8006864:	bd10      	pop	{r4, pc}
 8006866:	5ccc      	ldrb	r4, [r1, r3]
 8006868:	54c4      	strb	r4, [r0, r3]
 800686a:	3301      	adds	r3, #1
 800686c:	e7f8      	b.n	8006860 <memcpy+0x4>

0800686e <memset>:
 800686e:	0003      	movs	r3, r0
 8006870:	1882      	adds	r2, r0, r2
 8006872:	4293      	cmp	r3, r2
 8006874:	d100      	bne.n	8006878 <memset+0xa>
 8006876:	4770      	bx	lr
 8006878:	7019      	strb	r1, [r3, #0]
 800687a:	3301      	adds	r3, #1
 800687c:	e7f9      	b.n	8006872 <memset+0x4>
	...

08006880 <siprintf>:
 8006880:	b40e      	push	{r1, r2, r3}
 8006882:	b510      	push	{r4, lr}
 8006884:	b09d      	sub	sp, #116	; 0x74
 8006886:	a902      	add	r1, sp, #8
 8006888:	9002      	str	r0, [sp, #8]
 800688a:	6108      	str	r0, [r1, #16]
 800688c:	480b      	ldr	r0, [pc, #44]	; (80068bc <siprintf+0x3c>)
 800688e:	2482      	movs	r4, #130	; 0x82
 8006890:	6088      	str	r0, [r1, #8]
 8006892:	6148      	str	r0, [r1, #20]
 8006894:	2001      	movs	r0, #1
 8006896:	4240      	negs	r0, r0
 8006898:	ab1f      	add	r3, sp, #124	; 0x7c
 800689a:	81c8      	strh	r0, [r1, #14]
 800689c:	4808      	ldr	r0, [pc, #32]	; (80068c0 <siprintf+0x40>)
 800689e:	cb04      	ldmia	r3!, {r2}
 80068a0:	00a4      	lsls	r4, r4, #2
 80068a2:	6800      	ldr	r0, [r0, #0]
 80068a4:	9301      	str	r3, [sp, #4]
 80068a6:	818c      	strh	r4, [r1, #12]
 80068a8:	f000 f884 	bl	80069b4 <_svfiprintf_r>
 80068ac:	2300      	movs	r3, #0
 80068ae:	9a02      	ldr	r2, [sp, #8]
 80068b0:	7013      	strb	r3, [r2, #0]
 80068b2:	b01d      	add	sp, #116	; 0x74
 80068b4:	bc10      	pop	{r4}
 80068b6:	bc08      	pop	{r3}
 80068b8:	b003      	add	sp, #12
 80068ba:	4718      	bx	r3
 80068bc:	7fffffff 	.word	0x7fffffff
 80068c0:	2000024c 	.word	0x2000024c

080068c4 <strcat>:
 80068c4:	0002      	movs	r2, r0
 80068c6:	b510      	push	{r4, lr}
 80068c8:	7813      	ldrb	r3, [r2, #0]
 80068ca:	2b00      	cmp	r3, #0
 80068cc:	d105      	bne.n	80068da <strcat+0x16>
 80068ce:	5ccc      	ldrb	r4, [r1, r3]
 80068d0:	54d4      	strb	r4, [r2, r3]
 80068d2:	3301      	adds	r3, #1
 80068d4:	2c00      	cmp	r4, #0
 80068d6:	d1fa      	bne.n	80068ce <strcat+0xa>
 80068d8:	bd10      	pop	{r4, pc}
 80068da:	3201      	adds	r2, #1
 80068dc:	e7f4      	b.n	80068c8 <strcat+0x4>

080068de <strcpy>:
 80068de:	1c03      	adds	r3, r0, #0
 80068e0:	780a      	ldrb	r2, [r1, #0]
 80068e2:	3101      	adds	r1, #1
 80068e4:	701a      	strb	r2, [r3, #0]
 80068e6:	3301      	adds	r3, #1
 80068e8:	2a00      	cmp	r2, #0
 80068ea:	d1f9      	bne.n	80068e0 <strcpy+0x2>
 80068ec:	4770      	bx	lr
	...

080068f0 <__ssputs_r>:
 80068f0:	b5f0      	push	{r4, r5, r6, r7, lr}
 80068f2:	688e      	ldr	r6, [r1, #8]
 80068f4:	b085      	sub	sp, #20
 80068f6:	0007      	movs	r7, r0
 80068f8:	000c      	movs	r4, r1
 80068fa:	9203      	str	r2, [sp, #12]
 80068fc:	9301      	str	r3, [sp, #4]
 80068fe:	429e      	cmp	r6, r3
 8006900:	d839      	bhi.n	8006976 <__ssputs_r+0x86>
 8006902:	2390      	movs	r3, #144	; 0x90
 8006904:	898a      	ldrh	r2, [r1, #12]
 8006906:	00db      	lsls	r3, r3, #3
 8006908:	421a      	tst	r2, r3
 800690a:	d034      	beq.n	8006976 <__ssputs_r+0x86>
 800690c:	2503      	movs	r5, #3
 800690e:	6909      	ldr	r1, [r1, #16]
 8006910:	6823      	ldr	r3, [r4, #0]
 8006912:	1a5b      	subs	r3, r3, r1
 8006914:	9302      	str	r3, [sp, #8]
 8006916:	6963      	ldr	r3, [r4, #20]
 8006918:	9802      	ldr	r0, [sp, #8]
 800691a:	435d      	muls	r5, r3
 800691c:	0feb      	lsrs	r3, r5, #31
 800691e:	195d      	adds	r5, r3, r5
 8006920:	9b01      	ldr	r3, [sp, #4]
 8006922:	106d      	asrs	r5, r5, #1
 8006924:	3301      	adds	r3, #1
 8006926:	181b      	adds	r3, r3, r0
 8006928:	42ab      	cmp	r3, r5
 800692a:	d900      	bls.n	800692e <__ssputs_r+0x3e>
 800692c:	001d      	movs	r5, r3
 800692e:	0553      	lsls	r3, r2, #21
 8006930:	d532      	bpl.n	8006998 <__ssputs_r+0xa8>
 8006932:	0029      	movs	r1, r5
 8006934:	0038      	movs	r0, r7
 8006936:	f000 fb31 	bl	8006f9c <_malloc_r>
 800693a:	1e06      	subs	r6, r0, #0
 800693c:	d109      	bne.n	8006952 <__ssputs_r+0x62>
 800693e:	230c      	movs	r3, #12
 8006940:	603b      	str	r3, [r7, #0]
 8006942:	2340      	movs	r3, #64	; 0x40
 8006944:	2001      	movs	r0, #1
 8006946:	89a2      	ldrh	r2, [r4, #12]
 8006948:	4240      	negs	r0, r0
 800694a:	4313      	orrs	r3, r2
 800694c:	81a3      	strh	r3, [r4, #12]
 800694e:	b005      	add	sp, #20
 8006950:	bdf0      	pop	{r4, r5, r6, r7, pc}
 8006952:	9a02      	ldr	r2, [sp, #8]
 8006954:	6921      	ldr	r1, [r4, #16]
 8006956:	f7ff ff81 	bl	800685c <memcpy>
 800695a:	89a3      	ldrh	r3, [r4, #12]
 800695c:	4a14      	ldr	r2, [pc, #80]	; (80069b0 <__ssputs_r+0xc0>)
 800695e:	401a      	ands	r2, r3
 8006960:	2380      	movs	r3, #128	; 0x80
 8006962:	4313      	orrs	r3, r2
 8006964:	81a3      	strh	r3, [r4, #12]
 8006966:	9b02      	ldr	r3, [sp, #8]
 8006968:	6126      	str	r6, [r4, #16]
 800696a:	18f6      	adds	r6, r6, r3
 800696c:	6026      	str	r6, [r4, #0]
 800696e:	6165      	str	r5, [r4, #20]
 8006970:	9e01      	ldr	r6, [sp, #4]
 8006972:	1aed      	subs	r5, r5, r3
 8006974:	60a5      	str	r5, [r4, #8]
 8006976:	9b01      	ldr	r3, [sp, #4]
 8006978:	42b3      	cmp	r3, r6
 800697a:	d200      	bcs.n	800697e <__ssputs_r+0x8e>
 800697c:	001e      	movs	r6, r3
 800697e:	0032      	movs	r2, r6
 8006980:	9903      	ldr	r1, [sp, #12]
 8006982:	6820      	ldr	r0, [r4, #0]
 8006984:	f000 faad 	bl	8006ee2 <memmove>
 8006988:	68a3      	ldr	r3, [r4, #8]
 800698a:	2000      	movs	r0, #0
 800698c:	1b9b      	subs	r3, r3, r6
 800698e:	60a3      	str	r3, [r4, #8]
 8006990:	6823      	ldr	r3, [r4, #0]
 8006992:	199e      	adds	r6, r3, r6
 8006994:	6026      	str	r6, [r4, #0]
 8006996:	e7da      	b.n	800694e <__ssputs_r+0x5e>
 8006998:	002a      	movs	r2, r5
 800699a:	0038      	movs	r0, r7
 800699c:	f000 fb5c 	bl	8007058 <_realloc_r>
 80069a0:	1e06      	subs	r6, r0, #0
 80069a2:	d1e0      	bne.n	8006966 <__ssputs_r+0x76>
 80069a4:	6921      	ldr	r1, [r4, #16]
 80069a6:	0038      	movs	r0, r7
 80069a8:	f000 faae 	bl	8006f08 <_free_r>
 80069ac:	e7c7      	b.n	800693e <__ssputs_r+0x4e>
 80069ae:	46c0      	nop			; (mov r8, r8)
 80069b0:	fffffb7f 	.word	0xfffffb7f

080069b4 <_svfiprintf_r>:
 80069b4:	b5f0      	push	{r4, r5, r6, r7, lr}
 80069b6:	b09f      	sub	sp, #124	; 0x7c
 80069b8:	9002      	str	r0, [sp, #8]
 80069ba:	9305      	str	r3, [sp, #20]
 80069bc:	898b      	ldrh	r3, [r1, #12]
 80069be:	000f      	movs	r7, r1
 80069c0:	0016      	movs	r6, r2
 80069c2:	061b      	lsls	r3, r3, #24
 80069c4:	d511      	bpl.n	80069ea <_svfiprintf_r+0x36>
 80069c6:	690b      	ldr	r3, [r1, #16]
 80069c8:	2b00      	cmp	r3, #0
 80069ca:	d10e      	bne.n	80069ea <_svfiprintf_r+0x36>
 80069cc:	2140      	movs	r1, #64	; 0x40
 80069ce:	f000 fae5 	bl	8006f9c <_malloc_r>
 80069d2:	6038      	str	r0, [r7, #0]
 80069d4:	6138      	str	r0, [r7, #16]
 80069d6:	2800      	cmp	r0, #0
 80069d8:	d105      	bne.n	80069e6 <_svfiprintf_r+0x32>
 80069da:	230c      	movs	r3, #12
 80069dc:	9a02      	ldr	r2, [sp, #8]
 80069de:	3801      	subs	r0, #1
 80069e0:	6013      	str	r3, [r2, #0]
 80069e2:	b01f      	add	sp, #124	; 0x7c
 80069e4:	bdf0      	pop	{r4, r5, r6, r7, pc}
 80069e6:	2340      	movs	r3, #64	; 0x40
 80069e8:	617b      	str	r3, [r7, #20]
 80069ea:	2300      	movs	r3, #0
 80069ec:	ad06      	add	r5, sp, #24
 80069ee:	616b      	str	r3, [r5, #20]
 80069f0:	3320      	adds	r3, #32
 80069f2:	766b      	strb	r3, [r5, #25]
 80069f4:	3310      	adds	r3, #16
 80069f6:	76ab      	strb	r3, [r5, #26]
 80069f8:	0034      	movs	r4, r6
 80069fa:	7823      	ldrb	r3, [r4, #0]
 80069fc:	2b00      	cmp	r3, #0
 80069fe:	d147      	bne.n	8006a90 <_svfiprintf_r+0xdc>
 8006a00:	1ba3      	subs	r3, r4, r6
 8006a02:	9304      	str	r3, [sp, #16]
 8006a04:	d00d      	beq.n	8006a22 <_svfiprintf_r+0x6e>
 8006a06:	1ba3      	subs	r3, r4, r6
 8006a08:	0032      	movs	r2, r6
 8006a0a:	0039      	movs	r1, r7
 8006a0c:	9802      	ldr	r0, [sp, #8]
 8006a0e:	f7ff ff6f 	bl	80068f0 <__ssputs_r>
 8006a12:	1c43      	adds	r3, r0, #1
 8006a14:	d100      	bne.n	8006a18 <_svfiprintf_r+0x64>
 8006a16:	e0b5      	b.n	8006b84 <_svfiprintf_r+0x1d0>
 8006a18:	696a      	ldr	r2, [r5, #20]
 8006a1a:	9b04      	ldr	r3, [sp, #16]
 8006a1c:	4694      	mov	ip, r2
 8006a1e:	4463      	add	r3, ip
 8006a20:	616b      	str	r3, [r5, #20]
 8006a22:	7823      	ldrb	r3, [r4, #0]
 8006a24:	2b00      	cmp	r3, #0
 8006a26:	d100      	bne.n	8006a2a <_svfiprintf_r+0x76>
 8006a28:	e0ac      	b.n	8006b84 <_svfiprintf_r+0x1d0>
 8006a2a:	2201      	movs	r2, #1
 8006a2c:	2300      	movs	r3, #0
 8006a2e:	4252      	negs	r2, r2
 8006a30:	606a      	str	r2, [r5, #4]
 8006a32:	a902      	add	r1, sp, #8
 8006a34:	3254      	adds	r2, #84	; 0x54
 8006a36:	1852      	adds	r2, r2, r1
 8006a38:	3401      	adds	r4, #1
 8006a3a:	602b      	str	r3, [r5, #0]
 8006a3c:	60eb      	str	r3, [r5, #12]
 8006a3e:	60ab      	str	r3, [r5, #8]
 8006a40:	7013      	strb	r3, [r2, #0]
 8006a42:	65ab      	str	r3, [r5, #88]	; 0x58
 8006a44:	4e58      	ldr	r6, [pc, #352]	; (8006ba8 <_svfiprintf_r+0x1f4>)
 8006a46:	2205      	movs	r2, #5
 8006a48:	7821      	ldrb	r1, [r4, #0]
 8006a4a:	0030      	movs	r0, r6
 8006a4c:	f000 fa3e 	bl	8006ecc <memchr>
 8006a50:	1c62      	adds	r2, r4, #1
 8006a52:	2800      	cmp	r0, #0
 8006a54:	d120      	bne.n	8006a98 <_svfiprintf_r+0xe4>
 8006a56:	6829      	ldr	r1, [r5, #0]
 8006a58:	06cb      	lsls	r3, r1, #27
 8006a5a:	d504      	bpl.n	8006a66 <_svfiprintf_r+0xb2>
 8006a5c:	2353      	movs	r3, #83	; 0x53
 8006a5e:	ae02      	add	r6, sp, #8
 8006a60:	3020      	adds	r0, #32
 8006a62:	199b      	adds	r3, r3, r6
 8006a64:	7018      	strb	r0, [r3, #0]
 8006a66:	070b      	lsls	r3, r1, #28
 8006a68:	d504      	bpl.n	8006a74 <_svfiprintf_r+0xc0>
 8006a6a:	2353      	movs	r3, #83	; 0x53
 8006a6c:	202b      	movs	r0, #43	; 0x2b
 8006a6e:	ae02      	add	r6, sp, #8
 8006a70:	199b      	adds	r3, r3, r6
 8006a72:	7018      	strb	r0, [r3, #0]
 8006a74:	7823      	ldrb	r3, [r4, #0]
 8006a76:	2b2a      	cmp	r3, #42	; 0x2a
 8006a78:	d016      	beq.n	8006aa8 <_svfiprintf_r+0xf4>
 8006a7a:	2000      	movs	r0, #0
 8006a7c:	210a      	movs	r1, #10
 8006a7e:	9b09      	ldr	r3, [sp, #36]	; 0x24
 8006a80:	7822      	ldrb	r2, [r4, #0]
 8006a82:	3a30      	subs	r2, #48	; 0x30
 8006a84:	2a09      	cmp	r2, #9
 8006a86:	d955      	bls.n	8006b34 <_svfiprintf_r+0x180>
 8006a88:	2800      	cmp	r0, #0
 8006a8a:	d015      	beq.n	8006ab8 <_svfiprintf_r+0x104>
 8006a8c:	9309      	str	r3, [sp, #36]	; 0x24
 8006a8e:	e013      	b.n	8006ab8 <_svfiprintf_r+0x104>
 8006a90:	2b25      	cmp	r3, #37	; 0x25
 8006a92:	d0b5      	beq.n	8006a00 <_svfiprintf_r+0x4c>
 8006a94:	3401      	adds	r4, #1
 8006a96:	e7b0      	b.n	80069fa <_svfiprintf_r+0x46>
 8006a98:	2301      	movs	r3, #1
 8006a9a:	1b80      	subs	r0, r0, r6
 8006a9c:	4083      	lsls	r3, r0
 8006a9e:	6829      	ldr	r1, [r5, #0]
 8006aa0:	0014      	movs	r4, r2
 8006aa2:	430b      	orrs	r3, r1
 8006aa4:	602b      	str	r3, [r5, #0]
 8006aa6:	e7cd      	b.n	8006a44 <_svfiprintf_r+0x90>
 8006aa8:	9b05      	ldr	r3, [sp, #20]
 8006aaa:	1d18      	adds	r0, r3, #4
 8006aac:	681b      	ldr	r3, [r3, #0]
 8006aae:	9005      	str	r0, [sp, #20]
 8006ab0:	2b00      	cmp	r3, #0
 8006ab2:	db39      	blt.n	8006b28 <_svfiprintf_r+0x174>
 8006ab4:	9309      	str	r3, [sp, #36]	; 0x24
 8006ab6:	0014      	movs	r4, r2
 8006ab8:	7823      	ldrb	r3, [r4, #0]
 8006aba:	2b2e      	cmp	r3, #46	; 0x2e
 8006abc:	d10b      	bne.n	8006ad6 <_svfiprintf_r+0x122>
 8006abe:	7863      	ldrb	r3, [r4, #1]
 8006ac0:	1c62      	adds	r2, r4, #1
 8006ac2:	2b2a      	cmp	r3, #42	; 0x2a
 8006ac4:	d13e      	bne.n	8006b44 <_svfiprintf_r+0x190>
 8006ac6:	9b05      	ldr	r3, [sp, #20]
 8006ac8:	3402      	adds	r4, #2
 8006aca:	1d1a      	adds	r2, r3, #4
 8006acc:	681b      	ldr	r3, [r3, #0]
 8006ace:	9205      	str	r2, [sp, #20]
 8006ad0:	2b00      	cmp	r3, #0
 8006ad2:	db34      	blt.n	8006b3e <_svfiprintf_r+0x18a>
 8006ad4:	9307      	str	r3, [sp, #28]
 8006ad6:	4e35      	ldr	r6, [pc, #212]	; (8006bac <_svfiprintf_r+0x1f8>)
 8006ad8:	7821      	ldrb	r1, [r4, #0]
 8006ada:	2203      	movs	r2, #3
 8006adc:	0030      	movs	r0, r6
 8006ade:	f000 f9f5 	bl	8006ecc <memchr>
 8006ae2:	2800      	cmp	r0, #0
 8006ae4:	d006      	beq.n	8006af4 <_svfiprintf_r+0x140>
 8006ae6:	2340      	movs	r3, #64	; 0x40
 8006ae8:	1b80      	subs	r0, r0, r6
 8006aea:	4083      	lsls	r3, r0
 8006aec:	682a      	ldr	r2, [r5, #0]
 8006aee:	3401      	adds	r4, #1
 8006af0:	4313      	orrs	r3, r2
 8006af2:	602b      	str	r3, [r5, #0]
 8006af4:	7821      	ldrb	r1, [r4, #0]
 8006af6:	2206      	movs	r2, #6
 8006af8:	482d      	ldr	r0, [pc, #180]	; (8006bb0 <_svfiprintf_r+0x1fc>)
 8006afa:	1c66      	adds	r6, r4, #1
 8006afc:	7629      	strb	r1, [r5, #24]
 8006afe:	f000 f9e5 	bl	8006ecc <memchr>
 8006b02:	2800      	cmp	r0, #0
 8006b04:	d046      	beq.n	8006b94 <_svfiprintf_r+0x1e0>
 8006b06:	4b2b      	ldr	r3, [pc, #172]	; (8006bb4 <_svfiprintf_r+0x200>)
 8006b08:	2b00      	cmp	r3, #0
 8006b0a:	d12f      	bne.n	8006b6c <_svfiprintf_r+0x1b8>
 8006b0c:	6829      	ldr	r1, [r5, #0]
 8006b0e:	9b05      	ldr	r3, [sp, #20]
 8006b10:	2207      	movs	r2, #7
 8006b12:	05c9      	lsls	r1, r1, #23
 8006b14:	d528      	bpl.n	8006b68 <_svfiprintf_r+0x1b4>
 8006b16:	189b      	adds	r3, r3, r2
 8006b18:	4393      	bics	r3, r2
 8006b1a:	3308      	adds	r3, #8
 8006b1c:	9305      	str	r3, [sp, #20]
 8006b1e:	696b      	ldr	r3, [r5, #20]
 8006b20:	9a03      	ldr	r2, [sp, #12]
 8006b22:	189b      	adds	r3, r3, r2
 8006b24:	616b      	str	r3, [r5, #20]
 8006b26:	e767      	b.n	80069f8 <_svfiprintf_r+0x44>
 8006b28:	425b      	negs	r3, r3
 8006b2a:	60eb      	str	r3, [r5, #12]
 8006b2c:	2302      	movs	r3, #2
 8006b2e:	430b      	orrs	r3, r1
 8006b30:	602b      	str	r3, [r5, #0]
 8006b32:	e7c0      	b.n	8006ab6 <_svfiprintf_r+0x102>
 8006b34:	434b      	muls	r3, r1
 8006b36:	3401      	adds	r4, #1
 8006b38:	189b      	adds	r3, r3, r2
 8006b3a:	2001      	movs	r0, #1
 8006b3c:	e7a0      	b.n	8006a80 <_svfiprintf_r+0xcc>
 8006b3e:	2301      	movs	r3, #1
 8006b40:	425b      	negs	r3, r3
 8006b42:	e7c7      	b.n	8006ad4 <_svfiprintf_r+0x120>
 8006b44:	2300      	movs	r3, #0
 8006b46:	0014      	movs	r4, r2
 8006b48:	200a      	movs	r0, #10
 8006b4a:	001a      	movs	r2, r3
 8006b4c:	606b      	str	r3, [r5, #4]
 8006b4e:	7821      	ldrb	r1, [r4, #0]
 8006b50:	3930      	subs	r1, #48	; 0x30
 8006b52:	2909      	cmp	r1, #9
 8006b54:	d903      	bls.n	8006b5e <_svfiprintf_r+0x1aa>
 8006b56:	2b00      	cmp	r3, #0
 8006b58:	d0bd      	beq.n	8006ad6 <_svfiprintf_r+0x122>
 8006b5a:	9207      	str	r2, [sp, #28]
 8006b5c:	e7bb      	b.n	8006ad6 <_svfiprintf_r+0x122>
 8006b5e:	4342      	muls	r2, r0
 8006b60:	3401      	adds	r4, #1
 8006b62:	1852      	adds	r2, r2, r1
 8006b64:	2301      	movs	r3, #1
 8006b66:	e7f2      	b.n	8006b4e <_svfiprintf_r+0x19a>
 8006b68:	3307      	adds	r3, #7
 8006b6a:	e7d5      	b.n	8006b18 <_svfiprintf_r+0x164>
 8006b6c:	ab05      	add	r3, sp, #20
 8006b6e:	9300      	str	r3, [sp, #0]
 8006b70:	003a      	movs	r2, r7
 8006b72:	4b11      	ldr	r3, [pc, #68]	; (8006bb8 <_svfiprintf_r+0x204>)
 8006b74:	0029      	movs	r1, r5
 8006b76:	9802      	ldr	r0, [sp, #8]
 8006b78:	e000      	b.n	8006b7c <_svfiprintf_r+0x1c8>
 8006b7a:	bf00      	nop
 8006b7c:	9003      	str	r0, [sp, #12]
 8006b7e:	9b03      	ldr	r3, [sp, #12]
 8006b80:	3301      	adds	r3, #1
 8006b82:	d1cc      	bne.n	8006b1e <_svfiprintf_r+0x16a>
 8006b84:	89bb      	ldrh	r3, [r7, #12]
 8006b86:	980b      	ldr	r0, [sp, #44]	; 0x2c
 8006b88:	065b      	lsls	r3, r3, #25
 8006b8a:	d400      	bmi.n	8006b8e <_svfiprintf_r+0x1da>
 8006b8c:	e729      	b.n	80069e2 <_svfiprintf_r+0x2e>
 8006b8e:	2001      	movs	r0, #1
 8006b90:	4240      	negs	r0, r0
 8006b92:	e726      	b.n	80069e2 <_svfiprintf_r+0x2e>
 8006b94:	ab05      	add	r3, sp, #20
 8006b96:	9300      	str	r3, [sp, #0]
 8006b98:	003a      	movs	r2, r7
 8006b9a:	4b07      	ldr	r3, [pc, #28]	; (8006bb8 <_svfiprintf_r+0x204>)
 8006b9c:	0029      	movs	r1, r5
 8006b9e:	9802      	ldr	r0, [sp, #8]
 8006ba0:	f000 f87a 	bl	8006c98 <_printf_i>
 8006ba4:	e7ea      	b.n	8006b7c <_svfiprintf_r+0x1c8>
 8006ba6:	46c0      	nop			; (mov r8, r8)
 8006ba8:	08007674 	.word	0x08007674
 8006bac:	0800767a 	.word	0x0800767a
 8006bb0:	0800767e 	.word	0x0800767e
 8006bb4:	00000000 	.word	0x00000000
 8006bb8:	080068f1 	.word	0x080068f1

08006bbc <_printf_common>:
 8006bbc:	b5f7      	push	{r0, r1, r2, r4, r5, r6, r7, lr}
 8006bbe:	0015      	movs	r5, r2
 8006bc0:	9301      	str	r3, [sp, #4]
 8006bc2:	688a      	ldr	r2, [r1, #8]
 8006bc4:	690b      	ldr	r3, [r1, #16]
 8006bc6:	9000      	str	r0, [sp, #0]
 8006bc8:	000c      	movs	r4, r1
 8006bca:	4293      	cmp	r3, r2
 8006bcc:	da00      	bge.n	8006bd0 <_printf_common+0x14>
 8006bce:	0013      	movs	r3, r2
 8006bd0:	0022      	movs	r2, r4
 8006bd2:	602b      	str	r3, [r5, #0]
 8006bd4:	3243      	adds	r2, #67	; 0x43
 8006bd6:	7812      	ldrb	r2, [r2, #0]
 8006bd8:	2a00      	cmp	r2, #0
 8006bda:	d001      	beq.n	8006be0 <_printf_common+0x24>
 8006bdc:	3301      	adds	r3, #1
 8006bde:	602b      	str	r3, [r5, #0]
 8006be0:	6823      	ldr	r3, [r4, #0]
 8006be2:	069b      	lsls	r3, r3, #26
 8006be4:	d502      	bpl.n	8006bec <_printf_common+0x30>
 8006be6:	682b      	ldr	r3, [r5, #0]
 8006be8:	3302      	adds	r3, #2
 8006bea:	602b      	str	r3, [r5, #0]
 8006bec:	2706      	movs	r7, #6
 8006bee:	6823      	ldr	r3, [r4, #0]
 8006bf0:	401f      	ands	r7, r3
 8006bf2:	d027      	beq.n	8006c44 <_printf_common+0x88>
 8006bf4:	0023      	movs	r3, r4
 8006bf6:	3343      	adds	r3, #67	; 0x43
 8006bf8:	781b      	ldrb	r3, [r3, #0]
 8006bfa:	1e5a      	subs	r2, r3, #1
 8006bfc:	4193      	sbcs	r3, r2
 8006bfe:	6822      	ldr	r2, [r4, #0]
 8006c00:	0692      	lsls	r2, r2, #26
 8006c02:	d430      	bmi.n	8006c66 <_printf_common+0xaa>
 8006c04:	0022      	movs	r2, r4
 8006c06:	9901      	ldr	r1, [sp, #4]
 8006c08:	3243      	adds	r2, #67	; 0x43
 8006c0a:	9800      	ldr	r0, [sp, #0]
 8006c0c:	9e08      	ldr	r6, [sp, #32]
 8006c0e:	47b0      	blx	r6
 8006c10:	1c43      	adds	r3, r0, #1
 8006c12:	d025      	beq.n	8006c60 <_printf_common+0xa4>
 8006c14:	2306      	movs	r3, #6
 8006c16:	6820      	ldr	r0, [r4, #0]
 8006c18:	682a      	ldr	r2, [r5, #0]
 8006c1a:	68e1      	ldr	r1, [r4, #12]
 8006c1c:	4003      	ands	r3, r0
 8006c1e:	2500      	movs	r5, #0
 8006c20:	2b04      	cmp	r3, #4
 8006c22:	d103      	bne.n	8006c2c <_printf_common+0x70>
 8006c24:	1a8d      	subs	r5, r1, r2
 8006c26:	43eb      	mvns	r3, r5
 8006c28:	17db      	asrs	r3, r3, #31
 8006c2a:	401d      	ands	r5, r3
 8006c2c:	68a3      	ldr	r3, [r4, #8]
 8006c2e:	6922      	ldr	r2, [r4, #16]
 8006c30:	4293      	cmp	r3, r2
 8006c32:	dd01      	ble.n	8006c38 <_printf_common+0x7c>
 8006c34:	1a9b      	subs	r3, r3, r2
 8006c36:	18ed      	adds	r5, r5, r3
 8006c38:	2700      	movs	r7, #0
 8006c3a:	42bd      	cmp	r5, r7
 8006c3c:	d120      	bne.n	8006c80 <_printf_common+0xc4>
 8006c3e:	2000      	movs	r0, #0
 8006c40:	e010      	b.n	8006c64 <_printf_common+0xa8>
 8006c42:	3701      	adds	r7, #1
 8006c44:	68e3      	ldr	r3, [r4, #12]
 8006c46:	682a      	ldr	r2, [r5, #0]
 8006c48:	1a9b      	subs	r3, r3, r2
 8006c4a:	429f      	cmp	r7, r3
 8006c4c:	dad2      	bge.n	8006bf4 <_printf_common+0x38>
 8006c4e:	0022      	movs	r2, r4
 8006c50:	2301      	movs	r3, #1
 8006c52:	3219      	adds	r2, #25
 8006c54:	9901      	ldr	r1, [sp, #4]
 8006c56:	9800      	ldr	r0, [sp, #0]
 8006c58:	9e08      	ldr	r6, [sp, #32]
 8006c5a:	47b0      	blx	r6
 8006c5c:	1c43      	adds	r3, r0, #1
 8006c5e:	d1f0      	bne.n	8006c42 <_printf_common+0x86>
 8006c60:	2001      	movs	r0, #1
 8006c62:	4240      	negs	r0, r0
 8006c64:	bdfe      	pop	{r1, r2, r3, r4, r5, r6, r7, pc}
 8006c66:	2030      	movs	r0, #48	; 0x30
 8006c68:	18e1      	adds	r1, r4, r3
 8006c6a:	3143      	adds	r1, #67	; 0x43
 8006c6c:	7008      	strb	r0, [r1, #0]
 8006c6e:	0021      	movs	r1, r4
 8006c70:	1c5a      	adds	r2, r3, #1
 8006c72:	3145      	adds	r1, #69	; 0x45
 8006c74:	7809      	ldrb	r1, [r1, #0]
 8006c76:	18a2      	adds	r2, r4, r2
 8006c78:	3243      	adds	r2, #67	; 0x43
 8006c7a:	3302      	adds	r3, #2
 8006c7c:	7011      	strb	r1, [r2, #0]
 8006c7e:	e7c1      	b.n	8006c04 <_printf_common+0x48>
 8006c80:	0022      	movs	r2, r4
 8006c82:	2301      	movs	r3, #1
 8006c84:	321a      	adds	r2, #26
 8006c86:	9901      	ldr	r1, [sp, #4]
 8006c88:	9800      	ldr	r0, [sp, #0]
 8006c8a:	9e08      	ldr	r6, [sp, #32]
 8006c8c:	47b0      	blx	r6
 8006c8e:	1c43      	adds	r3, r0, #1
 8006c90:	d0e6      	beq.n	8006c60 <_printf_common+0xa4>
 8006c92:	3701      	adds	r7, #1
 8006c94:	e7d1      	b.n	8006c3a <_printf_common+0x7e>
	...

08006c98 <_printf_i>:
 8006c98:	b5f0      	push	{r4, r5, r6, r7, lr}
 8006c9a:	b08b      	sub	sp, #44	; 0x2c
 8006c9c:	9206      	str	r2, [sp, #24]
 8006c9e:	000a      	movs	r2, r1
 8006ca0:	3243      	adds	r2, #67	; 0x43
 8006ca2:	9307      	str	r3, [sp, #28]
 8006ca4:	9005      	str	r0, [sp, #20]
 8006ca6:	9204      	str	r2, [sp, #16]
 8006ca8:	7e0a      	ldrb	r2, [r1, #24]
 8006caa:	000c      	movs	r4, r1
 8006cac:	9b10      	ldr	r3, [sp, #64]	; 0x40
 8006cae:	2a6e      	cmp	r2, #110	; 0x6e
 8006cb0:	d100      	bne.n	8006cb4 <_printf_i+0x1c>
 8006cb2:	e08f      	b.n	8006dd4 <_printf_i+0x13c>
 8006cb4:	d817      	bhi.n	8006ce6 <_printf_i+0x4e>
 8006cb6:	2a63      	cmp	r2, #99	; 0x63
 8006cb8:	d02c      	beq.n	8006d14 <_printf_i+0x7c>
 8006cba:	d808      	bhi.n	8006cce <_printf_i+0x36>
 8006cbc:	2a00      	cmp	r2, #0
 8006cbe:	d100      	bne.n	8006cc2 <_printf_i+0x2a>
 8006cc0:	e099      	b.n	8006df6 <_printf_i+0x15e>
 8006cc2:	2a58      	cmp	r2, #88	; 0x58
 8006cc4:	d054      	beq.n	8006d70 <_printf_i+0xd8>
 8006cc6:	0026      	movs	r6, r4
 8006cc8:	3642      	adds	r6, #66	; 0x42
 8006cca:	7032      	strb	r2, [r6, #0]
 8006ccc:	e029      	b.n	8006d22 <_printf_i+0x8a>
 8006cce:	2a64      	cmp	r2, #100	; 0x64
 8006cd0:	d001      	beq.n	8006cd6 <_printf_i+0x3e>
 8006cd2:	2a69      	cmp	r2, #105	; 0x69
 8006cd4:	d1f7      	bne.n	8006cc6 <_printf_i+0x2e>
 8006cd6:	6821      	ldr	r1, [r4, #0]
 8006cd8:	681a      	ldr	r2, [r3, #0]
 8006cda:	0608      	lsls	r0, r1, #24
 8006cdc:	d523      	bpl.n	8006d26 <_printf_i+0x8e>
 8006cde:	1d11      	adds	r1, r2, #4
 8006ce0:	6019      	str	r1, [r3, #0]
 8006ce2:	6815      	ldr	r5, [r2, #0]
 8006ce4:	e025      	b.n	8006d32 <_printf_i+0x9a>
 8006ce6:	2a73      	cmp	r2, #115	; 0x73
 8006ce8:	d100      	bne.n	8006cec <_printf_i+0x54>
 8006cea:	e088      	b.n	8006dfe <_printf_i+0x166>
 8006cec:	d808      	bhi.n	8006d00 <_printf_i+0x68>
 8006cee:	2a6f      	cmp	r2, #111	; 0x6f
 8006cf0:	d029      	beq.n	8006d46 <_printf_i+0xae>
 8006cf2:	2a70      	cmp	r2, #112	; 0x70
 8006cf4:	d1e7      	bne.n	8006cc6 <_printf_i+0x2e>
 8006cf6:	2220      	movs	r2, #32
 8006cf8:	6809      	ldr	r1, [r1, #0]
 8006cfa:	430a      	orrs	r2, r1
 8006cfc:	6022      	str	r2, [r4, #0]
 8006cfe:	e003      	b.n	8006d08 <_printf_i+0x70>
 8006d00:	2a75      	cmp	r2, #117	; 0x75
 8006d02:	d020      	beq.n	8006d46 <_printf_i+0xae>
 8006d04:	2a78      	cmp	r2, #120	; 0x78
 8006d06:	d1de      	bne.n	8006cc6 <_printf_i+0x2e>
 8006d08:	0022      	movs	r2, r4
 8006d0a:	2178      	movs	r1, #120	; 0x78
 8006d0c:	3245      	adds	r2, #69	; 0x45
 8006d0e:	7011      	strb	r1, [r2, #0]
 8006d10:	4a6c      	ldr	r2, [pc, #432]	; (8006ec4 <_printf_i+0x22c>)
 8006d12:	e030      	b.n	8006d76 <_printf_i+0xde>
 8006d14:	000e      	movs	r6, r1
 8006d16:	681a      	ldr	r2, [r3, #0]
 8006d18:	3642      	adds	r6, #66	; 0x42
 8006d1a:	1d11      	adds	r1, r2, #4
 8006d1c:	6019      	str	r1, [r3, #0]
 8006d1e:	6813      	ldr	r3, [r2, #0]
 8006d20:	7033      	strb	r3, [r6, #0]
 8006d22:	2301      	movs	r3, #1
 8006d24:	e079      	b.n	8006e1a <_printf_i+0x182>
 8006d26:	0649      	lsls	r1, r1, #25
 8006d28:	d5d9      	bpl.n	8006cde <_printf_i+0x46>
 8006d2a:	1d11      	adds	r1, r2, #4
 8006d2c:	6019      	str	r1, [r3, #0]
 8006d2e:	2300      	movs	r3, #0
 8006d30:	5ed5      	ldrsh	r5, [r2, r3]
 8006d32:	2d00      	cmp	r5, #0
 8006d34:	da03      	bge.n	8006d3e <_printf_i+0xa6>
 8006d36:	232d      	movs	r3, #45	; 0x2d
 8006d38:	9a04      	ldr	r2, [sp, #16]
 8006d3a:	426d      	negs	r5, r5
 8006d3c:	7013      	strb	r3, [r2, #0]
 8006d3e:	4b62      	ldr	r3, [pc, #392]	; (8006ec8 <_printf_i+0x230>)
 8006d40:	270a      	movs	r7, #10
 8006d42:	9303      	str	r3, [sp, #12]
 8006d44:	e02f      	b.n	8006da6 <_printf_i+0x10e>
 8006d46:	6820      	ldr	r0, [r4, #0]
 8006d48:	6819      	ldr	r1, [r3, #0]
 8006d4a:	0605      	lsls	r5, r0, #24
 8006d4c:	d503      	bpl.n	8006d56 <_printf_i+0xbe>
 8006d4e:	1d08      	adds	r0, r1, #4
 8006d50:	6018      	str	r0, [r3, #0]
 8006d52:	680d      	ldr	r5, [r1, #0]
 8006d54:	e005      	b.n	8006d62 <_printf_i+0xca>
 8006d56:	0640      	lsls	r0, r0, #25
 8006d58:	d5f9      	bpl.n	8006d4e <_printf_i+0xb6>
 8006d5a:	680d      	ldr	r5, [r1, #0]
 8006d5c:	1d08      	adds	r0, r1, #4
 8006d5e:	6018      	str	r0, [r3, #0]
 8006d60:	b2ad      	uxth	r5, r5
 8006d62:	4b59      	ldr	r3, [pc, #356]	; (8006ec8 <_printf_i+0x230>)
 8006d64:	2708      	movs	r7, #8
 8006d66:	9303      	str	r3, [sp, #12]
 8006d68:	2a6f      	cmp	r2, #111	; 0x6f
 8006d6a:	d018      	beq.n	8006d9e <_printf_i+0x106>
 8006d6c:	270a      	movs	r7, #10
 8006d6e:	e016      	b.n	8006d9e <_printf_i+0x106>
 8006d70:	3145      	adds	r1, #69	; 0x45
 8006d72:	700a      	strb	r2, [r1, #0]
 8006d74:	4a54      	ldr	r2, [pc, #336]	; (8006ec8 <_printf_i+0x230>)
 8006d76:	9203      	str	r2, [sp, #12]
 8006d78:	681a      	ldr	r2, [r3, #0]
 8006d7a:	6821      	ldr	r1, [r4, #0]
 8006d7c:	1d10      	adds	r0, r2, #4
 8006d7e:	6018      	str	r0, [r3, #0]
 8006d80:	6815      	ldr	r5, [r2, #0]
 8006d82:	0608      	lsls	r0, r1, #24
 8006d84:	d522      	bpl.n	8006dcc <_printf_i+0x134>
 8006d86:	07cb      	lsls	r3, r1, #31
 8006d88:	d502      	bpl.n	8006d90 <_printf_i+0xf8>
 8006d8a:	2320      	movs	r3, #32
 8006d8c:	4319      	orrs	r1, r3
 8006d8e:	6021      	str	r1, [r4, #0]
 8006d90:	2710      	movs	r7, #16
 8006d92:	2d00      	cmp	r5, #0
 8006d94:	d103      	bne.n	8006d9e <_printf_i+0x106>
 8006d96:	2320      	movs	r3, #32
 8006d98:	6822      	ldr	r2, [r4, #0]
 8006d9a:	439a      	bics	r2, r3
 8006d9c:	6022      	str	r2, [r4, #0]
 8006d9e:	0023      	movs	r3, r4
 8006da0:	2200      	movs	r2, #0
 8006da2:	3343      	adds	r3, #67	; 0x43
 8006da4:	701a      	strb	r2, [r3, #0]
 8006da6:	6863      	ldr	r3, [r4, #4]
 8006da8:	60a3      	str	r3, [r4, #8]
 8006daa:	2b00      	cmp	r3, #0
 8006dac:	db5c      	blt.n	8006e68 <_printf_i+0x1d0>
 8006dae:	2204      	movs	r2, #4
 8006db0:	6821      	ldr	r1, [r4, #0]
 8006db2:	4391      	bics	r1, r2
 8006db4:	6021      	str	r1, [r4, #0]
 8006db6:	2d00      	cmp	r5, #0
 8006db8:	d158      	bne.n	8006e6c <_printf_i+0x1d4>
 8006dba:	9e04      	ldr	r6, [sp, #16]
 8006dbc:	2b00      	cmp	r3, #0
 8006dbe:	d064      	beq.n	8006e8a <_printf_i+0x1f2>
 8006dc0:	0026      	movs	r6, r4
 8006dc2:	9b03      	ldr	r3, [sp, #12]
 8006dc4:	3642      	adds	r6, #66	; 0x42
 8006dc6:	781b      	ldrb	r3, [r3, #0]
 8006dc8:	7033      	strb	r3, [r6, #0]
 8006dca:	e05e      	b.n	8006e8a <_printf_i+0x1f2>
 8006dcc:	0648      	lsls	r0, r1, #25
 8006dce:	d5da      	bpl.n	8006d86 <_printf_i+0xee>
 8006dd0:	b2ad      	uxth	r5, r5
 8006dd2:	e7d8      	b.n	8006d86 <_printf_i+0xee>
 8006dd4:	6809      	ldr	r1, [r1, #0]
 8006dd6:	681a      	ldr	r2, [r3, #0]
 8006dd8:	0608      	lsls	r0, r1, #24
 8006dda:	d505      	bpl.n	8006de8 <_printf_i+0x150>
 8006ddc:	1d11      	adds	r1, r2, #4
 8006dde:	6019      	str	r1, [r3, #0]
 8006de0:	6813      	ldr	r3, [r2, #0]
 8006de2:	6962      	ldr	r2, [r4, #20]
 8006de4:	601a      	str	r2, [r3, #0]
 8006de6:	e006      	b.n	8006df6 <_printf_i+0x15e>
 8006de8:	0649      	lsls	r1, r1, #25
 8006dea:	d5f7      	bpl.n	8006ddc <_printf_i+0x144>
 8006dec:	1d11      	adds	r1, r2, #4
 8006dee:	6019      	str	r1, [r3, #0]
 8006df0:	6813      	ldr	r3, [r2, #0]
 8006df2:	8aa2      	ldrh	r2, [r4, #20]
 8006df4:	801a      	strh	r2, [r3, #0]
 8006df6:	2300      	movs	r3, #0
 8006df8:	9e04      	ldr	r6, [sp, #16]
 8006dfa:	6123      	str	r3, [r4, #16]
 8006dfc:	e054      	b.n	8006ea8 <_printf_i+0x210>
 8006dfe:	681a      	ldr	r2, [r3, #0]
 8006e00:	1d11      	adds	r1, r2, #4
 8006e02:	6019      	str	r1, [r3, #0]
 8006e04:	6816      	ldr	r6, [r2, #0]
 8006e06:	2100      	movs	r1, #0
 8006e08:	6862      	ldr	r2, [r4, #4]
 8006e0a:	0030      	movs	r0, r6
 8006e0c:	f000 f85e 	bl	8006ecc <memchr>
 8006e10:	2800      	cmp	r0, #0
 8006e12:	d001      	beq.n	8006e18 <_printf_i+0x180>
 8006e14:	1b80      	subs	r0, r0, r6
 8006e16:	6060      	str	r0, [r4, #4]
 8006e18:	6863      	ldr	r3, [r4, #4]
 8006e1a:	6123      	str	r3, [r4, #16]
 8006e1c:	2300      	movs	r3, #0
 8006e1e:	9a04      	ldr	r2, [sp, #16]
 8006e20:	7013      	strb	r3, [r2, #0]
 8006e22:	e041      	b.n	8006ea8 <_printf_i+0x210>
 8006e24:	6923      	ldr	r3, [r4, #16]
 8006e26:	0032      	movs	r2, r6
 8006e28:	9906      	ldr	r1, [sp, #24]
 8006e2a:	9805      	ldr	r0, [sp, #20]
 8006e2c:	9d07      	ldr	r5, [sp, #28]
 8006e2e:	47a8      	blx	r5
 8006e30:	1c43      	adds	r3, r0, #1
 8006e32:	d043      	beq.n	8006ebc <_printf_i+0x224>
 8006e34:	6823      	ldr	r3, [r4, #0]
 8006e36:	2500      	movs	r5, #0
 8006e38:	079b      	lsls	r3, r3, #30
 8006e3a:	d40f      	bmi.n	8006e5c <_printf_i+0x1c4>
 8006e3c:	9b09      	ldr	r3, [sp, #36]	; 0x24
 8006e3e:	68e0      	ldr	r0, [r4, #12]
 8006e40:	4298      	cmp	r0, r3
 8006e42:	da3d      	bge.n	8006ec0 <_printf_i+0x228>
 8006e44:	0018      	movs	r0, r3
 8006e46:	e03b      	b.n	8006ec0 <_printf_i+0x228>
 8006e48:	0022      	movs	r2, r4
 8006e4a:	2301      	movs	r3, #1
 8006e4c:	3219      	adds	r2, #25
 8006e4e:	9906      	ldr	r1, [sp, #24]
 8006e50:	9805      	ldr	r0, [sp, #20]
 8006e52:	9e07      	ldr	r6, [sp, #28]
 8006e54:	47b0      	blx	r6
 8006e56:	1c43      	adds	r3, r0, #1
 8006e58:	d030      	beq.n	8006ebc <_printf_i+0x224>
 8006e5a:	3501      	adds	r5, #1
 8006e5c:	68e3      	ldr	r3, [r4, #12]
 8006e5e:	9a09      	ldr	r2, [sp, #36]	; 0x24
 8006e60:	1a9b      	subs	r3, r3, r2
 8006e62:	429d      	cmp	r5, r3
 8006e64:	dbf0      	blt.n	8006e48 <_printf_i+0x1b0>
 8006e66:	e7e9      	b.n	8006e3c <_printf_i+0x1a4>
 8006e68:	2d00      	cmp	r5, #0
 8006e6a:	d0a9      	beq.n	8006dc0 <_printf_i+0x128>
 8006e6c:	9e04      	ldr	r6, [sp, #16]
 8006e6e:	0028      	movs	r0, r5
 8006e70:	0039      	movs	r1, r7
 8006e72:	f7f9 f9d9 	bl	8000228 <__aeabi_uidivmod>
 8006e76:	9b03      	ldr	r3, [sp, #12]
 8006e78:	3e01      	subs	r6, #1
 8006e7a:	5c5b      	ldrb	r3, [r3, r1]
 8006e7c:	0028      	movs	r0, r5
 8006e7e:	7033      	strb	r3, [r6, #0]
 8006e80:	0039      	movs	r1, r7
 8006e82:	f7f9 f94b 	bl	800011c <__udivsi3>
 8006e86:	1e05      	subs	r5, r0, #0
 8006e88:	d1f1      	bne.n	8006e6e <_printf_i+0x1d6>
 8006e8a:	2f08      	cmp	r7, #8
 8006e8c:	d109      	bne.n	8006ea2 <_printf_i+0x20a>
 8006e8e:	6823      	ldr	r3, [r4, #0]
 8006e90:	07db      	lsls	r3, r3, #31
 8006e92:	d506      	bpl.n	8006ea2 <_printf_i+0x20a>
 8006e94:	6863      	ldr	r3, [r4, #4]
 8006e96:	6922      	ldr	r2, [r4, #16]
 8006e98:	4293      	cmp	r3, r2
 8006e9a:	dc02      	bgt.n	8006ea2 <_printf_i+0x20a>
 8006e9c:	2330      	movs	r3, #48	; 0x30
 8006e9e:	3e01      	subs	r6, #1
 8006ea0:	7033      	strb	r3, [r6, #0]
 8006ea2:	9b04      	ldr	r3, [sp, #16]
 8006ea4:	1b9b      	subs	r3, r3, r6
 8006ea6:	6123      	str	r3, [r4, #16]
 8006ea8:	9b07      	ldr	r3, [sp, #28]
 8006eaa:	aa09      	add	r2, sp, #36	; 0x24
 8006eac:	9300      	str	r3, [sp, #0]
 8006eae:	0021      	movs	r1, r4
 8006eb0:	9b06      	ldr	r3, [sp, #24]
 8006eb2:	9805      	ldr	r0, [sp, #20]
 8006eb4:	f7ff fe82 	bl	8006bbc <_printf_common>
 8006eb8:	1c43      	adds	r3, r0, #1
 8006eba:	d1b3      	bne.n	8006e24 <_printf_i+0x18c>
 8006ebc:	2001      	movs	r0, #1
 8006ebe:	4240      	negs	r0, r0
 8006ec0:	b00b      	add	sp, #44	; 0x2c
 8006ec2:	bdf0      	pop	{r4, r5, r6, r7, pc}
 8006ec4:	08007696 	.word	0x08007696
 8006ec8:	08007685 	.word	0x08007685

08006ecc <memchr>:
 8006ecc:	b2c9      	uxtb	r1, r1
 8006ece:	1882      	adds	r2, r0, r2
 8006ed0:	4290      	cmp	r0, r2
 8006ed2:	d101      	bne.n	8006ed8 <memchr+0xc>
 8006ed4:	2000      	movs	r0, #0
 8006ed6:	4770      	bx	lr
 8006ed8:	7803      	ldrb	r3, [r0, #0]
 8006eda:	428b      	cmp	r3, r1
 8006edc:	d0fb      	beq.n	8006ed6 <memchr+0xa>
 8006ede:	3001      	adds	r0, #1
 8006ee0:	e7f6      	b.n	8006ed0 <memchr+0x4>

08006ee2 <memmove>:
 8006ee2:	b510      	push	{r4, lr}
 8006ee4:	4288      	cmp	r0, r1
 8006ee6:	d902      	bls.n	8006eee <memmove+0xc>
 8006ee8:	188b      	adds	r3, r1, r2
 8006eea:	4298      	cmp	r0, r3
 8006eec:	d308      	bcc.n	8006f00 <memmove+0x1e>
 8006eee:	2300      	movs	r3, #0
 8006ef0:	429a      	cmp	r2, r3
 8006ef2:	d007      	beq.n	8006f04 <memmove+0x22>
 8006ef4:	5ccc      	ldrb	r4, [r1, r3]
 8006ef6:	54c4      	strb	r4, [r0, r3]
 8006ef8:	3301      	adds	r3, #1
 8006efa:	e7f9      	b.n	8006ef0 <memmove+0xe>
 8006efc:	5c8b      	ldrb	r3, [r1, r2]
 8006efe:	5483      	strb	r3, [r0, r2]
 8006f00:	3a01      	subs	r2, #1
 8006f02:	d2fb      	bcs.n	8006efc <memmove+0x1a>
 8006f04:	bd10      	pop	{r4, pc}
	...

08006f08 <_free_r>:
 8006f08:	b570      	push	{r4, r5, r6, lr}
 8006f0a:	0005      	movs	r5, r0
 8006f0c:	2900      	cmp	r1, #0
 8006f0e:	d010      	beq.n	8006f32 <_free_r+0x2a>
 8006f10:	1f0c      	subs	r4, r1, #4
 8006f12:	6823      	ldr	r3, [r4, #0]
 8006f14:	2b00      	cmp	r3, #0
 8006f16:	da00      	bge.n	8006f1a <_free_r+0x12>
 8006f18:	18e4      	adds	r4, r4, r3
 8006f1a:	0028      	movs	r0, r5
 8006f1c:	f000 f8d4 	bl	80070c8 <__malloc_lock>
 8006f20:	4a1d      	ldr	r2, [pc, #116]	; (8006f98 <_free_r+0x90>)
 8006f22:	6813      	ldr	r3, [r2, #0]
 8006f24:	2b00      	cmp	r3, #0
 8006f26:	d105      	bne.n	8006f34 <_free_r+0x2c>
 8006f28:	6063      	str	r3, [r4, #4]
 8006f2a:	6014      	str	r4, [r2, #0]
 8006f2c:	0028      	movs	r0, r5
 8006f2e:	f000 f8cc 	bl	80070ca <__malloc_unlock>
 8006f32:	bd70      	pop	{r4, r5, r6, pc}
 8006f34:	42a3      	cmp	r3, r4
 8006f36:	d909      	bls.n	8006f4c <_free_r+0x44>
 8006f38:	6821      	ldr	r1, [r4, #0]
 8006f3a:	1860      	adds	r0, r4, r1
 8006f3c:	4283      	cmp	r3, r0
 8006f3e:	d1f3      	bne.n	8006f28 <_free_r+0x20>
 8006f40:	6818      	ldr	r0, [r3, #0]
 8006f42:	685b      	ldr	r3, [r3, #4]
 8006f44:	1841      	adds	r1, r0, r1
 8006f46:	6021      	str	r1, [r4, #0]
 8006f48:	e7ee      	b.n	8006f28 <_free_r+0x20>
 8006f4a:	0013      	movs	r3, r2
 8006f4c:	685a      	ldr	r2, [r3, #4]
 8006f4e:	2a00      	cmp	r2, #0
 8006f50:	d001      	beq.n	8006f56 <_free_r+0x4e>
 8006f52:	42a2      	cmp	r2, r4
 8006f54:	d9f9      	bls.n	8006f4a <_free_r+0x42>
 8006f56:	6819      	ldr	r1, [r3, #0]
 8006f58:	1858      	adds	r0, r3, r1
 8006f5a:	42a0      	cmp	r0, r4
 8006f5c:	d10b      	bne.n	8006f76 <_free_r+0x6e>
 8006f5e:	6820      	ldr	r0, [r4, #0]
 8006f60:	1809      	adds	r1, r1, r0
 8006f62:	1858      	adds	r0, r3, r1
 8006f64:	6019      	str	r1, [r3, #0]
 8006f66:	4282      	cmp	r2, r0
 8006f68:	d1e0      	bne.n	8006f2c <_free_r+0x24>
 8006f6a:	6810      	ldr	r0, [r2, #0]
 8006f6c:	6852      	ldr	r2, [r2, #4]
 8006f6e:	1841      	adds	r1, r0, r1
 8006f70:	6019      	str	r1, [r3, #0]
 8006f72:	605a      	str	r2, [r3, #4]
 8006f74:	e7da      	b.n	8006f2c <_free_r+0x24>
 8006f76:	42a0      	cmp	r0, r4
 8006f78:	d902      	bls.n	8006f80 <_free_r+0x78>
 8006f7a:	230c      	movs	r3, #12
 8006f7c:	602b      	str	r3, [r5, #0]
 8006f7e:	e7d5      	b.n	8006f2c <_free_r+0x24>
 8006f80:	6821      	ldr	r1, [r4, #0]
 8006f82:	1860      	adds	r0, r4, r1
 8006f84:	4282      	cmp	r2, r0
 8006f86:	d103      	bne.n	8006f90 <_free_r+0x88>
 8006f88:	6810      	ldr	r0, [r2, #0]
 8006f8a:	6852      	ldr	r2, [r2, #4]
 8006f8c:	1841      	adds	r1, r0, r1
 8006f8e:	6021      	str	r1, [r4, #0]
 8006f90:	6062      	str	r2, [r4, #4]
 8006f92:	605c      	str	r4, [r3, #4]
 8006f94:	e7ca      	b.n	8006f2c <_free_r+0x24>
 8006f96:	46c0      	nop			; (mov r8, r8)
 8006f98:	2000038c 	.word	0x2000038c

08006f9c <_malloc_r>:
 8006f9c:	2303      	movs	r3, #3
 8006f9e:	b570      	push	{r4, r5, r6, lr}
 8006fa0:	1ccd      	adds	r5, r1, #3
 8006fa2:	439d      	bics	r5, r3
 8006fa4:	3508      	adds	r5, #8
 8006fa6:	0006      	movs	r6, r0
 8006fa8:	2d0c      	cmp	r5, #12
 8006faa:	d21e      	bcs.n	8006fea <_malloc_r+0x4e>
 8006fac:	250c      	movs	r5, #12
 8006fae:	42a9      	cmp	r1, r5
 8006fb0:	d81d      	bhi.n	8006fee <_malloc_r+0x52>
 8006fb2:	0030      	movs	r0, r6
 8006fb4:	f000 f888 	bl	80070c8 <__malloc_lock>
 8006fb8:	4a25      	ldr	r2, [pc, #148]	; (8007050 <_malloc_r+0xb4>)
 8006fba:	6814      	ldr	r4, [r2, #0]
 8006fbc:	0021      	movs	r1, r4
 8006fbe:	2900      	cmp	r1, #0
 8006fc0:	d119      	bne.n	8006ff6 <_malloc_r+0x5a>
 8006fc2:	4c24      	ldr	r4, [pc, #144]	; (8007054 <_malloc_r+0xb8>)
 8006fc4:	6823      	ldr	r3, [r4, #0]
 8006fc6:	2b00      	cmp	r3, #0
 8006fc8:	d103      	bne.n	8006fd2 <_malloc_r+0x36>
 8006fca:	0030      	movs	r0, r6
 8006fcc:	f000 f86a 	bl	80070a4 <_sbrk_r>
 8006fd0:	6020      	str	r0, [r4, #0]
 8006fd2:	0029      	movs	r1, r5
 8006fd4:	0030      	movs	r0, r6
 8006fd6:	f000 f865 	bl	80070a4 <_sbrk_r>
 8006fda:	1c43      	adds	r3, r0, #1
 8006fdc:	d12c      	bne.n	8007038 <_malloc_r+0x9c>
 8006fde:	230c      	movs	r3, #12
 8006fe0:	0030      	movs	r0, r6
 8006fe2:	6033      	str	r3, [r6, #0]
 8006fe4:	f000 f871 	bl	80070ca <__malloc_unlock>
 8006fe8:	e003      	b.n	8006ff2 <_malloc_r+0x56>
 8006fea:	2d00      	cmp	r5, #0
 8006fec:	dadf      	bge.n	8006fae <_malloc_r+0x12>
 8006fee:	230c      	movs	r3, #12
 8006ff0:	6033      	str	r3, [r6, #0]
 8006ff2:	2000      	movs	r0, #0
 8006ff4:	bd70      	pop	{r4, r5, r6, pc}
 8006ff6:	680b      	ldr	r3, [r1, #0]
 8006ff8:	1b5b      	subs	r3, r3, r5
 8006ffa:	d41a      	bmi.n	8007032 <_malloc_r+0x96>
 8006ffc:	2b0b      	cmp	r3, #11
 8006ffe:	d903      	bls.n	8007008 <_malloc_r+0x6c>
 8007000:	600b      	str	r3, [r1, #0]
 8007002:	18cc      	adds	r4, r1, r3
 8007004:	6025      	str	r5, [r4, #0]
 8007006:	e003      	b.n	8007010 <_malloc_r+0x74>
 8007008:	428c      	cmp	r4, r1
 800700a:	d10e      	bne.n	800702a <_malloc_r+0x8e>
 800700c:	6863      	ldr	r3, [r4, #4]
 800700e:	6013      	str	r3, [r2, #0]
 8007010:	0030      	movs	r0, r6
 8007012:	f000 f85a 	bl	80070ca <__malloc_unlock>
 8007016:	0020      	movs	r0, r4
 8007018:	2207      	movs	r2, #7
 800701a:	300b      	adds	r0, #11
 800701c:	1d23      	adds	r3, r4, #4
 800701e:	4390      	bics	r0, r2
 8007020:	1ac3      	subs	r3, r0, r3
 8007022:	d0e7      	beq.n	8006ff4 <_malloc_r+0x58>
 8007024:	425a      	negs	r2, r3
 8007026:	50e2      	str	r2, [r4, r3]
 8007028:	e7e4      	b.n	8006ff4 <_malloc_r+0x58>
 800702a:	684b      	ldr	r3, [r1, #4]
 800702c:	6063      	str	r3, [r4, #4]
 800702e:	000c      	movs	r4, r1
 8007030:	e7ee      	b.n	8007010 <_malloc_r+0x74>
 8007032:	000c      	movs	r4, r1
 8007034:	6849      	ldr	r1, [r1, #4]
 8007036:	e7c2      	b.n	8006fbe <_malloc_r+0x22>
 8007038:	2303      	movs	r3, #3
 800703a:	1cc4      	adds	r4, r0, #3
 800703c:	439c      	bics	r4, r3
 800703e:	42a0      	cmp	r0, r4
 8007040:	d0e0      	beq.n	8007004 <_malloc_r+0x68>
 8007042:	1a21      	subs	r1, r4, r0
 8007044:	0030      	movs	r0, r6
 8007046:	f000 f82d 	bl	80070a4 <_sbrk_r>
 800704a:	1c43      	adds	r3, r0, #1
 800704c:	d1da      	bne.n	8007004 <_malloc_r+0x68>
 800704e:	e7c6      	b.n	8006fde <_malloc_r+0x42>
 8007050:	2000038c 	.word	0x2000038c
 8007054:	20000390 	.word	0x20000390

08007058 <_realloc_r>:
 8007058:	b5f8      	push	{r3, r4, r5, r6, r7, lr}
 800705a:	0007      	movs	r7, r0
 800705c:	000d      	movs	r5, r1
 800705e:	0016      	movs	r6, r2
 8007060:	2900      	cmp	r1, #0
 8007062:	d105      	bne.n	8007070 <_realloc_r+0x18>
 8007064:	0011      	movs	r1, r2
 8007066:	f7ff ff99 	bl	8006f9c <_malloc_r>
 800706a:	0004      	movs	r4, r0
 800706c:	0020      	movs	r0, r4
 800706e:	bdf8      	pop	{r3, r4, r5, r6, r7, pc}
 8007070:	2a00      	cmp	r2, #0
 8007072:	d103      	bne.n	800707c <_realloc_r+0x24>
 8007074:	f7ff ff48 	bl	8006f08 <_free_r>
 8007078:	0034      	movs	r4, r6
 800707a:	e7f7      	b.n	800706c <_realloc_r+0x14>
 800707c:	f000 f826 	bl	80070cc <_malloc_usable_size_r>
 8007080:	002c      	movs	r4, r5
 8007082:	4286      	cmp	r6, r0
 8007084:	d9f2      	bls.n	800706c <_realloc_r+0x14>
 8007086:	0031      	movs	r1, r6
 8007088:	0038      	movs	r0, r7
 800708a:	f7ff ff87 	bl	8006f9c <_malloc_r>
 800708e:	1e04      	subs	r4, r0, #0
 8007090:	d0ec      	beq.n	800706c <_realloc_r+0x14>
 8007092:	0029      	movs	r1, r5
 8007094:	0032      	movs	r2, r6
 8007096:	f7ff fbe1 	bl	800685c <memcpy>
 800709a:	0029      	movs	r1, r5
 800709c:	0038      	movs	r0, r7
 800709e:	f7ff ff33 	bl	8006f08 <_free_r>
 80070a2:	e7e3      	b.n	800706c <_realloc_r+0x14>

080070a4 <_sbrk_r>:
 80070a4:	2300      	movs	r3, #0
 80070a6:	b570      	push	{r4, r5, r6, lr}
 80070a8:	4c06      	ldr	r4, [pc, #24]	; (80070c4 <_sbrk_r+0x20>)
 80070aa:	0005      	movs	r5, r0
 80070ac:	0008      	movs	r0, r1
 80070ae:	6023      	str	r3, [r4, #0]
 80070b0:	f000 f814 	bl	80070dc <_sbrk>
 80070b4:	1c43      	adds	r3, r0, #1
 80070b6:	d103      	bne.n	80070c0 <_sbrk_r+0x1c>
 80070b8:	6823      	ldr	r3, [r4, #0]
 80070ba:	2b00      	cmp	r3, #0
 80070bc:	d000      	beq.n	80070c0 <_sbrk_r+0x1c>
 80070be:	602b      	str	r3, [r5, #0]
 80070c0:	bd70      	pop	{r4, r5, r6, pc}
 80070c2:	46c0      	nop			; (mov r8, r8)
 80070c4:	200007d8 	.word	0x200007d8

080070c8 <__malloc_lock>:
 80070c8:	4770      	bx	lr

080070ca <__malloc_unlock>:
 80070ca:	4770      	bx	lr

080070cc <_malloc_usable_size_r>:
 80070cc:	1f0b      	subs	r3, r1, #4
 80070ce:	681b      	ldr	r3, [r3, #0]
 80070d0:	1f18      	subs	r0, r3, #4
 80070d2:	2b00      	cmp	r3, #0
 80070d4:	da01      	bge.n	80070da <_malloc_usable_size_r+0xe>
 80070d6:	580b      	ldr	r3, [r1, r0]
 80070d8:	18c0      	adds	r0, r0, r3
 80070da:	4770      	bx	lr

080070dc <_sbrk>:
 80070dc:	4b05      	ldr	r3, [pc, #20]	; (80070f4 <_sbrk+0x18>)
 80070de:	0002      	movs	r2, r0
 80070e0:	6819      	ldr	r1, [r3, #0]
 80070e2:	2900      	cmp	r1, #0
 80070e4:	d101      	bne.n	80070ea <_sbrk+0xe>
 80070e6:	4904      	ldr	r1, [pc, #16]	; (80070f8 <_sbrk+0x1c>)
 80070e8:	6019      	str	r1, [r3, #0]
 80070ea:	6818      	ldr	r0, [r3, #0]
 80070ec:	1882      	adds	r2, r0, r2
 80070ee:	601a      	str	r2, [r3, #0]
 80070f0:	4770      	bx	lr
 80070f2:	46c0      	nop			; (mov r8, r8)
 80070f4:	20000394 	.word	0x20000394
 80070f8:	200007dc 	.word	0x200007dc

080070fc <_init>:
 80070fc:	b5f8      	push	{r3, r4, r5, r6, r7, lr}
 80070fe:	46c0      	nop			; (mov r8, r8)
 8007100:	bcf8      	pop	{r3, r4, r5, r6, r7}
 8007102:	bc08      	pop	{r3}
 8007104:	469e      	mov	lr, r3
 8007106:	4770      	bx	lr

08007108 <_fini>:
 8007108:	b5f8      	push	{r3, r4, r5, r6, r7, lr}
 800710a:	46c0      	nop			; (mov r8, r8)
 800710c:	bcf8      	pop	{r3, r4, r5, r6, r7}
 800710e:	bc08      	pop	{r3}
 8007110:	469e      	mov	lr, r3
 8007112:	4770      	bx	lr
